(lp0
(dp1
Vheaders
p2
(lp3
VGROUP_SET
p4
aVGROUP_VALUE
p5
aVGP
p6
aVW
p7
aVL
p8
aVW_PCT
p9
aVMIN
p10
aVFGM
p11
aVFGA
p12
aVFG_PCT
p13
aVFG3M
p14
aVFG3A
p15
aVFG3_PCT
p16
aVFTM
p17
aVFTA
p18
aVFT_PCT
p19
aVOREB
p20
aVDREB
p21
aVREB
p22
aVAST
p23
aVTOV
p24
aVSTL
p25
aVBLK
p26
aVBLKA
p27
aVPF
p28
aVPFD
p29
aVPTS
p30
aVPLUS_MINUS
p31
aVNBA_FANTASY_PTS
p32
aVDD2
p33
aVTD3
p34
aVGP_RANK
p35
aVW_RANK
p36
aVL_RANK
p37
aVW_PCT_RANK
p38
aVMIN_RANK
p39
aVFGM_RANK
p40
aVFGA_RANK
p41
aVFG_PCT_RANK
p42
aVFG3M_RANK
p43
aVFG3A_RANK
p44
aVFG3_PCT_RANK
p45
aVFTM_RANK
p46
aVFTA_RANK
p47
aVFT_PCT_RANK
p48
aVOREB_RANK
p49
aVDREB_RANK
p50
aVREB_RANK
p51
aVAST_RANK
p52
aVTOV_RANK
p53
aVSTL_RANK
p54
aVBLK_RANK
p55
aVBLKA_RANK
p56
aVPF_RANK
p57
aVPFD_RANK
p58
aVPTS_RANK
p59
aVPLUS_MINUS_RANK
p60
aVNBA_FANTASY_PTS_RANK
p61
aVDD2_RANK
p62
aVTD3_RANK
p63
aVCFID
p64
aVCFPARAMS
p65
asVrowSet
p66
(lp67
sVname
p68
VOverallPlayerDashboard
p69
sa(dp70
Vheaders
p71
(lp72
VGROUP_SET
p73
aVGROUP_VALUE
p74
aVGP
p75
ag7
ag8
aVW_PCT
p76
aVMIN
p77
aVFGM
p78
aVFGA
p79
aVFG_PCT
p80
aVFG3M
p81
aVFG3A
p82
aVFG3_PCT
p83
aVFTM
p84
aVFTA
p85
aVFT_PCT
p86
aVOREB
p87
aVDREB
p88
aVREB
p89
aVAST
p90
aVTOV
p91
aVSTL
p92
aVBLK
p93
aVBLKA
p94
aVPF
p95
aVPFD
p96
aVPTS
p97
aVPLUS_MINUS
p98
aVNBA_FANTASY_PTS
p99
aVDD2
p100
aVTD3
p101
aVGP_RANK
p102
aVW_RANK
p103
aVL_RANK
p104
aVW_PCT_RANK
p105
aVMIN_RANK
p106
aVFGM_RANK
p107
aVFGA_RANK
p108
aVFG_PCT_RANK
p109
aVFG3M_RANK
p110
aVFG3A_RANK
p111
aVFG3_PCT_RANK
p112
aVFTM_RANK
p113
aVFTA_RANK
p114
aVFT_PCT_RANK
p115
aVOREB_RANK
p116
aVDREB_RANK
p117
aVREB_RANK
p118
aVAST_RANK
p119
aVTOV_RANK
p120
aVSTL_RANK
p121
aVBLK_RANK
p122
aVBLKA_RANK
p123
aVPF_RANK
p124
aVPFD_RANK
p125
aVPTS_RANK
p126
aVPLUS_MINUS_RANK
p127
aVNBA_FANTASY_PTS_RANK
p128
aVDD2_RANK
p129
aVTD3_RANK
p130
aVCFID
p131
aVCFPARAMS
p132
asVrowSet
p133
(lp134
sVname
p135
VLast5PlayerDashboard
p136
sa(dp137
Vheaders
p138
(lp139
VGROUP_SET
p140
aVGROUP_VALUE
p141
aVGP
p142
ag7
ag8
aVW_PCT
p143
aVMIN
p144
aVFGM
p145
aVFGA
p146
aVFG_PCT
p147
aVFG3M
p148
aVFG3A
p149
aVFG3_PCT
p150
aVFTM
p151
aVFTA
p152
aVFT_PCT
p153
aVOREB
p154
aVDREB
p155
aVREB
p156
aVAST
p157
aVTOV
p158
aVSTL
p159
aVBLK
p160
aVBLKA
p161
aVPF
p162
aVPFD
p163
aVPTS
p164
aVPLUS_MINUS
p165
aVNBA_FANTASY_PTS
p166
aVDD2
p167
aVTD3
p168
aVGP_RANK
p169
aVW_RANK
p170
aVL_RANK
p171
aVW_PCT_RANK
p172
aVMIN_RANK
p173
aVFGM_RANK
p174
aVFGA_RANK
p175
aVFG_PCT_RANK
p176
aVFG3M_RANK
p177
aVFG3A_RANK
p178
aVFG3_PCT_RANK
p179
aVFTM_RANK
p180
aVFTA_RANK
p181
aVFT_PCT_RANK
p182
aVOREB_RANK
p183
aVDREB_RANK
p184
aVREB_RANK
p185
aVAST_RANK
p186
aVTOV_RANK
p187
aVSTL_RANK
p188
aVBLK_RANK
p189
aVBLKA_RANK
p190
aVPF_RANK
p191
aVPFD_RANK
p192
aVPTS_RANK
p193
aVPLUS_MINUS_RANK
p194
aVNBA_FANTASY_PTS_RANK
p195
aVDD2_RANK
p196
aVTD3_RANK
p197
aVCFID
p198
aVCFPARAMS
p199
asVrowSet
p200
(lp201
sVname
p202
VLast10PlayerDashboard
p203
sa(dp204
Vheaders
p205
(lp206
VGROUP_SET
p207
aVGROUP_VALUE
p208
aVGP
p209
ag7
ag8
aVW_PCT
p210
aVMIN
p211
aVFGM
p212
aVFGA
p213
aVFG_PCT
p214
aVFG3M
p215
aVFG3A
p216
aVFG3_PCT
p217
aVFTM
p218
aVFTA
p219
aVFT_PCT
p220
aVOREB
p221
aVDREB
p222
aVREB
p223
aVAST
p224
aVTOV
p225
aVSTL
p226
aVBLK
p227
aVBLKA
p228
aVPF
p229
aVPFD
p230
aVPTS
p231
aVPLUS_MINUS
p232
aVNBA_FANTASY_PTS
p233
aVDD2
p234
aVTD3
p235
aVGP_RANK
p236
aVW_RANK
p237
aVL_RANK
p238
aVW_PCT_RANK
p239
aVMIN_RANK
p240
aVFGM_RANK
p241
aVFGA_RANK
p242
aVFG_PCT_RANK
p243
aVFG3M_RANK
p244
aVFG3A_RANK
p245
aVFG3_PCT_RANK
p246
aVFTM_RANK
p247
aVFTA_RANK
p248
aVFT_PCT_RANK
p249
aVOREB_RANK
p250
aVDREB_RANK
p251
aVREB_RANK
p252
aVAST_RANK
p253
aVTOV_RANK
p254
aVSTL_RANK
p255
aVBLK_RANK
p256
aVBLKA_RANK
p257
aVPF_RANK
p258
aVPFD_RANK
p259
aVPTS_RANK
p260
aVPLUS_MINUS_RANK
p261
aVNBA_FANTASY_PTS_RANK
p262
aVDD2_RANK
p263
aVTD3_RANK
p264
aVCFID
p265
aVCFPARAMS
p266
asVrowSet
p267
(lp268
sVname
p269
VLast15PlayerDashboard
p270
sa(dp271
Vheaders
p272
(lp273
VGROUP_SET
p274
aVGROUP_VALUE
p275
aVGP
p276
ag7
ag8
aVW_PCT
p277
aVMIN
p278
aVFGM
p279
aVFGA
p280
aVFG_PCT
p281
aVFG3M
p282
aVFG3A
p283
aVFG3_PCT
p284
aVFTM
p285
aVFTA
p286
aVFT_PCT
p287
aVOREB
p288
aVDREB
p289
aVREB
p290
aVAST
p291
aVTOV
p292
aVSTL
p293
aVBLK
p294
aVBLKA
p295
aVPF
p296
aVPFD
p297
aVPTS
p298
aVPLUS_MINUS
p299
aVNBA_FANTASY_PTS
p300
aVDD2
p301
aVTD3
p302
aVGP_RANK
p303
aVW_RANK
p304
aVL_RANK
p305
aVW_PCT_RANK
p306
aVMIN_RANK
p307
aVFGM_RANK
p308
aVFGA_RANK
p309
aVFG_PCT_RANK
p310
aVFG3M_RANK
p311
aVFG3A_RANK
p312
aVFG3_PCT_RANK
p313
aVFTM_RANK
p314
aVFTA_RANK
p315
aVFT_PCT_RANK
p316
aVOREB_RANK
p317
aVDREB_RANK
p318
aVREB_RANK
p319
aVAST_RANK
p320
aVTOV_RANK
p321
aVSTL_RANK
p322
aVBLK_RANK
p323
aVBLKA_RANK
p324
aVPF_RANK
p325
aVPFD_RANK
p326
aVPTS_RANK
p327
aVPLUS_MINUS_RANK
p328
aVNBA_FANTASY_PTS_RANK
p329
aVDD2_RANK
p330
aVTD3_RANK
p331
aVCFID
p332
aVCFPARAMS
p333
asVrowSet
p334
(lp335
sVname
p336
VLast20PlayerDashboard
p337
sa(dp338
Vheaders
p339
(lp340
VGROUP_SET
p341
aVGROUP_VALUE
p342
aVGP
p343
ag7
ag8
aVW_PCT
p344
aVMIN
p345
aVFGM
p346
aVFGA
p347
aVFG_PCT
p348
aVFG3M
p349
aVFG3A
p350
aVFG3_PCT
p351
aVFTM
p352
aVFTA
p353
aVFT_PCT
p354
aVOREB
p355
aVDREB
p356
aVREB
p357
aVAST
p358
aVTOV
p359
aVSTL
p360
aVBLK
p361
aVBLKA
p362
aVPF
p363
aVPFD
p364
aVPTS
p365
aVPLUS_MINUS
p366
aVNBA_FANTASY_PTS
p367
aVDD2
p368
aVTD3
p369
aVGP_RANK
p370
aVW_RANK
p371
aVL_RANK
p372
aVW_PCT_RANK
p373
aVMIN_RANK
p374
aVFGM_RANK
p375
aVFGA_RANK
p376
aVFG_PCT_RANK
p377
aVFG3M_RANK
p378
aVFG3A_RANK
p379
aVFG3_PCT_RANK
p380
aVFTM_RANK
p381
aVFTA_RANK
p382
aVFT_PCT_RANK
p383
aVOREB_RANK
p384
aVDREB_RANK
p385
aVREB_RANK
p386
aVAST_RANK
p387
aVTOV_RANK
p388
aVSTL_RANK
p389
aVBLK_RANK
p390
aVBLKA_RANK
p391
aVPF_RANK
p392
aVPFD_RANK
p393
aVPTS_RANK
p394
aVPLUS_MINUS_RANK
p395
aVNBA_FANTASY_PTS_RANK
p396
aVDD2_RANK
p397
aVTD3_RANK
p398
aVCFID
p399
aVCFPARAMS
p400
asVrowSet
p401
(lp402
sVname
p403
VGameNumberPlayerDashboard
p404
sa.