(lp0
(dp1
Vheaders
p2
(lp3
VGROUP_SET
p4
aVGROUP_VALUE
p5
aVGP
p6
aVW
p7
aVL
p8
aVW_PCT
p9
aVMIN
p10
aVFGM
p11
aVFGA
p12
aVFG_PCT
p13
aVFG3M
p14
aVFG3A
p15
aVFG3_PCT
p16
aVFTM
p17
aVFTA
p18
aVFT_PCT
p19
aVOREB
p20
aVDREB
p21
aVREB
p22
aVAST
p23
aVTOV
p24
aVSTL
p25
aVBLK
p26
aVBLKA
p27
aVPF
p28
aVPFD
p29
aVPTS
p30
aVPLUS_MINUS
p31
aVNBA_FANTASY_PTS
p32
aVDD2
p33
aVTD3
p34
aVGP_RANK
p35
aVW_RANK
p36
aVL_RANK
p37
aVW_PCT_RANK
p38
aVMIN_RANK
p39
aVFGM_RANK
p40
aVFGA_RANK
p41
aVFG_PCT_RANK
p42
aVFG3M_RANK
p43
aVFG3A_RANK
p44
aVFG3_PCT_RANK
p45
aVFTM_RANK
p46
aVFTA_RANK
p47
aVFT_PCT_RANK
p48
aVOREB_RANK
p49
aVDREB_RANK
p50
aVREB_RANK
p51
aVAST_RANK
p52
aVTOV_RANK
p53
aVSTL_RANK
p54
aVBLK_RANK
p55
aVBLKA_RANK
p56
aVPF_RANK
p57
aVPFD_RANK
p58
aVPTS_RANK
p59
aVPLUS_MINUS_RANK
p60
aVNBA_FANTASY_PTS_RANK
p61
aVDD2_RANK
p62
aVTD3_RANK
p63
aVCFID
p64
aVCFPARAMS
p65
asVrowSet
p66
(lp67
(lp68
VOverall
p69
aV2017-18
p70
aI4
aI1
aI3
aF0.25
aF75.61666666666666
aI9
aI27
aF0.333
aI0
aI0
aF0.0
aI6
aI12
aF0.5
aI3
aI6
aI9
aI7
aI6
aI2
aI1
aI6
aI6
aI9
aI24
aI-43
aF48.3
aI0
aI0
aI1
aI1
aI1
aI1
aI1
aI1
aI1
aI1
aI1
aI1
aI1
aI1
aI1
aI1
aI1
aI1
aI1
aI1
aI1
aI1
aI1
aI1
aI1
aI1
aI1
aI1
aI1
aI1
aI1
aI34
aV2017-18
p71
aasVname
p72
VOverallPlayerDashboard
p73
sa(dp74
Vheaders
p75
(lp76
VGROUP_SET
p77
aVGROUP_VALUE
p78
aVGP
p79
ag7
ag8
aVW_PCT
p80
aVMIN
p81
aVFGM
p82
aVFGA
p83
aVFG_PCT
p84
aVFG3M
p85
aVFG3A
p86
aVFG3_PCT
p87
aVFTM
p88
aVFTA
p89
aVFT_PCT
p90
aVOREB
p91
aVDREB
p92
aVREB
p93
aVAST
p94
aVTOV
p95
aVSTL
p96
aVBLK
p97
aVBLKA
p98
aVPF
p99
aVPFD
p100
aVPTS
p101
aVPLUS_MINUS
p102
aVNBA_FANTASY_PTS
p103
aVDD2
p104
aVTD3
p105
aVGP_RANK
p106
aVW_RANK
p107
aVL_RANK
p108
aVW_PCT_RANK
p109
aVMIN_RANK
p110
aVFGM_RANK
p111
aVFGA_RANK
p112
aVFG_PCT_RANK
p113
aVFG3M_RANK
p114
aVFG3A_RANK
p115
aVFG3_PCT_RANK
p116
aVFTM_RANK
p117
aVFTA_RANK
p118
aVFT_PCT_RANK
p119
aVOREB_RANK
p120
aVDREB_RANK
p121
aVREB_RANK
p122
aVAST_RANK
p123
aVTOV_RANK
p124
aVSTL_RANK
p125
aVBLK_RANK
p126
aVBLKA_RANK
p127
aVPF_RANK
p128
aVPFD_RANK
p129
aVPTS_RANK
p130
aVPLUS_MINUS_RANK
p131
aVNBA_FANTASY_PTS_RANK
p132
aVDD2_RANK
p133
aVTD3_RANK
p134
aVCFID
p135
aVCFPARAMS
p136
asVrowSet
p137
(lp138
(lp139
VLast 5 Games
p140
aV2017-18
p141
aI4
aI1
aI3
aF0.25
aF75.61666666666666
aI9
aI27
aF0.333
aI0
aI0
aF0.0
aI6
aI12
aF0.5
aI3
aI6
aI9
aI7
aI6
aI2
aI1
aI6
aI6
aI9
aI24
aI-43
aF48.3
aI0
aI0
aI1
aI1
aI1
aI1
aI1
aI1
aI1
aI1
aI1
aI1
aI1
aI1
aI1
aI1
aI1
aI1
aI1
aI1
aI1
aI1
aI1
aI1
aI1
aI1
aI1
aI1
aI1
aI1
aI1
aI39
aV2017-18
p142
aasVname
p143
VLast5PlayerDashboard
p144
sa(dp145
Vheaders
p146
(lp147
VGROUP_SET
p148
aVGROUP_VALUE
p149
aVGP
p150
ag7
ag8
aVW_PCT
p151
aVMIN
p152
aVFGM
p153
aVFGA
p154
aVFG_PCT
p155
aVFG3M
p156
aVFG3A
p157
aVFG3_PCT
p158
aVFTM
p159
aVFTA
p160
aVFT_PCT
p161
aVOREB
p162
aVDREB
p163
aVREB
p164
aVAST
p165
aVTOV
p166
aVSTL
p167
aVBLK
p168
aVBLKA
p169
aVPF
p170
aVPFD
p171
aVPTS
p172
aVPLUS_MINUS
p173
aVNBA_FANTASY_PTS
p174
aVDD2
p175
aVTD3
p176
aVGP_RANK
p177
aVW_RANK
p178
aVL_RANK
p179
aVW_PCT_RANK
p180
aVMIN_RANK
p181
aVFGM_RANK
p182
aVFGA_RANK
p183
aVFG_PCT_RANK
p184
aVFG3M_RANK
p185
aVFG3A_RANK
p186
aVFG3_PCT_RANK
p187
aVFTM_RANK
p188
aVFTA_RANK
p189
aVFT_PCT_RANK
p190
aVOREB_RANK
p191
aVDREB_RANK
p192
aVREB_RANK
p193
aVAST_RANK
p194
aVTOV_RANK
p195
aVSTL_RANK
p196
aVBLK_RANK
p197
aVBLKA_RANK
p198
aVPF_RANK
p199
aVPFD_RANK
p200
aVPTS_RANK
p201
aVPLUS_MINUS_RANK
p202
aVNBA_FANTASY_PTS_RANK
p203
aVDD2_RANK
p204
aVTD3_RANK
p205
aVCFID
p206
aVCFPARAMS
p207
asVrowSet
p208
(lp209
(lp210
VLast 10 Games
p211
aV2017-18
p212
aI4
aI1
aI3
aF0.25
aF75.61666666666666
aI9
aI27
aF0.333
aI0
aI0
aF0.0
aI6
aI12
aF0.5
aI3
aI6
aI9
aI7
aI6
aI2
aI1
aI6
aI6
aI9
aI24
aI-43
aF48.3
aI0
aI0
aI1
aI1
aI1
aI1
aI1
aI1
aI1
aI1
aI1
aI1
aI1
aI1
aI1
aI1
aI1
aI1
aI1
aI1
aI1
aI1
aI1
aI1
aI1
aI1
aI1
aI1
aI1
aI1
aI1
aI36
aV2017-18
p213
aasVname
p214
VLast10PlayerDashboard
p215
sa(dp216
Vheaders
p217
(lp218
VGROUP_SET
p219
aVGROUP_VALUE
p220
aVGP
p221
ag7
ag8
aVW_PCT
p222
aVMIN
p223
aVFGM
p224
aVFGA
p225
aVFG_PCT
p226
aVFG3M
p227
aVFG3A
p228
aVFG3_PCT
p229
aVFTM
p230
aVFTA
p231
aVFT_PCT
p232
aVOREB
p233
aVDREB
p234
aVREB
p235
aVAST
p236
aVTOV
p237
aVSTL
p238
aVBLK
p239
aVBLKA
p240
aVPF
p241
aVPFD
p242
aVPTS
p243
aVPLUS_MINUS
p244
aVNBA_FANTASY_PTS
p245
aVDD2
p246
aVTD3
p247
aVGP_RANK
p248
aVW_RANK
p249
aVL_RANK
p250
aVW_PCT_RANK
p251
aVMIN_RANK
p252
aVFGM_RANK
p253
aVFGA_RANK
p254
aVFG_PCT_RANK
p255
aVFG3M_RANK
p256
aVFG3A_RANK
p257
aVFG3_PCT_RANK
p258
aVFTM_RANK
p259
aVFTA_RANK
p260
aVFT_PCT_RANK
p261
aVOREB_RANK
p262
aVDREB_RANK
p263
aVREB_RANK
p264
aVAST_RANK
p265
aVTOV_RANK
p266
aVSTL_RANK
p267
aVBLK_RANK
p268
aVBLKA_RANK
p269
aVPF_RANK
p270
aVPFD_RANK
p271
aVPTS_RANK
p272
aVPLUS_MINUS_RANK
p273
aVNBA_FANTASY_PTS_RANK
p274
aVDD2_RANK
p275
aVTD3_RANK
p276
aVCFID
p277
aVCFPARAMS
p278
asVrowSet
p279
(lp280
(lp281
VLast 15 Games
p282
aV2017-18
p283
aI4
aI1
aI3
aF0.25
aF75.61666666666666
aI9
aI27
aF0.333
aI0
aI0
aF0.0
aI6
aI12
aF0.5
aI3
aI6
aI9
aI7
aI6
aI2
aI1
aI6
aI6
aI9
aI24
aI-43
aF48.3
aI0
aI0
aI1
aI1
aI1
aI1
aI1
aI1
aI1
aI1
aI1
aI1
aI1
aI1
aI1
aI1
aI1
aI1
aI1
aI1
aI1
aI1
aI1
aI1
aI1
aI1
aI1
aI1
aI1
aI1
aI1
aI37
aV2017-18
p284
aasVname
p285
VLast15PlayerDashboard
p286
sa(dp287
Vheaders
p288
(lp289
VGROUP_SET
p290
aVGROUP_VALUE
p291
aVGP
p292
ag7
ag8
aVW_PCT
p293
aVMIN
p294
aVFGM
p295
aVFGA
p296
aVFG_PCT
p297
aVFG3M
p298
aVFG3A
p299
aVFG3_PCT
p300
aVFTM
p301
aVFTA
p302
aVFT_PCT
p303
aVOREB
p304
aVDREB
p305
aVREB
p306
aVAST
p307
aVTOV
p308
aVSTL
p309
aVBLK
p310
aVBLKA
p311
aVPF
p312
aVPFD
p313
aVPTS
p314
aVPLUS_MINUS
p315
aVNBA_FANTASY_PTS
p316
aVDD2
p317
aVTD3
p318
aVGP_RANK
p319
aVW_RANK
p320
aVL_RANK
p321
aVW_PCT_RANK
p322
aVMIN_RANK
p323
aVFGM_RANK
p324
aVFGA_RANK
p325
aVFG_PCT_RANK
p326
aVFG3M_RANK
p327
aVFG3A_RANK
p328
aVFG3_PCT_RANK
p329
aVFTM_RANK
p330
aVFTA_RANK
p331
aVFT_PCT_RANK
p332
aVOREB_RANK
p333
aVDREB_RANK
p334
aVREB_RANK
p335
aVAST_RANK
p336
aVTOV_RANK
p337
aVSTL_RANK
p338
aVBLK_RANK
p339
aVBLKA_RANK
p340
aVPF_RANK
p341
aVPFD_RANK
p342
aVPTS_RANK
p343
aVPLUS_MINUS_RANK
p344
aVNBA_FANTASY_PTS_RANK
p345
aVDD2_RANK
p346
aVTD3_RANK
p347
aVCFID
p348
aVCFPARAMS
p349
asVrowSet
p350
(lp351
(lp352
VLast 20 Games
p353
aV2017-18
p354
aI4
aI1
aI3
aF0.25
aF75.61666666666666
aI9
aI27
aF0.333
aI0
aI0
aF0.0
aI6
aI12
aF0.5
aI3
aI6
aI9
aI7
aI6
aI2
aI1
aI6
aI6
aI9
aI24
aI-43
aF48.3
aI0
aI0
aI1
aI1
aI1
aI1
aI1
aI1
aI1
aI1
aI1
aI1
aI1
aI1
aI1
aI1
aI1
aI1
aI1
aI1
aI1
aI1
aI1
aI1
aI1
aI1
aI1
aI1
aI1
aI1
aI1
aI38
aV2017-18
p355
aasVname
p356
VLast20PlayerDashboard
p357
sa(dp358
Vheaders
p359
(lp360
VGROUP_SET
p361
aVGROUP_VALUE
p362
aVGP
p363
ag7
ag8
aVW_PCT
p364
aVMIN
p365
aVFGM
p366
aVFGA
p367
aVFG_PCT
p368
aVFG3M
p369
aVFG3A
p370
aVFG3_PCT
p371
aVFTM
p372
aVFTA
p373
aVFT_PCT
p374
aVOREB
p375
aVDREB
p376
aVREB
p377
aVAST
p378
aVTOV
p379
aVSTL
p380
aVBLK
p381
aVBLKA
p382
aVPF
p383
aVPFD
p384
aVPTS
p385
aVPLUS_MINUS
p386
aVNBA_FANTASY_PTS
p387
aVDD2
p388
aVTD3
p389
aVGP_RANK
p390
aVW_RANK
p391
aVL_RANK
p392
aVW_PCT_RANK
p393
aVMIN_RANK
p394
aVFGM_RANK
p395
aVFGA_RANK
p396
aVFG_PCT_RANK
p397
aVFG3M_RANK
p398
aVFG3A_RANK
p399
aVFG3_PCT_RANK
p400
aVFTM_RANK
p401
aVFTA_RANK
p402
aVFT_PCT_RANK
p403
aVOREB_RANK
p404
aVDREB_RANK
p405
aVREB_RANK
p406
aVAST_RANK
p407
aVTOV_RANK
p408
aVSTL_RANK
p409
aVBLK_RANK
p410
aVBLKA_RANK
p411
aVPF_RANK
p412
aVPFD_RANK
p413
aVPTS_RANK
p414
aVPLUS_MINUS_RANK
p415
aVNBA_FANTASY_PTS_RANK
p416
aVDD2_RANK
p417
aVTD3_RANK
p418
aVCFID
p419
aVCFPARAMS
p420
asVrowSet
p421
(lp422
(lp423
VGame Number
p424
aVGames 1-10
p425
aI4
aI1
aI3
aF0.25
aF75.61666666666666
aI9
aI27
aF0.333
aI0
aI0
aF0.0
aI6
aI12
aF0.5
aI3
aI6
aI9
aI7
aI6
aI2
aI1
aI6
aI6
aI9
aI24
aI-43
aF48.3
aI0
aI0
aI1
aI1
aI1
aI1
aI1
aI1
aI1
aI1
aI1
aI1
aI1
aI1
aI1
aI1
aI1
aI1
aI1
aI1
aI1
aI1
aI1
aI1
aI1
aI1
aI1
aI1
aI1
aI1
aI1
aI35
aVGames 1-10
p426
aasVname
p427
VGameNumberPlayerDashboard
p428
sa.