(dp0
I203095
(dp1
VSCHOOL
p2
VFrance
p3
sVWEIGHT
p4
V205
p5
sVSEASON
p6
V2017
p7
sVAGE
p8
F25.0
sVBIRTH_DATE
p9
VOCT 29, 1992
p10
sVHEIGHT
p11
V6-7
p12
sVPLAYER
p13
VEvan Fournier
p14
sVTeamID
p15
I1610612753
sVNUM
p16
V10
p17
sVEXP
p18
V5
p19
sVLeagueID
p20
V00
p21
sVPOSITION
p22
VF-G
p23
sVPLAYER_ID
p24
I203095
ssI1626143
(dp25
VSCHOOL
p26
VDuke
p27
sVWEIGHT
p28
V260
p29
sVSEASON
p30
V2017
p31
sVAGE
p32
F21.0
sVBIRTH_DATE
p33
VDEC 15, 1995
p34
sVHEIGHT
p35
V6-11
p36
sVPLAYER
p37
VJahlil Okafor
p38
sVTeamID
p39
I1610612755
sVNUM
p40
V8
p41
sVEXP
p42
V2
p43
sVLeagueID
p44
V00
p45
sVPOSITION
p46
VC
p47
sVPLAYER_ID
p48
I1626143
ssI1626144
(dp49
VSCHOOL
p50
NsVWEIGHT
p51
V200
p52
sVSEASON
p53
V2017
p54
sVAGE
p55
F21.0
sVBIRTH_DATE
p56
VMAR 05, 1996
p57
sVHEIGHT
p58
V6-5
p59
sVPLAYER
p60
VEmmanuel Mudiay
p61
sVTeamID
p62
I1610612743
sVNUM
p63
V0
p64
sVEXP
p65
g43
sVLeagueID
p66
V00
p67
sVPOSITION
p68
VG
p69
sVPLAYER_ID
p70
I1626144
ssI1626145
(dp71
VSCHOOL
p72
VDuke
p73
sVWEIGHT
p74
V184
p75
sVSEASON
p76
V2017
p77
sVAGE
p78
F21.0
sVBIRTH_DATE
p79
VMAY 10, 1996
p80
sVHEIGHT
p81
V6-2
p82
sVPLAYER
p83
VTyus Jones
p84
sVTeamID
p85
I1610612750
sVNUM
p86
V1
p87
sVEXP
p88
g43
sVLeagueID
p89
V00
p90
sVPOSITION
p91
g69
sVPLAYER_ID
p92
I1626145
ssI1626147
(dp93
g26
VVirginia
p94
sg28
V230
p95
sg30
V2017
p96
sg32
F23.0
sg33
VNOV 19, 1993
p97
sg35
V6-6
p98
sg37
VJustin Anderson
p99
sg39
I1610612755
sg40
g87
sg42
g43
sg44
V00
p100
sg46
VG-F
p101
sg48
I1626147
ssI1626148
(dp102
g72
VStanford
p103
sg74
V224
p104
sg76
V2017
p105
sg78
F25.0
sg79
VOCT 10, 1992
p106
sg81
V6-7
p107
sg83
VAnthony Brown
p108
sg85
I1610612750
sg86
V3
p109
sg88
g43
sg89
V00
p110
sg91
VF
p111
sg92
I1626148
ssI1626149
(dp112
VSCHOOL
p113
VLouisville
p114
sVWEIGHT
p115
V240
p116
sVSEASON
p117
V2017
p118
sVAGE
p119
F23.0
sVBIRTH_DATE
p120
VJAN 26, 1994
p121
sVHEIGHT
p122
V6-8
p123
sVPLAYER
p124
VMontrezl Harrell
p125
sVTeamID
p126
I1610612746
sVNUM
p127
g19
sVEXP
p128
g43
sVLeagueID
p129
V00
p130
sVPOSITION
p131
VF-C
p132
sVPLAYER_ID
p133
I1626149
ssI1626150
(dp134
VSCHOOL
p135
VKentucky
p136
sVWEIGHT
p137
V213
p138
sVSEASON
p139
V2017
p140
sVAGE
p141
F23.0
sVBIRTH_DATE
p142
VOCT 28, 1994
p143
sVHEIGHT
p144
V6-6
p145
sVPLAYER
p146
VAndrew Harrison
p147
sVTeamID
p148
I1610612763
sVNUM
p149
g19
sVEXP
p150
g87
sVLeagueID
p151
V00
p152
sVPOSITION
p153
g69
sVPLAYER_ID
p154
I1626150
ssI1626153
(dp155
VSCHOOL
p156
VUtah
p157
sVWEIGHT
p158
V190
p159
sVSEASON
p160
V2017
p161
sVAGE
p162
F25.0
sVBIRTH_DATE
p163
VAPR 26, 1992
p164
sVHEIGHT
p165
V6-5
p166
sVPLAYER
p167
VDelon Wright
p168
sVTeamID
p169
I1610612761
sVNUM
p170
V55
p171
sVEXP
p172
g43
sVLeagueID
p173
V00
p174
sVPOSITION
p175
g69
sVPLAYER_ID
p176
I1626153
ssI200746
(dp177
VSCHOOL
p178
VTexas
p179
sVWEIGHT
p180
V260
p181
sVSEASON
p182
V2017
p183
sVAGE
p184
F32.0
sVBIRTH_DATE
p185
VJUL 19, 1985
p186
sVHEIGHT
p187
V6-11
p188
sVPLAYER
p189
VLaMarcus Aldridge
p190
sVTeamID
p191
I1610612759
sVNUM
p192
V12
p193
sVEXP
p194
V11
p195
sVLeagueID
p196
V00
p197
sVPOSITION
p198
g111
sVPLAYER_ID
p199
I200746
ssI1626155
(dp200
g113
VWisconsin
p201
sg115
V230
p202
sg117
V2017
p203
sg119
F23.0
sg120
VMAY 08, 1994
p204
sg122
V6-9
p205
sg124
VSam Dekker
p206
sg126
I1610612746
sg127
V7
p207
sg128
g43
sg129
V00
p208
sg131
g111
sg133
I1626155
ssI1626156
(dp209
VSCHOOL
p210
VOhio State
p211
sVWEIGHT
p212
V195
p213
sVSEASON
p214
V2017
p215
sVAGE
p216
F21.0
sVBIRTH_DATE
p217
VFEB 23, 1996
p218
sVHEIGHT
p219
V6-5
p220
sVPLAYER
p221
VD'Angelo Russell
p222
sVTeamID
p223
I1610612751
sVNUM
p224
g87
sVEXP
p225
g43
sVLeagueID
p226
V00
p227
sVPOSITION
p228
g69
sVPLAYER_ID
p229
I1626156
ssI1626157
(dp230
g72
VKentucky
p231
sg74
V248
p232
sg76
V2017
p233
sg78
F21.0
sg79
VNOV 15, 1995
p234
sg81
V7-0
p235
sg83
VKarl-Anthony Towns
p236
sg85
I1610612750
sg86
V32
p237
sg88
g43
sg89
V00
p238
sg91
g47
sg92
I1626157
ssI1626158
(dp239
g26
VBowling Green
p240
sg28
V235
p241
sg30
V2017
p242
sg32
F24.0
sg33
VOCT 15, 1993
p243
sg35
V6-10
p244
sg37
VRichaun Holmes
p245
sg39
I1610612755
sg40
V22
p246
sg42
g43
sg44
V00
p247
sg46
VF-C
p248
sg48
I1626158
ssI1626159
(dp249
VSCHOOL
p250
VDuke
p251
sVWEIGHT
p252
V225
p253
sVSEASON
p254
V2017
p255
sVAGE
p256
F21.0
sVBIRTH_DATE
p257
VMAR 26, 1996
p258
sVHEIGHT
p259
V6-7
p260
sVPLAYER
p261
VJustise Winslow
p262
sVTeamID
p263
I1610612748
sVNUM
p264
V20
p265
sVEXP
p266
g43
sVLeagueID
p267
V00
p268
sVPOSITION
p269
g111
sVPLAYER_ID
p270
I1626159
ssI200752
(dp271
g178
VConnecticut
p272
sg180
V230
p273
sg182
V2017
p274
sg184
F31.0
sg185
VAUG 17, 1986
p275
sg187
V6-8
p276
sg189
VRudy Gay
p277
sg191
I1610612759
sg192
V22
p278
sg194
V11
p279
sg196
V00
p280
sg198
g111
sg199
I200752
ssI1626161
(dp281
VSCHOOL
p282
VKentucky
p283
sVWEIGHT
p284
V240
p285
sVSEASON
p286
V2017
p287
sVAGE
p288
F24.0
sVBIRTH_DATE
p289
VAUG 18, 1993
p290
sVHEIGHT
p291
V7-0
p292
sVPLAYER
p293
VWillie Cauley-Stein
p294
sVTeamID
p295
I1610612758
sVNUM
p296
V00
p297
sVEXP
p298
g43
sVLeagueID
p299
V00
p300
sVPOSITION
p301
g47
sVPLAYER_ID
p302
I1626161
ssI1627763
(dp303
VSCHOOL
p304
VVirginia
p305
sVWEIGHT
p306
V215
p307
sVSEASON
p308
V2017
p309
sVAGE
p310
F24.0
sVBIRTH_DATE
p311
VDEC 11, 1992
p312
sVHEIGHT
p313
V6-5
p314
sVPLAYER
p315
VMalcolm Brogdon
p316
sVTeamID
p317
I1610612749
sVNUM
p318
V13
p319
sVEXP
p320
g87
sVLeagueID
p321
V00
p322
sVPOSITION
p323
g69
sVPLAYER_ID
p324
I1627763
ssI200757
(dp325
VSCHOOL
p326
VVevey, Switzerland
p327
sVWEIGHT
p328
V220
p329
sVSEASON
p330
V2017
p331
sVAGE
p332
F33.0
sVBIRTH_DATE
p333
VMAY 02, 1984
p334
sVHEIGHT
p335
V6-7
p336
sVPLAYER
p337
VThabo Sefolosha
p338
sVTeamID
p339
I1610612762
sVNUM
p340
V22
p341
sVEXP
p342
V11
p343
sVLeagueID
p344
V00
p345
sVPOSITION
p346
g111
sVPLAYER_ID
p347
I200757
ssI1626166
(dp348
VSCHOOL
p349
VMurray State
p350
sVWEIGHT
p351
V185
p352
sVSEASON
p353
V2017
p354
sVAGE
p355
F23.0
sVBIRTH_DATE
p356
VAUG 08, 1994
p357
sVHEIGHT
p358
V6-3
p359
sVPLAYER
p360
VCameron Payne
p361
sVTeamID
p362
I1610612741
sVNUM
p363
V22
p364
sVEXP
p365
g43
sVLeagueID
p366
V00
p367
sVPOSITION
p368
g69
sVPLAYER_ID
p369
I1626166
ssI1626167
(dp370
VSCHOOL
p371
VTexas
p372
sVWEIGHT
p373
V255
p374
sVSEASON
p375
V2017
p376
sVAGE
p377
F21.0
sVBIRTH_DATE
p378
VMAR 24, 1996
p379
sVHEIGHT
p380
V6-11
p381
sVPLAYER
p382
VMyles Turner
p383
sVTeamID
p384
I1610612754
sVNUM
p385
V33
p386
sVEXP
p387
g43
sVLeagueID
p388
V00
p389
sVPOSITION
p390
g47
sVPLAYER_ID
p391
I1626167
ssI1626168
(dp392
g50
VKentucky
p393
sg51
V234
p394
sg53
V2017
p395
sg55
F22.0
sg56
VNOV 05, 1995
p396
sg58
V6-10
p397
sg60
VTrey Lyles
p398
sg62
I1610612743
sg63
g207
sg65
g43
sg66
V00
p399
sg68
g111
sg70
I1626168
ssI1626170
(dp400
g349
VNotre Dame
p401
sg351
V198
p402
sg353
V2017
p403
sg355
F25.0
sg356
VOCT 09, 1992
p404
sg358
V6-4
p405
sg360
VJerian Grant
p406
sg362
I1610612741
sg363
g43
sg365
g43
sg366
V00
p407
sg368
g69
sg369
I1626170
ssI1626171
(dp408
g349
VArkansas
p409
sg351
V248
p410
sg353
V2017
p411
sg355
F22.0
sg356
VFEB 10, 1995
p412
sg358
V6-11
p413
sg360
VBobby Portis
p414
sg362
I1610612741
sg363
g19
sg365
g43
sg366
V00
p415
sg368
g111
sg369
I1626171
ssI1626172
(dp416
VSCHOOL
p417
VUCLA
p418
sVWEIGHT
p419
V220
p420
sVSEASON
p421
V2017
p422
sVAGE
p423
F21.0
sVBIRTH_DATE
p424
VFEB 06, 1996
p425
sVHEIGHT
p426
V6-9
p427
sVPLAYER
p428
VKevon Looney
p429
sVTeamID
p430
I1610612744
sVNUM
p431
g19
sVEXP
p432
g43
sVLeagueID
p433
V00
p434
sVPOSITION
p435
g111
sVPLAYER_ID
p436
I1626172
ssI1626173
(dp437
g304
VUNLV
p438
sg306
V202
p439
sg308
V2017
p440
sg310
F21.0
sg311
VAUG 16, 1996
p441
sg313
V6-6
p442
sg315
VRashad Vaughn
p443
sg317
I1610612749
sg318
V20
p444
sg320
g43
sg321
V00
p445
sg323
g69
sg324
I1626173
ssI1626175
(dp446
g250
VLouisiana State
p447
sg252
V235
p448
sg254
V2017
p449
sg256
F23.0
sg257
VJUL 09, 1994
p450
sg259
V6-8
p451
sg261
VJordan Mickey
p452
sg263
I1610612748
sg264
V25
p453
sg266
g43
sg267
V00
p454
sg269
VC-F
p455
sg270
I1626175
ssI200768
(dp456
g156
VVillanova
p457
sg158
V205
p458
sg160
V2017
p459
sg162
F31.0
sg163
VMAR 25, 1986
p460
sg165
V6-0
p461
sg167
VKyle Lowry
p462
sg169
I1610612761
sg170
g207
sg172
V11
p463
sg173
V00
p464
sg175
g69
sg176
I200768
ssI1626177
(dp465
VSCHOOL
p466
VKentucky
p467
sVWEIGHT
p468
V255
p469
sVSEASON
p470
V2017
p471
sVAGE
p472
F22.0
sVBIRTH_DATE
p473
VSEP 22, 1995
p474
sVHEIGHT
p475
V7-0
p476
sVPLAYER
p477
VDakari Johnson
p478
sVTeamID
p479
I1610612760
sVNUM
p480
V44
p481
sVEXP
p482
VR
p483
sVLeagueID
p484
V00
p485
sVPOSITION
p486
g47
sVPLAYER_ID
p487
I1626177
ssI1626178
(dp488
g210
VArizona
p489
sg212
V214
p490
sg214
V2017
p491
sg216
F22.0
sg217
VJAN 03, 1995
p492
sg219
V6-7
p493
sg221
VRondae Hollis-Jefferson
p494
sg223
I1610612751
sg224
V24
p495
sg225
g43
sg226
V00
p496
sg228
g111
sg229
I1626178
ssI1626179
(dp497
VSCHOOL
p498
VLouisville
p499
sVWEIGHT
p500
V190
p501
sVSEASON
p502
V2017
p503
sVAGE
p504
F23.0
sVBIRTH_DATE
p505
VMAR 17, 1994
p506
sVHEIGHT
p507
V6-2
p508
sVPLAYER
p509
VTerry Rozier
p510
sVTeamID
p511
I1610612738
sVNUM
p512
V12
p513
sVEXP
p514
g43
sVLeagueID
p515
V00
p516
sVPOSITION
p517
g69
sVPLAYER_ID
p518
I1626179
ssI1626181
(dp519
g156
VUCLA
p520
sg158
V215
p521
sg160
V2017
p522
sg162
F24.0
sg163
VMAY 25, 1993
p523
sg165
V6-4
p524
sg167
VNorman Powell
p525
sg169
I1610612761
sg170
V24
p526
sg172
g43
sg173
V00
p527
sg175
VF-G
p528
sg176
I1626181
ssI1626185
(dp529
g135
VLouisiana State
p530
sg137
V239
p531
sg139
V2017
p532
sg141
F23.0
sg142
VMAY 24, 1994
p533
sg144
V6-10
p534
sg146
VJarell Martin
p535
sg148
I1610612763
sg149
g87
sg150
g43
sg151
V00
p536
sg153
g111
sg154
I1626185
ssI1626188
(dp537
g417
VDuke
p538
sg419
V179
p539
sg421
V2017
p540
sg423
F24.0
sg424
VMAR 23, 1993
p541
sg426
V6-2
p542
sg428
VQuinn Cook
p543
sg430
I1610612744
sg431
V4
p544
sg432
g87
sg433
V00
p545
sg435
g69
sg436
I1626188
ssI200782
(dp546
VSCHOOL
p547
VTexas
p548
sVWEIGHT
p549
V245
p550
sVSEASON
p551
V2017
p552
sVAGE
p553
F32.0
sVBIRTH_DATE
p554
VMAY 05, 1985
p555
sVHEIGHT
p556
V6-6
p557
sVPLAYER
p558
VPJ Tucker
p559
sVTeamID
p560
I1610612745
sVNUM
p561
g544
sVEXP
p562
V6
p563
sVLeagueID
p564
V00
p565
sVPOSITION
p566
g111
sVPLAYER_ID
p567
I200782
ssI1626195
(dp568
VSCHOOL
p569
VSpain
p570
sVWEIGHT
p571
V240
p572
sVSEASON
p573
V2017
p574
sVAGE
p575
F23.0
sVBIRTH_DATE
p576
VMAY 27, 1994
p577
sVHEIGHT
p578
V6-11
p579
sVPLAYER
p580
VWilly Hernangomez
p581
sVTeamID
p582
I1610612752
sVNUM
p583
V14
p584
sVEXP
p585
g87
sVLeagueID
p586
V00
p587
sVPOSITION
p588
g47
sVPLAYER_ID
p589
I1626195
ssI1626196
(dp590
g250
VTennessee
p591
sg252
V200
p592
sg254
V2017
p593
sg256
F24.0
sg257
VSEP 15, 1993
p594
sg259
V6-6
p595
sg261
VJosh Richardson
p596
sg263
I1610612748
sg264
g64
sg266
g43
sg267
V00
p597
sg269
g111
sg270
I1626196
ssI1626199
(dp598
g178
VVillanova
p599
sg180
V220
p600
sg182
V2017
p601
sg184
F24.0
sg185
VAPR 13, 1993
p602
sg187
V6-6
p603
sg189
VDarrun Hilliard
p604
sg191
I1610612759
sg192
V24
p605
sg194
g43
sg196
V00
p606
sg198
g69
sg199
I1626199
ssI200794
(dp607
g50
VLouisiana Tech
p608
sg51
V246
p609
sg53
V2017
p610
sg55
F32.0
sg56
VFEB 10, 1985
p611
sg58
V6-8
p612
sg60
VPaul Millsap
p613
sg62
I1610612743
sg63
g544
sg65
V11
p614
sg66
V00
p615
sg68
g111
sg70
I200794
ssI1626204
(dp616
VSCHOOL
p617
VWyoming
p618
sVWEIGHT
p619
V230
p620
sVSEASON
p621
V2017
p622
sVAGE
p623
F24.0
sVBIRTH_DATE
p624
VJAN 01, 1993
p625
sVHEIGHT
p626
V6-9
p627
sVPLAYER
p628
VLarry Nance Jr.
p629
sVTeamID
p630
I1610612747
sVNUM
p631
g207
sVEXP
p632
g43
sVLeagueID
p633
V00
p634
sVPOSITION
p635
g111
sVPLAYER_ID
p636
I1626204
ssI1626205
(dp637
g135
VTexas-El Paso
p638
sg137
V208
p639
sg139
V2017
p640
sg141
F23.0
sg142
VAUG 05, 1994
p641
sg144
V6-8
p642
sg146
VVincent Hunter
p643
sg148
I1610612763
sg149
V32
p644
sg150
g483
sg151
V00
p645
sg153
g111
sg154
I1626205
ssI1626209
(dp646
g2
VCroatia
p647
sg4
V218
p648
sg6
V2017
p649
sg8
F22.0
sg9
VFEB 25, 1995
p650
sg11
V6-8
p651
sg13
VMario Hezonja
p652
sg15
I1610612753
sg16
g41
sg18
g43
sg20
V00
p653
sg22
VG-F
p654
sg24
I1626209
ssI1626220
(dp655
g326
VBaylor
p656
sg328
V226
p657
sg330
V2017
p658
sg332
F24.0
sg333
VJUN 05, 1993
p659
sg335
V6-6
p660
sg337
VRoyce O'Neale
p661
sg339
I1610612762
sg340
V23
p662
sg342
g483
sg344
V00
p663
sg346
g111
sg347
I1626220
ssI1626224
(dp664
VSCHOOL
p665
VAnadolu Efes
p666
sVWEIGHT
p667
V215
p668
sVSEASON
p669
V2017
p670
sVAGE
p671
F22.0
sVBIRTH_DATE
p672
VAPR 08, 1995
p673
sVHEIGHT
p674
V6-8
p675
sVPLAYER
p676
VCedi Osman
p677
sVTeamID
p678
I1610612739
sVNUM
p679
V16
p680
sVEXP
p681
g483
sVLeagueID
p682
V00
p683
sVPOSITION
p684
g111
sVPLAYER_ID
p685
I1626224
ssI200826
(dp686
VSCHOOL
p687
VNortheastern
p688
sVWEIGHT
p689
V185
p690
sVSEASON
p691
V2017
p692
sVAGE
p693
F33.0
sVBIRTH_DATE
p694
VJUN 26, 1984
p695
sVHEIGHT
p696
V6-0
p697
sVPLAYER
p698
VJ.J. Barea
p699
sVTeamID
p700
I1610612742
sVNUM
p701
g19
sVEXP
p702
V11
p703
sVLeagueID
p704
V00
p705
sVPOSITION
p706
g69
sVPLAYER_ID
p707
I200826
ssI1626245
(dp708
g349
Nsg351
V280
p709
sg353
V2017
p710
sg355
F25.0
sg356
VJUL 07, 1992
p711
sg358
V6-9
p712
sg360
VCristiano Felicio
p713
sg362
I1610612741
sg363
g563
sg365
g43
sg366
V00
p714
sg368
VC-F
p715
sg369
I1626245
ssI1626257
(dp716
g687
Nsg689
V235
p717
sg691
V2017
p718
sg693
F31.0
sg694
VJUN 15, 1986
p719
sg696
V7-2
p720
sg698
VSalah Mejri
p721
sg700
I1610612742
sg701
V50
p722
sg702
g43
sg704
V00
p723
sg706
g47
sg707
I1626257
ssI1626259
(dp724
g156
VHoly Cross
p725
sg158
V210
p726
sg160
V2017
p727
sg162
F24.0
sg163
VMAR 06, 1993
p728
sg165
V6-7
p729
sg167
VMalcolm Miller
p730
sg169
I1610612761
sg170
V13
p731
sg172
g483
sg173
V00
p732
sg175
g111
sg176
I1626259
ssI2200
(dp733
g178
VBarcelona, Spain
p734
sg180
V250
p735
sg182
V2017
p736
sg184
F37.0
sg185
VJUL 06, 1980
p737
sg187
V7-0
p738
sg189
VPau Gasol
p739
sg191
I1610612759
sg192
V16
p740
sg194
V16
p741
sg196
V00
p742
sg198
g47
sg199
I2200
ssI2207
(dp743
g326
VArkansas
p744
sg328
V240
p745
sg330
V2017
p746
sg332
F36.0
sg333
VJUN 29, 1981
p747
sg335
V6-7
p748
sg337
VJoe Johnson
p749
sg339
I1610612762
sg340
g563
sg342
V16
p750
sg344
V00
p751
sg346
VG-F
p752
sg347
I2207
ssI2210
(dp753
g50
VArizona
p754
sg51
V233
p755
sg53
V2017
p756
sg55
F37.0
sg56
VJUN 21, 1980
p757
sg58
V6-7
p758
sg60
VRichard Jefferson
p759
sg62
I1610612743
sg63
V22
p760
sg65
V16
p761
sg66
V00
p762
sg68
g111
sg70
I2210
ssI2216
(dp763
g282
VMichigan State
p764
sg284
V250
p765
sg286
V2017
p766
sg288
F36.0
sg289
VJUL 16, 1981
p767
sg291
V6-9
p768
sg293
VZach Randolph
p769
sg295
I1610612758
sg296
V50
p770
sg298
V16
p771
sg299
V00
p772
sg301
g111
sg302
I2216
ssI2225
(dp773
g178
VParis, France
p774
sg180
V185
p775
sg182
V2017
p776
sg184
F35.0
sg185
VMAY 17, 1982
p777
sg187
V6-2
p778
sg189
VTony Parker
p779
sg191
I1610612759
sg192
V9
p780
sg194
V16
p781
sg196
V00
p782
sg198
g69
sg199
I2225
ssI1628365
(dp783
g26
VWashington
p784
sg28
V200
p785
sg30
V2017
p786
sg32
F19.0
sg33
VMAY 29, 1998
p787
sg35
V6-4
p788
sg37
VMarkelle Fultz
p789
sg39
I1610612755
sg40
V20
p790
sg42
g483
sg44
V00
p791
sg46
g69
sg48
I1628365
ssI1628366
(dp792
g617
VCalifornia-Los Angeles
p793
sg619
V190
p794
sg621
V2017
p795
sg623
F20.0
sg624
VOCT 27, 1997
p796
sg626
V6-6
p797
sg628
VLonzo Ball
p798
sg630
I1610612747
sg631
g43
sg632
g483
sg633
V00
p799
sg635
g69
sg636
I1628366
ssI1628368
(dp800
g282
VKentucky
p801
sg284
V175
p802
sg286
V2017
p803
sg288
F19.0
sg289
VDEC 20, 1997
p804
sg291
V6-3
p805
sg293
VDe'Aaron Fox
p806
sg295
I1610612758
sg296
g19
sg298
g483
sg299
V00
p807
sg301
g69
sg302
I1628368
ssI1628369
(dp808
g498
VDuke
p809
sg500
V205
p810
sg502
V2017
p811
sg504
F19.0
sg505
VMAR 03, 1998
p812
sg507
V6-8
p813
sg509
VJayson Tatum
p814
sg511
I1610612738
sg512
g64
sg514
g483
sg515
V00
p815
sg517
g111
sg518
I1628369
ssI1628371
(dp816
g2
VFlorida State
p817
sg4
V210
p818
sg6
V2017
p819
sg8
F20.0
sg9
VOCT 03, 1997
p820
sg11
V6-10
p821
sg13
VJonathan Isaac
p822
sg15
I1610612753
sg16
g87
sg18
g483
sg20
V00
p823
sg22
g111
sg24
I1628371
ssI1628372
(dp824
g687
VNorth Carolina State
p825
sg689
V195
p826
sg691
V2017
p827
sg693
F19.0
sg694
VNOV 25, 1997
p828
sg696
V6-3
p829
sg698
VDennis Smith Jr.
p830
sg700
I1610612742
sg701
g87
sg702
g483
sg704
V00
p831
sg706
g69
sg707
I1628372
ssI1628373
(dp832
g569
Nsg571
V190
p833
sg573
V2017
p834
sg575
F19.0
sg576
VJUL 28, 1998
p835
sg578
V6-5
p836
sg580
VFrank Ntilikina
p837
sg582
I1610612752
sg583
V11
p838
sg585
g483
sg586
V00
p839
sg588
g69
sg589
I1628373
ssI1628374
(dp840
g349
VArizona
p841
sg351
V230
p842
sg353
V2017
p843
sg355
F20.0
sg356
VMAY 22, 1997
p844
sg358
V7-0
p845
sg360
VLauri Markkanen
p846
sg362
I1610612741
sg363
V24
p847
sg365
g483
sg366
V00
p848
sg368
g111
sg369
I1628374
ssI1628378
(dp849
g326
VLouisville
p850
sg328
V215
p851
sg330
V2017
p852
sg332
F21.0
sg333
VSEP 07, 1996
p853
sg335
V6-3
p854
sg337
VDonovan Mitchell
p855
sg339
I1610612762
sg340
V45
p856
sg342
g483
sg344
V00
p857
sg346
g69
sg347
I1628378
ssI1628381
(dp858
VSCHOOL
p859
VWake Forest
p860
sVWEIGHT
p861
V235
p862
sVSEASON
p863
V2017
p864
sVAGE
p865
F20.0
sVBIRTH_DATE
p866
VSEP 23, 1997
p867
sVHEIGHT
p868
V6-10
p869
sVPLAYER
p870
VJohn Collins
p871
sVTeamID
p872
I1610612737
sVNUM
p873
V20
p874
sVEXP
p875
g483
sVLeagueID
p876
V00
p877
sVPOSITION
p878
VF-C
p879
sVPLAYER_ID
p880
I1628381
ssI1628382
(dp881
g282
VNorth Carolina
p882
sg284
V210
p883
sg286
V2017
p884
sg288
F22.0
sg289
VMAR 28, 1995
p885
sg291
V6-8
p886
sg293
VJustin Jackson
p887
sg295
I1610612758
sg296
V25
p888
sg298
g483
sg299
V00
p889
sg301
g111
sg302
I1628382
ssI1628383
(dp890
g72
VCreighton
p891
sg74
V236
p892
sg76
V2017
p893
sg78
F20.0
sg79
VJUN 14, 1997
p894
sg81
V7-0
p895
sg83
VJustin Patton
p896
sg85
I1610612750
sg86
V24
p897
sg88
g483
sg89
V00
p898
sg91
g47
sg92
I1628383
ssI1628384
(dp899
g156
VIndiana
p900
sg158
V235
p901
sg160
V2017
p902
sg162
F20.0
sg163
VJUL 17, 1997
p903
sg165
V6-8
p904
sg167
VOG Anunoby
p905
sg169
I1610612761
sg170
g109
sg172
g483
sg173
V00
p906
sg175
g111
sg176
I1628384
ssI1628385
(dp907
g282
VDuke
p908
sg284
V240
p909
sg286
V2017
p910
sg288
F19.0
sg289
VAPR 22, 1998
p911
sg291
V6-10
p912
sg293
VHarry Giles
p913
sg295
I1610612758
sg296
V20
p914
sg298
g483
sg299
V00
p915
sg301
VF-C
p916
sg302
I1628385
ssI1628386
(dp917
g210
VTexas
p918
sg212
V234
p919
sg214
V2017
p920
sg216
F19.0
sg217
VAPR 21, 1998
p921
sg219
V6-11
p922
sg221
VJarrett Allen
p923
sg223
I1610612751
sg224
V31
p924
sg225
g483
sg226
V00
p925
sg228
g47
sg229
I1628386
ssI1628387
(dp926
g371
VCalifornia-Los Angeles
p927
sg373
V262
p928
sg375
V2017
p929
sg377
F19.0
sg378
VOCT 16, 1998
p930
sg380
V6-10
p931
sg382
VIke Anigbogu
p932
sg384
I1610612754
sg385
V13
p933
sg387
g483
sg388
V00
p934
sg390
g47
sg391
I1628387
ssI1628388
(dp935
g371
VCalifornia-Los Angeles
p936
sg373
V230
p937
sg375
V2017
p938
sg377
F20.0
sg378
VAPR 30, 1997
p939
sg380
V6-10
p940
sg382
VTJ Leaf
p941
sg384
I1610612754
sg385
V22
p942
sg387
g483
sg388
V00
p943
sg390
g111
sg391
I1628388
ssI1628389
(dp944
g250
VKentucky
p945
sg252
V255
p946
sg254
V2017
p947
sg256
F20.0
sg257
VJUL 18, 1997
p948
sg259
V6-10
p949
sg261
VBam Adebayo
p950
sg263
I1610612748
sg264
V13
p951
sg266
g483
sg267
V00
p952
sg269
VC-F
p953
sg270
I1628389
ssI1628390
(dp954
g466
Nsg468
V184
p955
sg470
V2017
p956
sg472
F19.0
sg473
VMAY 17, 1998
p957
sg475
V6-7
p958
sg477
VTerrance Ferguson
p959
sg479
I1610612760
sg480
V23
p960
sg482
g483
sg484
V00
p961
sg486
g69
sg487
I1628390
ssI1628391
(dp962
g304
VMichigan
p963
sg306
V236
p964
sg308
V2017
p965
sg310
F21.0
sg311
VFEB 19, 1996
p966
sg313
V6-10
p967
sg315
VD.J. Wilson
p968
sg317
I1610612749
sg318
g19
sg320
g483
sg321
V00
p969
sg323
g111
sg324
I1628391
ssI1628393
(dp970
g113
VOklahoma State
p971
sg115
V190
p972
sg117
V2017
p973
sg119
F21.0
sg120
VJUL 26, 1996
p974
sg122
V6-0
p975
sg124
VJawun Evans
p976
sg126
I1610612746
sg127
g87
sg128
g483
sg129
V00
p977
sg131
g69
sg133
I1628393
ssI1628395
(dp978
g417
VOregon
p979
sg419
V224
p980
sg421
V2017
p981
sg423
F22.0
sg424
VJAN 07, 1995
p982
sg426
V6-9
p983
sg428
VJordan Bell
p984
sg430
I1610612744
sg431
g43
sg432
g483
sg433
V00
p985
sg435
g111
sg436
I1628395
ssI1628396
(dp986
g326
VNorth Carolina
p987
sg328
V248
p988
sg330
V2017
p989
sg332
F19.0
sg333
VJAN 08, 1998
p990
sg335
V6-10
p991
sg337
VTony Bradley
p992
sg339
I1610612762
sg340
V13
p993
sg342
g483
sg344
V00
p994
sg346
g47
sg347
I1628396
ssI1628397
(dp995
g135
VCalifornia
p996
sg137
V220
p997
sg139
V2017
p998
sg141
F20.0
sg142
VFEB 04, 1997
p999
sg144
V6-10
p1000
sg146
VIvan Rabb
p1001
sg148
I1610612763
sg149
V10
p1002
sg150
g483
sg151
V00
p1003
sg153
g111
sg154
I1628397
ssI1628398
(dp1004
g617
VUtah
p1005
sg619
V220
p1006
sg621
V2017
p1007
sg623
F22.0
sg624
VJUL 24, 1995
p1008
sg626
V6-9
p1009
sg628
VKyle Kuzma
p1010
sg630
I1610612747
sg631
g64
sg632
g483
sg633
V00
p1011
sg635
g111
sg636
I1628398
ssI1628399
(dp1012
g50
VSyracuse
p1013
sg51
V220
p1014
sg53
V2017
p1015
sg55
F21.0
sg56
VAPR 09, 1996
p1016
sg58
V6-9
p1017
sg60
VTyler Lydon
p1018
sg62
I1610612743
sg63
V20
p1019
sg65
g483
sg66
V00
p1020
sg68
g111
sg70
I1628399
ssI1628400
(dp1021
g498
VSouthern Methodist
p1022
sg500
V235
p1023
sg502
V2017
p1024
sg504
F22.0
sg505
VDEC 05, 1994
p1025
sg507
V6-7
p1026
sg509
VSemi Ojeleye
p1027
sg511
I1610612738
sg512
V37
p1028
sg514
g483
sg515
V00
p1029
sg517
g111
sg518
I1628400
ssI1628401
(dp1030
g178
VColorado
p1031
sg180
V190
p1032
sg182
V2017
p1033
sg184
F23.0
sg185
VJUL 02, 1994
p1034
sg187
V6-4
p1035
sg189
VDerrick White
p1036
sg191
I1610612759
sg192
g544
sg194
g483
sg196
V00
p1037
sg198
g69
sg199
I1628401
ssI1628402
(dp1038
VSCHOOL
p1039
VDuke
p1040
sVWEIGHT
p1041
V205
p1042
sVSEASON
p1043
V2017
p1044
sVAGE
p1045
F19.0
sVBIRTH_DATE
p1046
VMAY 04, 1998
p1047
sVHEIGHT
p1048
V6-3
p1049
sVPLAYER
p1050
VFrank Jackson
p1051
sVTeamID
p1052
I1610612740
sVNUM
p1053
V15
p1054
sVEXP
p1055
g483
sVLeagueID
p1056
V00
p1057
sVPOSITION
p1058
g69
sVPLAYER_ID
p1059
I1628402
ssI1628404
(dp1060
g617
VVillanova
p1061
sg619
V215
p1062
sg621
V2017
p1063
sg623
F22.0
sg624
VMAR 06, 1995
p1064
sg626
V6-5
p1065
sg628
VJosh Hart
p1066
sg630
I1610612747
sg631
g19
sg632
g483
sg633
V00
p1067
sg635
g69
sg636
I1628404
ssI1628405
(dp1068
g687
VBaylor
p1069
sg689
V230
p1070
sg691
V2017
p1071
sg693
F22.0
sg694
VMAY 04, 1995
p1072
sg696
V6-10
p1073
sg698
VJohnathan Motley
p1074
sg700
I1610612742
sg701
g563
sg702
g483
sg704
V00
p1075
sg706
g111
sg707
I1628405
ssI1628408
(dp1076
g466
VSouth Carolina
p1077
sg468
V205
p1078
sg470
V2017
p1079
sg472
F21.0
sg473
VOCT 25, 1996
p1080
sg475
V6-6
p1081
sg477
VPJ Dozier
p1082
sg479
I1610612760
sg480
V35
p1083
sg482
g483
sg484
V00
p1084
sg486
g69
sg487
I1628408
ssI203476
(dp1085
g72
VLouisville
p1086
sg74
V251
p1087
sg76
V2017
p1088
sg78
F27.0
sg79
VJAN 18, 1990
p1089
sg81
V6-11
p1090
sg83
VGorgui Dieng
p1091
sg85
I1610612750
sg86
g19
sg88
g544
sg89
V00
p1092
sg91
g47
sg92
I203476
ssI1628410
(dp1093
g371
VXavier
p1094
sg373
V188
p1095
sg375
V2017
p1096
sg377
F21.0
sg378
VDEC 31, 1995
p1097
sg380
V6-5
p1098
sg382
VEdmond Sumner
p1099
sg384
I1610612754
sg385
g19
sg387
g483
sg388
V00
p1100
sg390
g69
sg391
I1628410
ssI1628411
(dp1101
g2
VKansas State
p1102
sg4
V195
p1103
sg6
V2017
p1104
sg8
F22.0
sg9
VDEC 20, 1994
p1105
sg11
V6-7
p1106
sg13
VWes Iwundu
p1107
sg15
I1610612753
sg16
V25
p1108
sg18
g483
sg20
V00
p1109
sg22
g111
sg24
I1628411
ssI1628412
(dp1110
g282
VKansas
p1111
sg284
V190
p1112
sg286
V2017
p1113
sg288
F23.0
sg289
VAPR 03, 1994
p1114
sg291
V5-11
p1115
sg293
VFrank Mason
p1116
sg295
I1610612758
sg296
V10
p1117
sg298
g483
sg299
V00
p1118
sg301
g69
sg302
I1628412
ssI1628414
(dp1119
g113
VSouth Carolina
p1120
sg115
V215
p1121
sg117
V2017
p1122
sg119
F22.0
sg120
VNOV 15, 1994
p1123
sg122
V6-5
p1124
sg124
VSindarius Thornwell
p1125
sg126
I1610612746
sg127
g64
sg128
g483
sg129
V00
p1126
sg131
g69
sg133
I1628414
ssI1628415
(dp1127
g135
VOregon
p1128
sg137
V220
p1129
sg139
V2017
p1130
sg141
F21.0
sg142
VJAN 22, 1996
p1131
sg144
V6-6
p1132
sg146
VDillon Brooks
p1133
sg148
I1610612763
sg149
V24
p1134
sg150
g483
sg151
V00
p1135
sg153
VF-G
p1136
sg154
I1628415
ssI1628416
(dp1137
g859
VOregon
p1138
sg861
V183
p1139
sg863
V2017
p1140
sg865
F21.0
sg866
VFEB 18, 1996
p1141
sg868
V6-4
p1142
sg870
VTyler Dorsey
p1143
sg872
I1610612737
sg873
g43
sg875
g483
sg876
V00
p1144
sg878
g69
sg880
I1628416
ssI1628418
(dp1145
g617
VIndiana
p1146
sg619
V248
p1147
sg621
V2017
p1148
sg623
F20.0
sg624
VJUL 31, 1997
p1149
sg626
V6-10
p1150
sg628
VThomas Bryant
p1151
sg630
I1610612747
sg631
V31
p1152
sg632
g483
sg633
V00
p1153
sg635
g47
sg636
I1628418
ssI1628420
(dp1154
g50
VIowa State
p1155
sg51
V175
p1156
sg53
V2017
p1157
sg55
F22.0
sg56
VJUN 27, 1995
p1158
sg58
V6-3
p1159
sg60
VMonte Morris
p1160
sg62
I1610612743
sg63
V11
p1161
sg65
g483
sg66
V00
p1162
sg68
g69
sg70
I1628420
ssI1628422
(dp1163
g569
VHouston
p1164
sg571
V210
p1165
sg573
V2017
p1166
sg575
F23.0
sg576
VMAY 06, 1994
p1167
sg578
V6-5
p1168
sg580
VDamyean Dotson
p1169
sg582
I1610612752
sg583
V21
p1170
sg585
g483
sg586
V00
p1171
sg588
g69
sg589
I1628422
ssI1628424
(dp1172
g135
VArizona
p1173
sg137
V170
p1174
sg139
V2017
p1175
sg141
F20.0
sg142
VJUL 04, 1997
p1176
sg144
V6-4
p1177
sg146
VKobi Simmons
p1178
sg148
I1610612763
sg149
g43
sg150
g483
sg151
V00
p1179
sg153
g69
sg154
I1628424
ssI1628425
(dp1180
g304
VSouthern Methodist
p1181
sg306
V230
p1182
sg308
V2017
p1183
sg310
F22.0
sg311
VFEB 10, 1995
p1184
sg313
V6-6
p1185
sg315
VSterling Brown
p1186
sg317
I1610612749
sg318
V23
p1187
sg320
g483
sg321
V00
p1188
sg323
g69
sg324
I1628425
ssI1628429
(dp1189
g1039
VDayton
p1190
sg1041
V196
p1191
sg1043
V2017
p1192
sg1045
F23.0
sg1046
VJUL 01, 1994
p1193
sg1048
V6-5
p1194
sg1050
VCharles Cooke
p1195
sg1052
I1610612740
sg1053
g544
sg1055
g483
sg1056
V00
p1196
sg1058
g69
sg1059
I1628429
ssI1628436
(dp1197
g569
VVanderbilt
p1198
sg571
V250
p1199
sg573
V2017
p1200
sg575
F22.0
sg576
VJUL 15, 1995
p1201
sg578
V7-1
p1202
sg580
VLuke Kornet
p1203
sg582
I1610612752
sg583
g43
sg585
g483
sg586
V00
p1204
sg588
VF-C
p1205
sg589
I1628436
ssI1628439
(dp1206
g569
VNorth Carolina
p1207
sg571
V242
p1208
sg573
V2017
p1209
sg575
F23.0
sg576
VJUL 24, 1994
p1210
sg578
V6-9
p1211
sg580
VIsaiah Hicks
p1212
sg582
I1610612752
sg583
g544
sg585
g483
sg586
V00
p1213
sg588
g111
sg589
I1628439
ssI1628443
(dp1214
g498
VArizona
p1215
sg500
V200
p1216
sg502
V2017
p1217
sg504
F24.0
sg505
VJAN 15, 1993
p1218
sg507
V6-3
p1219
sg509
VKadeem Allen
p1220
sg511
I1610612738
sg512
V45
p1221
sg514
g483
sg515
V00
p1222
sg517
g69
sg518
I1628443
ssI1628444
(dp1223
g498
VCalifornia
p1224
sg500
V198
p1225
sg502
V2017
p1226
sg504
F23.0
sg505
VJUL 03, 1994
p1227
sg507
V6-6
p1228
sg509
VJabari Bird
p1229
sg511
I1610612738
sg512
V26
p1230
sg514
g483
sg515
V00
p1231
sg517
g69
sg518
I1628444
ssI1628449
(dp1232
g417
VOregon
p1233
sg419
V200
p1234
sg421
V2017
p1235
sg423
F24.0
sg424
VJAN 11, 1993
p1236
sg426
V6-10
p1237
sg428
VChris Boucher
p1238
sg430
I1610612744
sg431
V25
p1239
sg432
g483
sg433
V00
p1240
sg435
g111
sg436
I1628449
ssI1628451
(dp1241
g210
VEastern Washington
p1242
sg212
V223
p1243
sg214
V2017
p1244
sg216
F23.0
sg217
VSEP 04, 1994
p1245
sg219
V6-8
p1246
sg221
VJacob Wiley
p1247
sg223
I1610612751
sg224
V21
p1248
sg225
g483
sg226
V00
p1249
sg228
g111
sg229
I1628451
ssI1628462
(dp1250
g113
Nsg115
V196
p1251
sg117
V2017
p1252
sg119
F30.0
sg120
VMAR 19, 1987
p1253
sg122
V6-5
p1254
sg124
VMilos Teodosic
p1255
sg126
I1610612746
sg127
g544
sg128
g483
sg129
V00
p1256
sg131
g69
sg133
I1628462
ssI1628463
(dp1257
g859
VGeorge Washington
p1258
sg861
V238
p1259
sg863
V2017
p1260
sg865
F23.0
sg866
VFEB 09, 1994
p1261
sg868
V6-9
p1262
sg870
VTyler Cavanaugh
p1263
sg872
I1610612737
sg873
V34
p1264
sg875
g483
sg876
V00
p1265
sg878
g111
sg880
I1628463
ssI1628464
(dp1266
g498
Nsg500
V243
p1267
sg502
V2017
p1268
sg504
F25.0
sg505
VAPR 04, 1992
p1269
sg507
V6-9
p1270
sg509
VDaniel Theis
p1271
sg511
I1610612738
sg512
V27
p1272
sg514
g483
sg515
V00
p1273
sg517
VF-C
p1274
sg518
I1628464
ssI1628467
(dp1275
g687
Nsg689
V220
p1276
sg691
V2017
p1277
sg693
F25.0
sg694
VJAN 29, 1992
p1278
sg696
V6-11
p1279
sg698
VMaxi Kleber
p1280
sg700
I1610612742
sg701
V42
p1281
sg702
g483
sg704
V00
p1282
sg706
g111
sg707
I1628467
ssI1628469
(dp1283
g349
VLouisiana State
p1284
sg351
V197
p1285
sg353
V2017
p1286
sg355
F21.0
sg356
VOCT 04, 1996
p1287
sg358
V6-4
p1288
sg360
VAntonio Blakeney
p1289
sg362
I1610612741
sg363
g780
sg365
g483
sg366
V00
p1290
sg368
g69
sg369
I1628469
ssI1628470
(dp1291
g50
VSouth Carolina Upstate
p1292
sg51
V215
p1293
sg53
V2017
p1294
sg55
F26.0
sg56
VDEC 19, 1990
p1295
sg58
V6-6
p1296
sg60
VTorrey Craig
p1297
sg62
I1610612743
sg63
g109
sg65
g483
sg66
V00
p1298
sg68
VG-F
p1299
sg70
I1628470
ssI1628473
(dp1300
g210
Nsg212
V220
p1301
sg214
V2017
p1302
sg216
F25.0
sg217
VJAN 24, 1992
p1303
sg219
V6-4
p1304
sg221
VYakuba Ouattara
p1305
sg223
I1610612751
sg224
V00
p1306
sg225
g483
sg226
V00
p1307
sg228
g69
sg229
I1628473
ssI1628475
(dp1308
g250
VCentral Florida
p1309
sg252
V210
p1310
sg254
V2017
p1311
sg256
F24.0
sg257
VOCT 14, 1993
p1312
sg259
V6-5
p1313
sg261
VMatt Williams Jr.
p1314
sg263
I1610612748
sg264
V12
p1315
sg266
g483
sg267
V00
p1316
sg269
g69
sg270
I1628475
ssI1628476
(dp1317
g250
VMichigan
p1318
sg252
V185
p1319
sg254
V2017
p1320
sg256
F22.0
sg257
VAPR 03, 1995
p1321
sg259
V6-1
p1322
sg261
VDerrick Walton Jr.
p1323
sg263
I1610612748
sg264
V14
p1324
sg266
g483
sg267
V00
p1325
sg269
g69
sg270
I1628476
ssI203076
(dp1326
g1039
VKentucky
p1327
sg1041
V253
p1328
sg1043
V2017
p1329
sg1045
F24.0
sg1046
VMAR 11, 1993
p1330
sg1048
V6-10
p1331
sg1050
VAnthony Davis
p1332
sg1052
I1610612740
sg1053
V23
p1333
sg1055
g19
sg1056
V00
p1334
sg1058
VF-C
p1335
sg1059
I203076
ssI203079
(dp1336
g250
VSyracuse
p1337
sg252
V215
p1338
sg254
V2017
p1339
sg256
F25.0
sg257
VDEC 10, 1991
p1340
sg259
V6-4
p1341
sg261
VDion Waiters
p1342
sg263
I1610612748
sg264
V11
p1343
sg266
g19
sg267
V00
p1344
sg269
g69
sg270
I203079
ssI203082
(dp1345
g2
VWashington
p1346
sg4
V206
p1347
sg6
V2017
p1348
sg8
F26.0
sg9
VFEB 05, 1991
p1349
sg11
V6-7
p1350
sg13
VTerrence Ross
p1351
sg15
I1610612753
sg16
V31
p1352
sg18
g19
sg20
V00
p1353
sg22
VG-F
p1354
sg24
I203082
ssI1628492
(dp1355
g687
VColorado State
p1356
sg689
V185
p1357
sg691
V2017
p1358
sg693
F23.0
sg694
VNOV 26, 1993
p1359
sg696
V6-4
p1360
sg698
VGian Clavell
p1361
sg700
I1610612742
sg701
g41
sg702
g483
sg704
V00
p1362
sg706
g69
sg707
I1628492
ssI203085
(dp1363
g113
VDuke
p1364
sg115
V200
p1365
sg117
V2017
p1366
sg119
F25.0
sg120
VAUG 01, 1992
p1367
sg122
V6-4
p1368
sg124
VAustin Rivers
p1369
sg126
I1610612746
sg127
V25
p1370
sg128
g19
sg129
V00
p1371
sg131
g69
sg133
I203085
ssI203089
(dp1372
g304
VNorth Carolina
p1373
sg306
V229
p1374
sg308
V2017
p1375
sg310
F26.0
sg311
VDEC 28, 1990
p1376
sg313
V6-11
p1377
sg315
VJohn Henson
p1378
sg317
I1610612749
sg318
V31
p1379
sg320
g19
sg321
V00
p1380
sg323
VF-C
p1381
sg324
I203089
ssI203092
(dp1382
g210
VNorth Carolina
p1383
sg212
V250
p1384
sg214
V2017
p1385
sg216
F27.0
sg217
VJAN 17, 1990
p1386
sg219
V7-0
p1387
sg221
VTyler Zeller
p1388
sg223
I1610612751
sg224
V44
p1389
sg225
g19
sg226
V00
p1390
sg228
g47
sg229
I203092
ssI1628503
(dp1391
g2
VPittsburgh
p1392
sg4
V213
p1393
sg6
V2017
p1394
sg8
F24.0
sg9
VJAN 12, 1993
p1395
sg11
V6-7
p1396
sg13
VJamel Artis
p1397
sg15
I1610612753
sg16
g64
sg18
g483
sg20
V00
p1398
sg22
g69
sg24
I1628503
ssI1628506
(dp1399
g665
VVirginia
p1400
sg667
V190
p1401
sg669
V2017
p1402
sg671
F23.0
sg672
VOCT 03, 1994
p1403
sg674
V6-2
p1404
sg676
VLondon Perrantes
p1405
sg678
I1610612739
sg679
V15
p1406
sg681
g483
sg682
V00
p1407
sg684
g69
sg685
I1628506
ssI203101
(dp1408
g859
VDuke
p1409
sg861
V249
p1410
sg863
V2017
p1411
sg865
F29.0
sg866
VSEP 01, 1988
p1412
sg868
V6-11
p1413
sg870
VMiles Plumlee
p1414
sg872
I1610612737
sg873
V18
p1415
sg875
g19
sg876
V00
p1416
sg878
g47
sg880
I203101
ssI2403
(dp1417
g547
VSao Carlos, Brazil
p1418
sg549
V250
p1419
sg551
V2017
p1420
sg553
F35.0
sg554
VSEP 13, 1982
p1421
sg556
V6-11
p1422
sg558
VNene
p1423
sg560
I1610612745
sg561
V42
p1424
sg562
V15
p1425
sg564
V00
p1426
sg566
VC-F
p1427
sg567
I2403
ssI203109
(dp1428
g665
VMarquette
p1429
sg667
V235
p1430
sg669
V2017
p1431
sg671
F27.0
sg672
VJUL 06, 1990
p1432
sg674
V6-6
p1433
sg676
VJae Crowder
p1434
sg678
I1610612739
sg679
V99
p1435
sg681
g19
sg682
V00
p1436
sg684
g111
sg685
I203109
ssI203110
(dp1437
g417
VMichigan State
p1438
sg419
V230
p1439
sg421
V2017
p1440
sg423
F27.0
sg424
VMAR 04, 1990
p1441
sg426
V6-7
p1442
sg428
VDraymond Green
p1443
sg430
I1610612744
sg431
V23
p1444
sg432
g19
sg433
V00
p1445
sg435
g111
sg436
I203110
ssI203112
(dp1446
g210
VBaylor
p1447
sg212
V240
p1448
sg214
V2017
p1449
sg216
F27.0
sg217
VOCT 06, 1990
p1450
sg219
V6-7
p1451
sg221
VQuincy Acy
p1452
sg223
I1610612751
sg224
V13
p1453
sg225
g19
sg226
V00
p1454
sg228
g111
sg229
I203112
ssI203114
(dp1455
g304
VTexas A&M
p1456
sg306
V234
p1457
sg308
V2017
p1458
sg310
F26.0
sg311
VAUG 12, 1991
p1459
sg313
V6-8
p1460
sg315
VKhris Middleton
p1461
sg317
I1610612749
sg318
V22
p1462
sg320
g19
sg321
V00
p1463
sg323
g111
sg324
I203114
ssI203115
(dp1464
g50
VMemphis
p1465
sg51
V190
p1466
sg53
V2017
p1467
sg55
F26.0
sg56
VJAN 06, 1991
p1468
sg58
V6-6
p1469
sg60
VWill Barton
p1470
sg62
I1610612743
sg63
g19
sg65
g19
sg66
V00
p1471
sg68
VG-F
p1472
sg70
I203115
ssI200765
(dp1473
g1039
VKentucky
p1474
sg1041
V186
p1475
sg1043
V2017
p1476
sg1045
F31.0
sg1046
VFEB 22, 1986
p1477
sg1048
V6-1
p1478
sg1050
VRajon Rondo
p1479
sg1052
I1610612740
sg1053
g780
sg1055
V11
p1480
sg1056
V00
p1481
sg1058
g69
sg1059
I200765
ssI203121
(dp1482
g1039
VKentucky
p1483
sg1041
V225
p1484
sg1043
V2017
p1485
sg1045
F27.0
sg1046
VMAR 21, 1990
p1486
sg1048
V6-8
p1487
sg1050
VDarius Miller
p1488
sg1052
I1610612740
sg1053
V21
p1489
sg1055
g109
sg1056
V00
p1490
sg1058
g111
sg1059
I203121
ssI203124
(dp1491
g569
VNorfolk State
p1492
sg571
V250
p1493
sg573
V2017
p1494
sg575
F27.0
sg576
VMAR 26, 1990
p1495
sg578
V6-10
p1496
sg580
VKyle O'Quinn
p1497
sg582
I1610612752
sg583
g780
sg585
g19
sg586
V00
p1498
sg588
VC-F
p1499
sg589
I203124
ssI203141
(dp1500
g304
VBosnia
p1501
sg306
V242
p1502
sg308
V2017
p1503
sg310
F32.0
sg311
VSEP 17, 1985
p1504
sg313
V6-9
p1505
sg315
VMirza Teletovic
p1506
sg317
I1610612749
sg318
V35
p1507
sg320
g19
sg321
V00
p1508
sg323
g111
sg324
I203141
ssI203145
(dp1509
g859
VOld Dominion
p1510
sg861
V201
p1511
sg863
V2017
p1512
sg865
F28.0
sg866
VJUL 01, 1989
p1513
sg868
V6-5
p1514
sg870
VKent Bazemore
p1515
sg872
I1610612737
sg873
V24
p1516
sg875
g19
sg876
V00
p1517
sg878
g69
sg880
I203145
ssI203506
(dp1518
g371
VIndiana
p1519
sg373
V210
p1520
sg375
V2017
p1521
sg377
F25.0
sg378
VMAY 04, 1992
p1522
sg380
V6-4
p1523
sg382
VVictor Oladipo
p1524
sg384
I1610612754
sg385
g544
sg387
g544
sg388
V00
p1525
sg390
g69
sg391
I203506
ssI203186
(dp1526
g113
VSaint Louis
p1527
sg115
V245
p1528
sg117
V2017
p1529
sg119
F27.0
sg120
VMAY 16, 1990
p1530
sg122
V6-11
p1531
sg124
VWillie Reed
p1532
sg126
I1610612746
sg127
V35
p1533
sg128
g43
sg129
V00
p1534
sg131
g47
sg133
I203186
ssI201142
(dp1535
g417
VTexas
p1536
sg419
V240
p1537
sg421
V2017
p1538
sg423
F29.0
sg424
VSEP 29, 1988
p1539
sg426
V6-9
p1540
sg428
VKevin Durant
p1541
sg430
I1610612744
sg431
V35
p1542
sg432
V10
p1543
sg433
V00
p1544
sg435
g111
sg436
I201142
ssI201143
(dp1545
g498
VFlorida
p1546
sg500
V245
p1547
sg502
V2017
p1548
sg504
F31.0
sg505
VJUN 03, 1986
p1549
sg507
V6-10
p1550
sg509
VAl Horford
p1551
sg511
I1610612738
sg512
V42
p1552
sg514
V10
p1553
sg515
V00
p1554
sg517
VF-C
p1555
sg518
I201143
ssI201144
(dp1556
g135
VOhio State
p1557
sg137
V175
p1558
sg139
V2017
p1559
sg141
F30.0
sg142
VOCT 11, 1987
p1560
sg144
V6-1
p1561
sg146
VMike Conley
p1562
sg148
I1610612763
sg149
V11
p1563
sg150
V10
p1564
sg151
V00
p1565
sg153
g69
sg154
I201144
ssI201145
(dp1566
g665
VGeorgetown
p1567
sg667
V235
p1568
sg669
V2017
p1569
sg671
F31.0
sg672
VAUG 28, 1986
p1570
sg674
V6-9
p1571
sg676
VJeff Green
p1572
sg678
I1610612739
sg679
V32
p1573
sg681
g780
sg682
V00
p1574
sg684
g111
sg685
I201145
ssI201147
(dp1575
g617
VFlorida
p1576
sg619
V186
p1577
sg621
V2017
p1578
sg623
F31.0
sg624
VMAR 05, 1986
p1579
sg626
V6-9
p1580
sg628
VCorey Brewer
p1581
sg630
I1610612747
sg631
g109
sg632
V10
p1582
sg633
V00
p1583
sg635
g111
sg636
I201147
ssI201148
(dp1584
g135
VNorth Carolina
p1585
sg137
V235
p1586
sg139
V2017
p1587
sg141
F30.0
sg142
VOCT 05, 1987
p1588
sg144
V6-10
p1589
sg146
VBrandan Wright
p1590
sg148
I1610612763
sg149
V34
p1591
sg150
g780
sg151
V00
p1592
sg153
VF-C
p1593
sg154
I201148
ssI201149
(dp1594
g569
VFlorida
p1595
sg571
V230
p1596
sg573
V2017
p1597
sg575
F32.0
sg576
VFEB 25, 1985
p1598
sg578
V6-11
p1599
sg580
VJoakim Noah
p1600
sg582
I1610612752
sg583
V13
p1601
sg585
V10
p1602
sg586
V00
p1603
sg588
g47
sg589
I201149
ssI203200
(dp1604
g349
VWashington
p1605
sg351
V185
p1606
sg353
V2017
p1607
sg355
F28.0
sg356
VAPR 05, 1989
p1608
sg358
V6-6
p1609
sg360
VJustin Holiday
p1610
sg362
I1610612741
sg363
g207
sg365
g544
sg366
V00
p1611
sg368
g69
sg369
I203200
ssI201156
(dp1612
g417
VSouthern California
p1613
sg419
V210
p1614
sg421
V2017
p1615
sg423
F32.0
sg424
VJUN 01, 1985
p1616
sg426
V6-7
p1617
sg428
VNick Young
p1618
sg430
I1610612744
sg431
g563
sg432
V10
p1619
sg433
V00
p1620
sg435
VG-F
p1621
sg436
I201156
ssI201158
(dp1622
g859
VBologna, Italy
p1623
sg861
V210
p1624
sg863
V2017
p1625
sg865
F31.0
sg866
VMAR 25, 1986
p1626
sg868
V6-5
p1627
sg870
VMarco Belinelli
p1628
sg872
I1610612737
sg873
g109
sg875
V10
p1629
sg876
V00
p1630
sg878
VG-F
p1631
sg880
I201158
ssI203210
(dp1632
g135
VAlabama
p1633
sg137
V227
p1634
sg139
V2017
p1635
sg141
F27.0
sg142
VJUN 21, 1990
p1636
sg144
V6-9
p1637
sg146
VJaMychal Green
p1638
sg148
I1610612763
sg149
g64
sg150
g109
sg151
V00
p1639
sg153
g111
sg154
I203210
ssI201163
(dp1640
g50
VDePaul
p1641
sg51
V225
p1642
sg53
V2017
p1643
sg55
F30.0
sg56
VMAY 10, 1987
p1644
sg58
V6-9
p1645
sg60
VWilson Chandler
p1646
sg62
I1610612743
sg63
V21
p1647
sg65
g780
sg66
V00
p1648
sg68
g111
sg70
I201163
ssI201166
(dp1649
g72
VOregon
p1650
sg74
V161
p1651
sg76
V2017
p1652
sg78
F32.0
sg79
VJAN 14, 1985
p1653
sg81
V6-0
p1654
sg83
VAaron Brooks
p1655
sg85
I1610612750
sg86
V30
p1656
sg88
g780
sg89
V00
p1657
sg91
g69
sg92
I201166
ssI201167
(dp1658
g2
VUCLA
p1659
sg4
V210
p1660
sg6
V2017
p1661
sg8
F32.0
sg9
VOCT 15, 1985
p1662
sg11
V6-5
p1663
sg13
VArron Afflalo
p1664
sg15
I1610612753
sg16
g544
sg18
V10
p1665
sg20
V00
p1666
sg22
g69
sg24
I201167
ssI101112
(dp1667
g665
VArizona
p1668
sg667
V255
p1669
sg669
V2017
p1670
sg671
F34.0
sg672
VMAY 17, 1983
p1671
sg674
V6-11
p1672
sg676
VChanning Frye
p1673
sg678
I1610612739
sg679
g41
sg681
V11
p1674
sg682
V00
p1675
sg684
g111
sg685
I101112
ssI201177
(dp1676
g687
VDuke
p1677
sg689
V240
p1678
sg691
V2017
p1679
sg693
F30.0
sg694
VFEB 28, 1987
p1680
sg696
V6-10
p1681
sg698
VJosh McRoberts
p1682
sg700
I1610612742
sg701
V13
p1683
sg702
V10
p1684
sg704
V00
p1685
sg706
VF-C
p1686
sg707
I201177
ssI201188
(dp1687
g135
VBarcelona, Spain
p1688
sg137
V255
p1689
sg139
V2017
p1690
sg141
F32.0
sg142
VJAN 29, 1985
p1691
sg144
V7-1
p1692
sg146
VMarc Gasol
p1693
sg148
I1610612763
sg149
V33
p1694
sg150
g780
sg151
V00
p1695
sg153
g47
sg154
I201188
ssI201196
(dp1696
g569
VNevada
p1697
sg571
V190
p1698
sg573
V2017
p1699
sg575
F31.0
sg576
VAPR 11, 1986
p1700
sg578
V6-3
p1701
sg580
VRamon Sessions
p1702
sg582
I1610612752
sg583
g87
sg585
V10
p1703
sg586
V00
p1704
sg588
g69
sg589
I201196
ssI2544
(dp1705
g665
VSt. Vincent-St. Mary HS (OH)
p1706
sg667
V250
p1707
sg669
V2017
p1708
sg671
F32.0
sg672
VDEC 30, 1984
p1709
sg674
V6-8
p1710
sg676
VLeBron James
p1711
sg678
I1610612739
sg679
V23
p1712
sg681
V14
p1713
sg682
V00
p1714
sg684
VF-G
p1715
sg685
I2544
ssI2546
(dp1716
g466
VSyracuse
p1717
sg468
V240
p1718
sg470
V2017
p1719
sg472
F33.0
sg473
VMAY 29, 1984
p1720
sg475
V6-8
p1721
sg477
VCarmelo Anthony
p1722
sg479
I1610612760
sg480
g207
sg482
V14
p1723
sg484
V00
p1724
sg486
g111
sg487
I2546
ssI2548
(dp1725
g665
VMarquette
p1726
sg667
V220
p1727
sg669
V2017
p1728
sg671
F35.0
sg672
VJAN 17, 1982
p1729
sg674
V6-4
p1730
sg676
VDwyane Wade
p1731
sg678
I1610612739
sg679
g780
sg681
V14
p1732
sg682
V00
p1733
sg684
g69
sg685
I2548
ssI2555
(dp1734
g466
VKansas
p1735
sg468
V255
p1736
sg470
V2017
p1737
sg472
F37.0
sg473
VOCT 26, 1980
p1738
sg475
V6-10
p1739
sg477
VNick Collison
p1740
sg479
I1610612760
sg480
g544
sg482
V13
p1741
sg484
V00
p1742
sg486
g111
sg487
I2555
ssI2561
(dp1743
g417
VXavier
p1744
sg419
V250
p1745
sg421
V2017
p1746
sg423
F37.0
sg424
VAUG 29, 1980
p1747
sg426
V6-9
p1748
sg428
VDavid West
p1749
sg430
I1610612744
sg431
g109
sg432
V14
p1750
sg433
V00
p1751
sg435
g111
sg436
I2561
ssI1626643
(dp1752
g26
VKansas State
p1753
sg28
V200
p1754
sg30
V2017
p1755
sg32
F28.0
sg33
VNOV 10, 1989
p1756
sg35
V6-1
p1757
sg37
VJacob Pullen
p1758
sg39
I1610612755
sg40
V00
p1759
sg42
g483
sg44
V00
p1760
sg46
g69
sg48
I1626643
ssI2585
(dp1761
g417
VTbilisi, Georgia
p1762
sg419
V270
p1763
sg421
V2017
p1764
sg423
F33.0
sg424
VFEB 10, 1984
p1765
sg426
V6-11
p1766
sg428
VZaza Pachulia
p1767
sg430
I1610612744
sg431
V27
p1768
sg432
V14
p1769
sg433
V00
p1770
sg435
g47
sg436
I2585
ssI1626202
(dp1771
g371
VOregon
p1772
sg373
V185
p1773
sg375
V2017
p1774
sg377
F25.0
sg378
VJUN 27, 1992
p1775
sg380
V6-2
p1776
sg382
VJoe Young
p1777
sg384
I1610612754
sg385
g109
sg387
g43
sg388
V00
p1778
sg390
g69
sg391
I1626202
ssI2594
(dp1779
g665
VCreighton
p1780
sg667
V212
p1781
sg669
V2017
p1782
sg671
F36.0
sg672
VMAR 17, 1981
p1783
sg674
V6-7
p1784
sg676
VKyle Korver
p1785
sg678
I1610612739
sg679
V26
p1786
sg681
V14
p1787
sg682
V00
p1788
sg684
g69
sg685
I2594
ssI2617
(dp1789
g250
VFlorida
p1790
sg252
V235
p1791
sg254
V2017
p1792
sg256
F37.0
sg257
VJUN 09, 1980
p1793
sg259
V6-8
p1794
sg261
VUdonis Haslem
p1795
sg263
I1610612748
sg264
V40
p1796
sg266
V14
p1797
sg267
V00
p1798
sg269
g111
sg270
I2617
ssI203382
(dp1799
g498
VWashington State
p1800
sg500
V260
p1801
sg502
V2017
p1802
sg504
F30.0
sg505
VDEC 09, 1986
p1803
sg507
V6-10
p1804
sg509
VAron Baynes
p1805
sg511
I1610612738
sg512
V46
p1806
sg514
g19
sg515
V00
p1807
sg517
g47
sg518
I203382
ssI201152
(dp1808
g371
VGeorgia Tech
p1809
sg373
V230
p1810
sg375
V2017
p1811
sg377
F29.0
sg378
VJUN 21, 1988
p1812
sg380
V6-8
p1813
sg382
VThaddeus Young
p1814
sg384
I1610612754
sg385
V21
p1815
sg387
V10
p1816
sg388
V00
p1817
sg390
g111
sg391
I201152
ssI2733
(dp1818
g417
VPeoria Central HS (IL)
p1819
sg419
V192
p1820
sg421
V2017
p1821
sg423
F32.0
sg424
VSEP 11, 1985
p1822
sg426
V6-7
p1823
sg428
VShaun Livingston
p1824
sg430
I1610612744
sg431
V34
p1825
sg432
V12
p1826
sg433
V00
p1827
sg435
g69
sg436
I2733
ssI2734
(dp1828
g687
VWisconsin
p1829
sg689
V185
p1830
sg691
V2017
p1831
sg693
F34.0
sg694
VFEB 27, 1983
p1832
sg696
V6-3
p1833
sg698
VDevin Harris
p1834
sg700
I1610612742
sg701
V34
p1835
sg702
V13
p1836
sg704
V00
p1837
sg706
g69
sg707
I2734
ssI2736
(dp1838
g617
VDuke
p1839
sg619
V220
p1840
sg621
V2017
p1841
sg623
F32.0
sg624
VAPR 16, 1985
p1842
sg626
V6-9
p1843
sg628
VLuol Deng
p1844
sg630
I1610612747
sg631
g780
sg632
V13
p1845
sg633
V00
p1846
sg635
g111
sg636
I2736
ssI2738
(dp1847
g417
VArizona
p1848
sg419
V215
p1849
sg421
V2017
p1850
sg423
F33.0
sg424
VJAN 28, 1984
p1851
sg426
V6-6
p1852
sg428
VAndre Iguodala
p1853
sg430
I1610612744
sg431
g780
sg432
V13
p1854
sg433
V00
p1855
sg435
VG-F
p1856
sg436
I2738
ssI2744
(dp1857
g371
VPrentiss HS (MS)
p1858
sg373
V280
p1859
sg375
V2017
p1860
sg377
F32.0
sg378
VJAN 04, 1985
p1861
sg380
V6-10
p1862
sg382
VAl Jefferson
p1863
sg384
I1610612754
sg385
V25
p1864
sg387
V13
p1865
sg388
V00
p1866
sg390
g47
sg391
I2744
ssI2747
(dp1867
g665
VSt. Benedict's Prep (NJ)
p1868
sg667
V225
p1869
sg669
V2017
p1870
sg671
F32.0
sg672
VSEP 09, 1985
p1871
sg674
V6-6
p1872
sg676
VJR Smith
p1873
sg678
I1610612739
sg679
g19
sg681
V13
p1874
sg682
V00
p1875
sg684
VG-F
p1876
sg685
I2747
ssI2749
(dp1877
g1039
VSaint Joseph's
p1878
sg1041
V190
p1879
sg1043
V2017
p1880
sg1045
F35.0
sg1046
VFEB 09, 1982
p1881
sg1048
V6-0
p1882
sg1050
VJameer Nelson
p1883
sg1052
I1610612740
sg1053
V14
p1884
sg1055
V13
p1885
sg1056
V00
p1886
sg1058
g69
sg1059
I2749
ssI203457
(dp1887
g687
VKentucky
p1888
sg689
V220
p1889
sg691
V2017
p1890
sg693
F23.0
sg694
VAPR 10, 1994
p1891
sg696
V6-11
p1892
sg698
VNerlens Noel
p1893
sg700
I1610612742
sg701
g109
sg702
g109
sg704
V00
p1894
sg706
g47
sg707
I203457
ssI2754
(dp1895
g1039
VOklahoma State
p1896
sg1041
V213
p1897
sg1043
V2017
p1898
sg1045
F35.0
sg1046
VJAN 11, 1982
p1899
sg1048
V6-4
p1900
sg1050
VTony Allen
p1901
sg1052
I1610612740
sg1053
V24
p1902
sg1055
V13
p1903
sg1056
V00
p1904
sg1058
VG-F
p1905
sg1059
I2754
ssI203459
(dp1906
g210
VCalifornia
p1907
sg212
V215
p1908
sg214
V2017
p1909
sg216
F25.0
sg217
VAPR 09, 1992
p1910
sg219
V6-6
p1911
sg221
VAllen Crabbe
p1912
sg223
I1610612751
sg224
V33
p1913
sg225
g544
sg226
V00
p1914
sg228
VG-F
p1915
sg229
I203459
ssI203460
(dp1916
g466
VColorado
p1917
sg468
V210
p1918
sg470
V2017
p1919
sg472
F25.0
sg473
VDEC 04, 1991
p1920
sg475
V6-7
p1921
sg477
VAndre Roberson
p1922
sg479
I1610612760
sg480
V21
p1923
sg482
g544
sg484
V00
p1924
sg486
g69
sg487
I203460
ssI203463
(dp1925
g135
VKansas
p1926
sg137
V195
p1927
sg139
V2017
p1928
sg141
F24.0
sg142
VFEB 11, 1993
p1929
sg144
V6-5
p1930
sg146
VBen McLemore
p1931
sg148
I1610612763
sg149
V23
p1932
sg150
g544
sg151
V00
p1933
sg153
g69
sg154
I203463
ssI203464
(dp1934
g178
Nsg180
V200
p1935
sg182
V2017
p1936
sg184
F26.0
sg185
VAPR 30, 1991
p1937
sg187
V6-4
p1938
sg189
VBrandon Paul
p1939
sg191
I1610612759
sg192
g109
sg194
g483
sg196
V00
p1940
sg198
g69
sg199
I203464
ssI203471
(dp1941
g859
VGermany
p1942
sg861
V172
p1943
sg863
V2017
p1944
sg865
F24.0
sg866
VSEP 15, 1993
p1945
sg868
V6-1
p1946
sg870
VDennis Schroder
p1947
sg872
I1610612737
sg873
V17
p1948
sg875
g544
sg876
V00
p1949
sg878
g69
sg880
I203471
ssI203473
(dp1950
g859
VSouthern California
p1951
sg861
V245
p1952
sg863
V2017
p1953
sg865
F28.0
sg866
VAUG 12, 1989
p1954
sg868
V7-0
p1955
sg870
VDewayne Dedmon
p1956
sg872
I1610612737
sg873
V14
p1957
sg875
g544
sg876
V00
p1958
sg878
g47
sg880
I203473
ssI2772
(dp1959
g547
VUCLA
p1960
sg549
V215
p1961
sg551
V2017
p1962
sg553
F32.0
sg554
VJUN 30, 1985
p1963
sg556
V6-8
p1964
sg558
VTrevor Ariza
p1965
sg560
I1610612745
sg561
g87
sg562
V13
p1966
sg564
V00
p1967
sg566
VF-G
p1968
sg567
I2772
ssI203481
(dp1969
g687
VKansas
p1970
sg689
V230
p1971
sg691
V2017
p1972
sg693
F27.0
sg694
VMAR 07, 1990
p1973
sg696
V7-0
p1974
sg698
VJeff Withey
p1975
sg700
I1610612742
sg701
V17
p1976
sg702
g544
sg704
V00
p1977
sg706
g47
sg707
I203481
ssI203482
(dp1978
g250
VGonzaga
p1979
sg252
V245
p1980
sg254
V2017
p1981
sg256
F26.0
sg257
VAPR 19, 1991
p1982
sg259
V7-0
p1983
sg261
VKelly Olynyk
p1984
sg263
I1610612748
sg264
g780
sg266
g544
sg267
V00
p1985
sg269
VC-F
p1986
sg270
I203482
ssI203484
(dp1987
g617
VGeorgia
p1988
sg619
V205
p1989
sg621
V2017
p1990
sg623
F24.0
sg624
VFEB 18, 1993
p1991
sg626
V6-5
p1992
sg628
VKentavious Caldwell-Pope
p1993
sg630
I1610612747
sg631
g87
sg632
g544
sg633
V00
p1994
sg635
g69
sg636
I203484
ssI203485
(dp1995
g156
VNorth Carolina State
p1996
sg158
V189
p1997
sg160
V2017
p1998
sg162
F27.0
sg163
VAUG 26, 1990
p1999
sg165
V6-5
p2000
sg167
VLorenzo Brown
p2001
sg169
I1610612761
sg170
g544
sg172
g109
sg173
V00
p2002
sg175
g69
sg176
I203485
ssI203486
(dp2003
g50
VDuke
p2004
sg51
V255
p2005
sg53
V2017
p2006
sg55
F27.0
sg56
VMAR 05, 1990
p2007
sg58
V6-11
p2008
sg60
VMason Plumlee
p2009
sg62
I1610612743
sg63
V24
p2010
sg65
g544
sg66
V00
p2011
sg68
VC-F
p2012
sg70
I203486
ssI203488
(dp2013
g859
VBucknell
p2014
sg861
V240
p2015
sg863
V2017
p2016
sg865
F26.0
sg866
VJUL 01, 1991
p2017
sg868
V6-11
p2018
sg870
VMike Muscala
p2019
sg872
I1610612737
sg873
V31
p2020
sg875
g544
sg876
V00
p2021
sg878
VF-C
p2022
sg880
I203488
ssI203489
(dp2023
g326
VSouth Dakota State
p2024
sg328
V190
p2025
sg330
V2017
p2026
sg332
F26.0
sg333
VMAY 15, 1991
p2027
sg335
V6-4
p2028
sg337
VNate Wolters
p2029
sg339
I1610612762
sg340
V16
p2030
sg342
g43
sg344
V00
p2031
sg346
g69
sg347
I203489
ssI203496
(dp2032
g26
VTennessee State
p2033
sg28
V225
p2034
sg30
V2017
p2035
sg32
F26.0
sg33
VDEC 14, 1990
p2036
sg35
V6-9
p2037
sg37
VRobert Covington
p2038
sg39
I1610612755
sg40
V33
p2039
sg42
g544
sg44
V00
p2040
sg46
g111
sg48
I203496
ssI203497
(dp2041
g326
VFrance
p2042
sg328
V245
p2043
sg330
V2017
p2044
sg332
F25.0
sg333
VJUN 26, 1992
p2045
sg335
V7-1
p2046
sg337
VRudy Gobert
p2047
sg339
I1610612762
sg340
V27
p2048
sg342
g544
sg344
V00
p2049
sg346
g47
sg347
I203497
ssI203498
(dp2050
g72
VUCLA
p2051
sg74
V221
p2052
sg76
V2017
p2053
sg78
F24.0
sg79
VNOV 13, 1992
p2054
sg81
V6-6
p2055
sg83
VShabazz Muhammad
p2056
sg85
I1610612750
sg86
V15
p2057
sg88
g544
sg89
V00
p2058
sg91
VG-F
p2059
sg92
I203498
ssI203499
(dp2060
g498
VMiami (FL)
p2061
sg500
V175
p2062
sg502
V2017
p2063
sg504
F25.0
sg505
VOCT 02, 1992
p2064
sg507
V5-11
p2065
sg509
VShane Larkin
p2066
sg511
I1610612738
sg512
g41
sg514
g109
sg515
V00
p2067
sg517
g69
sg518
I203499
ssI203500
(dp2068
g466
VPittsburgh
p2069
sg468
V255
p2070
sg470
V2017
p2071
sg472
F24.0
sg473
VJUL 20, 1993
p2072
sg475
V7-0
p2073
sg477
VSteven Adams
p2074
sg479
I1610612760
sg480
V12
p2075
sg482
g544
sg484
V00
p2076
sg486
g47
sg487
I203500
ssI203501
(dp2077
g569
VMichigan
p2078
sg571
V205
p2079
sg573
V2017
p2080
sg575
F25.0
sg576
VMAR 16, 1992
p2081
sg578
V6-6
p2082
sg580
VTim Hardaway Jr.
p2083
sg582
I1610612752
sg583
g109
sg585
g544
sg586
V00
p2084
sg588
VF-G
p2085
sg589
I203501
ssI203503
(dp2086
g304
VNew Mexico
p2087
sg306
V221
p2088
sg308
V2017
p2089
sg310
F26.0
sg311
VNOV 10, 1991
p2090
sg313
V6-7
p2091
sg315
VTony Snell
p2092
sg317
I1610612749
sg318
V21
p2093
sg320
g544
sg321
V00
p2094
sg323
g69
sg324
I203503
ssI203505
(dp2095
g617
VMarquette
p2096
sg619
V200
p2097
sg621
V2017
p2098
sg623
F25.0
sg624
VJUL 17, 1992
p2099
sg626
V6-5
p2100
sg628
VVander Blue
p2101
sg630
I1610612747
sg631
V17
p2102
sg632
g43
sg633
V00
p2103
sg635
g69
sg636
I203505
ssI101106
(dp2104
g617
VUtah
p2105
sg619
V260
p2106
sg621
V2017
p2107
sg623
F32.0
sg624
VNOV 28, 1984
p2108
sg626
V7-0
p2109
sg628
VAndrew Bogut
p2110
sg630
I1610612747
sg631
V66
p2111
sg632
V12
p2112
sg633
V00
p2113
sg635
g47
sg636
I101106
ssI203507
(dp2114
g304
VGreece
p2115
sg306
V222
p2116
sg308
V2017
p2117
sg310
F22.0
sg311
VDEC 06, 1994
p2118
sg313
V6-11
p2119
sg315
VGiannis Antetokounmpo
p2120
sg317
I1610612749
sg318
V34
p2121
sg320
g544
sg321
V00
p2122
sg323
g111
sg324
I203507
ssI101108
(dp2123
g547
VWake Forest
p2124
sg549
V175
p2125
sg551
V2017
p2126
sg553
F32.0
sg554
VMAY 06, 1985
p2127
sg556
V6-0
p2128
sg558
VChris Paul
p2129
sg560
I1610612745
sg561
g109
sg562
V12
p2130
sg564
V00
p2131
sg566
g69
sg567
I101108
ssI101109
(dp2132
g466
VNorth Carolina
p2133
sg468
V205
p2134
sg470
V2017
p2135
sg472
F33.0
sg473
VJUN 26, 1984
p2136
sg475
V6-1
p2137
sg477
VRaymond Felton
p2138
sg479
I1610612760
sg480
g43
sg482
V12
p2139
sg484
V00
p2140
sg486
g69
sg487
I101109
ssI203512
(dp2141
g156
Nsg158
V220
p2142
sg160
V2017
p2143
sg162
F25.0
sg163
VJUL 26, 1992
p2144
sg165
V7-0
p2145
sg167
VLucas Nogueira
p2146
sg169
I1610612761
sg170
V92
p2147
sg172
g109
sg173
V00
p2148
sg175
g47
sg176
I203512
ssI203516
(dp2149
g135
VLong Beach State
p2150
sg137
V210
p2151
sg139
V2017
p2152
sg141
F27.0
sg142
VJUL 01, 1990
p2153
sg144
V6-7
p2154
sg146
VJames Ennis III
p2155
sg148
I1610612763
sg149
g41
sg150
g109
sg151
V00
p2156
sg153
g111
sg154
I203516
ssI203518
(dp2157
g466
Nsg468
V190
p2158
sg470
V2017
p2159
sg472
F24.0
sg473
VAUG 01, 1993
p2160
sg475
V6-6
p2161
sg477
VAlex Abrines
p2162
sg479
I1610612760
sg480
g41
sg482
g87
sg484
V00
p2163
sg486
g69
sg487
I203518
ssI203521
(dp2164
g304
VSaint Mary's (CA)
p2165
sg306
V198
p2166
sg308
V2017
p2167
sg310
F27.0
sg311
VSEP 08, 1990
p2168
sg313
V6-4
p2169
sg315
VMatthew Dellavedova
p2170
sg317
I1610612749
sg318
g41
sg320
g544
sg321
V00
p2171
sg323
g69
sg324
I203521
ssI203524
(dp2172
g1039
VArizona
p2173
sg1041
V225
p2174
sg1043
V2017
p2175
sg1045
F26.0
sg1046
VMAR 18, 1991
p2176
sg1048
V6-7
p2177
sg1050
VSolomon Hill
p2178
sg1052
I1610612740
sg1053
V44
p2179
sg1055
g544
sg1056
V00
p2180
sg1058
g111
sg1059
I203524
ssI203526
(dp2181
g326
Nsg328
V179
p2182
sg330
V2017
p2183
sg332
F25.0
sg333
VMAY 19, 1992
p2184
sg335
V6-1
p2185
sg337
VRaul Neto
p2186
sg339
I1610612762
sg340
V25
p2187
sg342
g43
sg344
V00
p2188
sg346
g69
sg347
I203526
ssI101127
(dp2189
g569
VGeorgia Tech
p2190
sg571
V200
p2191
sg573
V2017
p2192
sg575
F34.0
sg576
VOCT 28, 1983
p2193
sg578
V6-3
p2194
sg580
VJarrett Jack
p2195
sg582
I1610612752
sg583
V55
p2196
sg585
V12
p2197
sg586
V00
p2198
sg588
g69
sg589
I101127
ssI203530
(dp2199
g178
Nsg180
V260
p2200
sg182
V2017
p2201
sg184
F26.0
sg185
VSEP 30, 1991
p2202
sg187
V6-11
p2203
sg189
VJoffrey Lauvergne
p2204
sg191
I1610612759
sg192
V77
p2205
sg194
g109
sg196
V00
p2206
sg198
g47
sg199
I203530
ssI101139
(dp2207
g156
VSkyline HS (TX)
p2208
sg158
V225
p2209
sg160
V2017
p2210
sg162
F30.0
sg163
VMAR 18, 1987
p2211
sg165
V6-6
p2212
sg167
VCJ Miles
p2213
sg169
I1610612761
sg170
g64
sg172
V12
p2214
sg173
V00
p2215
sg175
VF-G
p2216
sg176
I101139
ssI101141
(dp2217
g859
VEskisehir, Turkey
p2218
sg861
V235
p2219
sg863
V2017
p2220
sg865
F30.0
sg866
VMAY 15, 1987
p2221
sg868
V6-10
p2222
sg870
VErsan Ilyasova
p2223
sg872
I1610612737
sg873
g207
sg875
g780
sg876
V00
p2224
sg878
g111
sg880
I101141
ssI203546
(dp2225
g1039
VBelmont
p2226
sg1041
V175
p2227
sg1043
V2017
p2228
sg1045
F26.0
sg1046
VMAR 07, 1991
p2229
sg1048
V6-3
p2230
sg1050
VIan Clark
p2231
sg1052
I1610612740
sg1053
g43
sg1055
g544
sg1056
V00
p2232
sg1058
g69
sg1059
I203546
ssI203547
(dp2233
g326
VCampbell
p2234
sg328
V205
p2235
sg330
V2017
p2236
sg332
F27.0
sg333
VMAY 26, 1990
p2237
sg335
V6-8
p2238
sg337
VEric Griffin
p2239
sg339
I1610612762
sg340
V17
p2240
sg342
g483
sg344
V00
p2241
sg346
VC-F
p2242
sg347
I203547
ssI101150
(dp2243
g113
VSouth Gwinnett HS (GA)
p2244
sg115
V175
p2245
sg117
V2017
p2246
sg119
F31.0
sg120
VOCT 27, 1986
p2247
sg122
V6-1
p2248
sg124
VLou Williams
p2249
sg126
I1610612746
sg127
V23
p2250
sg128
V12
p2251
sg129
V00
p2252
sg131
g69
sg133
I101150
ssI203552
(dp2253
g687
VDuke
p2254
sg689
V185
p2255
sg691
V2017
p2256
sg693
F27.0
sg694
VAUG 23, 1990
p2257
sg696
V6-2
p2258
sg698
VSeth Curry
p2259
sg700
I1610612742
sg701
V30
p2260
sg702
g544
sg704
V00
p2261
sg706
g69
sg707
I203552
ssI101161
(dp2262
g26
VWestchester HS (Los Angeles)
p2263
sg28
V240
p2264
sg30
V2017
p2265
sg32
F30.0
sg33
VMAY 01, 1987
p2266
sg35
V6-9
p2267
sg37
VAmir Johnson
p2268
sg39
I1610612755
sg40
g19
sg42
V12
p2269
sg44
V00
p2270
sg46
VF-C
p2271
sg48
I101161
ssI2863
(dp2272
g371
VGeorgia
p2273
sg373
V217
p2274
sg375
V2017
p2275
sg377
F37.0
sg378
VJAN 11, 1980
p2276
sg380
V6-6
p2277
sg382
VDamien Wilkins
p2278
sg384
I1610612754
sg385
V12
p2279
sg387
g780
sg388
V00
p2280
sg390
VG-F
p2281
sg391
I2863
ssI101181
(dp2282
g665
VVillanueva de la Serena, Spain
p2283
sg667
V200
p2284
sg669
V2017
p2285
sg671
F36.0
sg672
VSEP 28, 1981
p2286
sg674
V6-3
p2287
sg676
VJose Calderon
p2288
sg678
I1610612739
sg679
V81
p2289
sg681
V12
p2290
sg682
V00
p2291
sg684
g69
sg685
I101181
ssI203585
(dp2292
g250
VKansas State
p2293
sg252
V200
p2294
sg254
V2017
p2295
sg256
F26.0
sg257
VJUL 29, 1991
p2296
sg259
V6-4
p2297
sg261
VRodney McGruder
p2298
sg263
I1610612748
sg264
V17
p2299
sg266
g87
sg267
V00
p2300
sg269
VG-F
p2301
sg270
I203585
ssI201563
(dp2302
g569
VKansas State
p2303
sg571
V235
p2304
sg573
V2017
p2305
sg575
F28.0
sg576
VJAN 09, 1989
p2306
sg578
V6-9
p2307
sg580
VMichael Beasley
p2308
sg582
I1610612752
sg583
g41
sg585
g780
sg586
V00
p2309
sg588
g111
sg589
I201563
ssI201565
(dp2310
g665
VMemphis
p2311
sg667
V190
p2312
sg669
V2017
p2313
sg671
F29.0
sg672
VOCT 04, 1988
p2314
sg674
V6-3
p2315
sg676
VDerrick Rose
p2316
sg678
I1610612739
sg679
g87
sg681
g41
sg682
V00
p2317
sg684
g69
sg685
I201565
ssI201566
(dp2318
g466
VUCLA
p2319
sg468
V200
p2320
sg470
V2017
p2321
sg472
F28.0
sg473
VNOV 12, 1988
p2322
sg475
V6-3
p2323
sg477
VRussell Westbrook
p2324
sg479
I1610612760
sg480
g64
sg482
g780
sg484
V00
p2325
sg486
g69
sg487
I201566
ssI201567
(dp2326
g665
VUCLA
p2327
sg667
V251
p2328
sg669
V2017
p2329
sg671
F29.0
sg672
VSEP 07, 1988
p2330
sg674
V6-10
p2331
sg676
VKevin Love
p2332
sg678
I1610612739
sg679
g64
sg681
g780
sg682
V00
p2333
sg684
VF-C
p2334
sg685
I201567
ssI201568
(dp2335
g113
VSant'Angelo Lodigiano, Italy
p2336
sg115
V225
p2337
sg117
V2017
p2338
sg119
F29.0
sg120
VAUG 08, 1988
p2339
sg122
V6-10
p2340
sg124
VDanilo Gallinari
p2341
sg126
I1610612746
sg127
g41
sg128
g41
sg129
V00
p2342
sg131
g111
sg133
I201568
ssI201569
(dp2343
g547
VIndiana
p2344
sg549
V215
p2345
sg551
V2017
p2346
sg553
F28.0
sg554
VDEC 25, 1988
p2347
sg556
V6-4
p2348
sg558
VEric Gordon
p2349
sg560
I1610612745
sg561
V10
p2350
sg562
g780
sg564
V00
p2351
sg566
g69
sg567
I201569
ssI201571
(dp2352
g2
VTexas
p2353
sg4
V183
p2354
sg6
V2017
p2355
sg8
F30.0
sg9
VNOV 10, 1987
p2356
sg11
V6-0
p2357
sg13
VD.J. Augustin
p2358
sg15
I1610612753
sg16
V14
p2359
sg18
g780
sg20
V00
p2360
sg22
g69
sg24
I201571
ssI201572
(dp2361
g617
VStanford
p2362
sg619
V268
p2363
sg621
V2017
p2364
sg623
F29.0
sg624
VAPR 01, 1988
p2365
sg626
V7-0
p2366
sg628
VBrook Lopez
p2367
sg630
I1610612747
sg631
V11
p2368
sg632
g780
sg633
V00
p2369
sg635
g47
sg636
I201572
ssI201573
(dp2370
g26
VArizona
p2371
sg28
V200
p2372
sg30
V2017
p2373
sg32
F29.0
sg33
VAUG 20, 1988
p2374
sg35
V6-3
p2375
sg37
VJerryd Bayless
p2376
sg39
I1610612755
sg40
g64
sg42
g780
sg44
V00
p2377
sg46
g69
sg48
I201573
ssI201577
(dp2378
g349
VStanford
p2379
sg351
V277
p2380
sg353
V2017
p2381
sg355
F29.0
sg356
VAPR 01, 1988
p2382
sg358
V7-0
p2383
sg360
VRobin Lopez
p2384
sg362
I1610612741
sg363
V42
p2385
sg365
g780
sg366
V00
p2386
sg368
g47
sg369
I201577
ssI201578
(dp2387
g2
VFlorida
p2388
sg4
V255
p2389
sg6
V2017
p2390
sg8
F30.0
sg9
VAUG 04, 1987
p2391
sg11
V6-10
p2392
sg13
VMarreese Speights
p2393
sg15
I1610612753
sg16
g19
sg18
g780
sg20
V00
p2394
sg22
VF-C
p2395
sg24
I201578
ssI201580
(dp2396
g417
VNevada
p2397
sg419
V270
p2398
sg421
V2017
p2399
sg423
F29.0
sg424
VJAN 19, 1988
p2400
sg426
V7-0
p2401
sg428
VJaVale McGee
p2402
sg430
I1610612744
sg431
g87
sg432
g780
sg433
V00
p2403
sg435
g47
sg436
I201580
ssI201582
(dp2404
g1039
VSaint Etienne, France
p2405
sg1041
V248
p2406
sg1043
V2017
p2407
sg1045
F29.0
sg1046
VMAY 06, 1988
p2408
sg1048
V7-2
p2409
sg1050
VAlexis Ajinca
p2410
sg1052
I1610612740
sg1053
V42
p2411
sg1055
g207
sg1056
V00
p2412
sg1058
g47
sg1059
I201582
ssI201583
(dp2413
g547
VCalifornia
p2414
sg549
V240
p2415
sg551
V2017
p2416
sg553
F29.0
sg554
VMAY 06, 1988
p2417
sg556
V6-10
p2418
sg558
VRyan Anderson
p2419
sg560
I1610612745
sg561
V33
p2420
sg562
g780
sg564
V00
p2421
sg566
g111
sg567
I201583
ssI201584
(dp2422
g569
VWestern Kentucky
p2423
sg571
V200
p2424
sg573
V2017
p2425
sg575
F32.0
sg576
VOCT 03, 1985
p2426
sg578
V6-5
p2427
sg580
VCourtney Lee
p2428
sg582
I1610612752
sg583
g19
sg585
g780
sg586
V00
p2429
sg588
g69
sg589
I201584
ssI201585
(dp2430
g282
VOhio State
p2431
sg284
V265
p2432
sg286
V2017
p2433
sg288
F28.0
sg289
VFEB 24, 1989
p2434
sg291
V7-0
p2435
sg293
VKosta Koufos
p2436
sg295
I1610612758
sg296
V41
p2437
sg298
g780
sg299
V00
p2438
sg301
g47
sg302
I201585
ssI201586
(dp2439
g156
VBrazzaville, Rep. of Congo
p2440
sg158
V235
p2441
sg160
V2017
p2442
sg162
F28.0
sg163
VSEP 18, 1989
p2443
sg165
V6-10
p2444
sg167
VSerge Ibaka
p2445
sg169
I1610612761
sg170
g780
sg172
g41
sg173
V00
p2446
sg175
g111
sg176
I201586
ssI201588
(dp2447
g282
VIndiana Purdue-Indianapolis
p2448
sg284
V188
p2449
sg286
V2017
p2450
sg288
F31.0
sg289
VMAY 04, 1986
p2451
sg291
V6-3
p2452
sg293
VGeorge Hill
p2453
sg295
I1610612758
sg296
g109
sg298
g780
sg299
V00
p2454
sg301
g69
sg302
I201588
ssI201589
(dp2455
g50
VKansas
p2456
sg51
V235
p2457
sg53
V2017
p2458
sg55
F29.0
sg56
VMAR 25, 1988
p2459
sg58
V6-9
p2460
sg60
VDarrell Arthur
p2461
sg62
I1610612743
sg63
V00
p2462
sg65
g41
sg66
V00
p2463
sg68
g111
sg70
I201589
ssI201596
(dp2464
g135
VKansas
p2465
sg137
V190
p2466
sg139
V2017
p2467
sg141
F31.0
sg142
VMAY 19, 1986
p2468
sg144
V6-2
p2469
sg146
VMario Chalmers
p2470
sg148
I1610612763
sg149
g563
sg150
g41
sg151
V00
p2471
sg153
g69
sg154
I201596
ssI201599
(dp2472
g113
VTexas A&M
p2473
sg115
V265
p2474
sg117
V2017
p2475
sg119
F29.0
sg120
VJUL 21, 1988
p2476
sg122
V6-11
p2477
sg124
VDeAndre Jordan
p2478
sg126
I1610612746
sg127
g563
sg128
g780
sg129
V00
p2479
sg131
g47
sg133
I201599
ssI201600
(dp2480
g1039
VTurkey
p2481
sg1041
V255
p2482
sg1043
V2017
p2483
sg1045
F31.0
sg1046
VJUL 04, 1986
p2484
sg1048
V7-0
p2485
sg1050
VOmer Asik
p2486
sg1052
I1610612740
sg1053
g109
sg1055
g207
sg1056
V00
p2487
sg1058
g47
sg1059
I201600
ssI201601
(dp2488
g547
VUCLA
p2489
sg549
V230
p2490
sg551
V2017
p2491
sg553
F31.0
sg554
VSEP 09, 1986
p2492
sg556
V6-8
p2493
sg558
VLuc Mbah a Moute
p2494
sg560
I1610612745
sg561
V12
p2495
sg562
g780
sg564
V00
p2496
sg566
g111
sg567
I201601
ssI201609
(dp2497
g250
VLjubljana, Slovenia
p2498
sg252
V190
p2499
sg254
V2017
p2500
sg256
F31.0
sg257
VMAY 06, 1986
p2501
sg259
V6-3
p2502
sg261
VGoran Dragic
p2503
sg263
I1610612748
sg264
g207
sg266
g780
sg267
V00
p2504
sg269
g69
sg270
I201609
ssI201628
(dp2505
g547
VCal State-Fullerton
p2506
sg549
V175
p2507
sg551
V2017
p2508
sg553
F33.0
sg554
VSEP 24, 1984
p2509
sg556
V6-2
p2510
sg558
VBobby Brown
p2511
sg560
I1610612745
sg561
g563
sg562
g109
sg564
V00
p2512
sg566
g69
sg567
I201628
ssI203705
(dp2513
g859
VAlabama-Huntsville
p2514
sg861
V160
p2515
sg863
V2017
p2516
sg865
F27.0
sg866
VNOV 28, 1989
p2517
sg868
V6-1
p2518
sg870
VJosh Magette
p2519
sg872
I1610612737
sg873
V11
p2520
sg875
g483
sg876
V00
p2521
sg878
g69
sg880
I203705
ssI203710
(dp2522
g113
VNorth Carolina State
p2523
sg115
V230
p2524
sg117
V2017
p2525
sg119
F27.0
sg120
VFEB 06, 1990
p2526
sg122
V6-5
p2527
sg124
VC.J. Williams
p2528
sg126
I1610612746
sg127
g780
sg128
g483
sg129
V00
p2529
sg131
g69
sg133
I203710
ssI1627098
(dp2530
g859
VVirginia Tech
p2531
sg861
V190
p2532
sg863
V2017
p2533
sg865
F28.0
sg866
VMAR 11, 1989
p2534
sg868
V6-3
p2535
sg870
VMalcolm Delaney
p2536
sg872
I1610612737
sg873
g19
sg875
g87
sg876
V00
p2537
sg878
g69
sg880
I1627098
ssI203613
(dp2538
g2
VHouston
p2539
sg4
V195
p2540
sg6
V2017
p2541
sg8
F28.0
sg9
VSEP 14, 1989
p2542
sg11
V6-6
p2543
sg13
VJonathon Simmons
p2544
sg15
I1610612753
sg16
V17
p2545
sg18
g43
sg20
V00
p2546
sg22
g111
sg24
I203613
ssI203897
(dp2547
g349
VUCLA
p2548
sg351
V185
p2549
sg353
V2017
p2550
sg355
F22.0
sg356
VMAR 10, 1995
p2551
sg358
V6-5
p2552
sg360
VZach LaVine
p2553
sg362
I1610612741
sg363
g41
sg365
g109
sg366
V00
p2554
sg368
g69
sg369
I203897
ssI203898
(dp2555
g617
VSyracuse
p2556
sg619
V194
p2557
sg621
V2017
p2558
sg623
F23.0
sg624
VAUG 24, 1994
p2559
sg626
V6-3
p2560
sg628
VTyler Ennis
p2561
sg630
I1610612747
sg631
V10
p2562
sg632
g109
sg633
V00
p2563
sg635
g69
sg636
I203898
ssI203901
(dp2564
g2
VLouisiana-Lafayette
p2565
sg4
V185
p2566
sg6
V2017
p2567
sg8
F23.0
sg9
VFEB 22, 1994
p2568
sg11
V6-4
p2569
sg13
VElfrid Payton
p2570
sg15
I1610612753
sg16
g43
sg18
g109
sg20
V00
p2571
sg22
g69
sg24
I203901
ssI203903
(dp2572
g617
VMissouri
p2573
sg619
V194
p2574
sg621
V2017
p2575
sg623
F25.0
sg624
VJUN 07, 1992
p2576
sg626
V6-5
p2577
sg628
VJordan Clarkson
p2578
sg630
I1610612747
sg631
g563
sg632
g109
sg633
V00
p2579
sg635
g69
sg636
I203903
ssI203914
(dp2580
g50
VMichigan State
p2581
sg51
V210
p2582
sg53
V2017
p2583
sg55
F23.0
sg56
VSEP 14, 1994
p2584
sg58
V6-4
p2585
sg60
VGary Harris
p2586
sg62
I1610612743
sg63
V14
p2587
sg65
g109
sg66
V00
p2588
sg68
g69
sg70
I203914
ssI203915
(dp2589
g210
VColorado
p2590
sg212
V200
p2591
sg214
V2017
p2592
sg216
F24.0
sg217
VAPR 06, 1993
p2593
sg219
V6-6
p2594
sg221
VSpencer Dinwiddie
p2595
sg223
I1610612751
sg224
g41
sg225
g109
sg226
V00
p2596
sg228
g69
sg229
I203915
ssI203917
(dp2597
g26
VMichigan
p2598
sg28
V205
p2599
sg30
V2017
p2600
sg32
F24.0
sg33
VOCT 07, 1993
p2601
sg35
V6-6
p2602
sg37
VNik Stauskas
p2603
sg39
I1610612755
sg40
V11
p2604
sg42
g109
sg44
V00
p2605
sg46
g69
sg48
I203917
ssI203918
(dp2606
g326
VDuke
p2607
sg328
V206
p2608
sg330
V2017
p2609
sg332
F25.0
sg333
VOCT 20, 1992
p2610
sg335
V6-8
p2611
sg337
VRodney Hood
p2612
sg339
I1610612762
sg340
g19
sg342
g109
sg344
V00
p2613
sg346
g69
sg347
I203918
ssI203920
(dp2614
g2
VNevada-Las Vegas
p2615
sg4
V220
p2616
sg6
V2017
p2617
sg8
F25.0
sg9
VSEP 28, 1992
p2618
sg11
V6-9
p2619
sg13
VKhem Birch
p2620
sg15
I1610612753
sg16
V24
p2621
sg18
g483
sg20
V00
p2622
sg22
g47
sg24
I203920
ssI203922
(dp2623
g371
VMichigan
p2624
sg373
V215
p2625
sg375
V2017
p2626
sg377
F23.0
sg378
VJAN 08, 1994
p2627
sg380
V6-7
p2628
sg382
VGlenn Robinson III
p2629
sg384
I1610612754
sg385
V40
p2630
sg387
g109
sg388
V00
p2631
sg390
VG-F
p2632
sg391
I203922
ssI203924
(dp2633
g466
VSyracuse
p2634
sg468
V220
p2635
sg470
V2017
p2636
sg472
F23.0
sg473
VMAR 12, 1994
p2637
sg475
V6-9
p2638
sg477
VJerami Grant
p2639
sg479
I1610612760
sg480
g780
sg482
g109
sg484
V00
p2640
sg486
g111
sg487
I203924
ssI203925
(dp2641
g210
VVirginia
p2642
sg212
V219
p2643
sg214
V2017
p2644
sg216
F26.0
sg217
VSEP 06, 1991
p2645
sg219
V6-6
p2646
sg221
VJoe Harris
p2647
sg223
I1610612751
sg224
V12
p2648
sg225
g109
sg226
V00
p2649
sg228
g69
sg229
I203925
ssI203926
(dp2650
g569
VCreighton
p2651
sg571
V219
p2652
sg573
V2017
p2653
sg575
F25.0
sg576
VJAN 03, 1992
p2654
sg578
V6-8
p2655
sg580
VDoug McDermott
p2656
sg582
I1610612752
sg583
V20
p2657
sg585
g109
sg586
V00
p2658
sg588
g111
sg589
I203926
ssI203930
(dp2659
g210
VCincinnati
p2660
sg212
V212
p2661
sg214
V2017
p2662
sg216
F27.0
sg217
VJAN 06, 1990
p2663
sg219
V6-4
p2664
sg221
VSean Kilpatrick
p2665
sg223
I1610612751
sg224
g563
sg225
g109
sg226
V00
p2666
sg228
g69
sg229
I203930
ssI203932
(dp2667
g2
VArizona
p2668
sg4
V220
p2669
sg6
V2017
p2670
sg8
F22.0
sg9
VSEP 16, 1995
p2671
sg11
V6-9
p2672
sg13
VAaron Gordon
p2673
sg15
I1610612753
sg16
V00
p2674
sg18
g109
sg20
V00
p2675
sg22
g111
sg24
I203932
ssI203935
(dp2676
g498
VOklahoma State
p2677
sg500
V220
p2678
sg502
V2017
p2679
sg504
F23.0
sg505
VMAR 06, 1994
p2680
sg507
V6-4
p2681
sg509
VMarcus Smart
p2682
sg511
I1610612738
sg512
V36
p2683
sg514
g109
sg515
V00
p2684
sg517
g69
sg518
I203935
ssI203937
(dp2685
g178
VUCLA
p2686
sg180
V230
p2687
sg182
V2017
p2688
sg184
F24.0
sg185
VSEP 20, 1993
p2689
sg187
V6-9
p2690
sg189
VKyle Anderson
p2691
sg191
I1610612759
sg192
g87
sg194
g109
sg196
V00
p2692
sg198
g111
sg199
I203937
ssI203939
(dp2693
g687
VStanford
p2694
sg689
V240
p2695
sg691
V2017
p2696
sg693
F26.0
sg694
VJUL 20, 1991
p2697
sg696
V6-11
p2698
sg698
VDwight Powell
p2699
sg700
I1610612742
sg701
g207
sg702
g109
sg704
V00
p2700
sg706
VF-C
p2701
sg707
I203939
ssI203940
(dp2702
g2
VMichigan State
p2703
sg4
V237
p2704
sg6
V2017
p2705
sg8
F26.0
sg9
VFEB 19, 1991
p2706
sg11
V6-10
p2707
sg13
VAdreian Payne
p2708
sg15
I1610612753
sg16
V33
p2709
sg18
g109
sg20
V00
p2710
sg22
g111
sg24
I203940
ssI203944
(dp2711
g617
VKentucky
p2712
sg619
V250
p2713
sg621
V2017
p2714
sg623
F22.0
sg624
VNOV 29, 1994
p2715
sg626
V6-9
p2716
sg628
VJulius Randle
p2717
sg630
I1610612747
sg631
V30
p2718
sg632
g109
sg633
V00
p2719
sg635
VF-C
p2720
sg636
I203944
ssI203949
(dp2721
g26
VNorth Carolina
p2722
sg28
V230
p2723
sg30
V2017
p2724
sg32
F24.0
sg33
VJAN 04, 1993
p2725
sg35
V6-9
p2726
sg37
VJames Michael McAdoo
p2727
sg39
I1610612755
sg40
V14
p2728
sg42
g109
sg44
V00
p2729
sg46
g111
sg48
I203949
ssI203952
(dp2730
g72
VKansas
p2731
sg74
V202
p2732
sg76
V2017
p2733
sg78
F22.0
sg79
VFEB 23, 1995
p2734
sg81
V6-8
p2735
sg83
VAndrew Wiggins
p2736
sg85
I1610612750
sg86
V22
p2737
sg88
g109
sg89
V00
p2738
sg91
g111
sg92
I203952
ssI203953
(dp2739
g304
VDuke
p2740
sg306
V250
p2741
sg308
V2017
p2742
sg310
F22.0
sg311
VMAR 15, 1995
p2743
sg313
V6-8
p2744
sg315
VJabari Parker
p2745
sg317
I1610612749
sg318
V12
p2746
sg320
g109
sg321
V00
p2747
sg323
g111
sg324
I203953
ssI203954
(dp2748
g26
VKansas
p2749
sg28
V250
p2750
sg30
V2017
p2751
sg32
F23.0
sg33
VMAR 16, 1994
p2752
sg35
V7-0
p2753
sg37
VJoel Embiid
p2754
sg39
I1610612755
sg40
V21
p2755
sg42
g87
sg44
V00
p2756
sg46
g47
sg48
I203954
ssI203957
(dp2757
g326
Nsg328
V190
p2758
sg330
V2017
p2759
sg332
F22.0
sg333
VJUL 13, 1995
p2760
sg335
V6-6
p2761
sg337
VDante Exum
p2762
sg339
I1610612762
sg340
V11
p2763
sg342
g43
sg344
V00
p2764
sg346
g69
sg347
I203957
ssI203960
(dp2765
g282
VSt. John's (NY)
p2766
sg284
V207
p2767
sg286
V2017
p2768
sg288
F24.0
sg289
VMAR 20, 1993
p2769
sg291
V6-9
p2770
sg293
VJaKarr Sampson
p2771
sg295
I1610612758
sg296
V29
p2772
sg298
g43
sg299
V00
p2773
sg301
g111
sg302
I203960
ssI203962
(dp2774
g466
VStanford
p2775
sg468
V230
p2776
sg470
V2017
p2777
sg472
F25.0
sg473
VDEC 19, 1991
p2778
sg475
V6-7
p2779
sg477
VJosh Huestis
p2780
sg479
I1610612760
sg480
V34
p2781
sg482
g43
sg484
V00
p2782
sg486
g111
sg487
I203962
ssI203966
(dp2783
g113
VMarquette
p2784
sg115
V229
p2785
sg117
V2017
p2786
sg119
F26.0
sg120
VNOV 21, 1990
p2787
sg122
V6-7
p2788
sg124
VJamil Wilson
p2789
sg126
I1610612746
sg127
V13
p2790
sg128
g483
sg129
V00
p2791
sg131
g111
sg133
I203966
ssI203967
(dp2792
g26
Nsg28
V223
p2793
sg30
V2017
p2794
sg32
F23.0
sg33
VAPR 08, 1994
p2795
sg35
V6-10
p2796
sg37
VDario Saric
p2797
sg39
I1610612755
sg40
g780
sg42
g87
sg44
V00
p2798
sg46
g111
sg48
I203967
ssI201933
(dp2799
g113
VOklahoma
p2800
sg115
V251
p2801
sg117
V2017
p2802
sg119
F28.0
sg120
VMAR 16, 1989
p2803
sg122
V6-10
p2804
sg124
VBlake Griffin
p2805
sg126
I1610612746
sg127
V32
p2806
sg128
g207
sg129
V00
p2807
sg131
g111
sg133
I201933
ssI201935
(dp2808
g547
VArizona State
p2809
sg549
V220
p2810
sg551
V2017
p2811
sg553
F28.0
sg554
VAUG 26, 1989
p2812
sg556
V6-5
p2813
sg558
VJames Harden
p2814
sg560
I1610612745
sg561
V13
p2815
sg562
g41
sg564
V00
p2816
sg566
g69
sg567
I201935
ssI201936
(dp2817
g135
VMemphis
p2818
sg137
V220
p2819
sg139
V2017
p2820
sg141
F28.0
sg142
VSEP 19, 1989
p2821
sg144
V6-6
p2822
sg146
VTyreke Evans
p2823
sg148
I1610612763
sg149
V12
p2824
sg150
g41
sg151
V00
p2825
sg153
VG-F
p2826
sg154
I201936
ssI201937
(dp2827
g326
VEl Masnou, Spain
p2828
sg328
V190
p2829
sg330
V2017
p2830
sg332
F27.0
sg333
VOCT 21, 1990
p2831
sg335
V6-4
p2832
sg337
VRicky Rubio
p2833
sg339
I1610612762
sg340
g109
sg342
g563
sg344
V00
p2834
sg346
g69
sg347
I201937
ssI201939
(dp2835
g417
VDavidson
p2836
sg419
V190
p2837
sg421
V2017
p2838
sg423
F29.0
sg424
VMAR 14, 1988
p2839
sg426
V6-3
p2840
sg428
VStephen Curry
p2841
sg430
I1610612744
sg431
V30
p2842
sg432
g41
sg433
V00
p2843
sg435
g69
sg436
I201939
ssI201942
(dp2844
g156
VSouthern California
p2845
sg158
V220
p2846
sg160
V2017
p2847
sg162
F28.0
sg163
VAUG 07, 1989
p2848
sg165
V6-7
p2849
sg167
VDeMar DeRozan
p2850
sg169
I1610612761
sg170
V10
p2851
sg172
g41
sg173
V00
p2852
sg175
g69
sg176
I201942
ssI203991
(dp2853
g547
Nsg549
V240
p2854
sg551
V2017
p2855
sg553
F23.0
sg554
VMAY 18, 1994
p2856
sg556
V6-10
p2857
sg558
VClint Capela
p2858
sg560
I1610612745
sg561
V15
p2859
sg562
g109
sg564
V00
p2860
sg566
g47
sg567
I203991
ssI203992
(dp2861
g282
Nsg284
V205
p2862
sg286
V2017
p2863
sg288
F25.0
sg289
VAUG 18, 1992
p2864
sg291
V6-6
p2865
sg293
VBogdan Bogdanovic
p2866
sg295
I1610612758
sg296
g41
sg298
g483
sg299
V00
p2867
sg301
g69
sg302
I203992
ssI201949
(dp2868
g250
VWake Forest
p2869
sg252
V240
p2870
sg254
V2017
p2871
sg256
F30.0
sg257
VFEB 20, 1987
p2872
sg259
V6-8
p2873
sg261
VJames Johnson
p2874
sg263
I1610612748
sg264
V16
p2875
sg266
g41
sg267
V00
p2876
sg269
g111
sg270
I201949
ssI201950
(dp2877
g1039
VUCLA
p2878
sg1041
V205
p2879
sg1043
V2017
p2880
sg1045
F27.0
sg1046
VJUN 12, 1990
p2881
sg1048
V6-4
p2882
sg1050
VJrue Holiday
p2883
sg1052
I1610612740
sg1053
V11
p2884
sg1055
g41
sg1056
V00
p2885
sg1058
g69
sg1059
I201950
ssI203999
(dp2886
g50
Nsg51
V250
p2887
sg53
V2017
p2888
sg55
F22.0
sg56
VFEB 19, 1995
p2889
sg58
V6-10
p2890
sg60
VNikola Jokic
p2891
sg62
I1610612743
sg63
V15
p2892
sg65
g43
sg66
V00
p2893
sg68
g47
sg70
I203999
ssI201952
(dp2894
g72
VWake Forest
p2895
sg74
V189
p2896
sg76
V2017
p2897
sg78
F29.0
sg79
VJUN 10, 1988
p2898
sg81
V6-2
p2899
sg83
VJeff Teague
p2900
sg85
I1610612750
sg86
g64
sg88
g41
sg89
V00
p2901
sg91
g69
sg92
I201952
ssI204001
(dp2902
g569
Nsg571
V240
p2903
sg573
V2017
p2904
sg575
F22.0
sg576
VAUG 02, 1995
p2905
sg578
V7-3
p2906
sg580
VKristaps Porzingis
p2907
sg582
I1610612752
sg583
g563
sg585
g43
sg586
V00
p2908
sg588
VF-C
p2909
sg589
I204001
ssI1627362
(dp2910
g547
VVirginia Commonwealth
p2911
sg549
V165
p2912
sg551
V2017
p2913
sg553
F24.0
sg554
VDEC 29, 1992
p2914
sg556
V6-2
p2915
sg558
VBriante Weber
p2916
sg560
I1610612745
sg561
g64
sg562
g43
sg564
V00
p2917
sg566
g69
sg567
I1627362
ssI201956
(dp2918
g417
VYavne, Israel
p2919
sg419
V225
p2920
sg421
V2017
p2921
sg423
F29.0
sg424
VJUN 22, 1988
p2922
sg426
V6-9
p2923
sg428
VOmri Casspi
p2924
sg430
I1610612744
sg431
V18
p2925
sg432
g41
sg433
V00
p2926
sg435
g111
sg436
I201956
ssI201959
(dp2927
g72
VSouthern California
p2928
sg74
V235
p2929
sg76
V2017
p2930
sg78
F32.0
sg79
VJUN 24, 1985
p2931
sg81
V6-9
p2932
sg83
VTaj Gibson
p2933
sg85
I1610612750
sg86
V67
p2934
sg88
g41
sg89
V00
p2935
sg91
g111
sg92
I201959
ssI201960
(dp2936
g210
VMissouri
p2937
sg212
V215
p2938
sg214
V2017
p2939
sg216
F31.0
sg217
VJUL 27, 1986
p2940
sg219
V6-8
p2941
sg221
VDeMarre Carroll
p2942
sg223
I1610612751
sg224
g780
sg225
g41
sg226
V00
p2943
sg228
g111
sg229
I201960
ssI201961
(dp2944
g250
VNorth Carolina
p2945
sg252
V200
p2946
sg254
V2017
p2947
sg256
F29.0
sg257
VNOV 29, 1987
p2948
sg259
V6-5
p2949
sg261
VWayne Ellington
p2950
sg263
I1610612748
sg264
g43
sg266
g41
sg267
V00
p2951
sg269
g69
sg270
I201961
ssI201967
(dp2952
g1039
VVillanova
p2953
sg1041
V230
p2954
sg1043
V2017
p2955
sg1045
F30.0
sg1046
VAPR 22, 1987
p2956
sg1048
V6-8
p2957
sg1050
VDante Cunningham
p2958
sg1052
I1610612740
sg1053
V33
p2959
sg1055
g41
sg1056
V00
p2960
sg1058
g111
sg1059
I201967
ssI204020
(dp2961
g250
VFresno State
p2962
sg252
V190
p2963
sg254
V2017
p2964
sg256
F25.0
sg257
VMAY 07, 1992
p2965
sg259
V6-4
p2966
sg261
VTyler Johnson
p2967
sg263
I1610612748
sg264
g41
sg266
g109
sg267
V00
p2968
sg269
g69
sg270
I204020
ssI201973
(dp2969
g326
VKinna, Sweden
p2970
sg328
V231
p2971
sg330
V2017
p2972
sg332
F30.0
sg333
VMAR 02, 1987
p2973
sg335
V6-10
p2974
sg337
VJonas Jerebko
p2975
sg339
I1610612762
sg340
g41
sg342
g207
sg344
V00
p2976
sg346
g111
sg347
I201973
ssI204022
(dp2977
g282
VNotre Dame
p2978
sg284
V274
p2979
sg286
V2017
p2980
sg288
F26.0
sg289
VAPR 12, 1991
p2981
sg291
V6-10
p2982
sg293
VJack Cooley
p2983
sg295
I1610612758
sg296
V45
p2984
sg298
g87
sg299
V00
p2985
sg301
g47
sg302
I204022
ssI201976
(dp2986
g113
VArkansas
p2987
sg115
V185
p2988
sg117
V2017
p2989
sg119
F29.0
sg120
VJUL 12, 1988
p2990
sg122
V6-1
p2991
sg124
VPatrick Beverley
p2992
sg126
I1610612746
sg127
V21
p2993
sg128
g19
sg129
V00
p2994
sg131
g69
sg133
I201976
ssI201980
(dp2995
g178
VNorth Carolina
p2996
sg180
V215
p2997
sg182
V2017
p2998
sg184
F30.0
sg185
VJUN 22, 1987
p2999
sg187
V6-6
p3000
sg189
VDanny Green
p3001
sg191
I1610612759
sg192
V14
p3002
sg194
g41
sg196
V00
p3003
sg198
VG-F
p3004
sg199
I201980
ssI201988
(dp3005
g178
VSaint Mary's (CA)
p3006
sg180
V185
p3007
sg182
V2017
p3008
sg184
F29.0
sg185
VAUG 11, 1988
p3009
sg187
V6-0
p3010
sg189
VPatty Mills
p3011
sg191
I1610612759
sg192
g41
sg194
g41
sg196
V00
p3012
sg198
g69
sg199
I201988
ssI204060
(dp3013
g326
Nsg328
V226
p3014
sg330
V2017
p3015
sg332
F30.0
sg333
VOCT 02, 1987
p3016
sg335
V6-8
p3017
sg337
VJoe Ingles
p3018
sg339
I1610612762
sg340
g43
sg342
g109
sg344
V00
p3019
sg346
g111
sg347
I204060
ssI204066
(dp3020
g665
VBoston U.
p3021
sg667
V205
p3022
sg669
V2017
p3023
sg671
F29.0
sg672
VNOV 06, 1988
p3024
sg674
V6-5
p3025
sg676
VJohn Holland
p3026
sg678
I1610612739
sg679
V10
p3027
sg681
g87
sg682
V00
p3028
sg684
VG-F
p3029
sg685
I204066
ssI203998
(dp3030
g156
Nsg158
V205
p3031
sg160
V2017
p3032
sg162
F22.0
sg163
VSEP 21, 1995
p3033
sg165
V6-9
p3034
sg167
VBruno Caboclo
p3035
sg169
I1610612761
sg170
g19
sg172
g109
sg173
V00
p3036
sg175
g111
sg176
I203998
ssI201954
(dp3037
g371
VUCLA
p3038
sg373
V185
p3039
sg375
V2017
p3040
sg377
F30.0
sg378
VAUG 23, 1987
p3041
sg380
V6-2
p3042
sg382
VDarren Collison
p3043
sg384
I1610612754
sg385
g43
sg387
g41
sg388
V00
p3044
sg390
g69
sg391
I201954
ssI202066
(dp3045
g282
VLouisiana State
p3046
sg284
V195
p3047
sg286
V2017
p3048
sg288
F31.0
sg289
VMAY 08, 1986
p3049
sg291
V6-6
p3050
sg293
VGarrett Temple
p3051
sg295
I1610612758
sg296
V17
p3052
sg298
g207
sg299
V00
p3053
sg301
g69
sg302
I202066
ssI202083
(dp3054
g687
VMarquette
p3055
sg689
V220
p3056
sg691
V2017
p3057
sg693
F31.0
sg694
VOCT 14, 1986
p3058
sg696
V6-5
p3059
sg698
VWesley Matthews
p3060
sg700
I1610612742
sg701
V23
p3061
sg702
g41
sg704
V00
p3062
sg706
VG-F
p3063
sg707
I202083
ssI204028
(dp3064
g547
VKansas
p3065
sg549
V250
p3066
sg551
V2017
p3067
sg553
F25.0
sg554
VNOV 22, 1991
p3068
sg556
V6-9
p3069
sg558
VTarik Black
p3070
sg560
I1610612745
sg561
V28
p3071
sg562
g109
sg564
V00
p3072
sg566
VF-C
p3073
sg567
I204028
ssI1627732
(dp3074
g26
VLouisiana State
p3075
sg28
V230
p3076
sg30
V2017
p3077
sg32
F21.0
sg33
VJUL 20, 1996
p3078
sg35
V6-10
p3079
sg37
VBen Simmons
p3080
sg39
I1610612755
sg40
V25
p3081
sg42
g483
sg44
V00
p3082
sg46
VG-F
p3083
sg48
I1627732
ssI1627734
(dp3084
g371
VGonzaga
p3085
sg373
V252
p3086
sg375
V2017
p3087
sg377
F21.0
sg378
VMAY 03, 1996
p3088
sg380
V6-10
p3089
sg382
VDomantas Sabonis
p3090
sg384
I1610612754
sg385
V11
p3091
sg387
g87
sg388
V00
p3092
sg390
VC-F
p3093
sg391
I1627734
ssI202330
(dp3094
g498
VButler
p3095
sg500
V226
p3096
sg502
V2017
p3097
sg504
F27.0
sg505
VMAR 23, 1990
p3098
sg507
V6-8
p3099
sg509
VGordon Hayward
p3100
sg511
I1610612738
sg512
V20
p3101
sg514
g207
sg515
V00
p3102
sg517
g111
sg518
I202330
ssI202331
(dp3103
g466
VFresno State
p3104
sg468
V220
p3105
sg470
V2017
p3106
sg472
F27.0
sg473
VMAY 02, 1990
p3107
sg475
V6-9
p3108
sg477
VPaul George
p3109
sg479
I1610612760
sg480
V13
p3110
sg482
g207
sg484
V00
p3111
sg486
g111
sg487
I202331
ssI1627743
(dp3112
g547
VNotre Dame
p3113
sg549
V201
p3114
sg551
V2017
p3115
sg553
F23.0
sg554
VSEP 07, 1994
p3116
sg556
V6-1
p3117
sg558
VDemetrius Jackson
p3118
sg560
I1610612745
sg561
g43
sg562
g87
sg564
V00
p3119
sg566
g69
sg567
I1627743
ssI1627745
(dp3120
g417
VVanderbilt
p3121
sg419
V245
p3122
sg421
V2017
p3123
sg423
F22.0
sg424
VJUN 30, 1995
p3124
sg426
V7-0
p3125
sg428
VDamian Jones
p3126
sg430
I1610612744
sg431
V15
p3127
sg432
g87
sg433
V00
p3128
sg435
g47
sg436
I1627745
ssI1627747
(dp3129
g210
VMichigan
p3130
sg212
V203
p3131
sg214
V2017
p3132
sg216
F23.0
sg217
VAUG 25, 1994
p3133
sg219
V6-7
p3134
sg221
VCaris LeVert
p3135
sg223
I1610612751
sg224
V22
p3136
sg225
g87
sg226
V00
p3137
sg228
VG-F
p3138
sg229
I1627747
ssI202324
(dp3139
g326
VGeorgia Tech
p3140
sg328
V265
p3141
sg330
V2017
p3142
sg332
F26.0
sg333
VJUL 15, 1991
p3143
sg335
V6-10
p3144
sg337
VDerrick Favors
p3145
sg339
I1610612762
sg340
V15
p3146
sg342
g207
sg344
V00
p3147
sg346
VF-C
p3148
sg347
I202324
ssI202325
(dp3149
g113
VSyracuse
p3150
sg115
V215
p3151
sg117
V2017
p3152
sg119
F30.0
sg120
VJUL 11, 1987
p3153
sg122
V6-7
p3154
sg124
VWesley Johnson
p3155
sg126
I1610612746
sg127
V33
p3156
sg128
g207
sg129
V00
p3157
sg131
g111
sg133
I202325
ssI202326
(dp3158
g1039
VKentucky
p3159
sg1041
V270
p3160
sg1043
V2017
p3161
sg1045
F27.0
sg1046
VAUG 13, 1990
p3162
sg1048
V6-11
p3163
sg1050
VDeMarcus Cousins
p3164
sg1052
I1610612740
sg1053
g64
sg1055
g207
sg1056
V00
p3165
sg1058
g47
sg1059
I202326
ssI202327
(dp3166
g326
VBaylor
p3167
sg328
V245
p3168
sg330
V2017
p3169
sg332
F30.0
sg333
VMAY 20, 1987
p3170
sg335
V6-10
p3171
sg337
VEkpe Udoh
p3172
sg339
I1610612762
sg340
V33
p3173
sg342
g19
sg344
V00
p3174
sg346
VC-F
p3175
sg347
I202327
ssI1627736
(dp3176
g50
VFlorida State
p3177
sg51
V196
p3178
sg53
V2017
p3179
sg55
F20.0
sg56
VNOV 26, 1996
p3180
sg58
V6-5
p3181
sg60
VMalik Beasley
p3182
sg62
I1610612743
sg63
V25
p3183
sg65
g87
sg66
V00
p3184
sg68
g69
sg70
I1627736
ssI1627738
(dp3185
g135
VMichigan State
p3186
sg137
V237
p3187
sg139
V2017
p3188
sg141
F20.0
sg142
VDEC 02, 1996
p3189
sg144
V6-11
p3190
sg146
VDeyonta Davis
p3191
sg148
I1610612763
sg149
V21
p3192
sg150
g87
sg151
V00
p3193
sg153
VC-F
p3194
sg154
I1627738
ssI1627739
(dp3195
g349
VProvidence
p3196
sg351
V210
p3197
sg353
V2017
p3198
sg355
F23.0
sg356
VMAR 18, 1994
p3199
sg358
V6-4
p3200
sg360
VKris Dunn
p3201
sg362
I1610612741
sg363
V32
p3202
sg365
g87
sg366
V00
p3203
sg368
g69
sg369
I1627739
ssI202332
(dp3204
g72
VKansas
p3205
sg74
V253
p3206
sg76
V2017
p3207
sg78
F29.0
sg79
VOCT 31, 1988
p3208
sg81
V6-11
p3209
sg83
VCole Aldrich
p3210
sg85
I1610612750
sg86
V45
p3211
sg88
g207
sg89
V00
p3212
sg91
g47
sg92
I202332
ssI1627741
(dp3213
g282
VOklahoma
p3214
sg284
V214
p3215
sg286
V2017
p3216
sg288
F23.0
sg289
VDEC 17, 1993
p3217
sg291
V6-4
p3218
sg293
VBuddy Hield
p3219
sg295
I1610612758
sg296
V24
p3220
sg298
g87
sg299
V00
p3221
sg301
g69
sg302
I1627741
ssI1627742
(dp3222
g617
VDuke
p3223
sg619
V190
p3224
sg621
V2017
p3225
sg623
F20.0
sg624
VSEP 02, 1997
p3226
sg626
V6-9
p3227
sg628
VBrandon Ingram
p3228
sg630
I1610612747
sg631
V14
p3229
sg632
g87
sg633
V00
p3230
sg635
VF-G
p3231
sg636
I1627742
ssI202335
(dp3232
g466
VKentucky
p3233
sg468
V230
p3234
sg470
V2017
p3235
sg472
F28.0
sg473
VMAR 14, 1989
p3236
sg475
V6-9
p3237
sg477
VPatrick Patterson
p3238
sg479
I1610612760
sg480
V54
p3239
sg482
g207
sg484
V00
p3240
sg486
g111
sg487
I202335
ssI1627744
(dp3241
g113
VNorth Carolina
p3242
sg115
V230
p3243
sg117
V2017
p3244
sg119
F23.0
sg120
VJUN 27, 1994
p3245
sg122
V6-10
p3246
sg124
VBrice Johnson
p3247
sg126
I1610612746
sg127
V11
p3248
sg128
g87
sg129
V00
p3249
sg131
g111
sg133
I1627744
ssI202337
(dp3250
g859
VNevada
p3251
sg861
V225
p3252
sg863
V2017
p3253
sg865
F28.0
sg866
VJUN 20, 1989
p3254
sg868
V6-9
p3255
sg870
VLuke Babbitt
p3256
sg872
I1610612737
sg873
g41
sg875
g207
sg876
V00
p3257
sg878
g111
sg880
I202337
ssI1627746
(dp3258
g282
VKentucky
p3259
sg284
V225
p3260
sg286
V2017
p3261
sg288
F21.0
sg289
VMAR 18, 1996
p3262
sg291
V6-11
p3263
sg293
VSkal Labissiere
p3264
sg295
I1610612758
sg296
g207
sg298
g87
sg299
V00
p3265
sg301
VF-C
p3266
sg302
I1627746
ssI202339
(dp3267
g304
VKentucky
p3268
sg306
V205
p3269
sg308
V2017
p3270
sg310
F27.0
sg311
VDEC 09, 1989
p3271
sg313
V6-1
p3272
sg315
VEric Bledsoe
p3273
sg317
I1610612749
sg318
g563
sg320
g207
sg321
V00
p3274
sg323
g69
sg324
I202339
ssI1627748
(dp3275
g304
Nsg306
V223
p3276
sg308
V2017
p3277
sg310
F20.0
sg311
VFEB 25, 1997
p3278
sg313
V7-1
p3279
sg315
VThon Maker
p3280
sg317
I1610612749
sg318
g207
sg320
g87
sg321
V00
p3281
sg323
VC-F
p3282
sg324
I1627748
ssI1627749
(dp3283
g178
VWashington
p3284
sg180
V170
p3285
sg182
V2017
p3286
sg184
F21.0
sg185
VSEP 19, 1996
p3287
sg187
V6-5
p3288
sg189
VDejounte Murray
p3289
sg191
I1610612759
sg192
g19
sg194
g87
sg196
V00
p3290
sg198
g69
sg199
I1627749
ssI1627750
(dp3291
g50
VKentucky
p3292
sg51
V207
p3293
sg53
V2017
p3294
sg55
F20.0
sg56
VFEB 23, 1997
p3295
sg58
V6-4
p3296
sg60
VJamal Murray
p3297
sg62
I1610612743
sg63
V27
p3298
sg65
g87
sg66
V00
p3299
sg68
g69
sg70
I1627750
ssI1627751
(dp3300
g156
VUtah
p3301
sg158
V230
p3302
sg160
V2017
p3303
sg162
F22.0
sg163
VOCT 15, 1995
p3304
sg165
V7-0
p3305
sg167
VJakob Poeltl
p3306
sg169
I1610612761
sg170
V42
p3307
sg172
g87
sg173
V00
p3308
sg175
g47
sg176
I1627751
ssI1627752
(dp3309
g859
VBaylor
p3310
sg861
V220
p3311
sg863
V2017
p3312
sg865
F23.0
sg866
VMAR 22, 1994
p3313
sg868
V6-8
p3314
sg870
VTaurean Prince
p3315
sg872
I1610612737
sg873
V12
p3316
sg875
g87
sg876
V00
p3317
sg878
g111
sg880
I1627752
ssI1627753
(dp3318
g547
Nsg549
V210
p3319
sg551
V2017
p3320
sg553
F21.0
sg554
VJAN 16, 1996
p3321
sg556
V7-1
p3322
sg558
VQi Qi
p3323
sg560
I1610612745
sg561
g780
sg562
g483
sg564
V00
p3324
sg566
VF-C
p3325
sg567
I1627753
ssI202347
(dp3326
g349
VWashington
p3327
sg351
V225
p3328
sg353
V2017
p3329
sg355
F29.0
sg356
VMAR 10, 1988
p3330
sg358
V6-7
p3331
sg360
VQuincy Pondexter
p3332
sg362
I1610612741
sg363
V20
p3333
sg365
g19
sg366
V00
p3334
sg368
g69
sg369
I202347
ssI1627756
(dp3335
g349
VMichigan State
p3336
sg351
V214
p3337
sg353
V2017
p3338
sg355
F23.0
sg356
VNOV 16, 1993
p3339
sg358
V6-6
p3340
sg360
VDenzel Valentine
p3341
sg362
I1610612741
sg363
V45
p3342
sg365
g87
sg366
V00
p3343
sg368
g111
sg369
I1627756
ssI1627758
(dp3344
g569
VWichita State
p3345
sg571
V220
p3346
sg573
V2017
p3347
sg575
F24.0
sg576
VMAR 30, 1993
p3348
sg578
V6-4
p3349
sg580
VRon Baker
p3350
sg582
I1610612752
sg583
V31
p3351
sg585
g87
sg586
V00
p3352
sg588
g69
sg589
I1627758
ssI1627759
(dp3353
g498
VCalifornia
p3354
sg500
V225
p3355
sg502
V2017
p3356
sg504
F21.0
sg505
VOCT 24, 1996
p3357
sg507
V6-7
p3358
sg509
VJaylen Brown
p3359
sg511
I1610612738
sg512
g207
sg514
g87
sg515
V00
p3360
sg517
VG-F
p3361
sg518
I1627759
ssI202344
(dp3362
g210
VClemson
p3363
sg212
V228
p3364
sg214
V2017
p3365
sg216
F29.0
sg217
VNOV 25, 1987
p3366
sg219
V6-8
p3367
sg221
VTrevor Booker
p3368
sg223
I1610612751
sg224
V35
p3369
sg225
g207
sg226
V00
p3370
sg228
g111
sg229
I202344
ssI1627762
(dp3371
g304
VWeber State
p3372
sg306
V235
p3373
sg308
V2017
p3374
sg310
F23.0
sg311
VJAN 28, 1994
p3375
sg313
V6-9
p3376
sg315
VJoel Bolomboy
p3377
sg317
I1610612749
sg318
V24
p3378
sg320
g87
sg321
V00
p3379
sg323
VF-C
p3380
sg324
I1627762
ssI202355
(dp3381
g250
VMarshall
p3382
sg252
V265
p3383
sg254
V2017
p3384
sg256
F28.0
sg257
VJUN 13, 1989
p3385
sg259
V7-0
p3386
sg261
VHassan Whiteside
p3387
sg263
I1610612748
sg264
V21
p3388
sg266
g19
sg267
V00
p3389
sg269
g47
sg270
I202355
ssI202357
(dp3390
g72
Nsg74
V230
p3391
sg76
V2017
p3392
sg78
F29.0
sg79
VMAY 09, 1988
p3393
sg81
V6-10
p3394
sg83
VNemanja Bjelica
p3395
sg85
I1610612750
sg86
g41
sg88
g43
sg89
V00
p3396
sg91
g111
sg92
I202357
ssI1627767
(dp3397
g1039
VKansas
p3398
sg1041
V220
p3399
sg1043
V2017
p3400
sg1045
F21.0
sg1046
VSEP 13, 1996
p3401
sg1048
V6-9
p3402
sg1050
VCheick Diallo
p3403
sg1052
I1610612740
sg1053
V13
p3404
sg1055
g87
sg1056
V00
p3405
sg1058
g111
sg1059
I1627767
ssI1627770
(dp3406
g349
VOakland
p3407
sg351
V176
p3408
sg353
V2017
p3409
sg355
F22.0
sg356
VMAR 29, 1995
p3410
sg358
V5-9
p3411
sg360
VKay Felder
p3412
sg362
I1610612741
sg363
g109
sg365
g87
sg366
V00
p3413
sg368
g69
sg369
I1627770
ssI1627772
(dp3414
g466
VConnecticut
p3415
sg468
V195
p3416
sg470
V2017
p3417
sg472
F22.0
sg473
VAUG 08, 1995
p3418
sg475
V6-7
p3419
sg477
VDaniel Hamilton
p3420
sg479
I1610612760
sg480
V25
p3421
sg482
g483
sg484
V00
p3422
sg486
g69
sg487
I1627772
ssI1627773
(dp3423
g250
VPurdue
p3424
sg252
V260
p3425
sg254
V2017
p3426
sg256
F25.0
sg257
VAUG 27, 1992
p3427
sg259
V7-0
p3428
sg261
VAJ Hammons
p3429
sg263
I1610612748
sg264
g544
sg266
g87
sg267
V00
p3430
sg269
g47
sg270
I1627773
ssI1627775
(dp3431
g417
VNevada-Las Vegas
p3432
sg419
V185
p3433
sg421
V2017
p3434
sg423
F22.0
sg424
VOCT 25, 1995
p3435
sg426
V6-7
p3436
sg428
VPatrick McCaw
p3437
sg430
I1610612744
sg431
g64
sg432
g87
sg433
V00
p3438
sg435
g69
sg436
I1627775
ssI200755
(dp3439
g26
VDuke
p3440
sg28
V200
p3441
sg30
V2017
p3442
sg32
F33.0
sg33
VJUN 24, 1984
p3443
sg35
V6-4
p3444
sg37
VJJ Redick
p3445
sg39
I1610612755
sg40
V17
p3446
sg42
V11
p3447
sg44
V00
p3448
sg46
VF-G
p3449
sg48
I200755
ssI1627778
(dp3450
g547
VLouisville
p3451
sg549
V245
p3452
sg551
V2017
p3453
sg553
F21.0
sg554
VNOV 01, 1996
p3454
sg556
V6-10
p3455
sg558
VChinanu Onuaku
p3456
sg560
I1610612745
sg561
V21
p3457
sg562
g87
sg564
V00
p3458
sg566
g47
sg567
I1627778
ssI1627780
(dp3459
g304
VOregon State
p3460
sg306
V190
p3461
sg308
V2017
p3462
sg310
F24.0
sg311
VDEC 01, 1992
p3463
sg313
V6-3
p3464
sg315
VGary Payton II
p3465
sg317
I1610612749
sg318
g64
sg320
g87
sg321
V00
p3466
sg323
g69
sg324
I1627780
ssI1627781
(dp3467
g282
VSyracuse
p3468
sg284
V205
p3469
sg286
V2017
p3470
sg288
F21.0
sg289
VJAN 05, 1996
p3471
sg291
V6-6
p3472
sg293
VMalachi Richardson
p3473
sg295
I1610612758
sg296
V23
p3474
sg298
g87
sg299
V00
p3475
sg301
g69
sg302
I1627781
ssI1627782
(dp3476
g135
VKansas
p3477
sg137
V230
p3478
sg139
V2017
p3479
sg141
F23.0
sg142
VSEP 30, 1994
p3480
sg144
V6-5
p3481
sg146
VWayne Selden
p3482
sg148
I1610612763
sg149
g207
sg150
g87
sg151
V00
p3483
sg153
VG-F
p3484
sg154
I1627782
ssI1627783
(dp3485
g156
VNew Mexico State
p3486
sg158
V230
p3487
sg160
V2017
p3488
sg162
F23.0
sg163
VAPR 02, 1994
p3489
sg165
V6-9
p3490
sg167
VPascal Siakam
p3491
sg169
I1610612761
sg170
V43
p3492
sg172
g87
sg173
V00
p3493
sg175
g111
sg176
I1627783
ssI1627785
(dp3494
g210
VSeton Hall
p3495
sg212
V213
p3496
sg214
V2017
p3497
sg216
F22.0
sg217
VMAR 08, 1995
p3498
sg219
V6-4
p3499
sg221
VIsaiah Whitehead
p3500
sg223
I1610612751
sg224
V15
p3501
sg225
g87
sg226
V00
p3502
sg228
g69
sg229
I1627785
ssI1627786
(dp3503
g547
VIndiana
p3504
sg549
V218
p3505
sg551
V2017
p3506
sg553
F22.0
sg554
VDEC 30, 1994
p3507
sg556
V6-7
p3508
sg558
VTroy Williams
p3509
sg560
I1610612745
sg561
g19
sg562
g87
sg564
V00
p3510
sg566
g111
sg567
I1627786
ssI1627788
(dp3511
g26
Nsg28
V190
p3512
sg30
V2017
p3513
sg32
F20.0
sg33
VJUL 24, 1997
p3514
sg35
V6-7
p3515
sg37
VFurkan Korkmaz
p3516
sg39
I1610612755
sg40
V30
p3517
sg42
g483
sg44
V00
p3518
sg46
VG-F
p3519
sg48
I1627788
ssI1627789
(dp3520
g26
Nsg28
V200
p3521
sg30
V2017
p3522
sg32
F22.0
sg33
VMAY 09, 1995
p3523
sg35
V6-6
p3524
sg37
VTimothe Luwawu-Cabarrot
p3525
sg39
I1610612755
sg40
g207
sg42
g87
sg44
V00
p3526
sg46
VG-F
p3527
sg48
I1627789
ssI1627790
(dp3528
g665
Nsg667
V250
p3529
sg669
V2017
p3530
sg671
F20.0
sg672
VJAN 04, 1997
p3531
sg674
V6-11
p3532
sg676
VAnte Zizic
p3533
sg678
I1610612739
sg679
V41
p3534
sg681
g483
sg682
V00
p3535
sg684
VF-C
p3536
sg685
I1627790
ssI202389
(dp3537
g210
VSt. Petersburg, Russia
p3538
sg212
V275
p3539
sg214
V2017
p3540
sg216
F31.0
sg217
VJUL 16, 1986
p3541
sg219
V7-1
p3542
sg221
VTimofey Mozgov
p3543
sg223
I1610612751
sg224
V20
p3544
sg225
g207
sg226
V00
p3545
sg228
g47
sg229
I202389
ssI202391
(dp3546
g210
VHarvard
p3547
sg212
V200
p3548
sg214
V2017
p3549
sg216
F29.0
sg217
VAUG 23, 1988
p3550
sg219
V6-3
p3551
sg221
VJeremy Lin
p3552
sg223
I1610612751
sg224
g207
sg225
g207
sg226
V00
p3553
sg228
g69
sg229
I202391
ssI1627812
(dp3554
g687
VIndiana
p3555
sg689
V180
p3556
sg691
V2017
p3557
sg693
F24.0
sg694
VMAY 09, 1993
p3558
sg696
V6-0
p3559
sg698
VYogi Ferrell
p3560
sg700
I1610612742
sg701
V11
p3561
sg702
g87
sg704
V00
p3562
sg706
g69
sg707
I1627812
ssI1627761
(dp3563
g859
VSaint Joseph's
p3564
sg861
V210
p3565
sg863
V2017
p3566
sg865
F23.0
sg866
VJUL 04, 1994
p3567
sg868
V6-6
p3568
sg870
VDeAndre' Bembry
p3569
sg872
I1610612737
sg873
V95
p3570
sg875
g87
sg876
V00
p3571
sg878
VF-G
p3572
sg880
I1627761
ssI204456
(dp3573
g26
VArizona
p3574
sg28
V190
p3575
sg30
V2017
p3576
sg32
F25.0
sg33
VMAR 25, 1992
p3577
sg35
V6-2
p3578
sg37
VT.J. McConnell
p3579
sg39
I1610612755
sg40
V12
p3580
sg42
g43
sg44
V00
p3581
sg46
g69
sg48
I204456
ssI1627819
(dp3582
g859
VTexas
p3583
sg861
V170
p3584
sg863
V2017
p3585
sg865
F23.0
sg866
VJUL 11, 1994
p3586
sg868
V6-3
p3587
sg870
VIsaiah Taylor
p3588
sg872
I1610612737
sg873
V22
p3589
sg875
g87
sg876
V00
p3590
sg878
g69
sg880
I1627819
ssI1627823
(dp3591
g50
Nsg51
V230
p3592
sg53
V2017
p3593
sg55
F22.0
sg56
VSEP 28, 1995
p3594
sg58
V6-9
p3595
sg60
VJuan Hernangomez
p3596
sg62
I1610612743
sg63
V41
p3597
sg65
g87
sg66
V00
p3598
sg68
g111
sg70
I1627823
ssI1627824
(dp3599
g498
Nsg500
V260
p3600
sg502
V2017
p3601
sg504
F21.0
sg505
VDEC 17, 1995
p3602
sg507
V6-8
p3603
sg509
VGuerschon Yabusele
p3604
sg511
I1610612738
sg512
V30
p3605
sg514
g483
sg515
V00
p3606
sg517
g111
sg518
I1627824
ssI1713
(dp3607
g282
VNorth Carolina
p3608
sg284
V220
p3609
sg286
V2017
p3610
sg288
F40.0
sg289
VJAN 26, 1977
p3611
sg291
V6-6
p3612
sg293
VVince Carter
p3613
sg295
I1610612758
sg296
V15
p3614
sg298
V19
p3615
sg299
V00
p3616
sg301
VG-F
p3617
sg302
I1713
ssI1627826
(dp3618
g617
Nsg619
V240
p3619
sg621
V2017
p3620
sg623
F20.0
sg624
VMAR 18, 1997
p3621
sg626
V7-1
p3622
sg628
VIvica Zubac
p3623
sg630
I1610612747
sg631
V40
p3624
sg632
g87
sg633
V00
p3625
sg635
g47
sg636
I1627826
ssI1627827
(dp3626
g687
VFlorida
p3627
sg689
V220
p3628
sg691
V2017
p3629
sg693
F24.0
sg694
VMAY 04, 1993
p3630
sg696
V6-8
p3631
sg698
VDorian Finney-Smith
p3632
sg700
I1610612742
sg701
V10
p3633
sg702
g87
sg704
V00
p3634
sg706
g111
sg707
I1627827
ssI1717
(dp3635
g687
VWurzburg, Germany
p3636
sg689
V245
p3637
sg691
V2017
p3638
sg693
F39.0
sg694
VJUN 19, 1978
p3639
sg696
V7-0
p3640
sg698
VDirk Nowitzki
p3641
sg700
I1610612742
sg701
V41
p3642
sg702
V19
p3643
sg704
V00
p3644
sg706
VF-C
p3645
sg707
I1717
ssI1627832
(dp3646
g156
VWichita State
p3647
sg158
V195
p3648
sg160
V2017
p3649
sg162
F23.0
sg163
VFEB 25, 1994
p3650
sg165
V6-0
p3651
sg167
VFred VanVleet
p3652
sg169
I1610612761
sg170
V23
p3653
sg172
g87
sg173
V00
p3654
sg175
g69
sg176
I1627832
ssI1627834
(dp3655
g282
Nsg284
V240
p3656
sg286
V2017
p3657
sg288
F20.0
sg289
VJUL 03, 1997
p3658
sg291
V7-1
p3659
sg293
VGeorgios Papagiannis
p3660
sg295
I1610612758
sg296
V13
p3661
sg298
g87
sg299
V00
p3662
sg301
g47
sg302
I1627834
ssI1627835
(dp3663
g349
Nsg351
V226
p3664
sg353
V2017
p3665
sg355
F23.0
sg356
VFEB 18, 1994
p3666
sg358
V6-8
p3667
sg360
VPaul Zipser
p3668
sg362
I1610612741
sg363
V16
p3669
sg365
g87
sg366
V00
p3670
sg368
g111
sg369
I1627835
ssI1627846
(dp3671
g498
VIowa State
p3672
sg500
V230
p3673
sg502
V2017
p3674
sg504
F24.0
sg505
VSEP 25, 1993
p3675
sg507
V6-6
p3676
sg509
VAbdel Nader
p3677
sg511
I1610612738
sg512
V28
p3678
sg514
g483
sg515
V00
p3679
sg517
g111
sg518
I1627846
ssI1627851
(dp3680
g569
Nsg571
V215
p3681
sg573
V2017
p3682
sg575
F28.0
sg576
VOCT 19, 1989
p3683
sg578
V6-9
p3684
sg580
VMindaugas Kuzminskas
p3685
sg582
I1610612752
sg583
V91
p3686
sg585
g87
sg586
V00
p3687
sg588
g111
sg589
I1627851
ssI1627852
(dp3688
g859
Nsg861
V195
p3689
sg863
V2017
p3690
sg865
F24.0
sg866
VMAR 02, 1993
p3691
sg868
V6-8
p3692
sg870
VNicolas Brussino
p3693
sg872
I1610612737
sg873
V16
p3694
sg875
g87
sg876
V00
p3695
sg878
g111
sg880
I1627852
ssI1627853
(dp3696
g349
VVillanova
p3697
sg351
V195
p3698
sg353
V2017
p3699
sg355
F23.0
sg356
VMAR 26, 1994
p3700
sg358
V6-3
p3701
sg360
VRyan Arcidiacono
p3702
sg362
I1610612741
sg363
V15
p3703
sg365
g483
sg366
V00
p3704
sg368
g69
sg369
I1627853
ssI1627854
(dp3705
g178
VMichigan State
p3706
sg180
V190
p3707
sg182
V2017
p3708
sg184
F24.0
sg185
VJUL 23, 1993
p3709
sg187
V6-3
p3710
sg189
VBryn Forbes
p3711
sg191
I1610612759
sg192
V11
p3712
sg194
g87
sg196
V00
p3713
sg198
g69
sg199
I1627854
ssI1627855
(dp3714
g250
VFlorida State
p3715
sg252
V215
p3716
sg254
V2017
p3717
sg256
F25.0
sg257
VAUG 13, 1992
p3718
sg259
V6-8
p3719
sg261
VOkaro White
p3720
sg263
I1610612748
sg264
V15
p3721
sg266
g87
sg267
V00
p3722
sg269
g111
sg270
I1627855
ssI1627856
(dp3723
g178
VMichigan State
p3724
sg180
V240
p3725
sg182
V2017
p3726
sg184
F24.0
sg185
VAUG 05, 1993
p3727
sg187
V6-10
p3728
sg189
VMatt Costello
p3729
sg191
I1610612759
sg192
V10
p3730
sg194
g483
sg196
V00
p3731
sg198
VF-C
p3732
sg199
I1627856
ssI202362
(dp3733
g371
VCincinnati
p3734
sg373
V230
p3735
sg375
V2017
p3736
sg377
F27.0
sg378
VSEP 05, 1990
p3737
sg380
V6-6
p3738
sg382
VLance Stephenson
p3739
sg384
I1610612754
sg385
g87
sg387
g207
sg388
V00
p3740
sg390
g69
sg391
I202362
ssI1627875
(dp3741
g72
VGeorgia Tech
p3742
sg74
V226
p3743
sg76
V2017
p3744
sg78
F23.0
sg79
VMAR 28, 1994
p3745
sg81
V6-5
p3746
sg83
VMarcus Georges-Hunt
p3747
sg85
I1610612750
sg86
V13
p3748
sg88
g87
sg89
V00
p3749
sg91
g69
sg92
I1627875
ssI1627883
(dp3750
g1039
VTexas A&M
p3751
sg1041
V220
p3752
sg1043
V2017
p3753
sg1045
F24.0
sg1046
VMAY 27, 1993
p3754
sg1048
V6-7
p3755
sg1050
VJalen Jones
p3756
sg1052
I1610612740
sg1053
V12
p3757
sg1055
g483
sg1056
V00
p3758
sg1058
g111
sg1059
I1627883
ssI202498
(dp3759
g569
VDuke
p3760
sg571
V235
p3761
sg573
V2017
p3762
sg575
F29.0
sg576
VAPR 24, 1988
p3763
sg578
V6-8
p3764
sg580
VLance Thomas
p3765
sg582
I1610612752
sg583
V42
p3766
sg585
g563
sg586
V00
p3767
sg588
g111
sg589
I202498
ssI1627936
(dp3768
g617
VTexas A&M
p3769
sg619
V186
p3770
sg621
V2017
p3771
sg623
F23.0
sg624
VFEB 28, 1994
p3772
sg626
V6-5
p3773
sg628
VAlex Caruso
p3774
sg630
I1610612747
sg631
g544
sg632
g483
sg633
V00
p3775
sg635
g69
sg636
I1627936
ssI1891
(dp3776
g304
VArizona
p3777
sg306
V185
p3778
sg308
V2017
p3779
sg310
F40.0
sg311
VSEP 15, 1977
p3780
sg313
V6-2
p3781
sg315
VJason Terry
p3782
sg317
I1610612749
sg318
g109
sg320
V18
p3783
sg321
V00
p3784
sg323
g69
sg324
I1891
ssI1628021
(dp3785
g349
VCal Poly-S.L.O.
p3786
sg351
V209
p3787
sg353
V2017
p3788
sg355
F24.0
sg356
VJAN 14, 1993
p3789
sg358
V6-4
p3790
sg360
VDavid Nwaba
p3791
sg362
I1610612741
sg363
V11
p3792
sg365
g87
sg366
V00
p3793
sg368
g69
sg369
I1628021
ssI1628035
(dp3794
g156
VWisc.-Green Bay
p3795
sg158
V215
p3796
sg160
V2017
p3797
sg162
F25.0
sg163
VSEP 17, 1992
p3798
sg165
V6-8
p3799
sg167
VAlfonzo McKinnie
p3800
sg169
I1610612761
sg170
V34
p3801
sg172
g483
sg173
V00
p3802
sg175
g111
sg176
I1628035
ssI1938
(dp3803
g178
VBahia Blanca, Argentina
p3804
sg180
V205
p3805
sg182
V2017
p3806
sg184
F40.0
sg185
VJUL 28, 1977
p3807
sg187
V6-6
p3808
sg189
VManu Ginobili
p3809
sg191
I1610612759
sg192
V20
p3810
sg194
V15
p3811
sg196
V00
p3812
sg198
g69
sg199
I1938
ssI203084
(dp3813
g687
VNorth Carolina
p3814
sg689
V225
p3815
sg691
V2017
p3816
sg693
F25.0
sg694
VMAY 30, 1992
p3817
sg696
V6-8
p3818
sg698
VHarrison Barnes
p3819
sg700
I1610612742
sg701
V40
p3820
sg702
g19
sg704
V00
p3821
sg706
g111
sg707
I203084
ssI202681
(dp3822
g498
VDuke
p3823
sg500
V193
p3824
sg502
V2017
p3825
sg504
F25.0
sg505
VMAR 23, 1992
p3826
sg507
V6-3
p3827
sg509
VKyrie Irving
p3828
sg511
I1610612738
sg512
V11
p3829
sg514
g563
sg515
V00
p3830
sg517
g69
sg518
I202681
ssI202683
(dp3831
g569
VKentucky
p3832
sg571
V245
p3833
sg573
V2017
p3834
sg575
F25.0
sg576
VMAY 20, 1992
p3835
sg578
V6-11
p3836
sg580
VEnes Kanter
p3837
sg582
I1610612752
sg583
V00
p3838
sg585
g563
sg586
V00
p3839
sg588
g47
sg589
I202683
ssI202684
(dp3840
g665
VTexas
p3841
sg667
V238
p3842
sg669
V2017
p3843
sg671
F26.0
sg672
VMAR 13, 1991
p3844
sg674
V6-9
p3845
sg676
VTristan Thompson
p3846
sg678
I1610612739
sg679
V13
p3847
sg681
g563
sg682
V00
p3848
sg684
VC-F
p3849
sg685
I202684
ssI202685
(dp3850
g156
VUtena, Lithuania
p3851
sg158
V255
p3852
sg160
V2017
p3853
sg162
F25.0
sg163
VMAY 06, 1992
p3854
sg165
V7-0
p3855
sg167
VJonas Valanciunas
p3856
sg169
I1610612761
sg170
V17
p3857
sg172
g19
sg173
V00
p3858
sg175
g47
sg176
I202685
ssI202687
(dp3859
g2
VLubumbashi, DR Congo
p3860
sg4
V255
p3861
sg6
V2017
p3862
sg8
F25.0
sg9
VAUG 28, 1992
p3863
sg11
V6-9
p3864
sg13
VBismack Biyombo
p3865
sg15
I1610612753
sg16
V11
p3866
sg18
g563
sg20
V00
p3867
sg22
g47
sg24
I202687
ssI202691
(dp3868
g417
VWashington State
p3869
sg419
V215
p3870
sg421
V2017
p3871
sg423
F27.0
sg424
VFEB 08, 1990
p3872
sg426
V6-7
p3873
sg428
VKlay Thompson
p3874
sg430
I1610612744
sg431
V11
p3875
sg432
g563
sg433
V00
p3876
sg435
g69
sg436
I202691
ssI202692
(dp3877
g326
VColorado
p3878
sg328
V214
p3879
sg330
V2017
p3880
sg332
F26.0
sg333
VJUL 20, 1991
p3881
sg335
V6-6
p3882
sg337
VAlec Burks
p3883
sg339
I1610612762
sg340
V10
p3884
sg342
g563
sg344
V00
p3885
sg346
g69
sg347
I202692
ssI202694
(dp3886
g498
VKansas
p3887
sg500
V235
p3888
sg502
V2017
p3889
sg504
F28.0
sg505
VSEP 02, 1989
p3890
sg507
V6-9
p3891
sg509
VMarcus Morris
p3892
sg511
I1610612738
sg512
V13
p3893
sg514
g563
sg515
V00
p3894
sg517
g111
sg518
I202694
ssI202695
(dp3895
g178
VSan Diego State
p3896
sg180
V230
p3897
sg182
V2017
p3898
sg184
F26.0
sg185
VJUN 29, 1991
p3899
sg187
V6-7
p3900
sg189
VKawhi Leonard
p3901
sg191
I1610612759
sg192
g43
sg194
g563
sg196
V00
p3902
sg198
g111
sg199
I202695
ssI202696
(dp3903
g2
VSouthern California
p3904
sg4
V260
p3905
sg6
V2017
p3906
sg8
F27.0
sg9
VOCT 24, 1990
p3907
sg11
V7-0
p3908
sg13
VNikola Vucevic
p3909
sg15
I1610612753
sg16
g780
sg18
g563
sg20
V00
p3910
sg22
g47
sg24
I202696
ssI202697
(dp3911
g665
VGeorgia Tech
p3912
sg667
V220
p3913
sg669
V2017
p3914
sg671
F27.0
sg672
VJUN 26, 1990
p3915
sg674
V6-5
p3916
sg676
VIman Shumpert
p3917
sg678
I1610612739
sg679
g544
sg681
g563
sg682
V00
p3918
sg684
g69
sg685
I202697
ssI202702
(dp3919
g50
VMorehead State
p3920
sg51
V228
p3921
sg53
V2017
p3922
sg55
F27.0
sg56
VNOV 19, 1989
p3923
sg58
V6-8
p3924
sg60
VKenneth Faried
p3925
sg62
I1610612743
sg63
V35
p3926
sg65
g563
sg66
V00
p3927
sg68
g111
sg70
I202702
ssI202703
(dp3928
g349
Nsg351
V238
p3929
sg353
V2017
p3930
sg355
F26.0
sg356
VFEB 11, 1991
p3931
sg358
V6-10
p3932
sg360
VNikola Mirotic
p3933
sg362
I1610612741
sg363
V44
p3934
sg365
g109
sg366
V00
p3935
sg368
g111
sg369
I202703
ssI202709
(dp3936
g371
VTexas
p3937
sg373
V190
p3938
sg375
V2017
p3939
sg377
F26.0
sg378
VAUG 20, 1991
p3940
sg380
V6-3
p3941
sg382
VCory Joseph
p3942
sg384
I1610612754
sg385
g563
sg387
g563
sg388
V00
p3943
sg390
g69
sg391
I202709
ssI202710
(dp3944
g72
VMarquette
p3945
sg74
V236
p3946
sg76
V2017
p3947
sg78
F28.0
sg79
VSEP 14, 1989
p3948
sg81
V6-8
p3949
sg83
VJimmy Butler
p3950
sg85
I1610612750
sg86
V23
p3951
sg88
g563
sg89
V00
p3952
sg91
g69
sg92
I202710
ssI202711
(dp3953
g371
Nsg373
V230
p3954
sg375
V2017
p3955
sg377
F28.0
sg378
VAPR 18, 1989
p3956
sg380
V6-8
p3957
sg382
VBojan Bogdanovic
p3958
sg384
I1610612754
sg385
V44
p3959
sg387
g109
sg388
V00
p3960
sg390
g111
sg391
I202711
ssI202713
(dp3961
g466
VDuke
p3962
sg468
V228
p3963
sg470
V2017
p3964
sg472
F29.0
sg473
VMAY 04, 1988
p3965
sg475
V6-8
p3966
sg477
VKyle Singler
p3967
sg479
I1610612760
sg480
V15
p3968
sg482
g19
sg484
V00
p3969
sg486
g111
sg487
I202713
ssI202714
(dp3970
g2
VButler
p3971
sg4
V203
p3972
sg6
V2017
p3973
sg8
F27.0
sg9
VAPR 22, 1990
p3974
sg11
V6-3
p3975
sg13
VShelvin Mack
p3976
sg15
I1610612753
sg16
g207
sg18
g563
sg20
V00
p3977
sg22
g69
sg24
I202714
ssI202718
(dp3978
g135
VFlorida
p3979
sg137
V230
p3980
sg139
V2017
p3981
sg141
F29.0
sg142
VOCT 25, 1988
p3982
sg144
V6-10
p3983
sg146
VChandler Parsons
p3984
sg148
I1610612763
sg149
V25
p3985
sg150
g563
sg151
V00
p3986
sg153
g111
sg154
I202718
ssI202722
(dp3987
g178
Nsg180
V210
p3988
sg182
V2017
p3989
sg184
F24.0
sg185
VNOV 12, 1992
p3990
sg187
V6-10
p3991
sg189
VDavis Bertans
p3992
sg191
I1610612759
sg192
V42
p3993
sg194
g87
sg196
V00
p3994
sg198
g111
sg199
I202722
ssI202732
(dp3995
g304
VKentucky
p3996
sg306
V209
p3997
sg308
V2017
p3998
sg310
F29.0
sg311
VMAR 31, 1988
p3999
sg313
V6-6
p4000
sg315
VDeAndre Liggins
p4001
sg317
I1610612749
sg318
V25
p4002
sg320
g544
sg321
V00
p4003
sg323
g69
sg324
I202732
ssI202734
(dp4004
g1039
VPurdue
p4005
sg1041
V191
p4006
sg1043
V2017
p4007
sg1045
F28.0
sg1046
VFEB 25, 1989
p4008
sg1048
V6-4
p4009
sg1050
VE'Twaun Moore
p4010
sg1052
I1610612740
sg1053
V55
p4011
sg1055
g563
sg1056
V00
p4012
sg1058
g69
sg1059
I202734
ssI1627816
(dp4013
g371
VKentucky
p4014
sg373
V235
p4015
sg375
V2017
p4016
sg377
F24.0
sg378
VSEP 06, 1993
p4017
sg380
V6-9
p4018
sg382
VAlex Poythress
p4019
sg384
I1610612754
sg385
g64
sg387
g87
sg388
V00
p4020
sg390
g111
sg391
I1627816
ssI202738
(dp4021
g665
VWashington
p4022
sg667
V185
p4023
sg669
V2017
p4024
sg671
F28.0
sg672
VFEB 07, 1989
p4025
sg674
V5-9
p4026
sg676
VIsaiah Thomas
p4027
sg678
I1610612739
sg679
g109
sg681
g563
sg682
V00
p4028
sg684
g69
sg685
I202738
ssI2037
(dp4029
g72
VMichigan
p4030
sg74
V185
p4031
sg76
V2017
p4032
sg78
F37.0
sg79
VMAR 20, 1980
p4033
sg81
V6-5
p4034
sg83
VJamal Crawford
p4035
sg85
I1610612750
sg86
V11
p4036
sg88
V17
p4037
sg89
V00
p4038
sg91
g69
sg92
I2037
ss.