(dp0
I203095
(dp1
VSCHOOL
p2
VFrance
p3
sVWEIGHT
p4
V205
p5
sVSEASON
p6
V2017
p7
sVAGE
p8
F25.0
sVBIRTH_DATE
p9
VOCT 29, 1992
p10
sVHEIGHT
p11
V6-7
p12
sVPLAYER
p13
VEvan Fournier
p14
sVTeamID
p15
I1610612753
sVNUM
p16
V10
p17
sVEXP
p18
V5
p19
sVLeagueID
p20
V00
p21
sVPOSITION
p22
VF-G
p23
sVPLAYER_ID
p24
I203095
ssI1626143
(dp25
VSCHOOL
p26
VDuke
p27
sVWEIGHT
p28
V260
p29
sVSEASON
p30
V2017
p31
sVAGE
p32
F21.0
sVBIRTH_DATE
p33
VDEC 15, 1995
p34
sVHEIGHT
p35
V6-11
p36
sVPLAYER
p37
VJahlil Okafor
p38
sVTeamID
p39
I1610612755
sVNUM
p40
V8
p41
sVEXP
p42
V2
p43
sVLeagueID
p44
V00
p45
sVPOSITION
p46
VC
p47
sVPLAYER_ID
p48
I1626143
ssI1626144
(dp49
VSCHOOL
p50
NsVWEIGHT
p51
V200
p52
sVSEASON
p53
V2017
p54
sVAGE
p55
F21.0
sVBIRTH_DATE
p56
VMAR 05, 1996
p57
sVHEIGHT
p58
V6-5
p59
sVPLAYER
p60
VEmmanuel Mudiay
p61
sVTeamID
p62
I1610612743
sVNUM
p63
V0
p64
sVEXP
p65
g43
sVLeagueID
p66
V00
p67
sVPOSITION
p68
VG
p69
sVPLAYER_ID
p70
I1626144
ssI1626145
(dp71
VSCHOOL
p72
VDuke
p73
sVWEIGHT
p74
V184
p75
sVSEASON
p76
V2017
p77
sVAGE
p78
F21.0
sVBIRTH_DATE
p79
VMAY 10, 1996
p80
sVHEIGHT
p81
V6-2
p82
sVPLAYER
p83
VTyus Jones
p84
sVTeamID
p85
I1610612750
sVNUM
p86
V1
p87
sVEXP
p88
g43
sVLeagueID
p89
V00
p90
sVPOSITION
p91
g69
sVPLAYER_ID
p92
I1626145
ssI1626147
(dp93
g26
VVirginia
p94
sg28
V230
p95
sg30
V2017
p96
sg32
F23.0
sg33
VNOV 19, 1993
p97
sg35
V6-6
p98
sg37
VJustin Anderson
p99
sg39
I1610612755
sg40
g87
sg42
g43
sg44
V00
p100
sg46
VG-F
p101
sg48
I1626147
ssI1626148
(dp102
g72
VStanford
p103
sg74
V224
p104
sg76
V2017
p105
sg78
F25.0
sg79
VOCT 10, 1992
p106
sg81
V6-7
p107
sg83
VAnthony Brown
p108
sg85
I1610612750
sg86
V3
p109
sg88
g43
sg89
V00
p110
sg91
VF
p111
sg92
I1626148
ssI1626149
(dp112
VSCHOOL
p113
VLouisville
p114
sVWEIGHT
p115
V240
p116
sVSEASON
p117
V2017
p118
sVAGE
p119
F23.0
sVBIRTH_DATE
p120
VJAN 26, 1994
p121
sVHEIGHT
p122
V6-8
p123
sVPLAYER
p124
VMontrezl Harrell
p125
sVTeamID
p126
I1610612746
sVNUM
p127
g19
sVEXP
p128
g43
sVLeagueID
p129
V00
p130
sVPOSITION
p131
VF-C
p132
sVPLAYER_ID
p133
I1626149
ssI1626150
(dp134
VSCHOOL
p135
VKentucky
p136
sVWEIGHT
p137
V213
p138
sVSEASON
p139
V2017
p140
sVAGE
p141
F23.0
sVBIRTH_DATE
p142
VOCT 28, 1994
p143
sVHEIGHT
p144
V6-6
p145
sVPLAYER
p146
VAndrew Harrison
p147
sVTeamID
p148
I1610612763
sVNUM
p149
g19
sVEXP
p150
g87
sVLeagueID
p151
V00
p152
sVPOSITION
p153
g69
sVPLAYER_ID
p154
I1626150
ssI1626153
(dp155
VSCHOOL
p156
VUtah
p157
sVWEIGHT
p158
V190
p159
sVSEASON
p160
V2017
p161
sVAGE
p162
F25.0
sVBIRTH_DATE
p163
VAPR 26, 1992
p164
sVHEIGHT
p165
V6-5
p166
sVPLAYER
p167
VDelon Wright
p168
sVTeamID
p169
I1610612761
sVNUM
p170
V55
p171
sVEXP
p172
g43
sVLeagueID
p173
V00
p174
sVPOSITION
p175
g69
sVPLAYER_ID
p176
I1626153
ssI200746
(dp177
VSCHOOL
p178
VTexas
p179
sVWEIGHT
p180
V260
p181
sVSEASON
p182
V2017
p183
sVAGE
p184
F32.0
sVBIRTH_DATE
p185
VJUL 19, 1985
p186
sVHEIGHT
p187
V6-11
p188
sVPLAYER
p189
VLaMarcus Aldridge
p190
sVTeamID
p191
I1610612759
sVNUM
p192
V12
p193
sVEXP
p194
V11
p195
sVLeagueID
p196
V00
p197
sVPOSITION
p198
g111
sVPLAYER_ID
p199
I200746
ssI1626155
(dp200
g113
VWisconsin
p201
sg115
V230
p202
sg117
V2017
p203
sg119
F23.0
sg120
VMAY 08, 1994
p204
sg122
V6-9
p205
sg124
VSam Dekker
p206
sg126
I1610612746
sg127
V7
p207
sg128
g43
sg129
V00
p208
sg131
g111
sg133
I1626155
ssI1626156
(dp209
VSCHOOL
p210
VOhio State
p211
sVWEIGHT
p212
V195
p213
sVSEASON
p214
V2017
p215
sVAGE
p216
F21.0
sVBIRTH_DATE
p217
VFEB 23, 1996
p218
sVHEIGHT
p219
V6-5
p220
sVPLAYER
p221
VD'Angelo Russell
p222
sVTeamID
p223
I1610612751
sVNUM
p224
g87
sVEXP
p225
g43
sVLeagueID
p226
V00
p227
sVPOSITION
p228
g69
sVPLAYER_ID
p229
I1626156
ssI1626157
(dp230
g72
VKentucky
p231
sg74
V248
p232
sg76
V2017
p233
sg78
F21.0
sg79
VNOV 15, 1995
p234
sg81
V7-0
p235
sg83
VKarl-Anthony Towns
p236
sg85
I1610612750
sg86
V32
p237
sg88
g43
sg89
V00
p238
sg91
g47
sg92
I1626157
ssI1626158
(dp239
g26
VBowling Green
p240
sg28
V235
p241
sg30
V2017
p242
sg32
F24.0
sg33
VOCT 15, 1993
p243
sg35
V6-10
p244
sg37
VRichaun Holmes
p245
sg39
I1610612755
sg40
V22
p246
sg42
g43
sg44
V00
p247
sg46
VF-C
p248
sg48
I1626158
ssI1626159
(dp249
VSCHOOL
p250
VDuke
p251
sVWEIGHT
p252
V225
p253
sVSEASON
p254
V2017
p255
sVAGE
p256
F21.0
sVBIRTH_DATE
p257
VMAR 26, 1996
p258
sVHEIGHT
p259
V6-7
p260
sVPLAYER
p261
VJustise Winslow
p262
sVTeamID
p263
I1610612748
sVNUM
p264
V20
p265
sVEXP
p266
g43
sVLeagueID
p267
V00
p268
sVPOSITION
p269
g111
sVPLAYER_ID
p270
I1626159
ssI200752
(dp271
g178
VConnecticut
p272
sg180
V230
p273
sg182
V2017
p274
sg184
F31.0
sg185
VAUG 17, 1986
p275
sg187
V6-8
p276
sg189
VRudy Gay
p277
sg191
I1610612759
sg192
V22
p278
sg194
V11
p279
sg196
V00
p280
sg198
g111
sg199
I200752
ssI1626161
(dp281
VSCHOOL
p282
VKentucky
p283
sVWEIGHT
p284
V240
p285
sVSEASON
p286
V2017
p287
sVAGE
p288
F24.0
sVBIRTH_DATE
p289
VAUG 18, 1993
p290
sVHEIGHT
p291
V7-0
p292
sVPLAYER
p293
VWillie Cauley-Stein
p294
sVTeamID
p295
I1610612758
sVNUM
p296
V00
p297
sVEXP
p298
g43
sVLeagueID
p299
V00
p300
sVPOSITION
p301
g47
sVPLAYER_ID
p302
I1626161
ssI1626162
(dp303
VSCHOOL
p304
VKansas
p305
sVWEIGHT
p306
V205
p307
sVSEASON
p308
V2017
p309
sVAGE
p310
F21.0
sVBIRTH_DATE
p311
VDEC 09, 1995
p312
sVHEIGHT
p313
V6-7
p314
sVPLAYER
p315
VKelly Oubre Jr.
p316
sVTeamID
p317
I1610612764
sVNUM
p318
V12
p319
sVEXP
p320
g43
sVLeagueID
p321
V00
p322
sVPOSITION
p323
g111
sVPLAYER_ID
p324
I1626162
ssI1627763
(dp325
VSCHOOL
p326
VVirginia
p327
sVWEIGHT
p328
V215
p329
sVSEASON
p330
V2017
p331
sVAGE
p332
F24.0
sVBIRTH_DATE
p333
VDEC 11, 1992
p334
sVHEIGHT
p335
V6-5
p336
sVPLAYER
p337
VMalcolm Brogdon
p338
sVTeamID
p339
I1610612749
sVNUM
p340
V13
p341
sVEXP
p342
g87
sVLeagueID
p343
V00
p344
sVPOSITION
p345
g69
sVPLAYER_ID
p346
I1627763
ssI1626164
(dp347
VSCHOOL
p348
VKentucky
p349
sVWEIGHT
p350
V210
p351
sVSEASON
p352
V2017
p353
sVAGE
p354
F21.0
sVBIRTH_DATE
p355
VOCT 30, 1996
p356
sVHEIGHT
p357
V6-6
p358
sVPLAYER
p359
VDevin Booker
p360
sVTeamID
p361
I1610612756
sVNUM
p362
g87
sVEXP
p363
g43
sVLeagueID
p364
V00
p365
sVPOSITION
p366
g69
sVPLAYER_ID
p367
I1626164
ssI200757
(dp368
VSCHOOL
p369
VVevey, Switzerland
p370
sVWEIGHT
p371
V220
p372
sVSEASON
p373
V2017
p374
sVAGE
p375
F33.0
sVBIRTH_DATE
p376
VMAY 02, 1984
p377
sVHEIGHT
p378
V6-7
p379
sVPLAYER
p380
VThabo Sefolosha
p381
sVTeamID
p382
I1610612762
sVNUM
p383
V22
p384
sVEXP
p385
V11
p386
sVLeagueID
p387
V00
p388
sVPOSITION
p389
g111
sVPLAYER_ID
p390
I200757
ssI1626166
(dp391
VSCHOOL
p392
VMurray State
p393
sVWEIGHT
p394
V185
p395
sVSEASON
p396
V2017
p397
sVAGE
p398
F23.0
sVBIRTH_DATE
p399
VAUG 08, 1994
p400
sVHEIGHT
p401
V6-3
p402
sVPLAYER
p403
VCameron Payne
p404
sVTeamID
p405
I1610612741
sVNUM
p406
V22
p407
sVEXP
p408
g43
sVLeagueID
p409
V00
p410
sVPOSITION
p411
g69
sVPLAYER_ID
p412
I1626166
ssI1626167
(dp413
VSCHOOL
p414
VTexas
p415
sVWEIGHT
p416
V255
p417
sVSEASON
p418
V2017
p419
sVAGE
p420
F21.0
sVBIRTH_DATE
p421
VMAR 24, 1996
p422
sVHEIGHT
p423
V6-11
p424
sVPLAYER
p425
VMyles Turner
p426
sVTeamID
p427
I1610612754
sVNUM
p428
V33
p429
sVEXP
p430
g43
sVLeagueID
p431
V00
p432
sVPOSITION
p433
g47
sVPLAYER_ID
p434
I1626167
ssI1626168
(dp435
g50
VKentucky
p436
sg51
V234
p437
sg53
V2017
p438
sg55
F22.0
sg56
VNOV 05, 1995
p439
sg58
V6-10
p440
sg60
VTrey Lyles
p441
sg62
I1610612743
sg63
g207
sg65
g43
sg66
V00
p442
sg68
g111
sg70
I1626168
ssI1626170
(dp443
g392
VNotre Dame
p444
sg394
V198
p445
sg396
V2017
p446
sg398
F25.0
sg399
VOCT 09, 1992
p447
sg401
V6-4
p448
sg403
VJerian Grant
p449
sg405
I1610612741
sg406
g43
sg408
g43
sg409
V00
p450
sg411
g69
sg412
I1626170
ssI1626171
(dp451
g392
VArkansas
p452
sg394
V248
p453
sg396
V2017
p454
sg398
F22.0
sg399
VFEB 10, 1995
p455
sg401
V6-11
p456
sg403
VBobby Portis
p457
sg405
I1610612741
sg406
g19
sg408
g43
sg409
V00
p458
sg411
g111
sg412
I1626171
ssI1626172
(dp459
VSCHOOL
p460
VUCLA
p461
sVWEIGHT
p462
V220
p463
sVSEASON
p464
V2017
p465
sVAGE
p466
F21.0
sVBIRTH_DATE
p467
VFEB 06, 1996
p468
sVHEIGHT
p469
V6-9
p470
sVPLAYER
p471
VKevon Looney
p472
sVTeamID
p473
I1610612744
sVNUM
p474
g19
sVEXP
p475
g43
sVLeagueID
p476
V00
p477
sVPOSITION
p478
g111
sVPLAYER_ID
p479
I1626172
ssI1626173
(dp480
g326
VUNLV
p481
sg328
V202
p482
sg330
V2017
p483
sg332
F21.0
sg333
VAUG 16, 1996
p484
sg335
V6-6
p485
sg337
VRashad Vaughn
p486
sg339
I1610612749
sg340
V20
p487
sg342
g43
sg343
V00
p488
sg345
g69
sg346
I1626173
ssI1626175
(dp489
g250
VLouisiana State
p490
sg252
V235
p491
sg254
V2017
p492
sg256
F23.0
sg257
VJUL 09, 1994
p493
sg259
V6-8
p494
sg261
VJordan Mickey
p495
sg263
I1610612748
sg264
V25
p496
sg266
g43
sg267
V00
p497
sg269
VC-F
p498
sg270
I1626175
ssI200768
(dp499
g156
VVillanova
p500
sg158
V205
p501
sg160
V2017
p502
sg162
F31.0
sg163
VMAR 25, 1986
p503
sg165
V6-0
p504
sg167
VKyle Lowry
p505
sg169
I1610612761
sg170
g207
sg172
V11
p506
sg173
V00
p507
sg175
g69
sg176
I200768
ssI1626177
(dp508
VSCHOOL
p509
VKentucky
p510
sVWEIGHT
p511
V255
p512
sVSEASON
p513
V2017
p514
sVAGE
p515
F22.0
sVBIRTH_DATE
p516
VSEP 22, 1995
p517
sVHEIGHT
p518
V7-0
p519
sVPLAYER
p520
VDakari Johnson
p521
sVTeamID
p522
I1610612760
sVNUM
p523
V44
p524
sVEXP
p525
VR
p526
sVLeagueID
p527
V00
p528
sVPOSITION
p529
g47
sVPLAYER_ID
p530
I1626177
ssI1626178
(dp531
g210
VArizona
p532
sg212
V214
p533
sg214
V2017
p534
sg216
F22.0
sg217
VJAN 03, 1995
p535
sg219
V6-7
p536
sg221
VRondae Hollis-Jefferson
p537
sg223
I1610612751
sg224
V24
p538
sg225
g43
sg226
V00
p539
sg228
g111
sg229
I1626178
ssI1626179
(dp540
VSCHOOL
p541
VLouisville
p542
sVWEIGHT
p543
V190
p544
sVSEASON
p545
V2017
p546
sVAGE
p547
F23.0
sVBIRTH_DATE
p548
VMAR 17, 1994
p549
sVHEIGHT
p550
V6-2
p551
sVPLAYER
p552
VTerry Rozier
p553
sVTeamID
p554
I1610612738
sVNUM
p555
V12
p556
sVEXP
p557
g43
sVLeagueID
p558
V00
p559
sVPOSITION
p560
g69
sVPLAYER_ID
p561
I1626179
ssI1626181
(dp562
g156
VUCLA
p563
sg158
V215
p564
sg160
V2017
p565
sg162
F24.0
sg163
VMAY 25, 1993
p566
sg165
V6-4
p567
sg167
VNorman Powell
p568
sg169
I1610612761
sg170
V24
p569
sg172
g43
sg173
V00
p570
sg175
VF-G
p571
sg176
I1626181
ssI1626185
(dp572
g135
VLouisiana State
p573
sg137
V239
p574
sg139
V2017
p575
sg141
F23.0
sg142
VMAY 24, 1994
p576
sg144
V6-10
p577
sg146
VJarell Martin
p578
sg148
I1610612763
sg149
g87
sg150
g43
sg151
V00
p579
sg153
g111
sg154
I1626185
ssI1626188
(dp580
g460
VDuke
p581
sg462
V179
p582
sg464
V2017
p583
sg466
F24.0
sg467
VMAR 23, 1993
p584
sg469
V6-2
p585
sg471
VQuinn Cook
p586
sg473
I1610612744
sg474
V4
p587
sg475
g87
sg476
V00
p588
sg478
g69
sg479
I1626188
ssI200782
(dp589
VSCHOOL
p590
VTexas
p591
sVWEIGHT
p592
V245
p593
sVSEASON
p594
V2017
p595
sVAGE
p596
F32.0
sVBIRTH_DATE
p597
VMAY 05, 1985
p598
sVHEIGHT
p599
V6-6
p600
sVPLAYER
p601
VPJ Tucker
p602
sVTeamID
p603
I1610612745
sVNUM
p604
g587
sVEXP
p605
V6
p606
sVLeagueID
p607
V00
p608
sVPOSITION
p609
g111
sVPLAYER_ID
p610
I200782
ssI1626191
(dp611
g304
VSyracuse
p612
sg306
V215
p613
sg308
V2017
p614
sg310
F22.0
sg311
VFEB 05, 1995
p615
sg313
V6-9
p616
sg315
VChris McCullough
p617
sg317
I1610612764
sg318
g87
sg320
g43
sg321
V00
p618
sg323
g111
sg324
I1626191
ssI1626192
(dp619
VSCHOOL
p620
VNotre Dame
p621
sVWEIGHT
p622
V210
p623
sVSEASON
p624
V2017
p625
sVAGE
p626
F24.0
sVBIRTH_DATE
p627
VJAN 06, 1993
p628
sVHEIGHT
p629
V6-5
p630
sVPLAYER
p631
VPat Connaughton
p632
sVTeamID
p633
I1610612757
sVNUM
p634
g19
sVEXP
p635
g43
sVLeagueID
p636
V00
p637
sVPOSITION
p638
VG-F
p639
sVPLAYER_ID
p640
I1626192
ssI1626195
(dp641
VSCHOOL
p642
VSpain
p643
sVWEIGHT
p644
V240
p645
sVSEASON
p646
V2017
p647
sVAGE
p648
F23.0
sVBIRTH_DATE
p649
VMAY 27, 1994
p650
sVHEIGHT
p651
V6-11
p652
sVPLAYER
p653
VWilly Hernangomez
p654
sVTeamID
p655
I1610612752
sVNUM
p656
V14
p657
sVEXP
p658
g87
sVLeagueID
p659
V00
p660
sVPOSITION
p661
g47
sVPLAYER_ID
p662
I1626195
ssI1626196
(dp663
g250
VTennessee
p664
sg252
V200
p665
sg254
V2017
p666
sg256
F24.0
sg257
VSEP 15, 1993
p667
sg259
V6-6
p668
sg261
VJosh Richardson
p669
sg263
I1610612748
sg264
g64
sg266
g43
sg267
V00
p670
sg269
g111
sg270
I1626196
ssI1626199
(dp671
g178
VVillanova
p672
sg180
V220
p673
sg182
V2017
p674
sg184
F24.0
sg185
VAPR 13, 1993
p675
sg187
V6-6
p676
sg189
VDarrun Hilliard
p677
sg191
I1610612759
sg192
V24
p678
sg194
g43
sg196
V00
p679
sg198
g69
sg199
I1626199
ssI200794
(dp680
g50
VLouisiana Tech
p681
sg51
V246
p682
sg53
V2017
p683
sg55
F32.0
sg56
VFEB 10, 1985
p684
sg58
V6-8
p685
sg60
VPaul Millsap
p686
sg62
I1610612743
sg63
g587
sg65
V11
p687
sg66
V00
p688
sg68
g111
sg70
I200794
ssI1626204
(dp689
VSCHOOL
p690
VWyoming
p691
sVWEIGHT
p692
V230
p693
sVSEASON
p694
V2017
p695
sVAGE
p696
F24.0
sVBIRTH_DATE
p697
VJAN 01, 1993
p698
sVHEIGHT
p699
V6-9
p700
sVPLAYER
p701
VLarry Nance Jr.
p702
sVTeamID
p703
I1610612747
sVNUM
p704
g207
sVEXP
p705
g43
sVLeagueID
p706
V00
p707
sVPOSITION
p708
g111
sVPLAYER_ID
p709
I1626204
ssI1626205
(dp710
g135
VTexas-El Paso
p711
sg137
V208
p712
sg139
V2017
p713
sg141
F23.0
sg142
VAUG 05, 1994
p714
sg144
V6-8
p715
sg146
VVincent Hunter
p716
sg148
I1610612763
sg149
V32
p717
sg150
g526
sg151
V00
p718
sg153
g111
sg154
I1626205
ssI1626209
(dp719
g2
VCroatia
p720
sg4
V218
p721
sg6
V2017
p722
sg8
F22.0
sg9
VFEB 25, 1995
p723
sg11
V6-8
p724
sg13
VMario Hezonja
p725
sg15
I1610612753
sg16
g41
sg18
g43
sg20
V00
p726
sg22
VG-F
p727
sg24
I1626209
ssI1626210
(dp728
g348
VCalifornia-Santa Barbara
p729
sg350
V265
p730
sg352
V2017
p731
sg354
F24.0
sg355
VJAN 28, 1993
p732
sg357
V6-8
p733
sg359
VAlan Williams
p734
sg361
I1610612756
sg362
V15
p735
sg363
g43
sg364
V00
p736
sg366
VF-C
p737
sg367
I1626210
ssI1626220
(dp738
g369
VBaylor
p739
sg371
V226
p740
sg373
V2017
p741
sg375
F24.0
sg376
VJUN 05, 1993
p742
sg378
V6-6
p743
sg380
VRoyce O'Neale
p744
sg382
I1610612762
sg383
V23
p745
sg385
g526
sg387
V00
p746
sg389
g111
sg390
I1626220
ssI1626224
(dp747
VSCHOOL
p748
VAnadolu Efes
p749
sVWEIGHT
p750
V215
p751
sVSEASON
p752
V2017
p753
sVAGE
p754
F22.0
sVBIRTH_DATE
p755
VAPR 08, 1995
p756
sVHEIGHT
p757
V6-8
p758
sVPLAYER
p759
VCedi Osman
p760
sVTeamID
p761
I1610612739
sVNUM
p762
V16
p763
sVEXP
p764
g526
sVLeagueID
p765
V00
p766
sVPOSITION
p767
g111
sVPLAYER_ID
p768
I1626224
ssI200826
(dp769
VSCHOOL
p770
VNortheastern
p771
sVWEIGHT
p772
V185
p773
sVSEASON
p774
V2017
p775
sVAGE
p776
F33.0
sVBIRTH_DATE
p777
VJUN 26, 1984
p778
sVHEIGHT
p779
V6-0
p780
sVPLAYER
p781
VJ.J. Barea
p782
sVTeamID
p783
I1610612742
sVNUM
p784
g19
sVEXP
p785
V11
p786
sVLeagueID
p787
V00
p788
sVPOSITION
p789
g69
sVPLAYER_ID
p790
I200826
ssI1626245
(dp791
g392
Nsg394
V280
p792
sg396
V2017
p793
sg398
F25.0
sg399
VJUL 07, 1992
p794
sg401
V6-9
p795
sg403
VCristiano Felicio
p796
sg405
I1610612741
sg406
g606
sg408
g43
sg409
V00
p797
sg411
VC-F
p798
sg412
I1626245
ssI203458
(dp799
g348
VMaryland
p800
sg350
V250
p801
sg352
V2017
p802
sg354
F24.0
sg355
VJUN 16, 1993
p803
sg357
V7-1
p804
sg359
VAlex Len
p805
sg361
I1610612756
sg362
V21
p806
sg363
g587
sg364
V00
p807
sg366
g47
sg367
I203458
ssI1626257
(dp808
g770
Nsg772
V235
p809
sg774
V2017
p810
sg776
F31.0
sg777
VJUN 15, 1986
p811
sg779
V7-2
p812
sg781
VSalah Mejri
p813
sg783
I1610612742
sg784
V50
p814
sg785
g43
sg787
V00
p815
sg789
g47
sg790
I1626257
ssI1626259
(dp816
g156
VHoly Cross
p817
sg158
V210
p818
sg160
V2017
p819
sg162
F24.0
sg163
VMAR 06, 1993
p820
sg165
V6-7
p821
sg167
VMalcolm Miller
p822
sg169
I1610612761
sg170
V13
p823
sg172
g526
sg173
V00
p824
sg175
g111
sg176
I1626259
ssI2199
(dp825
g348
VDominquez H.S
p826
sg350
V240
p827
sg352
V2017
p828
sg354
F35.0
sg355
VOCT 02, 1982
p829
sg357
V7-1
p830
sg359
VTyson Chandler
p831
sg361
I1610612756
sg362
g587
sg363
V16
p832
sg364
V00
p833
sg366
g47
sg367
I2199
ssI2200
(dp834
g178
VBarcelona, Spain
p835
sg180
V250
p836
sg182
V2017
p837
sg184
F37.0
sg185
VJUL 06, 1980
p838
sg187
V7-0
p839
sg189
VPau Gasol
p840
sg191
I1610612759
sg192
V16
p841
sg194
V16
p842
sg196
V00
p843
sg198
g47
sg199
I2200
ssI2207
(dp844
g369
VArkansas
p845
sg371
V240
p846
sg373
V2017
p847
sg375
F36.0
sg376
VJUN 29, 1981
p848
sg378
V6-7
p849
sg380
VJoe Johnson
p850
sg382
I1610612762
sg383
g606
sg385
V16
p851
sg387
V00
p852
sg389
VG-F
p853
sg390
I2207
ssI2210
(dp854
g50
VArizona
p855
sg51
V233
p856
sg53
V2017
p857
sg55
F37.0
sg56
VJUN 21, 1980
p858
sg58
V6-7
p859
sg60
VRichard Jefferson
p860
sg62
I1610612743
sg63
V22
p861
sg65
V16
p862
sg66
V00
p863
sg68
g111
sg70
I2210
ssI2216
(dp864
g282
VMichigan State
p865
sg284
V250
p866
sg286
V2017
p867
sg288
F36.0
sg289
VJUL 16, 1981
p868
sg291
V6-9
p869
sg293
VZach Randolph
p870
sg295
I1610612758
sg296
V50
p871
sg298
V16
p872
sg299
V00
p873
sg301
g111
sg302
I2216
ssI2225
(dp874
g178
VParis, France
p875
sg180
V185
p876
sg182
V2017
p877
sg184
F35.0
sg185
VMAY 17, 1982
p878
sg187
V6-2
p879
sg189
VTony Parker
p880
sg191
I1610612759
sg192
V9
p881
sg194
V16
p882
sg196
V00
p883
sg198
g69
sg199
I2225
ssI1628365
(dp884
g26
VWashington
p885
sg28
V200
p886
sg30
V2017
p887
sg32
F19.0
sg33
VMAY 29, 1998
p888
sg35
V6-4
p889
sg37
VMarkelle Fultz
p890
sg39
I1610612755
sg40
V20
p891
sg42
g526
sg44
V00
p892
sg46
g69
sg48
I1628365
ssI1628366
(dp893
g690
VCalifornia-Los Angeles
p894
sg692
V190
p895
sg694
V2017
p896
sg696
F20.0
sg697
VOCT 27, 1997
p897
sg699
V6-6
p898
sg701
VLonzo Ball
p899
sg703
I1610612747
sg704
g43
sg705
g526
sg706
V00
p900
sg708
g69
sg709
I1628366
ssI1628367
(dp901
g348
VKansas
p902
sg350
V200
p903
sg352
V2017
p904
sg354
F20.0
sg355
VFEB 10, 1997
p905
sg357
V6-8
p906
sg359
VJosh Jackson
p907
sg361
I1610612756
sg362
V20
p908
sg363
g526
sg364
V00
p909
sg366
g111
sg367
I1628367
ssI1628368
(dp910
g282
VKentucky
p911
sg284
V175
p912
sg286
V2017
p913
sg288
F19.0
sg289
VDEC 20, 1997
p914
sg291
V6-3
p915
sg293
VDe'Aaron Fox
p916
sg295
I1610612758
sg296
g19
sg298
g526
sg299
V00
p917
sg301
g69
sg302
I1628368
ssI1628369
(dp918
g541
VDuke
p919
sg543
V205
p920
sg545
V2017
p921
sg547
F19.0
sg548
VMAR 03, 1998
p922
sg550
V6-8
p923
sg552
VJayson Tatum
p924
sg554
I1610612738
sg555
g64
sg557
g526
sg558
V00
p925
sg560
g111
sg561
I1628369
ssI1628371
(dp926
g2
VFlorida State
p927
sg4
V210
p928
sg6
V2017
p929
sg8
F20.0
sg9
VOCT 03, 1997
p930
sg11
V6-10
p931
sg13
VJonathan Isaac
p932
sg15
I1610612753
sg16
g87
sg18
g526
sg20
V00
p933
sg22
g111
sg24
I1628371
ssI1628372
(dp934
g770
VNorth Carolina State
p935
sg772
V195
p936
sg774
V2017
p937
sg776
F19.0
sg777
VNOV 25, 1997
p938
sg779
V6-3
p939
sg781
VDennis Smith Jr.
p940
sg783
I1610612742
sg784
g87
sg785
g526
sg787
V00
p941
sg789
g69
sg790
I1628372
ssI1628373
(dp942
g642
Nsg644
V190
p943
sg646
V2017
p944
sg648
F19.0
sg649
VJUL 28, 1998
p945
sg651
V6-5
p946
sg653
VFrank Ntilikina
p947
sg655
I1610612752
sg656
V11
p948
sg658
g526
sg659
V00
p949
sg661
g69
sg662
I1628373
ssI1628374
(dp950
g392
VArizona
p951
sg394
V230
p952
sg396
V2017
p953
sg398
F20.0
sg399
VMAY 22, 1997
p954
sg401
V7-0
p955
sg403
VLauri Markkanen
p956
sg405
I1610612741
sg406
V24
p957
sg408
g526
sg409
V00
p958
sg411
g111
sg412
I1628374
ssI1628378
(dp959
g369
VLouisville
p960
sg371
V215
p961
sg373
V2017
p962
sg375
F21.0
sg376
VSEP 07, 1996
p963
sg378
V6-3
p964
sg380
VDonovan Mitchell
p965
sg382
I1610612762
sg383
V45
p966
sg385
g526
sg387
V00
p967
sg389
g69
sg390
I1628378
ssI1628380
(dp968
g620
VGonzaga
p969
sg622
V230
p970
sg624
V2017
p971
sg626
F19.0
sg627
VNOV 19, 1997
p972
sg629
V7-0
p973
sg631
VZach Collins
p974
sg633
I1610612757
sg634
V33
p975
sg635
g526
sg636
V00
p976
sg638
VC-F
p977
sg640
I1628380
ssI1628381
(dp978
VSCHOOL
p979
VWake Forest
p980
sVWEIGHT
p981
V235
p982
sVSEASON
p983
V2017
p984
sVAGE
p985
F20.0
sVBIRTH_DATE
p986
VSEP 23, 1997
p987
sVHEIGHT
p988
V6-10
p989
sVPLAYER
p990
VJohn Collins
p991
sVTeamID
p992
I1610612737
sVNUM
p993
V20
p994
sVEXP
p995
g526
sVLeagueID
p996
V00
p997
sVPOSITION
p998
VF-C
p999
sVPLAYER_ID
p1000
I1628381
ssI1628382
(dp1001
g282
VNorth Carolina
p1002
sg284
V210
p1003
sg286
V2017
p1004
sg288
F22.0
sg289
VMAR 28, 1995
p1005
sg291
V6-8
p1006
sg293
VJustin Jackson
p1007
sg295
I1610612758
sg296
V25
p1008
sg298
g526
sg299
V00
p1009
sg301
g111
sg302
I1628382
ssI1628383
(dp1010
g72
VCreighton
p1011
sg74
V236
p1012
sg76
V2017
p1013
sg78
F20.0
sg79
VJUN 14, 1997
p1014
sg81
V7-0
p1015
sg83
VJustin Patton
p1016
sg85
I1610612750
sg86
V24
p1017
sg88
g526
sg89
V00
p1018
sg91
g47
sg92
I1628383
ssI1628384
(dp1019
g156
VIndiana
p1020
sg158
V235
p1021
sg160
V2017
p1022
sg162
F20.0
sg163
VJUL 17, 1997
p1023
sg165
V6-8
p1024
sg167
VOG Anunoby
p1025
sg169
I1610612761
sg170
g109
sg172
g526
sg173
V00
p1026
sg175
g111
sg176
I1628384
ssI1628385
(dp1027
g282
VDuke
p1028
sg284
V240
p1029
sg286
V2017
p1030
sg288
F19.0
sg289
VAPR 22, 1998
p1031
sg291
V6-10
p1032
sg293
VHarry Giles
p1033
sg295
I1610612758
sg296
V20
p1034
sg298
g526
sg299
V00
p1035
sg301
VF-C
p1036
sg302
I1628385
ssI1628386
(dp1037
g210
VTexas
p1038
sg212
V234
p1039
sg214
V2017
p1040
sg216
F19.0
sg217
VAPR 21, 1998
p1041
sg219
V6-11
p1042
sg221
VJarrett Allen
p1043
sg223
I1610612751
sg224
V31
p1044
sg225
g526
sg226
V00
p1045
sg228
g47
sg229
I1628386
ssI1628387
(dp1046
g414
VCalifornia-Los Angeles
p1047
sg416
V262
p1048
sg418
V2017
p1049
sg420
F19.0
sg421
VOCT 16, 1998
p1050
sg423
V6-10
p1051
sg425
VIke Anigbogu
p1052
sg427
I1610612754
sg428
V13
p1053
sg430
g526
sg431
V00
p1054
sg433
g47
sg434
I1628387
ssI1628388
(dp1055
g414
VCalifornia-Los Angeles
p1056
sg416
V230
p1057
sg418
V2017
p1058
sg420
F20.0
sg421
VAPR 30, 1997
p1059
sg423
V6-10
p1060
sg425
VTJ Leaf
p1061
sg427
I1610612754
sg428
V22
p1062
sg430
g526
sg431
V00
p1063
sg433
g111
sg434
I1628388
ssI1628389
(dp1064
g250
VKentucky
p1065
sg252
V255
p1066
sg254
V2017
p1067
sg256
F20.0
sg257
VJUL 18, 1997
p1068
sg259
V6-10
p1069
sg261
VBam Adebayo
p1070
sg263
I1610612748
sg264
V13
p1071
sg266
g526
sg267
V00
p1072
sg269
VC-F
p1073
sg270
I1628389
ssI1628390
(dp1074
g509
Nsg511
V184
p1075
sg513
V2017
p1076
sg515
F19.0
sg516
VMAY 17, 1998
p1077
sg518
V6-7
p1078
sg520
VTerrance Ferguson
p1079
sg522
I1610612760
sg523
V23
p1080
sg525
g526
sg527
V00
p1081
sg529
g69
sg530
I1628390
ssI1628391
(dp1082
g326
VMichigan
p1083
sg328
V236
p1084
sg330
V2017
p1085
sg332
F21.0
sg333
VFEB 19, 1996
p1086
sg335
V6-10
p1087
sg337
VD.J. Wilson
p1088
sg339
I1610612749
sg340
g19
sg342
g526
sg343
V00
p1089
sg345
g111
sg346
I1628391
ssI1628393
(dp1090
g113
VOklahoma State
p1091
sg115
V190
p1092
sg117
V2017
p1093
sg119
F21.0
sg120
VJUL 26, 1996
p1094
sg122
V6-0
p1095
sg124
VJawun Evans
p1096
sg126
I1610612746
sg127
g87
sg128
g526
sg129
V00
p1097
sg131
g69
sg133
I1628393
ssI1628395
(dp1098
g460
VOregon
p1099
sg462
V224
p1100
sg464
V2017
p1101
sg466
F22.0
sg467
VJAN 07, 1995
p1102
sg469
V6-9
p1103
sg471
VJordan Bell
p1104
sg473
I1610612744
sg474
g43
sg475
g526
sg476
V00
p1105
sg478
g111
sg479
I1628395
ssI1628396
(dp1106
g369
VNorth Carolina
p1107
sg371
V248
p1108
sg373
V2017
p1109
sg375
F19.0
sg376
VJAN 08, 1998
p1110
sg378
V6-10
p1111
sg380
VTony Bradley
p1112
sg382
I1610612762
sg383
V13
p1113
sg385
g526
sg387
V00
p1114
sg389
g47
sg390
I1628396
ssI1628397
(dp1115
g135
VCalifornia
p1116
sg137
V220
p1117
sg139
V2017
p1118
sg141
F20.0
sg142
VFEB 04, 1997
p1119
sg144
V6-10
p1120
sg146
VIvan Rabb
p1121
sg148
I1610612763
sg149
V10
p1122
sg150
g526
sg151
V00
p1123
sg153
g111
sg154
I1628397
ssI1628398
(dp1124
g690
VUtah
p1125
sg692
V220
p1126
sg694
V2017
p1127
sg696
F22.0
sg697
VJUL 24, 1995
p1128
sg699
V6-9
p1129
sg701
VKyle Kuzma
p1130
sg703
I1610612747
sg704
g64
sg705
g526
sg706
V00
p1131
sg708
g111
sg709
I1628398
ssI1628399
(dp1132
g50
VSyracuse
p1133
sg51
V220
p1134
sg53
V2017
p1135
sg55
F21.0
sg56
VAPR 09, 1996
p1136
sg58
V6-9
p1137
sg60
VTyler Lydon
p1138
sg62
I1610612743
sg63
V20
p1139
sg65
g526
sg66
V00
p1140
sg68
g111
sg70
I1628399
ssI1628400
(dp1141
g541
VSouthern Methodist
p1142
sg543
V235
p1143
sg545
V2017
p1144
sg547
F22.0
sg548
VDEC 05, 1994
p1145
sg550
V6-7
p1146
sg552
VSemi Ojeleye
p1147
sg554
I1610612738
sg555
V37
p1148
sg557
g526
sg558
V00
p1149
sg560
g111
sg561
I1628400
ssI1628401
(dp1150
g178
VColorado
p1151
sg180
V190
p1152
sg182
V2017
p1153
sg184
F23.0
sg185
VJUL 02, 1994
p1154
sg187
V6-4
p1155
sg189
VDerrick White
p1156
sg191
I1610612759
sg192
g587
sg194
g526
sg196
V00
p1157
sg198
g69
sg199
I1628401
ssI1628402
(dp1158
VSCHOOL
p1159
VDuke
p1160
sVWEIGHT
p1161
V205
p1162
sVSEASON
p1163
V2017
p1164
sVAGE
p1165
F19.0
sVBIRTH_DATE
p1166
VMAY 04, 1998
p1167
sVHEIGHT
p1168
V6-3
p1169
sVPLAYER
p1170
VFrank Jackson
p1171
sVTeamID
p1172
I1610612740
sVNUM
p1173
V15
p1174
sVEXP
p1175
g526
sVLeagueID
p1176
V00
p1177
sVPOSITION
p1178
g69
sVPLAYER_ID
p1179
I1628402
ssI1628403
(dp1180
g620
VPurdue
p1181
sg622
V250
p1182
sg624
V2017
p1183
sg626
F20.0
sg627
VAPR 18, 1997
p1184
sg629
V6-8
p1185
sg631
VCaleb Swanigan
p1186
sg633
I1610612757
sg634
V50
p1187
sg635
g526
sg636
V00
p1188
sg638
VF-C
p1189
sg640
I1628403
ssI1628404
(dp1190
g690
VVillanova
p1191
sg692
V215
p1192
sg694
V2017
p1193
sg696
F22.0
sg697
VMAR 06, 1995
p1194
sg699
V6-5
p1195
sg701
VJosh Hart
p1196
sg703
I1610612747
sg704
g19
sg705
g526
sg706
V00
p1197
sg708
g69
sg709
I1628404
ssI1628405
(dp1198
g770
VBaylor
p1199
sg772
V230
p1200
sg774
V2017
p1201
sg776
F22.0
sg777
VMAY 04, 1995
p1202
sg779
V6-10
p1203
sg781
VJohnathan Motley
p1204
sg783
I1610612742
sg784
g606
sg785
g526
sg787
V00
p1205
sg789
g111
sg790
I1628405
ssI1628408
(dp1206
g509
VSouth Carolina
p1207
sg511
V205
p1208
sg513
V2017
p1209
sg515
F21.0
sg516
VOCT 25, 1996
p1210
sg518
V6-6
p1211
sg520
VPJ Dozier
p1212
sg522
I1610612760
sg523
V35
p1213
sg525
g526
sg527
V00
p1214
sg529
g69
sg530
I1628408
ssI203476
(dp1215
g72
VLouisville
p1216
sg74
V251
p1217
sg76
V2017
p1218
sg78
F27.0
sg79
VJAN 18, 1990
p1219
sg81
V6-11
p1220
sg83
VGorgui Dieng
p1221
sg85
I1610612750
sg86
g19
sg88
g587
sg89
V00
p1222
sg91
g47
sg92
I203476
ssI1628410
(dp1223
g414
VXavier
p1224
sg416
V188
p1225
sg418
V2017
p1226
sg420
F21.0
sg421
VDEC 31, 1995
p1227
sg423
V6-5
p1228
sg425
VEdmond Sumner
p1229
sg427
I1610612754
sg428
g19
sg430
g526
sg431
V00
p1230
sg433
g69
sg434
I1628410
ssI1628411
(dp1231
g2
VKansas State
p1232
sg4
V195
p1233
sg6
V2017
p1234
sg8
F22.0
sg9
VDEC 20, 1994
p1235
sg11
V6-7
p1236
sg13
VWes Iwundu
p1237
sg15
I1610612753
sg16
V25
p1238
sg18
g526
sg20
V00
p1239
sg22
g111
sg24
I1628411
ssI1628412
(dp1240
g282
VKansas
p1241
sg284
V190
p1242
sg286
V2017
p1243
sg288
F23.0
sg289
VAPR 03, 1994
p1244
sg291
V5-11
p1245
sg293
VFrank Mason
p1246
sg295
I1610612758
sg296
V10
p1247
sg298
g526
sg299
V00
p1248
sg301
g69
sg302
I1628412
ssI1628414
(dp1249
g113
VSouth Carolina
p1250
sg115
V215
p1251
sg117
V2017
p1252
sg119
F22.0
sg120
VNOV 15, 1994
p1253
sg122
V6-5
p1254
sg124
VSindarius Thornwell
p1255
sg126
I1610612746
sg127
g64
sg128
g526
sg129
V00
p1256
sg131
g69
sg133
I1628414
ssI1628415
(dp1257
g135
VOregon
p1258
sg137
V220
p1259
sg139
V2017
p1260
sg141
F21.0
sg142
VJAN 22, 1996
p1261
sg144
V6-6
p1262
sg146
VDillon Brooks
p1263
sg148
I1610612763
sg149
V24
p1264
sg150
g526
sg151
V00
p1265
sg153
VF-G
p1266
sg154
I1628415
ssI1628416
(dp1267
g979
VOregon
p1268
sg981
V183
p1269
sg983
V2017
p1270
sg985
F21.0
sg986
VFEB 18, 1996
p1271
sg988
V6-4
p1272
sg990
VTyler Dorsey
p1273
sg992
I1610612737
sg993
g43
sg995
g526
sg996
V00
p1274
sg998
g69
sg1000
I1628416
ssI1628418
(dp1275
g690
VIndiana
p1276
sg692
V248
p1277
sg694
V2017
p1278
sg696
F20.0
sg697
VJUL 31, 1997
p1279
sg699
V6-10
p1280
sg701
VThomas Bryant
p1281
sg703
I1610612747
sg704
V31
p1282
sg705
g526
sg706
V00
p1283
sg708
g47
sg709
I1628418
ssI1628420
(dp1284
g50
VIowa State
p1285
sg51
V175
p1286
sg53
V2017
p1287
sg55
F22.0
sg56
VJUN 27, 1995
p1288
sg58
V6-3
p1289
sg60
VMonte Morris
p1290
sg62
I1610612743
sg63
V11
p1291
sg65
g526
sg66
V00
p1292
sg68
g69
sg70
I1628420
ssI1628421
(dp1293
g304
VFlorida
p1294
sg306
V200
p1295
sg308
V2017
p1296
sg310
F22.0
sg311
VMAR 07, 1995
p1297
sg313
V6-8
p1298
sg315
VDevin Robinson
p1299
sg317
I1610612764
sg318
g207
sg320
g526
sg321
V00
p1300
sg323
g111
sg324
I1628421
ssI1628422
(dp1301
g642
VHouston
p1302
sg644
V210
p1303
sg646
V2017
p1304
sg648
F23.0
sg649
VMAY 06, 1994
p1305
sg651
V6-5
p1306
sg653
VDamyean Dotson
p1307
sg655
I1610612752
sg656
V21
p1308
sg658
g526
sg659
V00
p1309
sg661
g69
sg662
I1628422
ssI1628424
(dp1310
g135
VArizona
p1311
sg137
V170
p1312
sg139
V2017
p1313
sg141
F20.0
sg142
VJUL 04, 1997
p1314
sg144
V6-4
p1315
sg146
VKobi Simmons
p1316
sg148
I1610612763
sg149
g43
sg150
g526
sg151
V00
p1317
sg153
g69
sg154
I1628424
ssI1628425
(dp1318
g326
VSouthern Methodist
p1319
sg328
V230
p1320
sg330
V2017
p1321
sg332
F22.0
sg333
VFEB 10, 1995
p1322
sg335
V6-6
p1323
sg337
VSterling Brown
p1324
sg339
I1610612749
sg340
V23
p1325
sg342
g526
sg343
V00
p1326
sg345
g69
sg346
I1628425
ssI1628429
(dp1327
g1159
VDayton
p1328
sg1161
V196
p1329
sg1163
V2017
p1330
sg1165
F23.0
sg1166
VJUL 01, 1994
p1331
sg1168
V6-5
p1332
sg1170
VCharles Cooke
p1333
sg1172
I1610612740
sg1173
g587
sg1175
g526
sg1176
V00
p1334
sg1178
g69
sg1179
I1628429
ssI1628432
(dp1335
g348
VMiami (FL)
p1336
sg350
V210
p1337
sg352
V2017
p1338
sg354
F22.0
sg355
VJUN 11, 1995
p1339
sg357
V6-6
p1340
sg359
VDavon Reed
p1341
sg361
I1610612756
sg362
V32
p1342
sg363
g526
sg364
V00
p1343
sg366
g69
sg367
I1628432
ssI1628436
(dp1344
g642
VVanderbilt
p1345
sg644
V250
p1346
sg646
V2017
p1347
sg648
F22.0
sg649
VJUL 15, 1995
p1348
sg651
V7-1
p1349
sg653
VLuke Kornet
p1350
sg655
I1610612752
sg656
g43
sg658
g526
sg659
V00
p1351
sg661
VF-C
p1352
sg662
I1628436
ssI1628439
(dp1353
g642
VNorth Carolina
p1354
sg644
V242
p1355
sg646
V2017
p1356
sg648
F23.0
sg649
VJUL 24, 1994
p1357
sg651
V6-9
p1358
sg653
VIsaiah Hicks
p1359
sg655
I1610612752
sg656
g587
sg658
g526
sg659
V00
p1360
sg661
g111
sg662
I1628439
ssI1628443
(dp1361
g541
VArizona
p1362
sg543
V200
p1363
sg545
V2017
p1364
sg547
F24.0
sg548
VJAN 15, 1993
p1365
sg550
V6-3
p1366
sg552
VKadeem Allen
p1367
sg554
I1610612738
sg555
V45
p1368
sg557
g526
sg558
V00
p1369
sg560
g69
sg561
I1628443
ssI1628444
(dp1370
g541
VCalifornia
p1371
sg543
V198
p1372
sg545
V2017
p1373
sg547
F23.0
sg548
VJUL 03, 1994
p1374
sg550
V6-6
p1375
sg552
VJabari Bird
p1376
sg554
I1610612738
sg555
V26
p1377
sg557
g526
sg558
V00
p1378
sg560
g69
sg561
I1628444
ssI1628449
(dp1379
g460
VOregon
p1380
sg462
V200
p1381
sg464
V2017
p1382
sg466
F24.0
sg467
VJAN 11, 1993
p1383
sg469
V6-10
p1384
sg471
VChris Boucher
p1385
sg473
I1610612744
sg474
V25
p1386
sg475
g526
sg476
V00
p1387
sg478
g111
sg479
I1628449
ssI1628451
(dp1388
g210
VEastern Washington
p1389
sg212
V223
p1390
sg214
V2017
p1391
sg216
F23.0
sg217
VSEP 04, 1994
p1392
sg219
V6-8
p1393
sg221
VJacob Wiley
p1394
sg223
I1610612751
sg224
V21
p1395
sg225
g526
sg226
V00
p1396
sg228
g111
sg229
I1628451
ssI1628454
(dp1397
g304
VPittsburgh
p1398
sg306
V235
p1399
sg308
V2017
p1400
sg310
F23.0
sg311
VSEP 05, 1994
p1401
sg313
V6-9
p1402
sg315
VMike Young
p1403
sg317
I1610612764
sg318
g587
sg320
g526
sg321
V00
p1404
sg323
g111
sg324
I1628454
ssI1628455
(dp1405
g348
VLamar
p1406
sg350
V195
p1407
sg352
V2017
p1408
sg354
F27.0
sg355
VAUG 18, 1990
p1409
sg357
V6-1
p1410
sg359
VMike James
p1411
sg361
I1610612756
sg362
V55
p1412
sg363
g526
sg364
V00
p1413
sg366
g69
sg367
I1628455
ssI1628462
(dp1414
g113
Nsg115
V196
p1415
sg117
V2017
p1416
sg119
F30.0
sg120
VMAR 19, 1987
p1417
sg122
V6-5
p1418
sg124
VMilos Teodosic
p1419
sg126
I1610612746
sg127
g587
sg128
g526
sg129
V00
p1420
sg131
g69
sg133
I1628462
ssI1628463
(dp1421
g979
VGeorge Washington
p1422
sg981
V238
p1423
sg983
V2017
p1424
sg985
F23.0
sg986
VFEB 09, 1994
p1425
sg988
V6-9
p1426
sg990
VTyler Cavanaugh
p1427
sg992
I1610612737
sg993
V34
p1428
sg995
g526
sg996
V00
p1429
sg998
g111
sg1000
I1628463
ssI1628464
(dp1430
g541
Nsg543
V243
p1431
sg545
V2017
p1432
sg547
F25.0
sg548
VAPR 04, 1992
p1433
sg550
V6-9
p1434
sg552
VDaniel Theis
p1435
sg554
I1610612738
sg555
V27
p1436
sg557
g526
sg558
V00
p1437
sg560
VF-C
p1438
sg561
I1628464
ssI1628467
(dp1439
g770
Nsg772
V220
p1440
sg774
V2017
p1441
sg776
F25.0
sg777
VJAN 29, 1992
p1442
sg779
V6-11
p1443
sg781
VMaxi Kleber
p1444
sg783
I1610612742
sg784
V42
p1445
sg785
g526
sg787
V00
p1446
sg789
g111
sg790
I1628467
ssI1628469
(dp1447
g392
VLouisiana State
p1448
sg394
V197
p1449
sg396
V2017
p1450
sg398
F21.0
sg399
VOCT 04, 1996
p1451
sg401
V6-4
p1452
sg403
VAntonio Blakeney
p1453
sg405
I1610612741
sg406
g881
sg408
g526
sg409
V00
p1454
sg411
g69
sg412
I1628469
ssI1628470
(dp1455
g50
VSouth Carolina Upstate
p1456
sg51
V215
p1457
sg53
V2017
p1458
sg55
F26.0
sg56
VDEC 19, 1990
p1459
sg58
V6-6
p1460
sg60
VTorrey Craig
p1461
sg62
I1610612743
sg63
g109
sg65
g526
sg66
V00
p1462
sg68
VG-F
p1463
sg70
I1628470
ssI1628473
(dp1464
g210
Nsg212
V220
p1465
sg214
V2017
p1466
sg216
F25.0
sg217
VJAN 24, 1992
p1467
sg219
V6-4
p1468
sg221
VYakuba Ouattara
p1469
sg223
I1610612751
sg224
V00
p1470
sg225
g526
sg226
V00
p1471
sg228
g69
sg229
I1628473
ssI1628475
(dp1472
g250
VCentral Florida
p1473
sg252
V210
p1474
sg254
V2017
p1475
sg256
F24.0
sg257
VOCT 14, 1993
p1476
sg259
V6-5
p1477
sg261
VMatt Williams Jr.
p1478
sg263
I1610612748
sg264
V12
p1479
sg266
g526
sg267
V00
p1480
sg269
g69
sg270
I1628475
ssI1628476
(dp1481
g250
VMichigan
p1482
sg252
V185
p1483
sg254
V2017
p1484
sg256
F22.0
sg257
VAPR 03, 1995
p1485
sg259
V6-1
p1486
sg261
VDerrick Walton Jr.
p1487
sg263
I1610612748
sg264
V14
p1488
sg266
g526
sg267
V00
p1489
sg269
g69
sg270
I1628476
ssI203076
(dp1490
g1159
VKentucky
p1491
sg1161
V253
p1492
sg1163
V2017
p1493
sg1165
F24.0
sg1166
VMAR 11, 1993
p1494
sg1168
V6-10
p1495
sg1170
VAnthony Davis
p1496
sg1172
I1610612740
sg1173
V23
p1497
sg1175
g19
sg1176
V00
p1498
sg1178
VF-C
p1499
sg1179
I203076
ssI203078
(dp1500
g304
VFlorida
p1501
sg306
V207
p1502
sg308
V2017
p1503
sg310
F24.0
sg311
VJUN 28, 1993
p1504
sg313
V6-5
p1505
sg315
VBradley Beal
p1506
sg317
I1610612764
sg318
g109
sg320
g19
sg321
V00
p1507
sg323
g69
sg324
I203078
ssI203079
(dp1508
g250
VSyracuse
p1509
sg252
V215
p1510
sg254
V2017
p1511
sg256
F25.0
sg257
VDEC 10, 1991
p1512
sg259
V6-4
p1513
sg261
VDion Waiters
p1514
sg263
I1610612748
sg264
V11
p1515
sg266
g19
sg267
V00
p1516
sg269
g69
sg270
I203079
ssI203081
(dp1517
g620
VWeber State
p1518
sg622
V195
p1519
sg624
V2017
p1520
sg626
F27.0
sg627
VJUL 15, 1990
p1521
sg629
V6-3
p1522
sg631
VDamian Lillard
p1523
sg633
I1610612757
sg634
g64
sg635
g19
sg636
V00
p1524
sg638
g69
sg640
I203081
ssI203082
(dp1525
g2
VWashington
p1526
sg4
V206
p1527
sg6
V2017
p1528
sg8
F26.0
sg9
VFEB 05, 1991
p1529
sg11
V6-7
p1530
sg13
VTerrence Ross
p1531
sg15
I1610612753
sg16
V31
p1532
sg18
g19
sg20
V00
p1533
sg22
VG-F
p1534
sg24
I203082
ssI1628492
(dp1535
g770
VColorado State
p1536
sg772
V185
p1537
sg774
V2017
p1538
sg776
F23.0
sg777
VNOV 26, 1993
p1539
sg779
V6-4
p1540
sg781
VGian Clavell
p1541
sg783
I1610612742
sg784
g41
sg785
g526
sg787
V00
p1542
sg789
g69
sg790
I1628492
ssI203085
(dp1543
g113
VDuke
p1544
sg115
V200
p1545
sg117
V2017
p1546
sg119
F25.0
sg120
VAUG 01, 1992
p1547
sg122
V6-4
p1548
sg124
VAustin Rivers
p1549
sg126
I1610612746
sg127
V25
p1550
sg128
g19
sg129
V00
p1551
sg131
g69
sg133
I203085
ssI203086
(dp1552
g620
VIllinois
p1553
sg622
V255
p1554
sg624
V2017
p1555
sg626
F25.0
sg627
VFEB 27, 1992
p1556
sg629
V7-1
p1557
sg631
VMeyers Leonard
p1558
sg633
I1610612757
sg634
V11
p1559
sg635
g19
sg636
V00
p1560
sg638
g47
sg640
I203086
ssI203089
(dp1561
g326
VNorth Carolina
p1562
sg328
V229
p1563
sg330
V2017
p1564
sg332
F26.0
sg333
VDEC 28, 1990
p1565
sg335
V6-11
p1566
sg337
VJohn Henson
p1567
sg339
I1610612749
sg340
V31
p1568
sg342
g19
sg343
V00
p1569
sg345
VF-C
p1570
sg346
I203089
ssI203090
(dp1571
g620
VSt. John's (NY)
p1572
sg622
V220
p1573
sg624
V2017
p1574
sg626
F24.0
sg627
VMAY 11, 1993
p1575
sg629
V6-9
p1576
sg631
VMaurice Harkless
p1577
sg633
I1610612757
sg634
g587
sg635
g19
sg636
V00
p1578
sg638
g111
sg640
I203090
ssI203092
(dp1579
g210
VNorth Carolina
p1580
sg212
V250
p1581
sg214
V2017
p1582
sg216
F27.0
sg217
VJAN 17, 1990
p1583
sg219
V7-0
p1584
sg221
VTyler Zeller
p1585
sg223
I1610612751
sg224
V44
p1586
sg225
g19
sg226
V00
p1587
sg228
g47
sg229
I203092
ssI1628503
(dp1588
g2
VPittsburgh
p1589
sg4
V213
p1590
sg6
V2017
p1591
sg8
F24.0
sg9
VJAN 12, 1993
p1592
sg11
V6-7
p1593
sg13
VJamel Artis
p1594
sg15
I1610612753
sg16
g64
sg18
g526
sg20
V00
p1595
sg22
g69
sg24
I1628503
ssI1628506
(dp1596
g748
VVirginia
p1597
sg750
V190
p1598
sg752
V2017
p1599
sg754
F23.0
sg755
VOCT 03, 1994
p1600
sg757
V6-2
p1601
sg759
VLondon Perrantes
p1602
sg761
I1610612739
sg762
V15
p1603
sg764
g526
sg765
V00
p1604
sg767
g69
sg768
I1628506
ssI203101
(dp1605
g979
VDuke
p1606
sg981
V249
p1607
sg983
V2017
p1608
sg985
F29.0
sg986
VSEP 01, 1988
p1609
sg988
V6-11
p1610
sg990
VMiles Plumlee
p1611
sg992
I1610612737
sg993
V18
p1612
sg995
g19
sg996
V00
p1613
sg998
g47
sg1000
I203101
ssI2403
(dp1614
g590
VSao Carlos, Brazil
p1615
sg592
V250
p1616
sg594
V2017
p1617
sg596
F35.0
sg597
VSEP 13, 1982
p1618
sg599
V6-11
p1619
sg601
VNene
p1620
sg603
I1610612745
sg604
V42
p1621
sg605
V15
p1622
sg607
V00
p1623
sg609
VC-F
p1624
sg610
I2403
ssI203109
(dp1625
g748
VMarquette
p1626
sg750
V235
p1627
sg752
V2017
p1628
sg754
F27.0
sg755
VJUL 06, 1990
p1629
sg757
V6-6
p1630
sg759
VJae Crowder
p1631
sg761
I1610612739
sg762
V99
p1632
sg764
g19
sg765
V00
p1633
sg767
g111
sg768
I203109
ssI203110
(dp1634
g460
VMichigan State
p1635
sg462
V230
p1636
sg464
V2017
p1637
sg466
F27.0
sg467
VMAR 04, 1990
p1638
sg469
V6-7
p1639
sg471
VDraymond Green
p1640
sg473
I1610612744
sg474
V23
p1641
sg475
g19
sg476
V00
p1642
sg478
g111
sg479
I203110
ssI203112
(dp1643
g210
VBaylor
p1644
sg212
V240
p1645
sg214
V2017
p1646
sg216
F27.0
sg217
VOCT 06, 1990
p1647
sg219
V6-7
p1648
sg221
VQuincy Acy
p1649
sg223
I1610612751
sg224
V13
p1650
sg225
g19
sg226
V00
p1651
sg228
g111
sg229
I203112
ssI203114
(dp1652
g326
VTexas A&M
p1653
sg328
V234
p1654
sg330
V2017
p1655
sg332
F26.0
sg333
VAUG 12, 1991
p1656
sg335
V6-8
p1657
sg337
VKhris Middleton
p1658
sg339
I1610612749
sg340
V22
p1659
sg342
g19
sg343
V00
p1660
sg345
g111
sg346
I203114
ssI203115
(dp1661
g50
VMemphis
p1662
sg51
V190
p1663
sg53
V2017
p1664
sg55
F26.0
sg56
VJAN 06, 1991
p1665
sg58
V6-6
p1666
sg60
VWill Barton
p1667
sg62
I1610612743
sg63
g19
sg65
g19
sg66
V00
p1668
sg68
VG-F
p1669
sg70
I203115
ssI203118
(dp1670
g304
VVirginia
p1671
sg306
V237
p1672
sg308
V2017
p1673
sg310
F29.0
sg311
VJUL 16, 1988
p1674
sg313
V6-8
p1675
sg315
VMike Scott
p1676
sg317
I1610612764
sg318
V30
p1677
sg320
g19
sg321
V00
p1678
sg323
g111
sg324
I203118
ssI200765
(dp1679
g1159
VKentucky
p1680
sg1161
V186
p1681
sg1163
V2017
p1682
sg1165
F31.0
sg1166
VFEB 22, 1986
p1683
sg1168
V6-1
p1684
sg1170
VRajon Rondo
p1685
sg1172
I1610612740
sg1173
g881
sg1175
V11
p1686
sg1176
V00
p1687
sg1178
g69
sg1179
I200765
ssI203121
(dp1688
g1159
VKentucky
p1689
sg1161
V225
p1690
sg1163
V2017
p1691
sg1165
F27.0
sg1166
VMAR 21, 1990
p1692
sg1168
V6-8
p1693
sg1170
VDarius Miller
p1694
sg1172
I1610612740
sg1173
V21
p1695
sg1175
g109
sg1176
V00
p1696
sg1178
g111
sg1179
I203121
ssI203124
(dp1697
g642
VNorfolk State
p1698
sg644
V250
p1699
sg646
V2017
p1700
sg648
F27.0
sg649
VMAR 26, 1990
p1701
sg651
V6-10
p1702
sg653
VKyle O'Quinn
p1703
sg655
I1610612752
sg656
g881
sg658
g19
sg659
V00
p1704
sg661
VC-F
p1705
sg662
I203124
ssI203141
(dp1706
g326
VBosnia
p1707
sg328
V242
p1708
sg330
V2017
p1709
sg332
F32.0
sg333
VSEP 17, 1985
p1710
sg335
V6-9
p1711
sg337
VMirza Teletovic
p1712
sg339
I1610612749
sg340
V35
p1713
sg342
g19
sg343
V00
p1714
sg345
g111
sg346
I203141
ssI203145
(dp1715
g979
VOld Dominion
p1716
sg981
V201
p1717
sg983
V2017
p1718
sg985
F28.0
sg986
VJUL 01, 1989
p1719
sg988
V6-5
p1720
sg990
VKent Bazemore
p1721
sg992
I1610612737
sg993
V24
p1722
sg995
g19
sg996
V00
p1723
sg998
g69
sg1000
I203145
ssI203506
(dp1724
g414
VIndiana
p1725
sg416
V210
p1726
sg418
V2017
p1727
sg420
F25.0
sg421
VMAY 04, 1992
p1728
sg423
V6-4
p1729
sg425
VVictor Oladipo
p1730
sg427
I1610612754
sg428
g587
sg430
g587
sg431
V00
p1731
sg433
g69
sg434
I203506
ssI203186
(dp1732
g113
VSaint Louis
p1733
sg115
V245
p1734
sg117
V2017
p1735
sg119
F27.0
sg120
VMAY 16, 1990
p1736
sg122
V6-11
p1737
sg124
VWillie Reed
p1738
sg126
I1610612746
sg127
V35
p1739
sg128
g43
sg129
V00
p1740
sg131
g47
sg133
I203186
ssI201142
(dp1741
g460
VTexas
p1742
sg462
V240
p1743
sg464
V2017
p1744
sg466
F29.0
sg467
VSEP 29, 1988
p1745
sg469
V6-9
p1746
sg471
VKevin Durant
p1747
sg473
I1610612744
sg474
V35
p1748
sg475
V10
p1749
sg476
V00
p1750
sg478
g111
sg479
I201142
ssI201143
(dp1751
g541
VFlorida
p1752
sg543
V245
p1753
sg545
V2017
p1754
sg547
F31.0
sg548
VJUN 03, 1986
p1755
sg550
V6-10
p1756
sg552
VAl Horford
p1757
sg554
I1610612738
sg555
V42
p1758
sg557
V10
p1759
sg558
V00
p1760
sg560
VF-C
p1761
sg561
I201143
ssI201144
(dp1762
g135
VOhio State
p1763
sg137
V175
p1764
sg139
V2017
p1765
sg141
F30.0
sg142
VOCT 11, 1987
p1766
sg144
V6-1
p1767
sg146
VMike Conley
p1768
sg148
I1610612763
sg149
V11
p1769
sg150
V10
p1770
sg151
V00
p1771
sg153
g69
sg154
I201144
ssI201145
(dp1772
g748
VGeorgetown
p1773
sg750
V235
p1774
sg752
V2017
p1775
sg754
F31.0
sg755
VAUG 28, 1986
p1776
sg757
V6-9
p1777
sg759
VJeff Green
p1778
sg761
I1610612739
sg762
V32
p1779
sg764
g881
sg765
V00
p1780
sg767
g111
sg768
I201145
ssI201147
(dp1781
g690
VFlorida
p1782
sg692
V186
p1783
sg694
V2017
p1784
sg696
F31.0
sg697
VMAR 05, 1986
p1785
sg699
V6-9
p1786
sg701
VCorey Brewer
p1787
sg703
I1610612747
sg704
g109
sg705
V10
p1788
sg706
V00
p1789
sg708
g111
sg709
I201147
ssI201148
(dp1790
g135
VNorth Carolina
p1791
sg137
V235
p1792
sg139
V2017
p1793
sg141
F30.0
sg142
VOCT 05, 1987
p1794
sg144
V6-10
p1795
sg146
VBrandan Wright
p1796
sg148
I1610612763
sg149
V34
p1797
sg150
g881
sg151
V00
p1798
sg153
VF-C
p1799
sg154
I201148
ssI201149
(dp1800
g642
VFlorida
p1801
sg644
V230
p1802
sg646
V2017
p1803
sg648
F32.0
sg649
VFEB 25, 1985
p1804
sg651
V6-11
p1805
sg653
VJoakim Noah
p1806
sg655
I1610612752
sg656
V13
p1807
sg658
V10
p1808
sg659
V00
p1809
sg661
g47
sg662
I201149
ssI203200
(dp1810
g392
VWashington
p1811
sg394
V185
p1812
sg396
V2017
p1813
sg398
F28.0
sg399
VAPR 05, 1989
p1814
sg401
V6-6
p1815
sg403
VJustin Holiday
p1816
sg405
I1610612741
sg406
g207
sg408
g587
sg409
V00
p1817
sg411
g69
sg412
I203200
ssI201156
(dp1818
g460
VSouthern California
p1819
sg462
V210
p1820
sg464
V2017
p1821
sg466
F32.0
sg467
VJUN 01, 1985
p1822
sg469
V6-7
p1823
sg471
VNick Young
p1824
sg473
I1610612744
sg474
g606
sg475
V10
p1825
sg476
V00
p1826
sg478
VG-F
p1827
sg479
I201156
ssI201158
(dp1828
g979
VBologna, Italy
p1829
sg981
V210
p1830
sg983
V2017
p1831
sg985
F31.0
sg986
VMAR 25, 1986
p1832
sg988
V6-5
p1833
sg990
VMarco Belinelli
p1834
sg992
I1610612737
sg993
g109
sg995
V10
p1835
sg996
V00
p1836
sg998
VG-F
p1837
sg1000
I201158
ssI201160
(dp1838
g304
VColorado State
p1839
sg306
V240
p1840
sg308
V2017
p1841
sg310
F31.0
sg311
VMAR 02, 1986
p1842
sg313
V7-0
p1843
sg315
VJason Smith
p1844
sg317
I1610612764
sg318
V14
p1845
sg320
g881
sg321
V00
p1846
sg323
VF-C
p1847
sg324
I201160
ssI203210
(dp1848
g135
VAlabama
p1849
sg137
V227
p1850
sg139
V2017
p1851
sg141
F27.0
sg142
VJUN 21, 1990
p1852
sg144
V6-9
p1853
sg146
VJaMychal Green
p1854
sg148
I1610612763
sg149
g64
sg150
g109
sg151
V00
p1855
sg153
g111
sg154
I203210
ssI201163
(dp1856
g50
VDePaul
p1857
sg51
V225
p1858
sg53
V2017
p1859
sg55
F30.0
sg56
VMAY 10, 1987
p1860
sg58
V6-9
p1861
sg60
VWilson Chandler
p1862
sg62
I1610612743
sg63
V21
p1863
sg65
g881
sg66
V00
p1864
sg68
g111
sg70
I201163
ssI201166
(dp1865
g72
VOregon
p1866
sg74
V161
p1867
sg76
V2017
p1868
sg78
F32.0
sg79
VJAN 14, 1985
p1869
sg81
V6-0
p1870
sg83
VAaron Brooks
p1871
sg85
I1610612750
sg86
V30
p1872
sg88
g881
sg89
V00
p1873
sg91
g69
sg92
I201166
ssI201167
(dp1874
g2
VUCLA
p1875
sg4
V210
p1876
sg6
V2017
p1877
sg8
F32.0
sg9
VOCT 15, 1985
p1878
sg11
V6-5
p1879
sg13
VArron Afflalo
p1880
sg15
I1610612753
sg16
g587
sg18
V10
p1881
sg20
V00
p1882
sg22
g69
sg24
I201167
ssI101112
(dp1883
g748
VArizona
p1884
sg750
V255
p1885
sg752
V2017
p1886
sg754
F34.0
sg755
VMAY 17, 1983
p1887
sg757
V6-11
p1888
sg759
VChanning Frye
p1889
sg761
I1610612739
sg762
g41
sg764
V11
p1890
sg765
V00
p1891
sg767
g111
sg768
I101112
ssI201177
(dp1892
g770
VDuke
p1893
sg772
V240
p1894
sg774
V2017
p1895
sg776
F30.0
sg777
VFEB 28, 1987
p1896
sg779
V6-10
p1897
sg781
VJosh McRoberts
p1898
sg783
I1610612742
sg784
V13
p1899
sg785
V10
p1900
sg787
V00
p1901
sg789
VF-C
p1902
sg790
I201177
ssI201188
(dp1903
g135
VBarcelona, Spain
p1904
sg137
V255
p1905
sg139
V2017
p1906
sg141
F32.0
sg142
VJAN 29, 1985
p1907
sg144
V7-1
p1908
sg146
VMarc Gasol
p1909
sg148
I1610612763
sg149
V33
p1910
sg150
g881
sg151
V00
p1911
sg153
g47
sg154
I201188
ssI201196
(dp1912
g642
VNevada
p1913
sg644
V190
p1914
sg646
V2017
p1915
sg648
F31.0
sg649
VAPR 11, 1986
p1916
sg651
V6-3
p1917
sg653
VRamon Sessions
p1918
sg655
I1610612752
sg656
g87
sg658
V10
p1919
sg659
V00
p1920
sg661
g69
sg662
I201196
ssI2544
(dp1921
g748
VSt. Vincent-St. Mary HS (OH)
p1922
sg750
V250
p1923
sg752
V2017
p1924
sg754
F32.0
sg755
VDEC 30, 1984
p1925
sg757
V6-8
p1926
sg759
VLeBron James
p1927
sg761
I1610612739
sg762
V23
p1928
sg764
V14
p1929
sg765
V00
p1930
sg767
VF-G
p1931
sg768
I2544
ssI2546
(dp1932
g509
VSyracuse
p1933
sg511
V240
p1934
sg513
V2017
p1935
sg515
F33.0
sg516
VMAY 29, 1984
p1936
sg518
V6-8
p1937
sg520
VCarmelo Anthony
p1938
sg522
I1610612760
sg523
g207
sg525
V14
p1939
sg527
V00
p1940
sg529
g111
sg530
I2546
ssI2548
(dp1941
g748
VMarquette
p1942
sg750
V220
p1943
sg752
V2017
p1944
sg754
F35.0
sg755
VJAN 17, 1982
p1945
sg757
V6-4
p1946
sg759
VDwyane Wade
p1947
sg761
I1610612739
sg762
g881
sg764
V14
p1948
sg765
V00
p1949
sg767
g69
sg768
I2548
ssI2555
(dp1950
g509
VKansas
p1951
sg511
V255
p1952
sg513
V2017
p1953
sg515
F37.0
sg516
VOCT 26, 1980
p1954
sg518
V6-10
p1955
sg520
VNick Collison
p1956
sg522
I1610612760
sg523
g587
sg525
V13
p1957
sg527
V00
p1958
sg529
g111
sg530
I2555
ssI2561
(dp1959
g460
VXavier
p1960
sg462
V250
p1961
sg464
V2017
p1962
sg466
F37.0
sg467
VAUG 29, 1980
p1963
sg469
V6-9
p1964
sg471
VDavid West
p1965
sg473
I1610612744
sg474
g109
sg475
V14
p1966
sg476
V00
p1967
sg478
g111
sg479
I2561
ssI1626643
(dp1968
g26
VKansas State
p1969
sg28
V200
p1970
sg30
V2017
p1971
sg32
F28.0
sg33
VNOV 10, 1989
p1972
sg35
V6-1
p1973
sg37
VJacob Pullen
p1974
sg39
I1610612755
sg40
V00
p1975
sg42
g526
sg44
V00
p1976
sg46
g69
sg48
I1626643
ssI2585
(dp1977
g460
VTbilisi, Georgia
p1978
sg462
V270
p1979
sg464
V2017
p1980
sg466
F33.0
sg467
VFEB 10, 1984
p1981
sg469
V6-11
p1982
sg471
VZaza Pachulia
p1983
sg473
I1610612744
sg474
V27
p1984
sg475
V14
p1985
sg476
V00
p1986
sg478
g47
sg479
I2585
ssI1626202
(dp1987
g414
VOregon
p1988
sg416
V185
p1989
sg418
V2017
p1990
sg420
F25.0
sg421
VJUN 27, 1992
p1991
sg423
V6-2
p1992
sg425
VJoe Young
p1993
sg427
I1610612754
sg428
g109
sg430
g43
sg431
V00
p1994
sg433
g69
sg434
I1626202
ssI2594
(dp1995
g748
VCreighton
p1996
sg750
V212
p1997
sg752
V2017
p1998
sg754
F36.0
sg755
VMAR 17, 1981
p1999
sg757
V6-7
p2000
sg759
VKyle Korver
p2001
sg761
I1610612739
sg762
V26
p2002
sg764
V14
p2003
sg765
V00
p2004
sg767
g69
sg768
I2594
ssI2617
(dp2005
g250
VFlorida
p2006
sg252
V235
p2007
sg254
V2017
p2008
sg256
F37.0
sg257
VJUN 09, 1980
p2009
sg259
V6-8
p2010
sg261
VUdonis Haslem
p2011
sg263
I1610612748
sg264
V40
p2012
sg266
V14
p2013
sg267
V00
p2014
sg269
g111
sg270
I2617
ssI203107
(dp2015
g304
Nsg306
V210
p2016
sg308
V2017
p2017
sg310
F26.0
sg311
VOCT 30, 1991
p2018
sg313
V6-7
p2019
sg315
VTomas Satoransky
p2020
sg317
I1610612764
sg318
V31
p2021
sg320
g87
sg321
V00
p2022
sg323
VF-G
p2023
sg324
I203107
ssI203382
(dp2024
g541
VWashington State
p2025
sg543
V260
p2026
sg545
V2017
p2027
sg547
F30.0
sg548
VDEC 09, 1986
p2028
sg550
V6-10
p2029
sg552
VAron Baynes
p2030
sg554
I1610612738
sg555
V46
p2031
sg557
g19
sg558
V00
p2032
sg560
g47
sg561
I203382
ssI201152
(dp2033
g414
VGeorgia Tech
p2034
sg416
V230
p2035
sg418
V2017
p2036
sg420
F29.0
sg421
VJUN 21, 1988
p2037
sg423
V6-8
p2038
sg425
VThaddeus Young
p2039
sg427
I1610612754
sg428
V21
p2040
sg430
V10
p2041
sg431
V00
p2042
sg433
g111
sg434
I201152
ssI2733
(dp2043
g460
VPeoria Central HS (IL)
p2044
sg462
V192
p2045
sg464
V2017
p2046
sg466
F32.0
sg467
VSEP 11, 1985
p2047
sg469
V6-7
p2048
sg471
VShaun Livingston
p2049
sg473
I1610612744
sg474
V34
p2050
sg475
V12
p2051
sg476
V00
p2052
sg478
g69
sg479
I2733
ssI2734
(dp2053
g770
VWisconsin
p2054
sg772
V185
p2055
sg774
V2017
p2056
sg776
F34.0
sg777
VFEB 27, 1983
p2057
sg779
V6-3
p2058
sg781
VDevin Harris
p2059
sg783
I1610612742
sg784
V34
p2060
sg785
V13
p2061
sg787
V00
p2062
sg789
g69
sg790
I2734
ssI2736
(dp2063
g690
VDuke
p2064
sg692
V220
p2065
sg694
V2017
p2066
sg696
F32.0
sg697
VAPR 16, 1985
p2067
sg699
V6-9
p2068
sg701
VLuol Deng
p2069
sg703
I1610612747
sg704
g881
sg705
V13
p2070
sg706
V00
p2071
sg708
g111
sg709
I2736
ssI2738
(dp2072
g460
VArizona
p2073
sg462
V215
p2074
sg464
V2017
p2075
sg466
F33.0
sg467
VJAN 28, 1984
p2076
sg469
V6-6
p2077
sg471
VAndre Iguodala
p2078
sg473
I1610612744
sg474
g881
sg475
V13
p2079
sg476
V00
p2080
sg478
VG-F
p2081
sg479
I2738
ssI2744
(dp2082
g414
VPrentiss HS (MS)
p2083
sg416
V280
p2084
sg418
V2017
p2085
sg420
F32.0
sg421
VJAN 04, 1985
p2086
sg423
V6-10
p2087
sg425
VAl Jefferson
p2088
sg427
I1610612754
sg428
V25
p2089
sg430
V13
p2090
sg431
V00
p2091
sg433
g47
sg434
I2744
ssI2747
(dp2092
g748
VSt. Benedict's Prep (NJ)
p2093
sg750
V225
p2094
sg752
V2017
p2095
sg754
F32.0
sg755
VSEP 09, 1985
p2096
sg757
V6-6
p2097
sg759
VJR Smith
p2098
sg761
I1610612739
sg762
g19
sg764
V13
p2099
sg765
V00
p2100
sg767
VG-F
p2101
sg768
I2747
ssI2749
(dp2102
g1159
VSaint Joseph's
p2103
sg1161
V190
p2104
sg1163
V2017
p2105
sg1165
F35.0
sg1166
VFEB 09, 1982
p2106
sg1168
V6-0
p2107
sg1170
VJameer Nelson
p2108
sg1172
I1610612740
sg1173
V14
p2109
sg1175
V13
p2110
sg1176
V00
p2111
sg1178
g69
sg1179
I2749
ssI203457
(dp2112
g770
VKentucky
p2113
sg772
V220
p2114
sg774
V2017
p2115
sg776
F23.0
sg777
VAPR 10, 1994
p2116
sg779
V6-11
p2117
sg781
VNerlens Noel
p2118
sg783
I1610612742
sg784
g109
sg785
g109
sg787
V00
p2119
sg789
g47
sg790
I203457
ssI2754
(dp2120
g1159
VOklahoma State
p2121
sg1161
V213
p2122
sg1163
V2017
p2123
sg1165
F35.0
sg1166
VJAN 11, 1982
p2124
sg1168
V6-4
p2125
sg1170
VTony Allen
p2126
sg1172
I1610612740
sg1173
V24
p2127
sg1175
V13
p2128
sg1176
V00
p2129
sg1178
VG-F
p2130
sg1179
I2754
ssI203459
(dp2131
g210
VCalifornia
p2132
sg212
V215
p2133
sg214
V2017
p2134
sg216
F25.0
sg217
VAPR 09, 1992
p2135
sg219
V6-6
p2136
sg221
VAllen Crabbe
p2137
sg223
I1610612751
sg224
V33
p2138
sg225
g587
sg226
V00
p2139
sg228
VG-F
p2140
sg229
I203459
ssI203460
(dp2141
g509
VColorado
p2142
sg511
V210
p2143
sg513
V2017
p2144
sg515
F25.0
sg516
VDEC 04, 1991
p2145
sg518
V6-7
p2146
sg520
VAndre Roberson
p2147
sg522
I1610612760
sg523
V21
p2148
sg525
g587
sg527
V00
p2149
sg529
g69
sg530
I203460
ssI203463
(dp2150
g135
VKansas
p2151
sg137
V195
p2152
sg139
V2017
p2153
sg141
F24.0
sg142
VFEB 11, 1993
p2154
sg144
V6-5
p2155
sg146
VBen McLemore
p2156
sg148
I1610612763
sg149
V23
p2157
sg150
g587
sg151
V00
p2158
sg153
g69
sg154
I203463
ssI203464
(dp2159
g178
Nsg180
V200
p2160
sg182
V2017
p2161
sg184
F26.0
sg185
VAPR 30, 1991
p2162
sg187
V6-4
p2163
sg189
VBrandon Paul
p2164
sg191
I1610612759
sg192
g109
sg194
g526
sg196
V00
p2165
sg198
g69
sg199
I203464
ssI203468
(dp2166
g620
VLehigh
p2167
sg622
V190
p2168
sg624
V2017
p2169
sg626
F26.0
sg627
VSEP 19, 1991
p2170
sg629
V6-3
p2171
sg631
VCJ McCollum
p2172
sg633
I1610612757
sg634
g109
sg635
g587
sg636
V00
p2173
sg638
g69
sg640
I203468
ssI203471
(dp2174
g979
VGermany
p2175
sg981
V172
p2176
sg983
V2017
p2177
sg985
F24.0
sg986
VSEP 15, 1993
p2178
sg988
V6-1
p2179
sg990
VDennis Schroder
p2180
sg992
I1610612737
sg993
V17
p2181
sg995
g587
sg996
V00
p2182
sg998
g69
sg1000
I203471
ssI203473
(dp2183
g979
VSouthern California
p2184
sg981
V245
p2185
sg983
V2017
p2186
sg985
F28.0
sg986
VAUG 12, 1989
p2187
sg988
V7-0
p2188
sg990
VDewayne Dedmon
p2189
sg992
I1610612737
sg993
V14
p2190
sg995
g587
sg996
V00
p2191
sg998
g47
sg1000
I203473
ssI2772
(dp2192
g590
VUCLA
p2193
sg592
V215
p2194
sg594
V2017
p2195
sg596
F32.0
sg597
VJUN 30, 1985
p2196
sg599
V6-8
p2197
sg601
VTrevor Ariza
p2198
sg603
I1610612745
sg604
g87
sg605
V13
p2199
sg607
V00
p2200
sg609
VF-G
p2201
sg610
I2772
ssI203481
(dp2202
g770
VKansas
p2203
sg772
V230
p2204
sg774
V2017
p2205
sg776
F27.0
sg777
VMAR 07, 1990
p2206
sg779
V7-0
p2207
sg781
VJeff Withey
p2208
sg783
I1610612742
sg784
V17
p2209
sg785
g587
sg787
V00
p2210
sg789
g47
sg790
I203481
ssI203482
(dp2211
g250
VGonzaga
p2212
sg252
V245
p2213
sg254
V2017
p2214
sg256
F26.0
sg257
VAPR 19, 1991
p2215
sg259
V7-0
p2216
sg261
VKelly Olynyk
p2217
sg263
I1610612748
sg264
g881
sg266
g587
sg267
V00
p2218
sg269
VC-F
p2219
sg270
I203482
ssI203484
(dp2220
g690
VGeorgia
p2221
sg692
V205
p2222
sg694
V2017
p2223
sg696
F24.0
sg697
VFEB 18, 1993
p2224
sg699
V6-5
p2225
sg701
VKentavious Caldwell-Pope
p2226
sg703
I1610612747
sg704
g87
sg705
g587
sg706
V00
p2227
sg708
g69
sg709
I203484
ssI203485
(dp2228
g156
VNorth Carolina State
p2229
sg158
V189
p2230
sg160
V2017
p2231
sg162
F27.0
sg163
VAUG 26, 1990
p2232
sg165
V6-5
p2233
sg167
VLorenzo Brown
p2234
sg169
I1610612761
sg170
g587
sg172
g109
sg173
V00
p2235
sg175
g69
sg176
I203485
ssI203486
(dp2236
g50
VDuke
p2237
sg51
V255
p2238
sg53
V2017
p2239
sg55
F27.0
sg56
VMAR 05, 1990
p2240
sg58
V6-11
p2241
sg60
VMason Plumlee
p2242
sg62
I1610612743
sg63
V24
p2243
sg65
g587
sg66
V00
p2244
sg68
VC-F
p2245
sg70
I203486
ssI203488
(dp2246
g979
VBucknell
p2247
sg981
V240
p2248
sg983
V2017
p2249
sg985
F26.0
sg986
VJUL 01, 1991
p2250
sg988
V6-11
p2251
sg990
VMike Muscala
p2252
sg992
I1610612737
sg993
V31
p2253
sg995
g587
sg996
V00
p2254
sg998
VF-C
p2255
sg1000
I203488
ssI203489
(dp2256
g369
VSouth Dakota State
p2257
sg371
V190
p2258
sg373
V2017
p2259
sg375
F26.0
sg376
VMAY 15, 1991
p2260
sg378
V6-4
p2261
sg380
VNate Wolters
p2262
sg382
I1610612762
sg383
V16
p2263
sg385
g43
sg387
V00
p2264
sg389
g69
sg390
I203489
ssI203490
(dp2265
g304
VGeorgetown
p2266
sg306
V198
p2267
sg308
V2017
p2268
sg310
F24.0
sg311
VJUN 03, 1993
p2269
sg313
V6-8
p2270
sg315
VOtto Porter Jr.
p2271
sg317
I1610612764
sg318
V22
p2272
sg320
g587
sg321
V00
p2273
sg323
g111
sg324
I203490
ssI203496
(dp2274
g26
VTennessee State
p2275
sg28
V225
p2276
sg30
V2017
p2277
sg32
F26.0
sg33
VDEC 14, 1990
p2278
sg35
V6-9
p2279
sg37
VRobert Covington
p2280
sg39
I1610612755
sg40
V33
p2281
sg42
g587
sg44
V00
p2282
sg46
g111
sg48
I203496
ssI203497
(dp2283
g369
VFrance
p2284
sg371
V245
p2285
sg373
V2017
p2286
sg375
F25.0
sg376
VJUN 26, 1992
p2287
sg378
V7-1
p2288
sg380
VRudy Gobert
p2289
sg382
I1610612762
sg383
V27
p2290
sg385
g587
sg387
V00
p2291
sg389
g47
sg390
I203497
ssI203498
(dp2292
g72
VUCLA
p2293
sg74
V221
p2294
sg76
V2017
p2295
sg78
F24.0
sg79
VNOV 13, 1992
p2296
sg81
V6-6
p2297
sg83
VShabazz Muhammad
p2298
sg85
I1610612750
sg86
V15
p2299
sg88
g587
sg89
V00
p2300
sg91
VG-F
p2301
sg92
I203498
ssI203499
(dp2302
g541
VMiami (FL)
p2303
sg543
V175
p2304
sg545
V2017
p2305
sg547
F25.0
sg548
VOCT 02, 1992
p2306
sg550
V5-11
p2307
sg552
VShane Larkin
p2308
sg554
I1610612738
sg555
g41
sg557
g109
sg558
V00
p2309
sg560
g69
sg561
I203499
ssI203500
(dp2310
g509
VPittsburgh
p2311
sg511
V255
p2312
sg513
V2017
p2313
sg515
F24.0
sg516
VJUL 20, 1993
p2314
sg518
V7-0
p2315
sg520
VSteven Adams
p2316
sg522
I1610612760
sg523
V12
p2317
sg525
g587
sg527
V00
p2318
sg529
g47
sg530
I203500
ssI203501
(dp2319
g642
VMichigan
p2320
sg644
V205
p2321
sg646
V2017
p2322
sg648
F25.0
sg649
VMAR 16, 1992
p2323
sg651
V6-6
p2324
sg653
VTim Hardaway Jr.
p2325
sg655
I1610612752
sg656
g109
sg658
g587
sg659
V00
p2326
sg661
VF-G
p2327
sg662
I203501
ssI203503
(dp2328
g326
VNew Mexico
p2329
sg328
V221
p2330
sg330
V2017
p2331
sg332
F26.0
sg333
VNOV 10, 1991
p2332
sg335
V6-7
p2333
sg337
VTony Snell
p2334
sg339
I1610612749
sg340
V21
p2335
sg342
g587
sg343
V00
p2336
sg345
g69
sg346
I203503
ssI203505
(dp2337
g690
VMarquette
p2338
sg692
V200
p2339
sg694
V2017
p2340
sg696
F25.0
sg697
VJUL 17, 1992
p2341
sg699
V6-5
p2342
sg701
VVander Blue
p2343
sg703
I1610612747
sg704
V17
p2344
sg705
g43
sg706
V00
p2345
sg708
g69
sg709
I203505
ssI101106
(dp2346
g690
VUtah
p2347
sg692
V260
p2348
sg694
V2017
p2349
sg696
F32.0
sg697
VNOV 28, 1984
p2350
sg699
V7-0
p2351
sg701
VAndrew Bogut
p2352
sg703
I1610612747
sg704
V66
p2353
sg705
V12
p2354
sg706
V00
p2355
sg708
g47
sg709
I101106
ssI203507
(dp2356
g326
VGreece
p2357
sg328
V222
p2358
sg330
V2017
p2359
sg332
F22.0
sg333
VDEC 06, 1994
p2360
sg335
V6-11
p2361
sg337
VGiannis Antetokounmpo
p2362
sg339
I1610612749
sg340
V34
p2363
sg342
g587
sg343
V00
p2364
sg345
g111
sg346
I203507
ssI101108
(dp2365
g590
VWake Forest
p2366
sg592
V175
p2367
sg594
V2017
p2368
sg596
F32.0
sg597
VMAY 06, 1985
p2369
sg599
V6-0
p2370
sg601
VChris Paul
p2371
sg603
I1610612745
sg604
g109
sg605
V12
p2372
sg607
V00
p2373
sg609
g69
sg610
I101108
ssI101109
(dp2374
g509
VNorth Carolina
p2375
sg511
V205
p2376
sg513
V2017
p2377
sg515
F33.0
sg516
VJUN 26, 1984
p2378
sg518
V6-1
p2379
sg520
VRaymond Felton
p2380
sg522
I1610612760
sg523
g43
sg525
V12
p2381
sg527
V00
p2382
sg529
g69
sg530
I101109
ssI203512
(dp2383
g156
Nsg158
V220
p2384
sg160
V2017
p2385
sg162
F25.0
sg163
VJUL 26, 1992
p2386
sg165
V7-0
p2387
sg167
VLucas Nogueira
p2388
sg169
I1610612761
sg170
V92
p2389
sg172
g109
sg173
V00
p2390
sg175
g47
sg176
I203512
ssI203516
(dp2391
g135
VLong Beach State
p2392
sg137
V210
p2393
sg139
V2017
p2394
sg141
F27.0
sg142
VJUL 01, 1990
p2395
sg144
V6-7
p2396
sg146
VJames Ennis III
p2397
sg148
I1610612763
sg149
g41
sg150
g109
sg151
V00
p2398
sg153
g111
sg154
I203516
ssI203518
(dp2399
g509
Nsg511
V190
p2400
sg513
V2017
p2401
sg515
F24.0
sg516
VAUG 01, 1993
p2402
sg518
V6-6
p2403
sg520
VAlex Abrines
p2404
sg522
I1610612760
sg523
g41
sg525
g87
sg527
V00
p2405
sg529
g69
sg530
I203518
ssI203521
(dp2406
g326
VSaint Mary's (CA)
p2407
sg328
V198
p2408
sg330
V2017
p2409
sg332
F27.0
sg333
VSEP 08, 1990
p2410
sg335
V6-4
p2411
sg337
VMatthew Dellavedova
p2412
sg339
I1610612749
sg340
g41
sg342
g587
sg343
V00
p2413
sg345
g69
sg346
I203521
ssI203524
(dp2414
g1159
VArizona
p2415
sg1161
V225
p2416
sg1163
V2017
p2417
sg1165
F26.0
sg1166
VMAR 18, 1991
p2418
sg1168
V6-7
p2419
sg1170
VSolomon Hill
p2420
sg1172
I1610612740
sg1173
V44
p2421
sg1175
g587
sg1176
V00
p2422
sg1178
g111
sg1179
I203524
ssI203526
(dp2423
g369
Nsg371
V179
p2424
sg373
V2017
p2425
sg375
F25.0
sg376
VMAY 19, 1992
p2426
sg378
V6-1
p2427
sg380
VRaul Neto
p2428
sg382
I1610612762
sg383
V25
p2429
sg385
g43
sg387
V00
p2430
sg389
g69
sg390
I203526
ssI101127
(dp2431
g642
VGeorgia Tech
p2432
sg644
V200
p2433
sg646
V2017
p2434
sg648
F34.0
sg649
VOCT 28, 1983
p2435
sg651
V6-3
p2436
sg653
VJarrett Jack
p2437
sg655
I1610612752
sg656
V55
p2438
sg658
V12
p2439
sg659
V00
p2440
sg661
g69
sg662
I101127
ssI203530
(dp2441
g178
Nsg180
V260
p2442
sg182
V2017
p2443
sg184
F26.0
sg185
VSEP 30, 1991
p2444
sg187
V6-11
p2445
sg189
VJoffrey Lauvergne
p2446
sg191
I1610612759
sg192
V77
p2447
sg194
g109
sg196
V00
p2448
sg198
g47
sg199
I203530
ssI101133
(dp2449
g304
VRouen, France
p2450
sg306
V262
p2451
sg308
V2017
p2452
sg310
F31.0
sg311
VNOV 05, 1986
p2453
sg313
V6-11
p2454
sg315
VIan Mahinmi
p2455
sg317
I1610612764
sg318
V28
p2456
sg320
g881
sg321
V00
p2457
sg323
g47
sg324
I101133
ssI101139
(dp2458
g156
VSkyline HS (TX)
p2459
sg158
V225
p2460
sg160
V2017
p2461
sg162
F30.0
sg163
VMAR 18, 1987
p2462
sg165
V6-6
p2463
sg167
VCJ Miles
p2464
sg169
I1610612761
sg170
g64
sg172
V12
p2465
sg173
V00
p2466
sg175
VF-G
p2467
sg176
I101139
ssI101141
(dp2468
g979
VEskisehir, Turkey
p2469
sg981
V235
p2470
sg983
V2017
p2471
sg985
F30.0
sg986
VMAY 15, 1987
p2472
sg988
V6-10
p2473
sg990
VErsan Ilyasova
p2474
sg992
I1610612737
sg993
g207
sg995
g881
sg996
V00
p2475
sg998
g111
sg1000
I101141
ssI203546
(dp2476
g1159
VBelmont
p2477
sg1161
V175
p2478
sg1163
V2017
p2479
sg1165
F26.0
sg1166
VMAR 07, 1991
p2480
sg1168
V6-3
p2481
sg1170
VIan Clark
p2482
sg1172
I1610612740
sg1173
g43
sg1175
g587
sg1176
V00
p2483
sg1178
g69
sg1179
I203546
ssI203547
(dp2484
g369
VCampbell
p2485
sg371
V205
p2486
sg373
V2017
p2487
sg375
F27.0
sg376
VMAY 26, 1990
p2488
sg378
V6-8
p2489
sg380
VEric Griffin
p2490
sg382
I1610612762
sg383
V17
p2491
sg385
g526
sg387
V00
p2492
sg389
VC-F
p2493
sg390
I203547
ssI101150
(dp2494
g113
VSouth Gwinnett HS (GA)
p2495
sg115
V175
p2496
sg117
V2017
p2497
sg119
F31.0
sg120
VOCT 27, 1986
p2498
sg122
V6-1
p2499
sg124
VLou Williams
p2500
sg126
I1610612746
sg127
V23
p2501
sg128
V12
p2502
sg129
V00
p2503
sg131
g69
sg133
I101150
ssI203552
(dp2504
g770
VDuke
p2505
sg772
V185
p2506
sg774
V2017
p2507
sg776
F27.0
sg777
VAUG 23, 1990
p2508
sg779
V6-2
p2509
sg781
VSeth Curry
p2510
sg783
I1610612742
sg784
V30
p2511
sg785
g587
sg787
V00
p2512
sg789
g69
sg790
I203552
ssI101161
(dp2513
g26
VWestchester HS (Los Angeles)
p2514
sg28
V240
p2515
sg30
V2017
p2516
sg32
F30.0
sg33
VMAY 01, 1987
p2517
sg35
V6-9
p2518
sg37
VAmir Johnson
p2519
sg39
I1610612755
sg40
g19
sg42
V12
p2520
sg44
V00
p2521
sg46
VF-C
p2522
sg48
I101161
ssI101162
(dp2523
g304
VLodz, Poland
p2524
sg306
V240
p2525
sg308
V2017
p2526
sg310
F33.0
sg311
VFEB 17, 1984
p2527
sg313
V6-11
p2528
sg315
VMarcin Gortat
p2529
sg317
I1610612764
sg318
V13
p2530
sg320
V10
p2531
sg321
V00
p2532
sg323
g47
sg324
I101162
ssI2863
(dp2533
g414
VGeorgia
p2534
sg416
V217
p2535
sg418
V2017
p2536
sg420
F37.0
sg421
VJAN 11, 1980
p2537
sg423
V6-6
p2538
sg425
VDamien Wilkins
p2539
sg427
I1610612754
sg428
V12
p2540
sg430
g881
sg431
V00
p2541
sg433
VG-F
p2542
sg434
I2863
ssI101181
(dp2543
g748
VVillanueva de la Serena, Spain
p2544
sg750
V200
p2545
sg752
V2017
p2546
sg754
F36.0
sg755
VSEP 28, 1981
p2547
sg757
V6-3
p2548
sg759
VJose Calderon
p2549
sg761
I1610612739
sg762
V81
p2550
sg764
V12
p2551
sg765
V00
p2552
sg767
g69
sg768
I101181
ssI203584
(dp2553
g348
VVirginia Commonwealth
p2554
sg350
V205
p2555
sg352
V2017
p2556
sg354
F26.0
sg355
VJUL 15, 1991
p2557
sg357
V6-4
p2558
sg359
VTroy Daniels
p2559
sg361
I1610612756
sg362
V30
p2560
sg363
g587
sg364
V00
p2561
sg366
g69
sg367
I203584
ssI203585
(dp2562
g250
VKansas State
p2563
sg252
V200
p2564
sg254
V2017
p2565
sg256
F26.0
sg257
VJUL 29, 1991
p2566
sg259
V6-4
p2567
sg261
VRodney McGruder
p2568
sg263
I1610612748
sg264
V17
p2569
sg266
g87
sg267
V00
p2570
sg269
VG-F
p2571
sg270
I203585
ssI201563
(dp2572
g642
VKansas State
p2573
sg644
V235
p2574
sg646
V2017
p2575
sg648
F28.0
sg649
VJAN 09, 1989
p2576
sg651
V6-9
p2577
sg653
VMichael Beasley
p2578
sg655
I1610612752
sg656
g41
sg658
g881
sg659
V00
p2579
sg661
g111
sg662
I201563
ssI201565
(dp2580
g748
VMemphis
p2581
sg750
V190
p2582
sg752
V2017
p2583
sg754
F29.0
sg755
VOCT 04, 1988
p2584
sg757
V6-3
p2585
sg759
VDerrick Rose
p2586
sg761
I1610612739
sg762
g87
sg764
g41
sg765
V00
p2587
sg767
g69
sg768
I201565
ssI201566
(dp2588
g509
VUCLA
p2589
sg511
V200
p2590
sg513
V2017
p2591
sg515
F28.0
sg516
VNOV 12, 1988
p2592
sg518
V6-3
p2593
sg520
VRussell Westbrook
p2594
sg522
I1610612760
sg523
g64
sg525
g881
sg527
V00
p2595
sg529
g69
sg530
I201566
ssI201567
(dp2596
g748
VUCLA
p2597
sg750
V251
p2598
sg752
V2017
p2599
sg754
F29.0
sg755
VSEP 07, 1988
p2600
sg757
V6-10
p2601
sg759
VKevin Love
p2602
sg761
I1610612739
sg762
g64
sg764
g881
sg765
V00
p2603
sg767
VF-C
p2604
sg768
I201567
ssI201568
(dp2605
g113
VSant'Angelo Lodigiano, Italy
p2606
sg115
V225
p2607
sg117
V2017
p2608
sg119
F29.0
sg120
VAUG 08, 1988
p2609
sg122
V6-10
p2610
sg124
VDanilo Gallinari
p2611
sg126
I1610612746
sg127
g41
sg128
g41
sg129
V00
p2612
sg131
g111
sg133
I201568
ssI201569
(dp2613
g590
VIndiana
p2614
sg592
V215
p2615
sg594
V2017
p2616
sg596
F28.0
sg597
VDEC 25, 1988
p2617
sg599
V6-4
p2618
sg601
VEric Gordon
p2619
sg603
I1610612745
sg604
V10
p2620
sg605
g881
sg607
V00
p2621
sg609
g69
sg610
I201569
ssI201571
(dp2622
g2
VTexas
p2623
sg4
V183
p2624
sg6
V2017
p2625
sg8
F30.0
sg9
VNOV 10, 1987
p2626
sg11
V6-0
p2627
sg13
VD.J. Augustin
p2628
sg15
I1610612753
sg16
V14
p2629
sg18
g881
sg20
V00
p2630
sg22
g69
sg24
I201571
ssI201572
(dp2631
g690
VStanford
p2632
sg692
V268
p2633
sg694
V2017
p2634
sg696
F29.0
sg697
VAPR 01, 1988
p2635
sg699
V7-0
p2636
sg701
VBrook Lopez
p2637
sg703
I1610612747
sg704
V11
p2638
sg705
g881
sg706
V00
p2639
sg708
g47
sg709
I201572
ssI201573
(dp2640
g26
VArizona
p2641
sg28
V200
p2642
sg30
V2017
p2643
sg32
F29.0
sg33
VAUG 20, 1988
p2644
sg35
V6-3
p2645
sg37
VJerryd Bayless
p2646
sg39
I1610612755
sg40
g64
sg42
g881
sg44
V00
p2647
sg46
g69
sg48
I201573
ssI201577
(dp2648
g392
VStanford
p2649
sg394
V277
p2650
sg396
V2017
p2651
sg398
F29.0
sg399
VAPR 01, 1988
p2652
sg401
V7-0
p2653
sg403
VRobin Lopez
p2654
sg405
I1610612741
sg406
V42
p2655
sg408
g881
sg409
V00
p2656
sg411
g47
sg412
I201577
ssI201578
(dp2657
g2
VFlorida
p2658
sg4
V255
p2659
sg6
V2017
p2660
sg8
F30.0
sg9
VAUG 04, 1987
p2661
sg11
V6-10
p2662
sg13
VMarreese Speights
p2663
sg15
I1610612753
sg16
g19
sg18
g881
sg20
V00
p2664
sg22
VF-C
p2665
sg24
I201578
ssI201580
(dp2666
g460
VNevada
p2667
sg462
V270
p2668
sg464
V2017
p2669
sg466
F29.0
sg467
VJAN 19, 1988
p2670
sg469
V7-0
p2671
sg471
VJaVale McGee
p2672
sg473
I1610612744
sg474
g87
sg475
g881
sg476
V00
p2673
sg478
g47
sg479
I201580
ssI201582
(dp2674
g1159
VSaint Etienne, France
p2675
sg1161
V248
p2676
sg1163
V2017
p2677
sg1165
F29.0
sg1166
VMAY 06, 1988
p2678
sg1168
V7-2
p2679
sg1170
VAlexis Ajinca
p2680
sg1172
I1610612740
sg1173
V42
p2681
sg1175
g207
sg1176
V00
p2682
sg1178
g47
sg1179
I201582
ssI201583
(dp2683
g590
VCalifornia
p2684
sg592
V240
p2685
sg594
V2017
p2686
sg596
F29.0
sg597
VMAY 06, 1988
p2687
sg599
V6-10
p2688
sg601
VRyan Anderson
p2689
sg603
I1610612745
sg604
V33
p2690
sg605
g881
sg607
V00
p2691
sg609
g111
sg610
I201583
ssI201584
(dp2692
g642
VWestern Kentucky
p2693
sg644
V200
p2694
sg646
V2017
p2695
sg648
F32.0
sg649
VOCT 03, 1985
p2696
sg651
V6-5
p2697
sg653
VCourtney Lee
p2698
sg655
I1610612752
sg656
g19
sg658
g881
sg659
V00
p2699
sg661
g69
sg662
I201584
ssI201585
(dp2700
g282
VOhio State
p2701
sg284
V265
p2702
sg286
V2017
p2703
sg288
F28.0
sg289
VFEB 24, 1989
p2704
sg291
V7-0
p2705
sg293
VKosta Koufos
p2706
sg295
I1610612758
sg296
V41
p2707
sg298
g881
sg299
V00
p2708
sg301
g47
sg302
I201585
ssI201586
(dp2709
g156
VBrazzaville, Rep. of Congo
p2710
sg158
V235
p2711
sg160
V2017
p2712
sg162
F28.0
sg163
VSEP 18, 1989
p2713
sg165
V6-10
p2714
sg167
VSerge Ibaka
p2715
sg169
I1610612761
sg170
g881
sg172
g41
sg173
V00
p2716
sg175
g111
sg176
I201586
ssI201588
(dp2717
g282
VIndiana Purdue-Indianapolis
p2718
sg284
V188
p2719
sg286
V2017
p2720
sg288
F31.0
sg289
VMAY 04, 1986
p2721
sg291
V6-3
p2722
sg293
VGeorge Hill
p2723
sg295
I1610612758
sg296
g109
sg298
g881
sg299
V00
p2724
sg301
g69
sg302
I201588
ssI201589
(dp2725
g50
VKansas
p2726
sg51
V235
p2727
sg53
V2017
p2728
sg55
F29.0
sg56
VMAR 25, 1988
p2729
sg58
V6-9
p2730
sg60
VDarrell Arthur
p2731
sg62
I1610612743
sg63
V00
p2732
sg65
g41
sg66
V00
p2733
sg68
g111
sg70
I201589
ssI201596
(dp2734
g135
VKansas
p2735
sg137
V190
p2736
sg139
V2017
p2737
sg141
F31.0
sg142
VMAY 19, 1986
p2738
sg144
V6-2
p2739
sg146
VMario Chalmers
p2740
sg148
I1610612763
sg149
g606
sg150
g41
sg151
V00
p2741
sg153
g69
sg154
I201596
ssI201599
(dp2742
g113
VTexas A&M
p2743
sg115
V265
p2744
sg117
V2017
p2745
sg119
F29.0
sg120
VJUL 21, 1988
p2746
sg122
V6-11
p2747
sg124
VDeAndre Jordan
p2748
sg126
I1610612746
sg127
g606
sg128
g881
sg129
V00
p2749
sg131
g47
sg133
I201599
ssI201600
(dp2750
g1159
VTurkey
p2751
sg1161
V255
p2752
sg1163
V2017
p2753
sg1165
F31.0
sg1166
VJUL 04, 1986
p2754
sg1168
V7-0
p2755
sg1170
VOmer Asik
p2756
sg1172
I1610612740
sg1173
g109
sg1175
g207
sg1176
V00
p2757
sg1178
g47
sg1179
I201600
ssI201601
(dp2758
g590
VUCLA
p2759
sg592
V230
p2760
sg594
V2017
p2761
sg596
F31.0
sg597
VSEP 09, 1986
p2762
sg599
V6-8
p2763
sg601
VLuc Mbah a Moute
p2764
sg603
I1610612745
sg604
V12
p2765
sg605
g881
sg607
V00
p2766
sg609
g111
sg610
I201601
ssI201609
(dp2767
g250
VLjubljana, Slovenia
p2768
sg252
V190
p2769
sg254
V2017
p2770
sg256
F31.0
sg257
VMAY 06, 1986
p2771
sg259
V6-3
p2772
sg261
VGoran Dragic
p2773
sg263
I1610612748
sg264
g207
sg266
g881
sg267
V00
p2774
sg269
g69
sg270
I201609
ssI201628
(dp2775
g590
VCal State-Fullerton
p2776
sg592
V175
p2777
sg594
V2017
p2778
sg596
F33.0
sg597
VSEP 24, 1984
p2779
sg599
V6-2
p2780
sg601
VBobby Brown
p2781
sg603
I1610612745
sg604
g606
sg605
g109
sg607
V00
p2782
sg609
g69
sg610
I201628
ssI203705
(dp2783
g979
VAlabama-Huntsville
p2784
sg981
V160
p2785
sg983
V2017
p2786
sg985
F27.0
sg986
VNOV 28, 1989
p2787
sg988
V6-1
p2788
sg990
VJosh Magette
p2789
sg992
I1610612737
sg993
V11
p2790
sg995
g526
sg996
V00
p2791
sg998
g69
sg1000
I203705
ssI203710
(dp2792
g113
VNorth Carolina State
p2793
sg115
V230
p2794
sg117
V2017
p2795
sg119
F27.0
sg120
VFEB 06, 1990
p2796
sg122
V6-5
p2797
sg124
VC.J. Williams
p2798
sg126
I1610612746
sg127
g881
sg128
g526
sg129
V00
p2799
sg131
g69
sg133
I203710
ssI1627098
(dp2800
g979
VVirginia Tech
p2801
sg981
V190
p2802
sg983
V2017
p2803
sg985
F28.0
sg986
VMAR 11, 1989
p2804
sg988
V6-3
p2805
sg990
VMalcolm Delaney
p2806
sg992
I1610612737
sg993
g19
sg995
g87
sg996
V00
p2807
sg998
g69
sg1000
I1627098
ssI203613
(dp2808
g2
VHouston
p2809
sg4
V195
p2810
sg6
V2017
p2811
sg8
F28.0
sg9
VSEP 14, 1989
p2812
sg11
V6-6
p2813
sg13
VJonathon Simmons
p2814
sg15
I1610612753
sg16
V17
p2815
sg18
g43
sg20
V00
p2816
sg22
g111
sg24
I203613
ssI203894
(dp2817
g620
VConnecticut
p2818
sg622
V175
p2819
sg624
V2017
p2820
sg626
F26.0
sg627
VJUL 14, 1991
p2821
sg629
V6-1
p2822
sg631
VShabazz Napier
p2823
sg633
I1610612757
sg634
g606
sg635
g109
sg636
V00
p2824
sg638
g69
sg640
I203894
ssI203897
(dp2825
g392
VUCLA
p2826
sg394
V185
p2827
sg396
V2017
p2828
sg398
F22.0
sg399
VMAR 10, 1995
p2829
sg401
V6-5
p2830
sg403
VZach LaVine
p2831
sg405
I1610612741
sg406
g41
sg408
g109
sg409
V00
p2832
sg411
g69
sg412
I203897
ssI203898
(dp2833
g690
VSyracuse
p2834
sg692
V194
p2835
sg694
V2017
p2836
sg696
F23.0
sg697
VAUG 24, 1994
p2837
sg699
V6-3
p2838
sg701
VTyler Ennis
p2839
sg703
I1610612747
sg704
V10
p2840
sg705
g109
sg706
V00
p2841
sg708
g69
sg709
I203898
ssI203901
(dp2842
g2
VLouisiana-Lafayette
p2843
sg4
V185
p2844
sg6
V2017
p2845
sg8
F23.0
sg9
VFEB 22, 1994
p2846
sg11
V6-4
p2847
sg13
VElfrid Payton
p2848
sg15
I1610612753
sg16
g43
sg18
g109
sg20
V00
p2849
sg22
g69
sg24
I203901
ssI203903
(dp2850
g690
VMissouri
p2851
sg692
V194
p2852
sg694
V2017
p2853
sg696
F25.0
sg697
VJUN 07, 1992
p2854
sg699
V6-5
p2855
sg701
VJordan Clarkson
p2856
sg703
I1610612747
sg704
g606
sg705
g109
sg706
V00
p2857
sg708
g69
sg709
I203903
ssI203912
(dp2858
g620
VWashington
p2859
sg622
V195
p2860
sg624
V2017
p2861
sg626
F26.0
sg627
VDEC 30, 1990
p2862
sg629
V6-5
p2863
sg631
VCJ Wilcox
p2864
sg633
I1610612757
sg634
V23
p2865
sg635
g109
sg636
V00
p2866
sg638
g69
sg640
I203912
ssI203914
(dp2867
g50
VMichigan State
p2868
sg51
V210
p2869
sg53
V2017
p2870
sg55
F23.0
sg56
VSEP 14, 1994
p2871
sg58
V6-4
p2872
sg60
VGary Harris
p2873
sg62
I1610612743
sg63
V14
p2874
sg65
g109
sg66
V00
p2875
sg68
g69
sg70
I203914
ssI203915
(dp2876
g210
VColorado
p2877
sg212
V200
p2878
sg214
V2017
p2879
sg216
F24.0
sg217
VAPR 06, 1993
p2880
sg219
V6-6
p2881
sg221
VSpencer Dinwiddie
p2882
sg223
I1610612751
sg224
g41
sg225
g109
sg226
V00
p2883
sg228
g69
sg229
I203915
ssI203917
(dp2884
g26
VMichigan
p2885
sg28
V205
p2886
sg30
V2017
p2887
sg32
F24.0
sg33
VOCT 07, 1993
p2888
sg35
V6-6
p2889
sg37
VNik Stauskas
p2890
sg39
I1610612755
sg40
V11
p2891
sg42
g109
sg44
V00
p2892
sg46
g69
sg48
I203917
ssI203918
(dp2893
g369
VDuke
p2894
sg371
V206
p2895
sg373
V2017
p2896
sg375
F25.0
sg376
VOCT 20, 1992
p2897
sg378
V6-8
p2898
sg380
VRodney Hood
p2899
sg382
I1610612762
sg383
g19
sg385
g109
sg387
V00
p2900
sg389
g69
sg390
I203918
ssI203920
(dp2901
g2
VNevada-Las Vegas
p2902
sg4
V220
p2903
sg6
V2017
p2904
sg8
F25.0
sg9
VSEP 28, 1992
p2905
sg11
V6-9
p2906
sg13
VKhem Birch
p2907
sg15
I1610612753
sg16
V24
p2908
sg18
g526
sg20
V00
p2909
sg22
g47
sg24
I203920
ssI203922
(dp2910
g414
VMichigan
p2911
sg416
V215
p2912
sg418
V2017
p2913
sg420
F23.0
sg421
VJAN 08, 1994
p2914
sg423
V6-7
p2915
sg425
VGlenn Robinson III
p2916
sg427
I1610612754
sg428
V40
p2917
sg430
g109
sg431
V00
p2918
sg433
VG-F
p2919
sg434
I203922
ssI203924
(dp2920
g509
VSyracuse
p2921
sg511
V220
p2922
sg513
V2017
p2923
sg515
F23.0
sg516
VMAR 12, 1994
p2924
sg518
V6-9
p2925
sg520
VJerami Grant
p2926
sg522
I1610612760
sg523
g881
sg525
g109
sg527
V00
p2927
sg529
g111
sg530
I203924
ssI203925
(dp2928
g210
VVirginia
p2929
sg212
V219
p2930
sg214
V2017
p2931
sg216
F26.0
sg217
VSEP 06, 1991
p2932
sg219
V6-6
p2933
sg221
VJoe Harris
p2934
sg223
I1610612751
sg224
V12
p2935
sg225
g109
sg226
V00
p2936
sg228
g69
sg229
I203925
ssI203926
(dp2937
g642
VCreighton
p2938
sg644
V219
p2939
sg646
V2017
p2940
sg648
F25.0
sg649
VJAN 03, 1992
p2941
sg651
V6-8
p2942
sg653
VDoug McDermott
p2943
sg655
I1610612752
sg656
V20
p2944
sg658
g109
sg659
V00
p2945
sg661
g111
sg662
I203926
ssI203930
(dp2946
g210
VCincinnati
p2947
sg212
V212
p2948
sg214
V2017
p2949
sg216
F27.0
sg217
VJAN 06, 1990
p2950
sg219
V6-4
p2951
sg221
VSean Kilpatrick
p2952
sg223
I1610612751
sg224
g606
sg225
g109
sg226
V00
p2953
sg228
g69
sg229
I203930
ssI203932
(dp2954
g2
VArizona
p2955
sg4
V220
p2956
sg6
V2017
p2957
sg8
F22.0
sg9
VSEP 16, 1995
p2958
sg11
V6-9
p2959
sg13
VAaron Gordon
p2960
sg15
I1610612753
sg16
V00
p2961
sg18
g109
sg20
V00
p2962
sg22
g111
sg24
I203932
ssI203933
(dp2963
g348
VNorth Carolina State
p2964
sg350
V215
p2965
sg352
V2017
p2966
sg354
F24.0
sg355
VSEP 05, 1993
p2967
sg357
V6-8
p2968
sg359
VTJ Warren
p2969
sg361
I1610612756
sg362
V12
p2970
sg363
g109
sg364
V00
p2971
sg366
g111
sg367
I203933
ssI203935
(dp2972
g541
VOklahoma State
p2973
sg543
V220
p2974
sg545
V2017
p2975
sg547
F23.0
sg548
VMAR 06, 1994
p2976
sg550
V6-4
p2977
sg552
VMarcus Smart
p2978
sg554
I1610612738
sg555
V36
p2979
sg557
g109
sg558
V00
p2980
sg560
g69
sg561
I203935
ssI203937
(dp2981
g178
VUCLA
p2982
sg180
V230
p2983
sg182
V2017
p2984
sg184
F24.0
sg185
VSEP 20, 1993
p2985
sg187
V6-9
p2986
sg189
VKyle Anderson
p2987
sg191
I1610612759
sg192
g87
sg194
g109
sg196
V00
p2988
sg198
g111
sg199
I203937
ssI203939
(dp2989
g770
VStanford
p2990
sg772
V240
p2991
sg774
V2017
p2992
sg776
F26.0
sg777
VJUL 20, 1991
p2993
sg779
V6-11
p2994
sg781
VDwight Powell
p2995
sg783
I1610612742
sg784
g207
sg785
g109
sg787
V00
p2996
sg789
VF-C
p2997
sg790
I203939
ssI203940
(dp2998
g2
VMichigan State
p2999
sg4
V237
p3000
sg6
V2017
p3001
sg8
F26.0
sg9
VFEB 19, 1991
p3002
sg11
V6-10
p3003
sg13
VAdreian Payne
p3004
sg15
I1610612753
sg16
V33
p3005
sg18
g109
sg20
V00
p3006
sg22
g111
sg24
I203940
ssI203943
(dp3007
g620
VIndiana
p3008
sg622
V245
p3009
sg624
V2017
p3010
sg626
F22.0
sg627
VAUG 24, 1995
p3011
sg629
V6-9
p3012
sg631
VNoah Vonleh
p3013
sg633
I1610612757
sg634
V21
p3014
sg635
g109
sg636
V00
p3015
sg638
g111
sg640
I203943
ssI203944
(dp3016
g690
VKentucky
p3017
sg692
V250
p3018
sg694
V2017
p3019
sg696
F22.0
sg697
VNOV 29, 1994
p3020
sg699
V6-9
p3021
sg701
VJulius Randle
p3022
sg703
I1610612747
sg704
V30
p3023
sg705
g109
sg706
V00
p3024
sg708
VF-C
p3025
sg709
I203944
ssI203949
(dp3026
g26
VNorth Carolina
p3027
sg28
V230
p3028
sg30
V2017
p3029
sg32
F24.0
sg33
VJAN 04, 1993
p3030
sg35
V6-9
p3031
sg37
VJames Michael McAdoo
p3032
sg39
I1610612755
sg40
V14
p3033
sg42
g109
sg44
V00
p3034
sg46
g111
sg48
I203949
ssI203952
(dp3035
g72
VKansas
p3036
sg74
V202
p3037
sg76
V2017
p3038
sg78
F22.0
sg79
VFEB 23, 1995
p3039
sg81
V6-8
p3040
sg83
VAndrew Wiggins
p3041
sg85
I1610612750
sg86
V22
p3042
sg88
g109
sg89
V00
p3043
sg91
g111
sg92
I203952
ssI203953
(dp3044
g326
VDuke
p3045
sg328
V250
p3046
sg330
V2017
p3047
sg332
F22.0
sg333
VMAR 15, 1995
p3048
sg335
V6-8
p3049
sg337
VJabari Parker
p3050
sg339
I1610612749
sg340
V12
p3051
sg342
g109
sg343
V00
p3052
sg345
g111
sg346
I203953
ssI203954
(dp3053
g26
VKansas
p3054
sg28
V250
p3055
sg30
V2017
p3056
sg32
F23.0
sg33
VMAR 16, 1994
p3057
sg35
V7-0
p3058
sg37
VJoel Embiid
p3059
sg39
I1610612755
sg40
V21
p3060
sg42
g87
sg44
V00
p3061
sg46
g47
sg48
I203954
ssI203957
(dp3062
g369
Nsg371
V190
p3063
sg373
V2017
p3064
sg375
F22.0
sg376
VJUL 13, 1995
p3065
sg378
V6-6
p3066
sg380
VDante Exum
p3067
sg382
I1610612762
sg383
V11
p3068
sg385
g43
sg387
V00
p3069
sg389
g69
sg390
I203957
ssI203960
(dp3070
g282
VSt. John's (NY)
p3071
sg284
V207
p3072
sg286
V2017
p3073
sg288
F24.0
sg289
VMAR 20, 1993
p3074
sg291
V6-9
p3075
sg293
VJaKarr Sampson
p3076
sg295
I1610612758
sg296
V29
p3077
sg298
g43
sg299
V00
p3078
sg301
g111
sg302
I203960
ssI203962
(dp3079
g509
VStanford
p3080
sg511
V230
p3081
sg513
V2017
p3082
sg515
F25.0
sg516
VDEC 19, 1991
p3083
sg518
V6-7
p3084
sg520
VJosh Huestis
p3085
sg522
I1610612760
sg523
V34
p3086
sg525
g43
sg527
V00
p3087
sg529
g111
sg530
I203962
ssI203966
(dp3088
g113
VMarquette
p3089
sg115
V229
p3090
sg117
V2017
p3091
sg119
F26.0
sg120
VNOV 21, 1990
p3092
sg122
V6-7
p3093
sg124
VJamil Wilson
p3094
sg126
I1610612746
sg127
V13
p3095
sg128
g526
sg129
V00
p3096
sg131
g111
sg133
I203966
ssI203967
(dp3097
g26
Nsg28
V223
p3098
sg30
V2017
p3099
sg32
F23.0
sg33
VAPR 08, 1994
p3100
sg35
V6-10
p3101
sg37
VDario Saric
p3102
sg39
I1610612755
sg40
g881
sg42
g87
sg44
V00
p3103
sg46
g111
sg48
I203967
ssI201933
(dp3104
g113
VOklahoma
p3105
sg115
V251
p3106
sg117
V2017
p3107
sg119
F28.0
sg120
VMAR 16, 1989
p3108
sg122
V6-10
p3109
sg124
VBlake Griffin
p3110
sg126
I1610612746
sg127
V32
p3111
sg128
g207
sg129
V00
p3112
sg131
g111
sg133
I201933
ssI201935
(dp3113
g590
VArizona State
p3114
sg592
V220
p3115
sg594
V2017
p3116
sg596
F28.0
sg597
VAUG 26, 1989
p3117
sg599
V6-5
p3118
sg601
VJames Harden
p3119
sg603
I1610612745
sg604
V13
p3120
sg605
g41
sg607
V00
p3121
sg609
g69
sg610
I201935
ssI201936
(dp3122
g135
VMemphis
p3123
sg137
V220
p3124
sg139
V2017
p3125
sg141
F28.0
sg142
VSEP 19, 1989
p3126
sg144
V6-6
p3127
sg146
VTyreke Evans
p3128
sg148
I1610612763
sg149
V12
p3129
sg150
g41
sg151
V00
p3130
sg153
VG-F
p3131
sg154
I201936
ssI201937
(dp3132
g369
VEl Masnou, Spain
p3133
sg371
V190
p3134
sg373
V2017
p3135
sg375
F27.0
sg376
VOCT 21, 1990
p3136
sg378
V6-4
p3137
sg380
VRicky Rubio
p3138
sg382
I1610612762
sg383
g109
sg385
g606
sg387
V00
p3139
sg389
g69
sg390
I201937
ssI201939
(dp3140
g460
VDavidson
p3141
sg462
V190
p3142
sg464
V2017
p3143
sg466
F29.0
sg467
VMAR 14, 1988
p3144
sg469
V6-3
p3145
sg471
VStephen Curry
p3146
sg473
I1610612744
sg474
V30
p3147
sg475
g41
sg476
V00
p3148
sg478
g69
sg479
I201939
ssI201942
(dp3149
g156
VSouthern California
p3150
sg158
V220
p3151
sg160
V2017
p3152
sg162
F28.0
sg163
VAUG 07, 1989
p3153
sg165
V6-7
p3154
sg167
VDeMar DeRozan
p3155
sg169
I1610612761
sg170
V10
p3156
sg172
g41
sg173
V00
p3157
sg175
g69
sg176
I201942
ssI203991
(dp3158
g590
Nsg592
V240
p3159
sg594
V2017
p3160
sg596
F23.0
sg597
VMAY 18, 1994
p3161
sg599
V6-10
p3162
sg601
VClint Capela
p3163
sg603
I1610612745
sg604
V15
p3164
sg605
g109
sg607
V00
p3165
sg609
g47
sg610
I203991
ssI203992
(dp3166
g282
Nsg284
V205
p3167
sg286
V2017
p3168
sg288
F25.0
sg289
VAUG 18, 1992
p3169
sg291
V6-6
p3170
sg293
VBogdan Bogdanovic
p3171
sg295
I1610612758
sg296
g41
sg298
g526
sg299
V00
p3172
sg301
g69
sg302
I203992
ssI203994
(dp3173
g620
Nsg622
V280
p3174
sg624
V2017
p3175
sg626
F23.0
sg627
VAUG 23, 1994
p3176
sg629
V7-0
p3177
sg631
VJusuf Nurkic
p3178
sg633
I1610612757
sg634
V27
p3179
sg635
g109
sg636
V00
p3180
sg638
g47
sg640
I203994
ssI201949
(dp3181
g250
VWake Forest
p3182
sg252
V240
p3183
sg254
V2017
p3184
sg256
F30.0
sg257
VFEB 20, 1987
p3185
sg259
V6-8
p3186
sg261
VJames Johnson
p3187
sg263
I1610612748
sg264
V16
p3188
sg266
g41
sg267
V00
p3189
sg269
g111
sg270
I201949
ssI201950
(dp3190
g1159
VUCLA
p3191
sg1161
V205
p3192
sg1163
V2017
p3193
sg1165
F27.0
sg1166
VJUN 12, 1990
p3194
sg1168
V6-4
p3195
sg1170
VJrue Holiday
p3196
sg1172
I1610612740
sg1173
V11
p3197
sg1175
g41
sg1176
V00
p3198
sg1178
g69
sg1179
I201950
ssI203999
(dp3199
g50
Nsg51
V250
p3200
sg53
V2017
p3201
sg55
F22.0
sg56
VFEB 19, 1995
p3202
sg58
V6-10
p3203
sg60
VNikola Jokic
p3204
sg62
I1610612743
sg63
V15
p3205
sg65
g43
sg66
V00
p3206
sg68
g47
sg70
I203999
ssI201952
(dp3207
g72
VWake Forest
p3208
sg74
V189
p3209
sg76
V2017
p3210
sg78
F29.0
sg79
VJUN 10, 1988
p3211
sg81
V6-2
p3212
sg83
VJeff Teague
p3213
sg85
I1610612750
sg86
g64
sg88
g41
sg89
V00
p3214
sg91
g69
sg92
I201952
ssI204001
(dp3215
g642
Nsg644
V240
p3216
sg646
V2017
p3217
sg648
F22.0
sg649
VAUG 02, 1995
p3218
sg651
V7-3
p3219
sg653
VKristaps Porzingis
p3220
sg655
I1610612752
sg656
g606
sg658
g43
sg659
V00
p3221
sg661
VF-C
p3222
sg662
I204001
ssI1627362
(dp3223
g590
VVirginia Commonwealth
p3224
sg592
V165
p3225
sg594
V2017
p3226
sg596
F24.0
sg597
VDEC 29, 1992
p3227
sg599
V6-2
p3228
sg601
VBriante Weber
p3229
sg603
I1610612745
sg604
g64
sg605
g43
sg607
V00
p3230
sg609
g69
sg610
I1627362
ssI201956
(dp3231
g460
VYavne, Israel
p3232
sg462
V225
p3233
sg464
V2017
p3234
sg466
F29.0
sg467
VJUN 22, 1988
p3235
sg469
V6-9
p3236
sg471
VOmri Casspi
p3237
sg473
I1610612744
sg474
V18
p3238
sg475
g41
sg476
V00
p3239
sg478
g111
sg479
I201956
ssI201959
(dp3240
g72
VSouthern California
p3241
sg74
V235
p3242
sg76
V2017
p3243
sg78
F32.0
sg79
VJUN 24, 1985
p3244
sg81
V6-9
p3245
sg83
VTaj Gibson
p3246
sg85
I1610612750
sg86
V67
p3247
sg88
g41
sg89
V00
p3248
sg91
g111
sg92
I201959
ssI201960
(dp3249
g210
VMissouri
p3250
sg212
V215
p3251
sg214
V2017
p3252
sg216
F31.0
sg217
VJUL 27, 1986
p3253
sg219
V6-8
p3254
sg221
VDeMarre Carroll
p3255
sg223
I1610612751
sg224
g881
sg225
g41
sg226
V00
p3256
sg228
g111
sg229
I201960
ssI201961
(dp3257
g250
VNorth Carolina
p3258
sg252
V200
p3259
sg254
V2017
p3260
sg256
F29.0
sg257
VNOV 29, 1987
p3261
sg259
V6-5
p3262
sg261
VWayne Ellington
p3263
sg263
I1610612748
sg264
g43
sg266
g41
sg267
V00
p3264
sg269
g69
sg270
I201961
ssI201967
(dp3265
g1159
VVillanova
p3266
sg1161
V230
p3267
sg1163
V2017
p3268
sg1165
F30.0
sg1166
VAPR 22, 1987
p3269
sg1168
V6-8
p3270
sg1170
VDante Cunningham
p3271
sg1172
I1610612740
sg1173
V33
p3272
sg1175
g41
sg1176
V00
p3273
sg1178
g111
sg1179
I201967
ssI204020
(dp3274
g250
VFresno State
p3275
sg252
V190
p3276
sg254
V2017
p3277
sg256
F25.0
sg257
VMAY 07, 1992
p3278
sg259
V6-4
p3279
sg261
VTyler Johnson
p3280
sg263
I1610612748
sg264
g41
sg266
g109
sg267
V00
p3281
sg269
g69
sg270
I204020
ssI201973
(dp3282
g369
VKinna, Sweden
p3283
sg371
V231
p3284
sg373
V2017
p3285
sg375
F30.0
sg376
VMAR 02, 1987
p3286
sg378
V6-10
p3287
sg380
VJonas Jerebko
p3288
sg382
I1610612762
sg383
g41
sg385
g207
sg387
V00
p3289
sg389
g111
sg390
I201973
ssI204022
(dp3290
g282
VNotre Dame
p3291
sg284
V274
p3292
sg286
V2017
p3293
sg288
F26.0
sg289
VAPR 12, 1991
p3294
sg291
V6-10
p3295
sg293
VJack Cooley
p3296
sg295
I1610612758
sg296
V45
p3297
sg298
g87
sg299
V00
p3298
sg301
g47
sg302
I204022
ssI201975
(dp3299
g304
VKentucky
p3300
sg306
V210
p3301
sg308
V2017
p3302
sg310
F30.0
sg311
VAUG 21, 1987
p3303
sg313
V6-4
p3304
sg315
VJodie Meeks
p3305
sg317
I1610612764
sg318
V20
p3306
sg320
g41
sg321
V00
p3307
sg323
g69
sg324
I201975
ssI201976
(dp3308
g113
VArkansas
p3309
sg115
V185
p3310
sg117
V2017
p3311
sg119
F29.0
sg120
VJUL 12, 1988
p3312
sg122
V6-1
p3313
sg124
VPatrick Beverley
p3314
sg126
I1610612746
sg127
V21
p3315
sg128
g19
sg129
V00
p3316
sg131
g69
sg133
I201976
ssI204025
(dp3317
g304
Nsg306
V170
p3318
sg308
V2017
p3319
sg310
F27.0
sg311
VNOV 01, 1990
p3320
sg313
V6-1
p3321
sg315
VTim Frazier
p3322
sg317
I1610612764
sg318
g41
sg320
g109
sg321
V00
p3323
sg323
g69
sg324
I204025
ssI201980
(dp3324
g178
VNorth Carolina
p3325
sg180
V215
p3326
sg182
V2017
p3327
sg184
F30.0
sg185
VJUN 22, 1987
p3328
sg187
V6-6
p3329
sg189
VDanny Green
p3330
sg191
I1610612759
sg192
V14
p3331
sg194
g41
sg196
V00
p3332
sg198
VG-F
p3333
sg199
I201980
ssI201988
(dp3334
g178
VSaint Mary's (CA)
p3335
sg180
V185
p3336
sg182
V2017
p3337
sg184
F29.0
sg185
VAUG 11, 1988
p3338
sg187
V6-0
p3339
sg189
VPatty Mills
p3340
sg191
I1610612759
sg192
g41
sg194
g41
sg196
V00
p3341
sg198
g69
sg199
I201988
ssI204060
(dp3342
g369
Nsg371
V226
p3343
sg373
V2017
p3344
sg375
F30.0
sg376
VOCT 02, 1987
p3345
sg378
V6-8
p3346
sg380
VJoe Ingles
p3347
sg382
I1610612762
sg383
g43
sg385
g109
sg387
V00
p3348
sg389
g111
sg390
I204060
ssI204066
(dp3349
g748
VBoston U.
p3350
sg750
V205
p3351
sg752
V2017
p3352
sg754
F29.0
sg755
VNOV 06, 1988
p3353
sg757
V6-5
p3354
sg759
VJohn Holland
p3355
sg761
I1610612739
sg762
V10
p3356
sg764
g87
sg765
V00
p3357
sg767
VG-F
p3358
sg768
I204066
ssI203998
(dp3359
g156
Nsg158
V205
p3360
sg160
V2017
p3361
sg162
F22.0
sg163
VSEP 21, 1995
p3362
sg165
V6-9
p3363
sg167
VBruno Caboclo
p3364
sg169
I1610612761
sg170
g19
sg172
g109
sg173
V00
p3365
sg175
g111
sg176
I203998
ssI201954
(dp3366
g414
VUCLA
p3367
sg416
V185
p3368
sg418
V2017
p3369
sg420
F30.0
sg421
VAUG 23, 1987
p3370
sg423
V6-2
p3371
sg425
VDarren Collison
p3372
sg427
I1610612754
sg428
g43
sg430
g41
sg431
V00
p3373
sg433
g69
sg434
I201954
ssI202066
(dp3374
g282
VLouisiana State
p3375
sg284
V195
p3376
sg286
V2017
p3377
sg288
F31.0
sg289
VMAY 08, 1986
p3378
sg291
V6-6
p3379
sg293
VGarrett Temple
p3380
sg295
I1610612758
sg296
V17
p3381
sg298
g207
sg299
V00
p3382
sg301
g69
sg302
I202066
ssI202083
(dp3383
g770
VMarquette
p3384
sg772
V220
p3385
sg774
V2017
p3386
sg776
F31.0
sg777
VOCT 14, 1986
p3387
sg779
V6-5
p3388
sg781
VWesley Matthews
p3389
sg783
I1610612742
sg784
V23
p3390
sg785
g41
sg787
V00
p3391
sg789
VG-F
p3392
sg790
I202083
ssI1628409
(dp3393
g348
VValparaiso
p3394
sg350
V235
p3395
sg352
V2017
p3396
sg354
F22.0
sg355
VAPR 13, 1995
p3397
sg357
V6-9
p3398
sg359
VAlec Peters
p3399
sg361
I1610612756
sg362
V25
p3400
sg363
g526
sg364
V00
p3401
sg366
g111
sg367
I1628409
ssI204028
(dp3402
g590
VKansas
p3403
sg592
V250
p3404
sg594
V2017
p3405
sg596
F25.0
sg597
VNOV 22, 1991
p3406
sg599
V6-9
p3407
sg601
VTarik Black
p3408
sg603
I1610612745
sg604
V28
p3409
sg605
g109
sg607
V00
p3410
sg609
VF-C
p3411
sg610
I204028
ssI202323
(dp3412
g620
VOhio State
p3413
sg622
V220
p3414
sg624
V2017
p3415
sg626
F29.0
sg627
VOCT 27, 1988
p3416
sg629
V6-7
p3417
sg631
VEvan Turner
p3418
sg633
I1610612757
sg634
g87
sg635
g207
sg636
V00
p3419
sg638
VG-F
p3420
sg640
I202323
ssI1627732
(dp3421
g26
VLouisiana State
p3422
sg28
V230
p3423
sg30
V2017
p3424
sg32
F21.0
sg33
VJUL 20, 1996
p3425
sg35
V6-10
p3426
sg37
VBen Simmons
p3427
sg39
I1610612755
sg40
V25
p3428
sg42
g526
sg44
V00
p3429
sg46
VG-F
p3430
sg48
I1627732
ssI1627733
(dp3431
g348
Nsg350
V225
p3432
sg352
V2017
p3433
sg354
F19.0
sg355
VNOV 17, 1997
p3434
sg357
V7-1
p3435
sg359
VDragan Bender
p3436
sg361
I1610612756
sg362
V35
p3437
sg363
g87
sg364
V00
p3438
sg366
g111
sg367
I1627733
ssI1627734
(dp3439
g414
VGonzaga
p3440
sg416
V252
p3441
sg418
V2017
p3442
sg420
F21.0
sg421
VMAY 03, 1996
p3443
sg423
V6-10
p3444
sg425
VDomantas Sabonis
p3445
sg427
I1610612754
sg428
V11
p3446
sg430
g87
sg431
V00
p3447
sg433
VC-F
p3448
sg434
I1627734
ssI1627735
(dp3449
g620
VVanderbilt
p3450
sg622
V202
p3451
sg624
V2017
p3452
sg626
F21.0
sg627
VMAR 29, 1996
p3453
sg629
V6-4
p3454
sg631
VWade Baldwin IV
p3455
sg633
I1610612757
sg634
g43
sg635
g87
sg636
V00
p3456
sg638
g69
sg640
I1627735
ssI202328
(dp3457
g348
VGeorgetown
p3458
sg350
V265
p3459
sg352
V2017
p3460
sg354
F27.0
sg355
VJUN 04, 1990
p3461
sg357
V6-11
p3462
sg359
VGreg Monroe
p3463
sg361
I1610612756
sg362
V14
p3464
sg363
g207
sg364
V00
p3465
sg366
VC-F
p3466
sg367
I202328
ssI1627737
(dp3467
g348
VWashington
p3468
sg350
V240
p3469
sg352
V2017
p3470
sg354
F20.0
sg355
VJUL 02, 1997
p3471
sg357
V6-10
p3472
sg359
VMarquese Chriss
p3473
sg361
I1610612756
sg362
g64
sg363
g87
sg364
V00
p3474
sg366
g111
sg367
I1627737
ssI202330
(dp3475
g541
VButler
p3476
sg543
V226
p3477
sg545
V2017
p3478
sg547
F27.0
sg548
VMAR 23, 1990
p3479
sg550
V6-8
p3480
sg552
VGordon Hayward
p3481
sg554
I1610612738
sg555
V20
p3482
sg557
g207
sg558
V00
p3483
sg560
g111
sg561
I202330
ssI202331
(dp3484
g509
VFresno State
p3485
sg511
V220
p3486
sg513
V2017
p3487
sg515
F27.0
sg516
VMAY 02, 1990
p3488
sg518
V6-9
p3489
sg520
VPaul George
p3490
sg522
I1610612760
sg523
V13
p3491
sg525
g207
sg527
V00
p3492
sg529
g111
sg530
I202331
ssI202334
(dp3493
g620
VNorth Carolina
p3494
sg622
V245
p3495
sg624
V2017
p3496
sg626
F28.0
sg627
VJUN 05, 1989
p3497
sg629
V6-10
p3498
sg631
VEd Davis
p3499
sg633
I1610612757
sg634
V17
p3500
sg635
g207
sg636
V00
p3501
sg638
VF-C
p3502
sg640
I202334
ssI1627743
(dp3503
g590
VNotre Dame
p3504
sg592
V201
p3505
sg594
V2017
p3506
sg596
F23.0
sg597
VSEP 07, 1994
p3507
sg599
V6-1
p3508
sg601
VDemetrius Jackson
p3509
sg603
I1610612745
sg604
g43
sg605
g87
sg607
V00
p3510
sg609
g69
sg610
I1627743
ssI201162
(dp3511
g348
VBoston College
p3512
sg350
V240
p3513
sg352
V2017
p3514
sg354
F32.0
sg355
VJUL 10, 1985
p3515
sg357
V6-7
p3516
sg359
VJared Dudley
p3517
sg361
I1610612756
sg362
g109
sg363
V10
p3518
sg364
V00
p3519
sg366
g111
sg367
I201162
ssI1627745
(dp3520
g460
VVanderbilt
p3521
sg462
V245
p3522
sg464
V2017
p3523
sg466
F22.0
sg467
VJUN 30, 1995
p3524
sg469
V7-0
p3525
sg471
VDamian Jones
p3526
sg473
I1610612744
sg474
V15
p3527
sg475
g87
sg476
V00
p3528
sg478
g47
sg479
I1627745
ssI202322
(dp3529
g304
VKentucky
p3530
sg306
V210
p3531
sg308
V2017
p3532
sg310
F27.0
sg311
VSEP 06, 1990
p3533
sg313
V6-4
p3534
sg315
VJohn Wall
p3535
sg317
I1610612764
sg318
g43
sg320
g207
sg321
V00
p3536
sg323
g69
sg324
I202322
ssI1627747
(dp3537
g210
VMichigan
p3538
sg212
V203
p3539
sg214
V2017
p3540
sg216
F23.0
sg217
VAUG 25, 1994
p3541
sg219
V6-7
p3542
sg221
VCaris LeVert
p3543
sg223
I1610612751
sg224
V22
p3544
sg225
g87
sg226
V00
p3545
sg228
VG-F
p3546
sg229
I1627747
ssI202324
(dp3547
g369
VGeorgia Tech
p3548
sg371
V265
p3549
sg373
V2017
p3550
sg375
F26.0
sg376
VJUL 15, 1991
p3551
sg378
V6-10
p3552
sg380
VDerrick Favors
p3553
sg382
I1610612762
sg383
V15
p3554
sg385
g207
sg387
V00
p3555
sg389
VF-C
p3556
sg390
I202324
ssI202325
(dp3557
g113
VSyracuse
p3558
sg115
V215
p3559
sg117
V2017
p3560
sg119
F30.0
sg120
VJUL 11, 1987
p3561
sg122
V6-7
p3562
sg124
VWesley Johnson
p3563
sg126
I1610612746
sg127
V33
p3564
sg128
g207
sg129
V00
p3565
sg131
g111
sg133
I202325
ssI202326
(dp3566
g1159
VKentucky
p3567
sg1161
V270
p3568
sg1163
V2017
p3569
sg1165
F27.0
sg1166
VAUG 13, 1990
p3570
sg1168
V6-11
p3571
sg1170
VDeMarcus Cousins
p3572
sg1172
I1610612740
sg1173
g64
sg1175
g207
sg1176
V00
p3573
sg1178
g47
sg1179
I202326
ssI202327
(dp3574
g369
VBaylor
p3575
sg371
V245
p3576
sg373
V2017
p3577
sg375
F30.0
sg376
VMAY 20, 1987
p3578
sg378
V6-10
p3579
sg380
VEkpe Udoh
p3580
sg382
I1610612762
sg383
V33
p3581
sg385
g19
sg387
V00
p3582
sg389
VC-F
p3583
sg390
I202327
ssI1627736
(dp3584
g50
VFlorida State
p3585
sg51
V196
p3586
sg53
V2017
p3587
sg55
F20.0
sg56
VNOV 26, 1996
p3588
sg58
V6-5
p3589
sg60
VMalik Beasley
p3590
sg62
I1610612743
sg63
V25
p3591
sg65
g87
sg66
V00
p3592
sg68
g69
sg70
I1627736
ssI202329
(dp3593
g620
VWake Forest
p3594
sg622
V220
p3595
sg624
V2017
p3596
sg626
F27.0
sg627
VSEP 21, 1990
p3597
sg629
V6-9
p3598
sg631
VAl-Farouq Aminu
p3599
sg633
I1610612757
sg634
g41
sg635
g207
sg636
V00
p3600
sg638
g111
sg640
I202329
ssI1627738
(dp3601
g135
VMichigan State
p3602
sg137
V237
p3603
sg139
V2017
p3604
sg141
F20.0
sg142
VDEC 02, 1996
p3605
sg144
V6-11
p3606
sg146
VDeyonta Davis
p3607
sg148
I1610612763
sg149
V21
p3608
sg150
g87
sg151
V00
p3609
sg153
VC-F
p3610
sg154
I1627738
ssI1627739
(dp3611
g392
VProvidence
p3612
sg394
V210
p3613
sg396
V2017
p3614
sg398
F23.0
sg399
VMAR 18, 1994
p3615
sg401
V6-4
p3616
sg403
VKris Dunn
p3617
sg405
I1610612741
sg406
V32
p3618
sg408
g87
sg409
V00
p3619
sg411
g69
sg412
I1627739
ssI202332
(dp3620
g72
VKansas
p3621
sg74
V253
p3622
sg76
V2017
p3623
sg78
F29.0
sg79
VOCT 31, 1988
p3624
sg81
V6-11
p3625
sg83
VCole Aldrich
p3626
sg85
I1610612750
sg86
V45
p3627
sg88
g207
sg89
V00
p3628
sg91
g47
sg92
I202332
ssI1627741
(dp3629
g282
VOklahoma
p3630
sg284
V214
p3631
sg286
V2017
p3632
sg288
F23.0
sg289
VDEC 17, 1993
p3633
sg291
V6-4
p3634
sg293
VBuddy Hield
p3635
sg295
I1610612758
sg296
V24
p3636
sg298
g87
sg299
V00
p3637
sg301
g69
sg302
I1627741
ssI1627742
(dp3638
g690
VDuke
p3639
sg692
V190
p3640
sg694
V2017
p3641
sg696
F20.0
sg697
VSEP 02, 1997
p3642
sg699
V6-9
p3643
sg701
VBrandon Ingram
p3644
sg703
I1610612747
sg704
V14
p3645
sg705
g87
sg706
V00
p3646
sg708
VF-G
p3647
sg709
I1627742
ssI202335
(dp3648
g509
VKentucky
p3649
sg511
V230
p3650
sg513
V2017
p3651
sg515
F28.0
sg516
VMAR 14, 1989
p3652
sg518
V6-9
p3653
sg520
VPatrick Patterson
p3654
sg522
I1610612760
sg523
V54
p3655
sg525
g207
sg527
V00
p3656
sg529
g111
sg530
I202335
ssI1627744
(dp3657
g113
VNorth Carolina
p3658
sg115
V230
p3659
sg117
V2017
p3660
sg119
F23.0
sg120
VJUN 27, 1994
p3661
sg122
V6-10
p3662
sg124
VBrice Johnson
p3663
sg126
I1610612746
sg127
V11
p3664
sg128
g87
sg129
V00
p3665
sg131
g111
sg133
I1627744
ssI202337
(dp3666
g979
VNevada
p3667
sg981
V225
p3668
sg983
V2017
p3669
sg985
F28.0
sg986
VJUN 20, 1989
p3670
sg988
V6-9
p3671
sg990
VLuke Babbitt
p3672
sg992
I1610612737
sg993
g41
sg995
g207
sg996
V00
p3673
sg998
g111
sg1000
I202337
ssI1627746
(dp3674
g282
VKentucky
p3675
sg284
V225
p3676
sg286
V2017
p3677
sg288
F21.0
sg289
VMAR 18, 1996
p3678
sg291
V6-11
p3679
sg293
VSkal Labissiere
p3680
sg295
I1610612758
sg296
g207
sg298
g87
sg299
V00
p3681
sg301
VF-C
p3682
sg302
I1627746
ssI202339
(dp3683
g326
VKentucky
p3684
sg328
V205
p3685
sg330
V2017
p3686
sg332
F27.0
sg333
VDEC 09, 1989
p3687
sg335
V6-1
p3688
sg337
VEric Bledsoe
p3689
sg339
I1610612749
sg340
g606
sg342
g207
sg343
V00
p3690
sg345
g69
sg346
I202339
ssI1627748
(dp3691
g326
Nsg328
V223
p3692
sg330
V2017
p3693
sg332
F20.0
sg333
VFEB 25, 1997
p3694
sg335
V7-1
p3695
sg337
VThon Maker
p3696
sg339
I1610612749
sg340
g207
sg342
g87
sg343
V00
p3697
sg345
VC-F
p3698
sg346
I1627748
ssI1627749
(dp3699
g178
VWashington
p3700
sg180
V170
p3701
sg182
V2017
p3702
sg184
F21.0
sg185
VSEP 19, 1996
p3703
sg187
V6-5
p3704
sg189
VDejounte Murray
p3705
sg191
I1610612759
sg192
g19
sg194
g87
sg196
V00
p3706
sg198
g69
sg199
I1627749
ssI1627750
(dp3707
g50
VKentucky
p3708
sg51
V207
p3709
sg53
V2017
p3710
sg55
F20.0
sg56
VFEB 23, 1997
p3711
sg58
V6-4
p3712
sg60
VJamal Murray
p3713
sg62
I1610612743
sg63
V27
p3714
sg65
g87
sg66
V00
p3715
sg68
g69
sg70
I1627750
ssI1627751
(dp3716
g156
VUtah
p3717
sg158
V230
p3718
sg160
V2017
p3719
sg162
F22.0
sg163
VOCT 15, 1995
p3720
sg165
V7-0
p3721
sg167
VJakob Poeltl
p3722
sg169
I1610612761
sg170
V42
p3723
sg172
g87
sg173
V00
p3724
sg175
g47
sg176
I1627751
ssI1627752
(dp3725
g979
VBaylor
p3726
sg981
V220
p3727
sg983
V2017
p3728
sg985
F23.0
sg986
VMAR 22, 1994
p3729
sg988
V6-8
p3730
sg990
VTaurean Prince
p3731
sg992
I1610612737
sg993
V12
p3732
sg995
g87
sg996
V00
p3733
sg998
g111
sg1000
I1627752
ssI1627753
(dp3734
g590
Nsg592
V210
p3735
sg594
V2017
p3736
sg596
F21.0
sg597
VJAN 16, 1996
p3737
sg599
V7-1
p3738
sg601
VQi Qi
p3739
sg603
I1610612745
sg604
g881
sg605
g526
sg607
V00
p3740
sg609
VF-C
p3741
sg610
I1627753
ssI202347
(dp3742
g392
VWashington
p3743
sg394
V225
p3744
sg396
V2017
p3745
sg398
F29.0
sg399
VMAR 10, 1988
p3746
sg401
V6-7
p3747
sg403
VQuincy Pondexter
p3748
sg405
I1610612741
sg406
V20
p3749
sg408
g19
sg409
V00
p3750
sg411
g69
sg412
I202347
ssI1627756
(dp3751
g392
VMichigan State
p3752
sg394
V214
p3753
sg396
V2017
p3754
sg398
F23.0
sg399
VNOV 16, 1993
p3755
sg401
V6-6
p3756
sg403
VDenzel Valentine
p3757
sg405
I1610612741
sg406
V45
p3758
sg408
g87
sg409
V00
p3759
sg411
g111
sg412
I1627756
ssI1627758
(dp3760
g642
VWichita State
p3761
sg644
V220
p3762
sg646
V2017
p3763
sg648
F24.0
sg649
VMAR 30, 1993
p3764
sg651
V6-4
p3765
sg653
VRon Baker
p3766
sg655
I1610612752
sg656
V31
p3767
sg658
g87
sg659
V00
p3768
sg661
g69
sg662
I1627758
ssI1627759
(dp3769
g541
VCalifornia
p3770
sg543
V225
p3771
sg545
V2017
p3772
sg547
F21.0
sg548
VOCT 24, 1996
p3773
sg550
V6-7
p3774
sg552
VJaylen Brown
p3775
sg554
I1610612738
sg555
g207
sg557
g87
sg558
V00
p3776
sg560
VG-F
p3777
sg561
I1627759
ssI202344
(dp3778
g210
VClemson
p3779
sg212
V228
p3780
sg214
V2017
p3781
sg216
F29.0
sg217
VNOV 25, 1987
p3782
sg219
V6-8
p3783
sg221
VTrevor Booker
p3784
sg223
I1610612751
sg224
V35
p3785
sg225
g207
sg226
V00
p3786
sg228
g111
sg229
I202344
ssI1627762
(dp3787
g326
VWeber State
p3788
sg328
V235
p3789
sg330
V2017
p3790
sg332
F23.0
sg333
VJAN 28, 1994
p3791
sg335
V6-9
p3792
sg337
VJoel Bolomboy
p3793
sg339
I1610612749
sg340
V24
p3794
sg342
g87
sg343
V00
p3795
sg345
VF-C
p3796
sg346
I1627762
ssI202355
(dp3797
g250
VMarshall
p3798
sg252
V265
p3799
sg254
V2017
p3800
sg256
F28.0
sg257
VJUN 13, 1989
p3801
sg259
V7-0
p3802
sg261
VHassan Whiteside
p3803
sg263
I1610612748
sg264
V21
p3804
sg266
g19
sg267
V00
p3805
sg269
g47
sg270
I202355
ssI202357
(dp3806
g72
Nsg74
V230
p3807
sg76
V2017
p3808
sg78
F29.0
sg79
VMAY 09, 1988
p3809
sg81
V6-10
p3810
sg83
VNemanja Bjelica
p3811
sg85
I1610612750
sg86
g41
sg88
g43
sg89
V00
p3812
sg91
g111
sg92
I202357
ssI1627767
(dp3813
g1159
VKansas
p3814
sg1161
V220
p3815
sg1163
V2017
p3816
sg1165
F21.0
sg1166
VSEP 13, 1996
p3817
sg1168
V6-9
p3818
sg1170
VCheick Diallo
p3819
sg1172
I1610612740
sg1173
V13
p3820
sg1175
g87
sg1176
V00
p3821
sg1178
g111
sg1179
I1627767
ssI1627770
(dp3822
g392
VOakland
p3823
sg394
V176
p3824
sg396
V2017
p3825
sg398
F22.0
sg399
VMAR 29, 1995
p3826
sg401
V5-9
p3827
sg403
VKay Felder
p3828
sg405
I1610612741
sg406
g109
sg408
g87
sg409
V00
p3829
sg411
g69
sg412
I1627770
ssI1627772
(dp3830
g509
VConnecticut
p3831
sg511
V195
p3832
sg513
V2017
p3833
sg515
F22.0
sg516
VAUG 08, 1995
p3834
sg518
V6-7
p3835
sg520
VDaniel Hamilton
p3836
sg522
I1610612760
sg523
V25
p3837
sg525
g526
sg527
V00
p3838
sg529
g69
sg530
I1627772
ssI1627773
(dp3839
g250
VPurdue
p3840
sg252
V260
p3841
sg254
V2017
p3842
sg256
F25.0
sg257
VAUG 27, 1992
p3843
sg259
V7-0
p3844
sg261
VAJ Hammons
p3845
sg263
I1610612748
sg264
g587
sg266
g87
sg267
V00
p3846
sg269
g47
sg270
I1627773
ssI1627774
(dp3847
g620
VMaryland
p3848
sg622
V210
p3849
sg624
V2017
p3850
sg626
F23.0
sg627
VMAR 07, 1994
p3851
sg629
V6-9
p3852
sg631
VJake Layman
p3853
sg633
I1610612757
sg634
V10
p3854
sg635
g87
sg636
V00
p3855
sg638
g111
sg640
I1627774
ssI1627775
(dp3856
g460
VNevada-Las Vegas
p3857
sg462
V185
p3858
sg464
V2017
p3859
sg466
F22.0
sg467
VOCT 25, 1995
p3860
sg469
V6-7
p3861
sg471
VPatrick McCaw
p3862
sg473
I1610612744
sg474
g64
sg475
g87
sg476
V00
p3863
sg478
g69
sg479
I1627775
ssI200755
(dp3864
g26
VDuke
p3865
sg28
V200
p3866
sg30
V2017
p3867
sg32
F33.0
sg33
VJUN 24, 1984
p3868
sg35
V6-4
p3869
sg37
VJJ Redick
p3870
sg39
I1610612755
sg40
V17
p3871
sg42
V11
p3872
sg44
V00
p3873
sg46
VF-G
p3874
sg48
I200755
ssI1627778
(dp3875
g590
VLouisville
p3876
sg592
V245
p3877
sg594
V2017
p3878
sg596
F21.0
sg597
VNOV 01, 1996
p3879
sg599
V6-10
p3880
sg601
VChinanu Onuaku
p3881
sg603
I1610612745
sg604
V21
p3882
sg605
g87
sg607
V00
p3883
sg609
g47
sg610
I1627778
ssI1627755
(dp3884
g348
VKentucky
p3885
sg350
V160
p3886
sg352
V2017
p3887
sg354
F21.0
sg355
VJAN 05, 1996
p3888
sg357
V5-10
p3889
sg359
VTyler Ulis
p3890
sg361
I1610612756
sg362
g41
sg363
g87
sg364
V00
p3891
sg366
g69
sg367
I1627755
ssI1627780
(dp3892
g326
VOregon State
p3893
sg328
V190
p3894
sg330
V2017
p3895
sg332
F24.0
sg333
VDEC 01, 1992
p3896
sg335
V6-3
p3897
sg337
VGary Payton II
p3898
sg339
I1610612749
sg340
g64
sg342
g87
sg343
V00
p3899
sg345
g69
sg346
I1627780
ssI1627781
(dp3900
g282
VSyracuse
p3901
sg284
V205
p3902
sg286
V2017
p3903
sg288
F21.0
sg289
VJAN 05, 1996
p3904
sg291
V6-6
p3905
sg293
VMalachi Richardson
p3906
sg295
I1610612758
sg296
V23
p3907
sg298
g87
sg299
V00
p3908
sg301
g69
sg302
I1627781
ssI1627782
(dp3909
g135
VKansas
p3910
sg137
V230
p3911
sg139
V2017
p3912
sg141
F23.0
sg142
VSEP 30, 1994
p3913
sg144
V6-5
p3914
sg146
VWayne Selden
p3915
sg148
I1610612763
sg149
g207
sg150
g87
sg151
V00
p3916
sg153
VG-F
p3917
sg154
I1627782
ssI1627783
(dp3918
g156
VNew Mexico State
p3919
sg158
V230
p3920
sg160
V2017
p3921
sg162
F23.0
sg163
VAPR 02, 1994
p3922
sg165
V6-9
p3923
sg167
VPascal Siakam
p3924
sg169
I1610612761
sg170
V43
p3925
sg172
g87
sg173
V00
p3926
sg175
g111
sg176
I1627783
ssI1627785
(dp3927
g210
VSeton Hall
p3928
sg212
V213
p3929
sg214
V2017
p3930
sg216
F22.0
sg217
VMAR 08, 1995
p3931
sg219
V6-4
p3932
sg221
VIsaiah Whitehead
p3933
sg223
I1610612751
sg224
V15
p3934
sg225
g87
sg226
V00
p3935
sg228
g69
sg229
I1627785
ssI1627786
(dp3936
g590
VIndiana
p3937
sg592
V218
p3938
sg594
V2017
p3939
sg596
F22.0
sg597
VDEC 30, 1994
p3940
sg599
V6-7
p3941
sg601
VTroy Williams
p3942
sg603
I1610612745
sg604
g19
sg605
g87
sg607
V00
p3943
sg609
g111
sg610
I1627786
ssI1627788
(dp3944
g26
Nsg28
V190
p3945
sg30
V2017
p3946
sg32
F20.0
sg33
VJUL 24, 1997
p3947
sg35
V6-7
p3948
sg37
VFurkan Korkmaz
p3949
sg39
I1610612755
sg40
V30
p3950
sg42
g526
sg44
V00
p3951
sg46
VG-F
p3952
sg48
I1627788
ssI1627789
(dp3953
g26
Nsg28
V200
p3954
sg30
V2017
p3955
sg32
F22.0
sg33
VMAY 09, 1995
p3956
sg35
V6-6
p3957
sg37
VTimothe Luwawu-Cabarrot
p3958
sg39
I1610612755
sg40
g207
sg42
g87
sg44
V00
p3959
sg46
VG-F
p3960
sg48
I1627789
ssI1627790
(dp3961
g748
Nsg750
V250
p3962
sg752
V2017
p3963
sg754
F20.0
sg755
VJAN 04, 1997
p3964
sg757
V6-11
p3965
sg759
VAnte Zizic
p3966
sg761
I1610612739
sg762
V41
p3967
sg764
g526
sg765
V00
p3968
sg767
VF-C
p3969
sg768
I1627790
ssI202389
(dp3970
g210
VSt. Petersburg, Russia
p3971
sg212
V275
p3972
sg214
V2017
p3973
sg216
F31.0
sg217
VJUL 16, 1986
p3974
sg219
V7-1
p3975
sg221
VTimofey Mozgov
p3976
sg223
I1610612751
sg224
V20
p3977
sg225
g207
sg226
V00
p3978
sg228
g47
sg229
I202389
ssI202391
(dp3979
g210
VHarvard
p3980
sg212
V200
p3981
sg214
V2017
p3982
sg216
F29.0
sg217
VAUG 23, 1988
p3983
sg219
V6-3
p3984
sg221
VJeremy Lin
p3985
sg223
I1610612751
sg224
g207
sg225
g207
sg226
V00
p3986
sg228
g69
sg229
I202391
ssI1627812
(dp3987
g770
VIndiana
p3988
sg772
V180
p3989
sg774
V2017
p3990
sg776
F24.0
sg777
VMAY 09, 1993
p3991
sg779
V6-0
p3992
sg781
VYogi Ferrell
p3993
sg783
I1610612742
sg784
V11
p3994
sg785
g87
sg787
V00
p3995
sg789
g69
sg790
I1627812
ssI1627761
(dp3996
g979
VSaint Joseph's
p3997
sg981
V210
p3998
sg983
V2017
p3999
sg985
F23.0
sg986
VJUL 04, 1994
p4000
sg988
V6-6
p4001
sg990
VDeAndre' Bembry
p4002
sg992
I1610612737
sg993
V95
p4003
sg995
g87
sg996
V00
p4004
sg998
VF-G
p4005
sg1000
I1627761
ssI204456
(dp4006
g26
VArizona
p4007
sg28
V190
p4008
sg30
V2017
p4009
sg32
F25.0
sg33
VMAR 25, 1992
p4010
sg35
V6-2
p4011
sg37
VT.J. McConnell
p4012
sg39
I1610612755
sg40
V12
p4013
sg42
g43
sg44
V00
p4014
sg46
g69
sg48
I204456
ssI1627819
(dp4015
g979
VTexas
p4016
sg981
V170
p4017
sg983
V2017
p4018
sg985
F23.0
sg986
VJUL 11, 1994
p4019
sg988
V6-3
p4020
sg990
VIsaiah Taylor
p4021
sg992
I1610612737
sg993
V22
p4022
sg995
g87
sg996
V00
p4023
sg998
g69
sg1000
I1627819
ssI1627823
(dp4024
g50
Nsg51
V230
p4025
sg53
V2017
p4026
sg55
F22.0
sg56
VSEP 28, 1995
p4027
sg58
V6-9
p4028
sg60
VJuan Hernangomez
p4029
sg62
I1610612743
sg63
V41
p4030
sg65
g87
sg66
V00
p4031
sg68
g111
sg70
I1627823
ssI1627824
(dp4032
g541
Nsg543
V260
p4033
sg545
V2017
p4034
sg547
F21.0
sg548
VDEC 17, 1995
p4035
sg550
V6-8
p4036
sg552
VGuerschon Yabusele
p4037
sg554
I1610612738
sg555
V30
p4038
sg557
g526
sg558
V00
p4039
sg560
g111
sg561
I1627824
ssI1713
(dp4040
g282
VNorth Carolina
p4041
sg284
V220
p4042
sg286
V2017
p4043
sg288
F40.0
sg289
VJAN 26, 1977
p4044
sg291
V6-6
p4045
sg293
VVince Carter
p4046
sg295
I1610612758
sg296
V15
p4047
sg298
V19
p4048
sg299
V00
p4049
sg301
VG-F
p4050
sg302
I1713
ssI1627826
(dp4051
g690
Nsg692
V240
p4052
sg694
V2017
p4053
sg696
F20.0
sg697
VMAR 18, 1997
p4054
sg699
V7-1
p4055
sg701
VIvica Zubac
p4056
sg703
I1610612747
sg704
V40
p4057
sg705
g87
sg706
V00
p4058
sg708
g47
sg709
I1627826
ssI1627827
(dp4059
g770
VFlorida
p4060
sg772
V220
p4061
sg774
V2017
p4062
sg776
F24.0
sg777
VMAY 04, 1993
p4063
sg779
V6-8
p4064
sg781
VDorian Finney-Smith
p4065
sg783
I1610612742
sg784
V10
p4066
sg785
g87
sg787
V00
p4067
sg789
g111
sg790
I1627827
ssI1717
(dp4068
g770
VWurzburg, Germany
p4069
sg772
V245
p4070
sg774
V2017
p4071
sg776
F39.0
sg777
VJUN 19, 1978
p4072
sg779
V7-0
p4073
sg781
VDirk Nowitzki
p4074
sg783
I1610612742
sg784
V41
p4075
sg785
V19
p4076
sg787
V00
p4077
sg789
VF-C
p4078
sg790
I1717
ssI1627832
(dp4079
g156
VWichita State
p4080
sg158
V195
p4081
sg160
V2017
p4082
sg162
F23.0
sg163
VFEB 25, 1994
p4083
sg165
V6-0
p4084
sg167
VFred VanVleet
p4085
sg169
I1610612761
sg170
V23
p4086
sg172
g87
sg173
V00
p4087
sg175
g69
sg176
I1627832
ssI1627834
(dp4088
g282
Nsg284
V240
p4089
sg286
V2017
p4090
sg288
F20.0
sg289
VJUL 03, 1997
p4091
sg291
V7-1
p4092
sg293
VGeorgios Papagiannis
p4093
sg295
I1610612758
sg296
V13
p4094
sg298
g87
sg299
V00
p4095
sg301
g47
sg302
I1627834
ssI1627835
(dp4096
g392
Nsg394
V226
p4097
sg396
V2017
p4098
sg398
F23.0
sg399
VFEB 18, 1994
p4099
sg401
V6-8
p4100
sg403
VPaul Zipser
p4101
sg405
I1610612741
sg406
V16
p4102
sg408
g87
sg409
V00
p4103
sg411
g111
sg412
I1627835
ssI1627846
(dp4104
g541
VIowa State
p4105
sg543
V230
p4106
sg545
V2017
p4107
sg547
F24.0
sg548
VSEP 25, 1993
p4108
sg550
V6-6
p4109
sg552
VAbdel Nader
p4110
sg554
I1610612738
sg555
V28
p4111
sg557
g526
sg558
V00
p4112
sg560
g111
sg561
I1627846
ssI1627851
(dp4113
g642
Nsg644
V215
p4114
sg646
V2017
p4115
sg648
F28.0
sg649
VOCT 19, 1989
p4116
sg651
V6-9
p4117
sg653
VMindaugas Kuzminskas
p4118
sg655
I1610612752
sg656
V91
p4119
sg658
g87
sg659
V00
p4120
sg661
g111
sg662
I1627851
ssI1627852
(dp4121
g979
Nsg981
V195
p4122
sg983
V2017
p4123
sg985
F24.0
sg986
VMAR 02, 1993
p4124
sg988
V6-8
p4125
sg990
VNicolas Brussino
p4126
sg992
I1610612737
sg993
V16
p4127
sg995
g87
sg996
V00
p4128
sg998
g111
sg1000
I1627852
ssI1627853
(dp4129
g392
VVillanova
p4130
sg394
V195
p4131
sg396
V2017
p4132
sg398
F23.0
sg399
VMAR 26, 1994
p4133
sg401
V6-3
p4134
sg403
VRyan Arcidiacono
p4135
sg405
I1610612741
sg406
V15
p4136
sg408
g526
sg409
V00
p4137
sg411
g69
sg412
I1627853
ssI1627854
(dp4138
g178
VMichigan State
p4139
sg180
V190
p4140
sg182
V2017
p4141
sg184
F24.0
sg185
VJUL 23, 1993
p4142
sg187
V6-3
p4143
sg189
VBryn Forbes
p4144
sg191
I1610612759
sg192
V11
p4145
sg194
g87
sg196
V00
p4146
sg198
g69
sg199
I1627854
ssI1627855
(dp4147
g250
VFlorida State
p4148
sg252
V215
p4149
sg254
V2017
p4150
sg256
F25.0
sg257
VAUG 13, 1992
p4151
sg259
V6-8
p4152
sg261
VOkaro White
p4153
sg263
I1610612748
sg264
V15
p4154
sg266
g87
sg267
V00
p4155
sg269
g111
sg270
I1627855
ssI1627856
(dp4156
g178
VMichigan State
p4157
sg180
V240
p4158
sg182
V2017
p4159
sg184
F24.0
sg185
VAUG 05, 1993
p4160
sg187
V6-10
p4161
sg189
VMatt Costello
p4162
sg191
I1610612759
sg192
V10
p4163
sg194
g526
sg196
V00
p4164
sg198
VF-C
p4165
sg199
I1627856
ssI202362
(dp4166
g414
VCincinnati
p4167
sg416
V230
p4168
sg418
V2017
p4169
sg420
F27.0
sg421
VSEP 05, 1990
p4170
sg423
V6-6
p4171
sg425
VLance Stephenson
p4172
sg427
I1610612754
sg428
g87
sg430
g207
sg431
V00
p4173
sg433
g69
sg434
I202362
ssI1627875
(dp4174
g72
VGeorgia Tech
p4175
sg74
V226
p4176
sg76
V2017
p4177
sg78
F23.0
sg79
VMAR 28, 1994
p4178
sg81
V6-5
p4179
sg83
VMarcus Georges-Hunt
p4180
sg85
I1610612750
sg86
V13
p4181
sg88
g87
sg89
V00
p4182
sg91
g69
sg92
I1627875
ssI1627883
(dp4183
g1159
VTexas A&M
p4184
sg1161
V220
p4185
sg1163
V2017
p4186
sg1165
F24.0
sg1166
VMAY 27, 1993
p4187
sg1168
V6-7
p4188
sg1170
VJalen Jones
p4189
sg1172
I1610612740
sg1173
V12
p4190
sg1175
g526
sg1176
V00
p4191
sg1178
g111
sg1179
I1627883
ssI1627884
(dp4192
g348
VNevada-Las Vegas
p4193
sg350
V195
p4194
sg352
V2017
p4195
sg354
F20.0
sg355
VFEB 15, 1997
p4196
sg357
V6-7
p4197
sg359
VDerrick Jones Jr.
p4198
sg361
I1610612756
sg362
V10
p4199
sg363
g87
sg364
V00
p4200
sg366
VF-G
p4201
sg367
I1627884
ssI202498
(dp4202
g642
VDuke
p4203
sg644
V235
p4204
sg646
V2017
p4205
sg648
F29.0
sg649
VAPR 24, 1988
p4206
sg651
V6-8
p4207
sg653
VLance Thomas
p4208
sg655
I1610612752
sg656
V42
p4209
sg658
g606
sg659
V00
p4210
sg661
g111
sg662
I202498
ssI1627936
(dp4211
g690
VTexas A&M
p4212
sg692
V186
p4213
sg694
V2017
p4214
sg696
F23.0
sg697
VFEB 28, 1994
p4215
sg699
V6-5
p4216
sg701
VAlex Caruso
p4217
sg703
I1610612747
sg704
g587
sg705
g526
sg706
V00
p4218
sg708
g69
sg709
I1627936
ssI1891
(dp4219
g326
VArizona
p4220
sg328
V185
p4221
sg330
V2017
p4222
sg332
F40.0
sg333
VSEP 15, 1977
p4223
sg335
V6-2
p4224
sg337
VJason Terry
p4225
sg339
I1610612749
sg340
g109
sg342
V18
p4226
sg343
V00
p4227
sg345
g69
sg346
I1891
ssI1628021
(dp4228
g392
VCal Poly-S.L.O.
p4229
sg394
V209
p4230
sg396
V2017
p4231
sg398
F24.0
sg399
VJAN 14, 1993
p4232
sg401
V6-4
p4233
sg403
VDavid Nwaba
p4234
sg405
I1610612741
sg406
V11
p4235
sg408
g87
sg409
V00
p4236
sg411
g69
sg412
I1628021
ssI1628035
(dp4237
g156
VWisc.-Green Bay
p4238
sg158
V215
p4239
sg160
V2017
p4240
sg162
F25.0
sg163
VSEP 17, 1992
p4241
sg165
V6-8
p4242
sg167
VAlfonzo McKinnie
p4243
sg169
I1610612761
sg170
V34
p4244
sg172
g526
sg173
V00
p4245
sg175
g111
sg176
I1628035
ssI1938
(dp4246
g178
VBahia Blanca, Argentina
p4247
sg180
V205
p4248
sg182
V2017
p4249
sg184
F40.0
sg185
VJUL 28, 1977
p4250
sg187
V6-6
p4251
sg189
VManu Ginobili
p4252
sg191
I1610612759
sg192
V20
p4253
sg194
V15
p4254
sg196
V00
p4255
sg198
g69
sg199
I1938
ssI203084
(dp4256
g770
VNorth Carolina
p4257
sg772
V225
p4258
sg774
V2017
p4259
sg776
F25.0
sg777
VMAY 30, 1992
p4260
sg779
V6-8
p4261
sg781
VHarrison Barnes
p4262
sg783
I1610612742
sg784
V40
p4263
sg785
g19
sg787
V00
p4264
sg789
g111
sg790
I203084
ssI202681
(dp4265
g541
VDuke
p4266
sg543
V193
p4267
sg545
V2017
p4268
sg547
F25.0
sg548
VMAR 23, 1992
p4269
sg550
V6-3
p4270
sg552
VKyrie Irving
p4271
sg554
I1610612738
sg555
V11
p4272
sg557
g606
sg558
V00
p4273
sg560
g69
sg561
I202681
ssI202683
(dp4274
g642
VKentucky
p4275
sg644
V245
p4276
sg646
V2017
p4277
sg648
F25.0
sg649
VMAY 20, 1992
p4278
sg651
V6-11
p4279
sg653
VEnes Kanter
p4280
sg655
I1610612752
sg656
V00
p4281
sg658
g606
sg659
V00
p4282
sg661
g47
sg662
I202683
ssI202684
(dp4283
g748
VTexas
p4284
sg750
V238
p4285
sg752
V2017
p4286
sg754
F26.0
sg755
VMAR 13, 1991
p4287
sg757
V6-9
p4288
sg759
VTristan Thompson
p4289
sg761
I1610612739
sg762
V13
p4290
sg764
g606
sg765
V00
p4291
sg767
VC-F
p4292
sg768
I202684
ssI202685
(dp4293
g156
VUtena, Lithuania
p4294
sg158
V255
p4295
sg160
V2017
p4296
sg162
F25.0
sg163
VMAY 06, 1992
p4297
sg165
V7-0
p4298
sg167
VJonas Valanciunas
p4299
sg169
I1610612761
sg170
V17
p4300
sg172
g19
sg173
V00
p4301
sg175
g47
sg176
I202685
ssI202687
(dp4302
g2
VLubumbashi, DR Congo
p4303
sg4
V255
p4304
sg6
V2017
p4305
sg8
F25.0
sg9
VAUG 28, 1992
p4306
sg11
V6-9
p4307
sg13
VBismack Biyombo
p4308
sg15
I1610612753
sg16
V11
p4309
sg18
g606
sg20
V00
p4310
sg22
g47
sg24
I202687
ssI202688
(dp4311
g348
VKentucky
p4312
sg350
V195
p4313
sg352
V2017
p4314
sg354
F25.0
sg355
VDEC 02, 1991
p4315
sg357
V6-3
p4316
sg359
VBrandon Knight
p4317
sg361
I1610612756
sg362
V11
p4318
sg363
g606
sg364
V00
p4319
sg366
g69
sg367
I202688
ssI202691
(dp4320
g460
VWashington State
p4321
sg462
V215
p4322
sg464
V2017
p4323
sg466
F27.0
sg467
VFEB 08, 1990
p4324
sg469
V6-7
p4325
sg471
VKlay Thompson
p4326
sg473
I1610612744
sg474
V11
p4327
sg475
g606
sg476
V00
p4328
sg478
g69
sg479
I202691
ssI202692
(dp4329
g369
VColorado
p4330
sg371
V214
p4331
sg373
V2017
p4332
sg375
F26.0
sg376
VJUL 20, 1991
p4333
sg378
V6-6
p4334
sg380
VAlec Burks
p4335
sg382
I1610612762
sg383
V10
p4336
sg385
g606
sg387
V00
p4337
sg389
g69
sg390
I202692
ssI202693
(dp4338
g304
VKansas
p4339
sg306
V245
p4340
sg308
V2017
p4341
sg310
F28.0
sg311
VSEP 02, 1989
p4342
sg313
V6-10
p4343
sg315
VMarkieff Morris
p4344
sg317
I1610612764
sg318
g19
sg320
g606
sg321
V00
p4345
sg323
g111
sg324
I202693
ssI202694
(dp4346
g541
VKansas
p4347
sg543
V235
p4348
sg545
V2017
p4349
sg547
F28.0
sg548
VSEP 02, 1989
p4350
sg550
V6-9
p4351
sg552
VMarcus Morris
p4352
sg554
I1610612738
sg555
V13
p4353
sg557
g606
sg558
V00
p4354
sg560
g111
sg561
I202694
ssI202695
(dp4355
g178
VSan Diego State
p4356
sg180
V230
p4357
sg182
V2017
p4358
sg184
F26.0
sg185
VJUN 29, 1991
p4359
sg187
V6-7
p4360
sg189
VKawhi Leonard
p4361
sg191
I1610612759
sg192
g43
sg194
g606
sg196
V00
p4362
sg198
g111
sg199
I202695
ssI202696
(dp4363
g2
VSouthern California
p4364
sg4
V260
p4365
sg6
V2017
p4366
sg8
F27.0
sg9
VOCT 24, 1990
p4367
sg11
V7-0
p4368
sg13
VNikola Vucevic
p4369
sg15
I1610612753
sg16
g881
sg18
g606
sg20
V00
p4370
sg22
g47
sg24
I202696
ssI202697
(dp4371
g748
VGeorgia Tech
p4372
sg750
V220
p4373
sg752
V2017
p4374
sg754
F27.0
sg755
VJUN 26, 1990
p4375
sg757
V6-5
p4376
sg759
VIman Shumpert
p4377
sg761
I1610612739
sg762
g587
sg764
g606
sg765
V00
p4378
sg767
g69
sg768
I202697
ssI202702
(dp4379
g50
VMorehead State
p4380
sg51
V228
p4381
sg53
V2017
p4382
sg55
F27.0
sg56
VNOV 19, 1989
p4383
sg58
V6-8
p4384
sg60
VKenneth Faried
p4385
sg62
I1610612743
sg63
V35
p4386
sg65
g606
sg66
V00
p4387
sg68
g111
sg70
I202702
ssI202703
(dp4388
g392
Nsg394
V238
p4389
sg396
V2017
p4390
sg398
F26.0
sg399
VFEB 11, 1991
p4391
sg401
V6-10
p4392
sg403
VNikola Mirotic
p4393
sg405
I1610612741
sg406
V44
p4394
sg408
g109
sg409
V00
p4395
sg411
g111
sg412
I202703
ssI202709
(dp4396
g414
VTexas
p4397
sg416
V190
p4398
sg418
V2017
p4399
sg420
F26.0
sg421
VAUG 20, 1991
p4400
sg423
V6-3
p4401
sg425
VCory Joseph
p4402
sg427
I1610612754
sg428
g606
sg430
g606
sg431
V00
p4403
sg433
g69
sg434
I202709
ssI202710
(dp4404
g72
VMarquette
p4405
sg74
V236
p4406
sg76
V2017
p4407
sg78
F28.0
sg79
VSEP 14, 1989
p4408
sg81
V6-8
p4409
sg83
VJimmy Butler
p4410
sg85
I1610612750
sg86
V23
p4411
sg88
g606
sg89
V00
p4412
sg91
g69
sg92
I202710
ssI202711
(dp4413
g414
Nsg416
V230
p4414
sg418
V2017
p4415
sg420
F28.0
sg421
VAPR 18, 1989
p4416
sg423
V6-8
p4417
sg425
VBojan Bogdanovic
p4418
sg427
I1610612754
sg428
V44
p4419
sg430
g109
sg431
V00
p4420
sg433
g111
sg434
I202711
ssI202713
(dp4421
g509
VDuke
p4422
sg511
V228
p4423
sg513
V2017
p4424
sg515
F29.0
sg516
VMAY 04, 1988
p4425
sg518
V6-8
p4426
sg520
VKyle Singler
p4427
sg522
I1610612760
sg523
V15
p4428
sg525
g19
sg527
V00
p4429
sg529
g111
sg530
I202713
ssI202714
(dp4430
g2
VButler
p4431
sg4
V203
p4432
sg6
V2017
p4433
sg8
F27.0
sg9
VAPR 22, 1990
p4434
sg11
V6-3
p4435
sg13
VShelvin Mack
p4436
sg15
I1610612753
sg16
g207
sg18
g606
sg20
V00
p4437
sg22
g69
sg24
I202714
ssI202718
(dp4438
g135
VFlorida
p4439
sg137
V230
p4440
sg139
V2017
p4441
sg141
F29.0
sg142
VOCT 25, 1988
p4442
sg144
V6-10
p4443
sg146
VChandler Parsons
p4444
sg148
I1610612763
sg149
V25
p4445
sg150
g606
sg151
V00
p4446
sg153
g111
sg154
I202718
ssI202722
(dp4447
g178
Nsg180
V210
p4448
sg182
V2017
p4449
sg184
F24.0
sg185
VNOV 12, 1992
p4450
sg187
V6-10
p4451
sg189
VDavis Bertans
p4452
sg191
I1610612759
sg192
V42
p4453
sg194
g87
sg196
V00
p4454
sg198
g111
sg199
I202722
ssI1627815
(dp4455
g304
VMiami (Fla.)
p4456
sg306
V200
p4457
sg308
V2017
p4458
sg310
F24.0
sg311
VDEC 21, 1992
p4459
sg313
V6-6
p4460
sg315
VSheldon Mac
p4461
sg317
I1610612764
sg318
g881
sg320
g87
sg321
V00
p4462
sg323
VG-F
p4463
sg324
I1627815
ssI202732
(dp4464
g326
VKentucky
p4465
sg328
V209
p4466
sg330
V2017
p4467
sg332
F29.0
sg333
VMAR 31, 1988
p4468
sg335
V6-6
p4469
sg337
VDeAndre Liggins
p4470
sg339
I1610612749
sg340
V25
p4471
sg342
g587
sg343
V00
p4472
sg345
g69
sg346
I202732
ssI202734
(dp4473
g1159
VPurdue
p4474
sg1161
V191
p4475
sg1163
V2017
p4476
sg1165
F28.0
sg1166
VFEB 25, 1989
p4477
sg1168
V6-4
p4478
sg1170
VE'Twaun Moore
p4479
sg1172
I1610612740
sg1173
V55
p4480
sg1175
g606
sg1176
V00
p4481
sg1178
g69
sg1179
I202734
ssI1627816
(dp4482
g414
VKentucky
p4483
sg416
V235
p4484
sg418
V2017
p4485
sg420
F24.0
sg421
VSEP 06, 1993
p4486
sg423
V6-9
p4487
sg425
VAlex Poythress
p4488
sg427
I1610612754
sg428
g64
sg430
g87
sg431
V00
p4489
sg433
g111
sg434
I1627816
ssI202738
(dp4490
g748
VWashington
p4491
sg750
V185
p4492
sg752
V2017
p4493
sg754
F28.0
sg755
VFEB 07, 1989
p4494
sg757
V5-9
p4495
sg759
VIsaiah Thomas
p4496
sg761
I1610612739
sg762
g109
sg764
g606
sg765
V00
p4497
sg767
g69
sg768
I202738
ssI2037
(dp4498
g72
VMichigan
p4499
sg74
V185
p4500
sg76
V2017
p4501
sg78
F37.0
sg79
VMAR 20, 1980
p4502
sg81
V6-5
p4503
sg83
VJamal Crawford
p4504
sg85
I1610612750
sg86
V11
p4505
sg88
V17
p4506
sg89
V00
p4507
sg91
g69
sg92
I2037
ss.