(dp0
I1626150
(dp1
VSCHOOL
p2
VKentucky
p3
sVWEIGHT
p4
V213
p5
sVSEASON
p6
V2017
p7
sVAGE
p8
F23.0
sVBIRTH_DATE
p9
VOCT 28, 1994
p10
sVHEIGHT
p11
V6-6
p12
sVPLAYER
p13
VAndrew Harrison
p14
sVTeamID
p15
I1610612763
sVNUM
p16
V5
p17
sVEXP
p18
V1
p19
sVLeagueID
p20
V00
p21
sVPOSITION
p22
VG
p23
sVPLAYER_ID
p24
I1626150
ssI1626153
(dp25
VSCHOOL
p26
VUtah
p27
sVWEIGHT
p28
V190
p29
sVSEASON
p30
V2017
p31
sVAGE
p32
F25.0
sVBIRTH_DATE
p33
VAPR 26, 1992
p34
sVHEIGHT
p35
V6-5
p36
sVPLAYER
p37
VDelon Wright
p38
sVTeamID
p39
I1610612761
sVNUM
p40
V55
p41
sVEXP
p42
V2
p43
sVLeagueID
p44
V00
p45
sVPOSITION
p46
g23
sVPLAYER_ID
p47
I1626153
ssI1626159
(dp48
VSCHOOL
p49
VDuke
p50
sVWEIGHT
p51
V225
p52
sVSEASON
p53
V2017
p54
sVAGE
p55
F21.0
sVBIRTH_DATE
p56
VMAR 26, 1996
p57
sVHEIGHT
p58
V6-7
p59
sVPLAYER
p60
VJustise Winslow
p61
sVTeamID
p62
I1610612748
sVNUM
p63
V20
p64
sVEXP
p65
g43
sVLeagueID
p66
V00
p67
sVPOSITION
p68
VF
p69
sVPLAYER_ID
p70
I1626159
ssI200757
(dp71
VSCHOOL
p72
VVevey, Switzerland
p73
sVWEIGHT
p74
V220
p75
sVSEASON
p76
V2017
p77
sVAGE
p78
F33.0
sVBIRTH_DATE
p79
VMAY 02, 1984
p80
sVHEIGHT
p81
V6-7
p82
sVPLAYER
p83
VThabo Sefolosha
p84
sVTeamID
p85
I1610612762
sVNUM
p86
V22
p87
sVEXP
p88
V11
p89
sVLeagueID
p90
V00
p91
sVPOSITION
p92
g69
sVPLAYER_ID
p93
I200757
ssI2617
(dp94
g49
VFlorida
p95
sg51
V235
p96
sg53
V2017
p97
sg55
F37.0
sg56
VJUN 09, 1980
p98
sg58
V6-8
p99
sg60
VUdonis Haslem
p100
sg62
I1610612748
sg63
V40
p101
sg65
V14
p102
sg66
V00
p103
sg68
g69
sg70
I2617
ssI1626173
(dp104
VSCHOOL
p105
VUNLV
p106
sVWEIGHT
p107
V202
p108
sVSEASON
p109
V2017
p110
sVAGE
p111
F21.0
sVBIRTH_DATE
p112
VAUG 16, 1996
p113
sVHEIGHT
p114
V6-6
p115
sVPLAYER
p116
VRashad Vaughn
p117
sVTeamID
p118
I1610612749
sVNUM
p119
V20
p120
sVEXP
p121
g43
sVLeagueID
p122
V00
p123
sVPOSITION
p124
g23
sVPLAYER_ID
p125
I1626173
ssI1626175
(dp126
g49
VLouisiana State
p127
sg51
V235
p128
sg53
V2017
p129
sg55
F23.0
sg56
VJUL 09, 1994
p130
sg58
V6-8
p131
sg60
VJordan Mickey
p132
sg62
I1610612748
sg63
V25
p133
sg65
g43
sg66
V00
p134
sg68
VC-F
p135
sg70
I1626175
ssI200768
(dp136
g26
VVillanova
p137
sg28
V205
p138
sg30
V2017
p139
sg32
F31.0
sg33
VMAR 25, 1986
p140
sg35
V6-0
p141
sg37
VKyle Lowry
p142
sg39
I1610612761
sg40
V7
p143
sg42
V11
p144
sg44
V00
p145
sg46
g23
sg47
I200768
ssI1626177
(dp146
VSCHOOL
p147
VKentucky
p148
sVWEIGHT
p149
V255
p150
sVSEASON
p151
V2017
p152
sVAGE
p153
F22.0
sVBIRTH_DATE
p154
VSEP 22, 1995
p155
sVHEIGHT
p156
V7-0
p157
sVPLAYER
p158
VDakari Johnson
p159
sVTeamID
p160
I1610612760
sVNUM
p161
V44
p162
sVEXP
p163
VR
p164
sVLeagueID
p165
V00
p166
sVPOSITION
p167
VC
p168
sVPLAYER_ID
p169
I1626177
ssI1626181
(dp170
g26
VUCLA
p171
sg28
V215
p172
sg30
V2017
p173
sg32
F24.0
sg33
VMAY 25, 1993
p174
sg35
V6-4
p175
sg37
VNorman Powell
p176
sg39
I1610612761
sg40
V24
p177
sg42
g43
sg44
V00
p178
sg46
VF-G
p179
sg47
I1626181
ssI1626185
(dp180
g2
VLouisiana State
p181
sg4
V239
p182
sg6
V2017
p183
sg8
F23.0
sg9
VMAY 24, 1994
p184
sg11
V6-10
p185
sg13
VJarell Martin
p186
sg15
I1610612763
sg16
g19
sg18
g43
sg20
V00
p187
sg22
g69
sg24
I1626185
ssI202324
(dp188
g72
VGeorgia Tech
p189
sg74
V265
p190
sg76
V2017
p191
sg78
F26.0
sg79
VJUL 15, 1991
p192
sg81
V6-10
p193
sg83
VDerrick Favors
p194
sg85
I1610612762
sg86
V15
p195
sg88
g143
sg90
V00
p196
sg92
VF-C
p197
sg93
I202324
ssI202327
(dp198
g72
VBaylor
p199
sg74
V245
p200
sg76
V2017
p201
sg78
F30.0
sg79
VMAY 20, 1987
p202
sg81
V6-10
p203
sg83
VEkpe Udoh
p204
sg85
I1610612762
sg86
V33
p205
sg88
g17
sg90
V00
p206
sg92
VC-F
p207
sg93
I202327
ssI1627738
(dp208
g2
VMichigan State
p209
sg4
V237
p210
sg6
V2017
p211
sg8
F20.0
sg9
VDEC 02, 1996
p212
sg11
V6-11
p213
sg13
VDeyonta Davis
p214
sg15
I1610612763
sg16
V21
p215
sg18
g19
sg20
V00
p216
sg22
VC-F
p217
sg24
I1627738
ssI202331
(dp218
g147
VFresno State
p219
sg149
V220
p220
sg151
V2017
p221
sg153
F27.0
sg154
VMAY 02, 1990
p222
sg156
V6-9
p223
sg158
VPaul George
p224
sg160
I1610612760
sg161
V13
p225
sg163
g143
sg165
V00
p226
sg167
g69
sg169
I202331
ssI1626205
(dp227
g2
VTexas-El Paso
p228
sg4
V208
p229
sg6
V2017
p230
sg8
F23.0
sg9
VAUG 05, 1994
p231
sg11
V6-8
p232
sg13
VVincent Hunter
p233
sg15
I1610612763
sg16
V32
p234
sg18
g164
sg20
V00
p235
sg22
g69
sg24
I1626205
ssI202335
(dp236
g147
VKentucky
p237
sg149
V230
p238
sg151
V2017
p239
sg153
F28.0
sg154
VMAR 14, 1989
p240
sg156
V6-9
p241
sg158
VPatrick Patterson
p242
sg160
I1610612760
sg161
V54
p243
sg163
g143
sg165
V00
p244
sg167
g69
sg169
I202335
ssI202339
(dp245
g105
VKentucky
p246
sg107
V205
p247
sg109
V2017
p248
sg111
F27.0
sg112
VDEC 09, 1989
p249
sg114
V6-1
p250
sg116
VEric Bledsoe
p251
sg118
I1610612749
sg119
V6
p252
sg121
g143
sg122
V00
p253
sg124
g23
sg125
I202339
ssI1627748
(dp254
g105
Nsg107
V223
p255
sg109
V2017
p256
sg111
F20.0
sg112
VFEB 25, 1997
p257
sg114
V7-1
p258
sg116
VThon Maker
p259
sg118
I1610612749
sg119
g143
sg121
g19
sg122
V00
p260
sg124
VC-F
p261
sg125
I1627748
ssI1627751
(dp262
g26
VUtah
p263
sg28
V230
p264
sg30
V2017
p265
sg32
F22.0
sg33
VOCT 15, 1995
p266
sg35
V7-0
p267
sg37
VJakob Poeltl
p268
sg39
I1610612761
sg40
V42
p269
sg42
g19
sg44
V00
p270
sg46
g168
sg47
I1627751
ssI1626220
(dp271
g72
VBaylor
p272
sg74
V226
p273
sg76
V2017
p274
sg78
F24.0
sg79
VJUN 05, 1993
p275
sg81
V6-6
p276
sg83
VRoyce O'Neale
p277
sg85
I1610612762
sg86
V23
p278
sg88
g164
sg90
V00
p279
sg92
g69
sg93
I1626220
ssI1627762
(dp280
g105
VWeber State
p281
sg107
V235
p282
sg109
V2017
p283
sg111
F23.0
sg112
VJAN 28, 1994
p284
sg114
V6-9
p285
sg116
VJoel Bolomboy
p286
sg118
I1610612749
sg119
V24
p287
sg121
g19
sg122
V00
p288
sg124
VF-C
p289
sg125
I1627762
ssI202355
(dp290
g49
VMarshall
p291
sg51
V265
p292
sg53
V2017
p293
sg55
F28.0
sg56
VJUN 13, 1989
p294
sg58
V7-0
p295
sg60
VHassan Whiteside
p296
sg62
I1610612748
sg63
V21
p297
sg65
g17
sg66
V00
p298
sg68
g168
sg70
I202355
ssI1627772
(dp299
g147
VConnecticut
p300
sg149
V195
p301
sg151
V2017
p302
sg153
F22.0
sg154
VAUG 08, 1995
p303
sg156
V6-7
p304
sg158
VDaniel Hamilton
p305
sg160
I1610612760
sg161
V25
p306
sg163
g164
sg165
V00
p307
sg167
g23
sg169
I1627772
ssI1627773
(dp308
g49
VPurdue
p309
sg51
V260
p310
sg53
V2017
p311
sg55
F25.0
sg56
VAUG 27, 1992
p312
sg58
V7-0
p313
sg60
VAJ Hammons
p314
sg62
I1610612748
sg63
V4
p315
sg65
g19
sg66
V00
p316
sg68
g168
sg70
I1627773
ssI1627780
(dp317
g105
VOregon State
p318
sg107
V190
p319
sg109
V2017
p320
sg111
F24.0
sg112
VDEC 01, 1992
p321
sg114
V6-3
p322
sg116
VGary Payton II
p323
sg118
I1610612749
sg119
V0
p324
sg121
g19
sg122
V00
p325
sg124
g23
sg125
I1627780
ssI203500
(dp326
g147
VPittsburgh
p327
sg149
V255
p328
sg151
V2017
p329
sg153
F24.0
sg154
VJUL 20, 1993
p330
sg156
V7-0
p331
sg158
VSteven Adams
p332
sg160
I1610612760
sg161
V12
p333
sg163
g315
sg165
V00
p334
sg167
g168
sg169
I203500
ssI1627782
(dp335
g2
VKansas
p336
sg4
V230
p337
sg6
V2017
p338
sg8
F23.0
sg9
VSEP 30, 1994
p339
sg11
V6-5
p340
sg13
VWayne Selden
p341
sg15
I1610612763
sg16
g143
sg18
g19
sg20
V00
p342
sg22
VG-F
p343
sg24
I1627782
ssI1627783
(dp344
g26
VNew Mexico State
p345
sg28
V230
p346
sg30
V2017
p347
sg32
F23.0
sg33
VAPR 02, 1994
p348
sg35
V6-9
p349
sg37
VPascal Siakam
p350
sg39
I1610612761
sg40
V43
p351
sg42
g19
sg44
V00
p352
sg46
g69
sg47
I1627783
ssI203918
(dp353
g72
VDuke
p354
sg74
V206
p355
sg76
V2017
p356
sg78
F25.0
sg79
VOCT 20, 1992
p357
sg81
V6-8
p358
sg83
VRodney Hood
p359
sg85
I1610612762
sg86
g17
sg88
V3
p360
sg90
V00
p361
sg92
g23
sg93
I203918
ssI1626259
(dp362
g26
VHoly Cross
p363
sg28
V210
p364
sg30
V2017
p365
sg32
F24.0
sg33
VMAR 06, 1993
p366
sg35
V6-7
p367
sg37
VMalcolm Miller
p368
sg39
I1610612761
sg40
V13
p369
sg42
g164
sg44
V00
p370
sg46
g69
sg47
I1626259
ssI203924
(dp371
g147
VSyracuse
p372
sg149
V220
p373
sg151
V2017
p374
sg153
F23.0
sg154
VMAR 12, 1994
p375
sg156
V6-9
p376
sg158
VJerami Grant
p377
sg160
I1610612760
sg161
V9
p378
sg163
g360
sg165
V00
p379
sg167
g69
sg169
I203924
ssI2207
(dp380
g72
VArkansas
p381
sg74
V240
p382
sg76
V2017
p383
sg78
F36.0
sg79
VJUN 29, 1981
p384
sg81
V6-7
p385
sg83
VJoe Johnson
p386
sg85
I1610612762
sg86
g252
sg88
V16
p387
sg90
V00
p388
sg92
VG-F
p389
sg93
I2207
ssI203953
(dp390
g105
VDuke
p391
sg107
V250
p392
sg109
V2017
p393
sg111
F22.0
sg112
VMAR 15, 1995
p394
sg114
V6-8
p395
sg116
VJabari Parker
p396
sg118
I1610612749
sg119
V12
p397
sg121
g360
sg122
V00
p398
sg124
g69
sg125
I203953
ssI1627763
(dp399
g105
VVirginia
p400
sg107
V215
p401
sg109
V2017
p402
sg111
F24.0
sg112
VDEC 11, 1992
p403
sg114
V6-5
p404
sg116
VMalcolm Brogdon
p405
sg118
I1610612749
sg119
V13
p406
sg121
g19
sg122
V00
p407
sg124
g23
sg125
I1627763
ssI203957
(dp408
g72
Nsg74
V190
p409
sg76
V2017
p410
sg78
F22.0
sg79
VJUL 13, 1995
p411
sg81
V6-6
p412
sg83
VDante Exum
p413
sg85
I1610612762
sg86
V11
p414
sg88
g43
sg90
V00
p415
sg92
g23
sg93
I203957
ssI1627832
(dp416
g26
VWichita State
p417
sg28
V195
p418
sg30
V2017
p419
sg32
F23.0
sg33
VFEB 25, 1994
p420
sg35
V6-0
p421
sg37
VFred VanVleet
p422
sg39
I1610612761
sg40
V23
p423
sg42
g19
sg44
V00
p424
sg46
g23
sg47
I1627832
ssI203962
(dp425
g147
VStanford
p426
sg149
V230
p427
sg151
V2017
p428
sg153
F25.0
sg154
VDEC 19, 1991
p429
sg156
V6-7
p430
sg158
VJosh Huestis
p431
sg160
I1610612760
sg161
V34
p432
sg163
g43
sg165
V00
p433
sg167
g69
sg169
I203962
ssI203460
(dp434
g147
VColorado
p435
sg149
V210
p436
sg151
V2017
p437
sg153
F25.0
sg154
VDEC 04, 1991
p438
sg156
V6-7
p439
sg158
VAndre Roberson
p440
sg160
I1610612760
sg161
V21
p441
sg163
g315
sg165
V00
p442
sg167
g23
sg169
I203460
ssI203463
(dp443
g2
VKansas
p444
sg4
V195
p445
sg6
V2017
p446
sg8
F24.0
sg9
VFEB 11, 1993
p447
sg11
V6-5
p448
sg13
VBen McLemore
p449
sg15
I1610612763
sg16
V23
p450
sg18
g315
sg20
V00
p451
sg22
g23
sg24
I203463
ssI1627855
(dp452
g49
VFlorida State
p453
sg51
V215
p454
sg53
V2017
p455
sg55
F25.0
sg56
VAUG 13, 1992
p456
sg58
V6-8
p457
sg60
VOkaro White
p458
sg62
I1610612748
sg63
V15
p459
sg65
g19
sg66
V00
p460
sg68
g69
sg70
I1627855
ssI201936
(dp461
g2
VMemphis
p462
sg4
V220
p463
sg6
V2017
p464
sg8
F28.0
sg9
VSEP 19, 1989
p465
sg11
V6-6
p466
sg13
VTyreke Evans
p467
sg15
I1610612763
sg16
V12
p468
sg18
V8
p469
sg20
V00
p470
sg22
VG-F
p471
sg24
I201936
ssI201937
(dp472
g72
VEl Masnou, Spain
p473
sg74
V190
p474
sg76
V2017
p475
sg78
F27.0
sg79
VOCT 21, 1990
p476
sg81
V6-4
p477
sg83
VRicky Rubio
p478
sg85
I1610612762
sg86
g360
sg88
g252
sg90
V00
p479
sg92
g23
sg93
I201937
ssI201942
(dp480
g26
VSouthern California
p481
sg28
V220
p482
sg30
V2017
p483
sg32
F28.0
sg33
VAUG 07, 1989
p484
sg35
V6-7
p485
sg37
VDeMar DeRozan
p486
sg39
I1610612761
sg40
V10
p487
sg42
g469
sg44
V00
p488
sg46
g23
sg47
I201942
ssI1628378
(dp489
g72
VLouisville
p490
sg74
V215
p491
sg76
V2017
p492
sg78
F21.0
sg79
VSEP 07, 1996
p493
sg81
V6-3
p494
sg83
VDonovan Mitchell
p495
sg85
I1610612762
sg86
V45
p496
sg88
g164
sg90
V00
p497
sg92
g23
sg93
I1628378
ssI201949
(dp498
g49
VWake Forest
p499
sg51
V240
p500
sg53
V2017
p501
sg55
F30.0
sg56
VFEB 20, 1987
p502
sg58
V6-8
p503
sg60
VJames Johnson
p504
sg62
I1610612748
sg63
V16
p505
sg65
g469
sg66
V00
p506
sg68
g69
sg70
I201949
ssI203998
(dp507
g26
Nsg28
V205
p508
sg30
V2017
p509
sg32
F22.0
sg33
VSEP 21, 1995
p510
sg35
V6-9
p511
sg37
VBruno Caboclo
p512
sg39
I1610612761
sg40
g17
sg42
g360
sg44
V00
p513
sg46
g69
sg47
I203998
ssI1628384
(dp514
g26
VIndiana
p515
sg28
V235
p516
sg30
V2017
p517
sg32
F20.0
sg33
VJUL 17, 1997
p518
sg35
V6-8
p519
sg37
VOG Anunoby
p520
sg39
I1610612761
sg40
g360
sg42
g164
sg44
V00
p521
sg46
g69
sg47
I1628384
ssI203489
(dp522
g72
VSouth Dakota State
p523
sg74
V190
p524
sg76
V2017
p525
sg78
F26.0
sg79
VMAY 15, 1991
p526
sg81
V6-4
p527
sg83
VNate Wolters
p528
sg85
I1610612762
sg86
V16
p529
sg88
g43
sg90
V00
p530
sg92
g23
sg93
I203489
ssI1628389
(dp531
g49
VKentucky
p532
sg51
V255
p533
sg53
V2017
p534
sg55
F20.0
sg56
VJUL 18, 1997
p535
sg58
V6-10
p536
sg60
VBam Adebayo
p537
sg62
I1610612748
sg63
V13
p538
sg65
g164
sg66
V00
p539
sg68
VC-F
p540
sg70
I1628389
ssI1628390
(dp541
g147
Nsg149
V184
p542
sg151
V2017
p543
sg153
F19.0
sg154
VMAY 17, 1998
p544
sg156
V6-7
p545
sg158
VTerrance Ferguson
p546
sg160
I1610612760
sg161
V23
p547
sg163
g164
sg165
V00
p548
sg167
g23
sg169
I1628390
ssI1628391
(dp549
g105
VMichigan
p550
sg107
V236
p551
sg109
V2017
p552
sg111
F21.0
sg112
VFEB 19, 1996
p553
sg114
V6-10
p554
sg116
VD.J. Wilson
p555
sg118
I1610612749
sg119
g17
sg121
g164
sg122
V00
p556
sg124
g69
sg125
I1628391
ssI203497
(dp557
g72
VFrance
p558
sg74
V245
p559
sg76
V2017
p560
sg78
F25.0
sg79
VJUN 26, 1992
p561
sg81
V7-1
p562
sg83
VRudy Gobert
p563
sg85
I1610612762
sg86
V27
p564
sg88
g315
sg90
V00
p565
sg92
g168
sg93
I203497
ssI1628396
(dp566
g72
VNorth Carolina
p567
sg74
V248
p568
sg76
V2017
p569
sg78
F19.0
sg79
VJAN 08, 1998
p570
sg81
V6-10
p571
sg83
VTony Bradley
p572
sg85
I1610612762
sg86
V13
p573
sg88
g164
sg90
V00
p574
sg92
g168
sg93
I1628396
ssI1628397
(dp575
g2
VCalifornia
p576
sg4
V220
p577
sg6
V2017
p578
sg8
F20.0
sg9
VFEB 04, 1997
p579
sg11
V6-10
p580
sg13
VIvan Rabb
p581
sg15
I1610612763
sg16
V10
p582
sg18
g164
sg20
V00
p583
sg22
g69
sg24
I1628397
ssI203503
(dp584
g105
VNew Mexico
p585
sg107
V221
p586
sg109
V2017
p587
sg111
F26.0
sg112
VNOV 10, 1991
p588
sg114
V6-7
p589
sg116
VTony Snell
p590
sg118
I1610612749
sg119
V21
p591
sg121
g315
sg122
V00
p592
sg124
g23
sg125
I203503
ssI203507
(dp593
g105
VGreece
p594
sg107
V222
p595
sg109
V2017
p596
sg111
F22.0
sg112
VDEC 06, 1994
p597
sg114
V6-11
p598
sg116
VGiannis Antetokounmpo
p599
sg118
I1610612749
sg119
V34
p600
sg121
g315
sg122
V00
p601
sg124
g69
sg125
I203507
ssI204020
(dp602
g49
VFresno State
p603
sg51
V190
p604
sg53
V2017
p605
sg55
F25.0
sg56
VMAY 07, 1992
p606
sg58
V6-4
p607
sg60
VTyler Johnson
p608
sg62
I1610612748
sg63
g469
sg65
g360
sg66
V00
p609
sg68
g23
sg70
I204020
ssI201973
(dp610
g72
VKinna, Sweden
p611
sg74
V231
p612
sg76
V2017
p613
sg78
F30.0
sg79
VMAR 02, 1987
p614
sg81
V6-10
p615
sg83
VJonas Jerebko
p616
sg85
I1610612762
sg86
g469
sg88
g143
sg90
V00
p617
sg92
g69
sg93
I201973
ssI203512
(dp618
g26
Nsg28
V220
p619
sg30
V2017
p620
sg32
F25.0
sg33
VJUL 26, 1992
p621
sg35
V7-0
p622
sg37
VLucas Nogueira
p623
sg39
I1610612761
sg40
V92
p624
sg42
g360
sg44
V00
p625
sg46
g168
sg47
I203512
ssI203516
(dp626
g2
VLong Beach State
p627
sg4
V210
p628
sg6
V2017
p629
sg8
F27.0
sg9
VJUL 01, 1990
p630
sg11
V6-7
p631
sg13
VJames Ennis III
p632
sg15
I1610612763
sg16
g469
sg18
g360
sg20
V00
p633
sg22
g69
sg24
I203516
ssI203518
(dp634
g147
Nsg149
V190
p635
sg151
V2017
p636
sg153
F24.0
sg154
VAUG 01, 1993
p637
sg156
V6-6
p638
sg158
VAlex Abrines
p639
sg160
I1610612760
sg161
g469
sg163
g19
sg165
V00
p640
sg167
g23
sg169
I203518
ssI1628415
(dp641
g2
VOregon
p642
sg4
V220
p643
sg6
V2017
p644
sg8
F21.0
sg9
VJAN 22, 1996
p645
sg11
V6-6
p646
sg13
VDillon Brooks
p647
sg15
I1610612763
sg16
V24
p648
sg18
g164
sg20
V00
p649
sg22
VF-G
p650
sg24
I1628415
ssI203521
(dp651
g105
VSaint Mary's (CA)
p652
sg107
V198
p653
sg109
V2017
p654
sg111
F27.0
sg112
VSEP 08, 1990
p655
sg114
V6-4
p656
sg116
VMatthew Dellavedova
p657
sg118
I1610612749
sg119
g469
sg121
g315
sg122
V00
p658
sg124
g23
sg125
I203521
ssI203526
(dp659
g72
Nsg74
V179
p660
sg76
V2017
p661
sg78
F25.0
sg79
VMAY 19, 1992
p662
sg81
V6-1
p663
sg83
VRaul Neto
p664
sg85
I1610612762
sg86
V25
p665
sg88
g43
sg90
V00
p666
sg92
g23
sg93
I203526
ssI1628424
(dp667
g2
VArizona
p668
sg4
V170
p669
sg6
V2017
p670
sg8
F20.0
sg9
VJUL 04, 1997
p671
sg11
V6-4
p672
sg13
VKobi Simmons
p673
sg15
I1610612763
sg16
g43
sg18
g164
sg20
V00
p674
sg22
g23
sg24
I1628424
ssI1628425
(dp675
g105
VSouthern Methodist
p676
sg107
V230
p677
sg109
V2017
p678
sg111
F22.0
sg112
VFEB 10, 1995
p679
sg114
V6-6
p680
sg116
VSterling Brown
p681
sg118
I1610612749
sg119
V23
p682
sg121
g164
sg122
V00
p683
sg124
g23
sg125
I1628425
ssI101139
(dp684
g26
VSkyline HS (TX)
p685
sg28
V225
p686
sg30
V2017
p687
sg32
F30.0
sg33
VMAR 18, 1987
p688
sg35
V6-6
p689
sg37
VCJ Miles
p690
sg39
I1610612761
sg40
g324
sg42
V12
p691
sg44
V00
p692
sg46
VF-G
p693
sg47
I101139
ssI203547
(dp694
g72
VCampbell
p695
sg74
V205
p696
sg76
V2017
p697
sg78
F27.0
sg79
VMAY 26, 1990
p698
sg81
V6-8
p699
sg83
VEric Griffin
p700
sg85
I1610612762
sg86
V17
p701
sg88
g164
sg90
V00
p702
sg92
VC-F
p703
sg93
I203547
ssI204060
(dp704
g72
Nsg74
V226
p705
sg76
V2017
p706
sg78
F30.0
sg79
VOCT 02, 1987
p707
sg81
V6-8
p708
sg83
VJoe Ingles
p709
sg85
I1610612762
sg86
g43
sg88
g360
sg90
V00
p710
sg92
g69
sg93
I204060
ssI203482
(dp711
g49
VGonzaga
p712
sg51
V245
p713
sg53
V2017
p714
sg55
F26.0
sg56
VAPR 19, 1991
p715
sg58
V7-0
p716
sg60
VKelly Olynyk
p717
sg62
I1610612748
sg63
g378
sg65
g315
sg66
V00
p718
sg68
VC-F
p719
sg70
I203482
ssI203485
(dp720
g26
VNorth Carolina State
p721
sg28
V189
p722
sg30
V2017
p723
sg32
F27.0
sg33
VAUG 26, 1990
p724
sg35
V6-5
p725
sg37
VLorenzo Brown
p726
sg39
I1610612761
sg40
g315
sg42
g360
sg44
V00
p727
sg46
g23
sg47
I203485
ssI1628475
(dp728
g49
VCentral Florida
p729
sg51
V210
p730
sg53
V2017
p731
sg55
F24.0
sg56
VOCT 14, 1993
p732
sg58
V6-5
p733
sg60
VMatt Williams Jr.
p734
sg62
I1610612748
sg63
V12
p735
sg65
g164
sg66
V00
p736
sg68
g23
sg70
I1628475
ssI1628476
(dp737
g49
VMichigan
p738
sg51
V185
p739
sg53
V2017
p740
sg55
F22.0
sg56
VAPR 03, 1995
p741
sg58
V6-1
p742
sg60
VDerrick Walton Jr.
p743
sg62
I1610612748
sg63
V14
p744
sg65
g164
sg66
V00
p745
sg68
g23
sg70
I1628476
ssI203585
(dp746
g49
VKansas State
p747
sg51
V200
p748
sg53
V2017
p749
sg55
F26.0
sg56
VJUL 29, 1991
p750
sg58
V6-4
p751
sg60
VRodney McGruder
p752
sg62
I1610612748
sg63
V17
p753
sg65
g19
sg66
V00
p754
sg68
VG-F
p755
sg70
I203585
ssI203079
(dp756
g49
VSyracuse
p757
sg51
V215
p758
sg53
V2017
p759
sg55
F25.0
sg56
VDEC 10, 1991
p760
sg58
V6-4
p761
sg60
VDion Waiters
p762
sg62
I1610612748
sg63
V11
p763
sg65
g17
sg66
V00
p764
sg68
g23
sg70
I203079
ssI203089
(dp765
g105
VNorth Carolina
p766
sg107
V229
p767
sg109
V2017
p768
sg111
F26.0
sg112
VDEC 28, 1990
p769
sg114
V6-11
p770
sg116
VJohn Henson
p771
sg118
I1610612749
sg119
V31
p772
sg121
g17
sg122
V00
p773
sg124
VF-C
p774
sg125
I203089
ssI201566
(dp775
g147
VUCLA
p776
sg149
V200
p777
sg151
V2017
p778
sg153
F28.0
sg154
VNOV 12, 1988
p779
sg156
V6-3
p780
sg158
VRussell Westbrook
p781
sg160
I1610612760
sg161
g324
sg163
g378
sg165
V00
p782
sg167
g23
sg169
I201566
ssI1891
(dp783
g105
VArizona
p784
sg107
V185
p785
sg109
V2017
p786
sg111
F40.0
sg112
VSEP 15, 1977
p787
sg114
V6-2
p788
sg116
VJason Terry
p789
sg118
I1610612749
sg119
g360
sg121
V18
p790
sg122
V00
p791
sg124
g23
sg125
I1891
ssI203114
(dp792
g105
VTexas A&M
p793
sg107
V234
p794
sg109
V2017
p795
sg111
F26.0
sg112
VAUG 12, 1991
p796
sg114
V6-8
p797
sg116
VKhris Middleton
p798
sg118
I1610612749
sg119
V22
p799
sg121
g17
sg122
V00
p800
sg124
g69
sg125
I203114
ssI201586
(dp801
g26
VBrazzaville, Rep. of Congo
p802
sg28
V235
p803
sg30
V2017
p804
sg32
F28.0
sg33
VSEP 18, 1989
p805
sg35
V6-10
p806
sg37
VSerge Ibaka
p807
sg39
I1610612761
sg40
g378
sg42
g469
sg44
V00
p808
sg46
g69
sg47
I201586
ssI201961
(dp809
g49
VNorth Carolina
p810
sg51
V200
p811
sg53
V2017
p812
sg55
F29.0
sg56
VNOV 29, 1987
p813
sg58
V6-5
p814
sg60
VWayne Ellington
p815
sg62
I1610612748
sg63
g43
sg65
g469
sg66
V00
p816
sg68
g23
sg70
I201961
ssI201596
(dp817
g2
VKansas
p818
sg4
V190
p819
sg6
V2017
p820
sg8
F31.0
sg9
VMAY 19, 1986
p821
sg11
V6-2
p822
sg13
VMario Chalmers
p823
sg15
I1610612763
sg16
g252
sg18
g469
sg20
V00
p824
sg22
g23
sg24
I201596
ssI1628035
(dp825
g26
VWisc.-Green Bay
p826
sg28
V215
p827
sg30
V2017
p828
sg32
F25.0
sg33
VSEP 17, 1992
p829
sg35
V6-8
p830
sg37
VAlfonzo McKinnie
p831
sg39
I1610612761
sg40
V34
p832
sg42
g164
sg44
V00
p833
sg46
g69
sg47
I1628035
ssI203141
(dp834
g105
VBosnia
p835
sg107
V242
p836
sg109
V2017
p837
sg111
F32.0
sg112
VSEP 17, 1985
p838
sg114
V6-9
p839
sg116
VMirza Teletovic
p840
sg118
I1610612749
sg119
V35
p841
sg121
g17
sg122
V00
p842
sg124
g69
sg125
I203141
ssI201609
(dp843
g49
VLjubljana, Slovenia
p844
sg51
V190
p845
sg53
V2017
p846
sg55
F31.0
sg56
VMAY 06, 1986
p847
sg58
V6-3
p848
sg60
VGoran Dragic
p849
sg62
I1610612748
sg63
g143
sg65
g378
sg66
V00
p850
sg68
g23
sg70
I201609
ssI201144
(dp851
g2
VOhio State
p852
sg4
V175
p853
sg6
V2017
p854
sg8
F30.0
sg9
VOCT 11, 1987
p855
sg11
V6-1
p856
sg13
VMike Conley
p857
sg15
I1610612763
sg16
V11
p858
sg18
V10
p859
sg20
V00
p860
sg22
g23
sg24
I201144
ssI201148
(dp861
g2
VNorth Carolina
p862
sg4
V235
p863
sg6
V2017
p864
sg8
F30.0
sg9
VOCT 05, 1987
p865
sg11
V6-10
p866
sg13
VBrandan Wright
p867
sg15
I1610612763
sg16
V34
p868
sg18
g378
sg20
V00
p869
sg22
VF-C
p870
sg24
I201148
ssI202685
(dp871
g26
VUtena, Lithuania
p872
sg28
V255
p873
sg30
V2017
p874
sg32
F25.0
sg33
VMAY 06, 1992
p875
sg35
V7-0
p876
sg37
VJonas Valanciunas
p877
sg39
I1610612761
sg40
V17
p878
sg42
g17
sg44
V00
p879
sg46
g168
sg47
I202685
ssI101109
(dp880
g147
VNorth Carolina
p881
sg149
V205
p882
sg151
V2017
p883
sg153
F33.0
sg154
VJUN 26, 1984
p884
sg156
V6-1
p885
sg158
VRaymond Felton
p886
sg160
I1610612760
sg161
g43
sg163
V12
p887
sg165
V00
p888
sg167
g23
sg169
I101109
ssI202692
(dp889
g72
VColorado
p890
sg74
V214
p891
sg76
V2017
p892
sg78
F26.0
sg79
VJUL 20, 1991
p893
sg81
V6-6
p894
sg83
VAlec Burks
p895
sg85
I1610612762
sg86
V10
p896
sg88
g252
sg90
V00
p897
sg92
g23
sg93
I202692
ssI203210
(dp898
g2
VAlabama
p899
sg4
V227
p900
sg6
V2017
p901
sg8
F27.0
sg9
VJUN 21, 1990
p902
sg11
V6-9
p903
sg13
VJaMychal Green
p904
sg15
I1610612763
sg16
g324
sg18
g360
sg20
V00
p905
sg22
g69
sg24
I203210
ssI1628408
(dp906
g147
VSouth Carolina
p907
sg149
V205
p908
sg151
V2017
p909
sg153
F21.0
sg154
VOCT 25, 1996
p910
sg156
V6-6
p911
sg158
VPJ Dozier
p912
sg160
I1610612760
sg161
V35
p913
sg163
g164
sg165
V00
p914
sg167
g23
sg169
I1628408
ssI202713
(dp915
g147
VDuke
p916
sg149
V228
p917
sg151
V2017
p918
sg153
F29.0
sg154
VMAY 04, 1988
p919
sg156
V6-8
p920
sg158
VKyle Singler
p921
sg160
I1610612760
sg161
V15
p922
sg163
g17
sg165
V00
p923
sg167
g69
sg169
I202713
ssI202718
(dp924
g2
VFlorida
p925
sg4
V230
p926
sg6
V2017
p927
sg8
F29.0
sg9
VOCT 25, 1988
p928
sg11
V6-10
p929
sg13
VChandler Parsons
p930
sg15
I1610612763
sg16
V25
p931
sg18
g252
sg20
V00
p932
sg22
g69
sg24
I202718
ssI201188
(dp933
g2
VBarcelona, Spain
p934
sg4
V255
p935
sg6
V2017
p936
sg8
F32.0
sg9
VJAN 29, 1985
p937
sg11
V7-1
p938
sg13
VMarc Gasol
p939
sg15
I1610612763
sg16
V33
p940
sg18
g378
sg20
V00
p941
sg22
g168
sg24
I201188
ssI202732
(dp942
g105
VKentucky
p943
sg107
V209
p944
sg109
V2017
p945
sg111
F29.0
sg112
VMAR 31, 1988
p946
sg114
V6-6
p947
sg116
VDeAndre Liggins
p948
sg118
I1610612749
sg119
V25
p949
sg121
g315
sg122
V00
p950
sg124
g23
sg125
I202732
ssI2546
(dp951
g147
VSyracuse
p952
sg149
V240
p953
sg151
V2017
p954
sg153
F33.0
sg154
VMAY 29, 1984
p955
sg156
V6-8
p956
sg158
VCarmelo Anthony
p957
sg160
I1610612760
sg161
g143
sg163
V14
p958
sg165
V00
p959
sg167
g69
sg169
I2546
ssI1626196
(dp960
g49
VTennessee
p961
sg51
V200
p962
sg53
V2017
p963
sg55
F24.0
sg56
VSEP 15, 1993
p964
sg58
V6-6
p965
sg60
VJosh Richardson
p966
sg62
I1610612748
sg63
g324
sg65
g43
sg66
V00
p967
sg68
g69
sg70
I1626196
ssI2555
(dp968
g147
VKansas
p969
sg149
V255
p970
sg151
V2017
p971
sg153
F37.0
sg154
VOCT 26, 1980
p972
sg156
V6-10
p973
sg158
VNick Collison
p974
sg160
I1610612760
sg161
g315
sg163
V13
p975
sg165
V00
p976
sg167
g69
sg169
I2555
ss.