(dp0
I203095
(dp1
VSCHOOL
p2
VFrance
p3
sVWEIGHT
p4
V205
p5
sVSEASON
p6
V2017
p7
sVAGE
p8
F25.0
sVBIRTH_DATE
p9
VOCT 29, 1992
p10
sVHEIGHT
p11
V6-7
p12
sVPLAYER
p13
VEvan Fournier
p14
sVTeamID
p15
I1610612753
sVNUM
p16
V10
p17
sVEXP
p18
V5
p19
sVLeagueID
p20
V00
p21
sVPOSITION
p22
VF-G
p23
sVPLAYER_ID
p24
I203095
ssI1626143
(dp25
VSCHOOL
p26
VDuke
p27
sVWEIGHT
p28
V260
p29
sVSEASON
p30
V2017
p31
sVAGE
p32
F21.0
sVBIRTH_DATE
p33
VDEC 15, 1995
p34
sVHEIGHT
p35
V6-11
p36
sVPLAYER
p37
VJahlil Okafor
p38
sVTeamID
p39
I1610612755
sVNUM
p40
V8
p41
sVEXP
p42
V2
p43
sVLeagueID
p44
V00
p45
sVPOSITION
p46
VC
p47
sVPLAYER_ID
p48
I1626143
ssI1626144
(dp49
VSCHOOL
p50
NsVWEIGHT
p51
V200
p52
sVSEASON
p53
V2017
p54
sVAGE
p55
F21.0
sVBIRTH_DATE
p56
VMAR 05, 1996
p57
sVHEIGHT
p58
V6-5
p59
sVPLAYER
p60
VEmmanuel Mudiay
p61
sVTeamID
p62
I1610612743
sVNUM
p63
V0
p64
sVEXP
p65
g43
sVLeagueID
p66
V00
p67
sVPOSITION
p68
VG
p69
sVPLAYER_ID
p70
I1626144
ssI1626145
(dp71
VSCHOOL
p72
VDuke
p73
sVWEIGHT
p74
V184
p75
sVSEASON
p76
V2017
p77
sVAGE
p78
F21.0
sVBIRTH_DATE
p79
VMAY 10, 1996
p80
sVHEIGHT
p81
V6-2
p82
sVPLAYER
p83
VTyus Jones
p84
sVTeamID
p85
I1610612750
sVNUM
p86
V1
p87
sVEXP
p88
g43
sVLeagueID
p89
V00
p90
sVPOSITION
p91
g69
sVPLAYER_ID
p92
I1626145
ssI1626147
(dp93
g26
VVirginia
p94
sg28
V230
p95
sg30
V2017
p96
sg32
F23.0
sg33
VNOV 19, 1993
p97
sg35
V6-6
p98
sg37
VJustin Anderson
p99
sg39
I1610612755
sg40
g87
sg42
g43
sg44
V00
p100
sg46
VG-F
p101
sg48
I1626147
ssI1626148
(dp102
g72
VStanford
p103
sg74
V224
p104
sg76
V2017
p105
sg78
F25.0
sg79
VOCT 10, 1992
p106
sg81
V6-7
p107
sg83
VAnthony Brown
p108
sg85
I1610612750
sg86
V3
p109
sg88
g43
sg89
V00
p110
sg91
VF
p111
sg92
I1626148
ssI1626149
(dp112
VSCHOOL
p113
VLouisville
p114
sVWEIGHT
p115
V240
p116
sVSEASON
p117
V2017
p118
sVAGE
p119
F23.0
sVBIRTH_DATE
p120
VJAN 26, 1994
p121
sVHEIGHT
p122
V6-8
p123
sVPLAYER
p124
VMontrezl Harrell
p125
sVTeamID
p126
I1610612746
sVNUM
p127
g19
sVEXP
p128
g43
sVLeagueID
p129
V00
p130
sVPOSITION
p131
VF-C
p132
sVPLAYER_ID
p133
I1626149
ssI1626150
(dp134
VSCHOOL
p135
VKentucky
p136
sVWEIGHT
p137
V213
p138
sVSEASON
p139
V2017
p140
sVAGE
p141
F23.0
sVBIRTH_DATE
p142
VOCT 28, 1994
p143
sVHEIGHT
p144
V6-6
p145
sVPLAYER
p146
VAndrew Harrison
p147
sVTeamID
p148
I1610612763
sVNUM
p149
g19
sVEXP
p150
g87
sVLeagueID
p151
V00
p152
sVPOSITION
p153
g69
sVPLAYER_ID
p154
I1626150
ssI1626153
(dp155
VSCHOOL
p156
VUtah
p157
sVWEIGHT
p158
V190
p159
sVSEASON
p160
V2017
p161
sVAGE
p162
F25.0
sVBIRTH_DATE
p163
VAPR 26, 1992
p164
sVHEIGHT
p165
V6-5
p166
sVPLAYER
p167
VDelon Wright
p168
sVTeamID
p169
I1610612761
sVNUM
p170
V55
p171
sVEXP
p172
g43
sVLeagueID
p173
V00
p174
sVPOSITION
p175
g69
sVPLAYER_ID
p176
I1626153
ssI200746
(dp177
VSCHOOL
p178
VTexas
p179
sVWEIGHT
p180
V260
p181
sVSEASON
p182
V2017
p183
sVAGE
p184
F32.0
sVBIRTH_DATE
p185
VJUL 19, 1985
p186
sVHEIGHT
p187
V6-11
p188
sVPLAYER
p189
VLaMarcus Aldridge
p190
sVTeamID
p191
I1610612759
sVNUM
p192
V12
p193
sVEXP
p194
V11
p195
sVLeagueID
p196
V00
p197
sVPOSITION
p198
g111
sVPLAYER_ID
p199
I200746
ssI1626155
(dp200
g113
VWisconsin
p201
sg115
V230
p202
sg117
V2017
p203
sg119
F23.0
sg120
VMAY 08, 1994
p204
sg122
V6-9
p205
sg124
VSam Dekker
p206
sg126
I1610612746
sg127
V7
p207
sg128
g43
sg129
V00
p208
sg131
g111
sg133
I1626155
ssI1626156
(dp209
VSCHOOL
p210
VOhio State
p211
sVWEIGHT
p212
V195
p213
sVSEASON
p214
V2017
p215
sVAGE
p216
F21.0
sVBIRTH_DATE
p217
VFEB 23, 1996
p218
sVHEIGHT
p219
V6-5
p220
sVPLAYER
p221
VD'Angelo Russell
p222
sVTeamID
p223
I1610612751
sVNUM
p224
g87
sVEXP
p225
g43
sVLeagueID
p226
V00
p227
sVPOSITION
p228
g69
sVPLAYER_ID
p229
I1626156
ssI1626157
(dp230
g72
VKentucky
p231
sg74
V248
p232
sg76
V2017
p233
sg78
F21.0
sg79
VNOV 15, 1995
p234
sg81
V7-0
p235
sg83
VKarl-Anthony Towns
p236
sg85
I1610612750
sg86
V32
p237
sg88
g43
sg89
V00
p238
sg91
g47
sg92
I1626157
ssI1626158
(dp239
g26
VBowling Green
p240
sg28
V235
p241
sg30
V2017
p242
sg32
F24.0
sg33
VOCT 15, 1993
p243
sg35
V6-10
p244
sg37
VRichaun Holmes
p245
sg39
I1610612755
sg40
V22
p246
sg42
g43
sg44
V00
p247
sg46
VF-C
p248
sg48
I1626158
ssI1626159
(dp249
VSCHOOL
p250
VDuke
p251
sVWEIGHT
p252
V225
p253
sVSEASON
p254
V2017
p255
sVAGE
p256
F21.0
sVBIRTH_DATE
p257
VMAR 26, 1996
p258
sVHEIGHT
p259
V6-7
p260
sVPLAYER
p261
VJustise Winslow
p262
sVTeamID
p263
I1610612748
sVNUM
p264
V20
p265
sVEXP
p266
g43
sVLeagueID
p267
V00
p268
sVPOSITION
p269
g111
sVPLAYER_ID
p270
I1626159
ssI200752
(dp271
g178
VConnecticut
p272
sg180
V230
p273
sg182
V2017
p274
sg184
F31.0
sg185
VAUG 17, 1986
p275
sg187
V6-8
p276
sg189
VRudy Gay
p277
sg191
I1610612759
sg192
V22
p278
sg194
V11
p279
sg196
V00
p280
sg198
g111
sg199
I200752
ssI1626161
(dp281
VSCHOOL
p282
VKentucky
p283
sVWEIGHT
p284
V240
p285
sVSEASON
p286
V2017
p287
sVAGE
p288
F24.0
sVBIRTH_DATE
p289
VAUG 18, 1993
p290
sVHEIGHT
p291
V7-0
p292
sVPLAYER
p293
VWillie Cauley-Stein
p294
sVTeamID
p295
I1610612758
sVNUM
p296
V00
p297
sVEXP
p298
g43
sVLeagueID
p299
V00
p300
sVPOSITION
p301
g47
sVPLAYER_ID
p302
I1626161
ssI1627763
(dp303
VSCHOOL
p304
VVirginia
p305
sVWEIGHT
p306
V215
p307
sVSEASON
p308
V2017
p309
sVAGE
p310
F24.0
sVBIRTH_DATE
p311
VDEC 11, 1992
p312
sVHEIGHT
p313
V6-5
p314
sVPLAYER
p315
VMalcolm Brogdon
p316
sVTeamID
p317
I1610612749
sVNUM
p318
V13
p319
sVEXP
p320
g87
sVLeagueID
p321
V00
p322
sVPOSITION
p323
g69
sVPLAYER_ID
p324
I1627763
ssI1626164
(dp325
VSCHOOL
p326
VKentucky
p327
sVWEIGHT
p328
V210
p329
sVSEASON
p330
V2017
p331
sVAGE
p332
F21.0
sVBIRTH_DATE
p333
VOCT 30, 1996
p334
sVHEIGHT
p335
V6-6
p336
sVPLAYER
p337
VDevin Booker
p338
sVTeamID
p339
I1610612756
sVNUM
p340
g87
sVEXP
p341
g43
sVLeagueID
p342
V00
p343
sVPOSITION
p344
g69
sVPLAYER_ID
p345
I1626164
ssI200757
(dp346
VSCHOOL
p347
VVevey, Switzerland
p348
sVWEIGHT
p349
V220
p350
sVSEASON
p351
V2017
p352
sVAGE
p353
F33.0
sVBIRTH_DATE
p354
VMAY 02, 1984
p355
sVHEIGHT
p356
V6-7
p357
sVPLAYER
p358
VThabo Sefolosha
p359
sVTeamID
p360
I1610612762
sVNUM
p361
V22
p362
sVEXP
p363
V11
p364
sVLeagueID
p365
V00
p366
sVPOSITION
p367
g111
sVPLAYER_ID
p368
I200757
ssI1626166
(dp369
VSCHOOL
p370
VMurray State
p371
sVWEIGHT
p372
V185
p373
sVSEASON
p374
V2017
p375
sVAGE
p376
F23.0
sVBIRTH_DATE
p377
VAUG 08, 1994
p378
sVHEIGHT
p379
V6-3
p380
sVPLAYER
p381
VCameron Payne
p382
sVTeamID
p383
I1610612741
sVNUM
p384
V22
p385
sVEXP
p386
g43
sVLeagueID
p387
V00
p388
sVPOSITION
p389
g69
sVPLAYER_ID
p390
I1626166
ssI1626167
(dp391
VSCHOOL
p392
VTexas
p393
sVWEIGHT
p394
V255
p395
sVSEASON
p396
V2017
p397
sVAGE
p398
F21.0
sVBIRTH_DATE
p399
VMAR 24, 1996
p400
sVHEIGHT
p401
V6-11
p402
sVPLAYER
p403
VMyles Turner
p404
sVTeamID
p405
I1610612754
sVNUM
p406
V33
p407
sVEXP
p408
g43
sVLeagueID
p409
V00
p410
sVPOSITION
p411
g47
sVPLAYER_ID
p412
I1626167
ssI1626168
(dp413
g50
VKentucky
p414
sg51
V234
p415
sg53
V2017
p416
sg55
F22.0
sg56
VNOV 05, 1995
p417
sg58
V6-10
p418
sg60
VTrey Lyles
p419
sg62
I1610612743
sg63
g207
sg65
g43
sg66
V00
p420
sg68
g111
sg70
I1626168
ssI1626170
(dp421
g370
VNotre Dame
p422
sg372
V198
p423
sg374
V2017
p424
sg376
F25.0
sg377
VOCT 09, 1992
p425
sg379
V6-4
p426
sg381
VJerian Grant
p427
sg383
I1610612741
sg384
g43
sg386
g43
sg387
V00
p428
sg389
g69
sg390
I1626170
ssI1626171
(dp429
g370
VArkansas
p430
sg372
V248
p431
sg374
V2017
p432
sg376
F22.0
sg377
VFEB 10, 1995
p433
sg379
V6-11
p434
sg381
VBobby Portis
p435
sg383
I1610612741
sg384
g19
sg386
g43
sg387
V00
p436
sg389
g111
sg390
I1626171
ssI1626172
(dp437
VSCHOOL
p438
VUCLA
p439
sVWEIGHT
p440
V220
p441
sVSEASON
p442
V2017
p443
sVAGE
p444
F21.0
sVBIRTH_DATE
p445
VFEB 06, 1996
p446
sVHEIGHT
p447
V6-9
p448
sVPLAYER
p449
VKevon Looney
p450
sVTeamID
p451
I1610612744
sVNUM
p452
g19
sVEXP
p453
g43
sVLeagueID
p454
V00
p455
sVPOSITION
p456
g111
sVPLAYER_ID
p457
I1626172
ssI1626173
(dp458
g304
VUNLV
p459
sg306
V202
p460
sg308
V2017
p461
sg310
F21.0
sg311
VAUG 16, 1996
p462
sg313
V6-6
p463
sg315
VRashad Vaughn
p464
sg317
I1610612749
sg318
V20
p465
sg320
g43
sg321
V00
p466
sg323
g69
sg324
I1626173
ssI1626175
(dp467
g250
VLouisiana State
p468
sg252
V235
p469
sg254
V2017
p470
sg256
F23.0
sg257
VJUL 09, 1994
p471
sg259
V6-8
p472
sg261
VJordan Mickey
p473
sg263
I1610612748
sg264
V25
p474
sg266
g43
sg267
V00
p475
sg269
VC-F
p476
sg270
I1626175
ssI200768
(dp477
g156
VVillanova
p478
sg158
V205
p479
sg160
V2017
p480
sg162
F31.0
sg163
VMAR 25, 1986
p481
sg165
V6-0
p482
sg167
VKyle Lowry
p483
sg169
I1610612761
sg170
g207
sg172
V11
p484
sg173
V00
p485
sg175
g69
sg176
I200768
ssI1626177
(dp486
VSCHOOL
p487
VKentucky
p488
sVWEIGHT
p489
V255
p490
sVSEASON
p491
V2017
p492
sVAGE
p493
F22.0
sVBIRTH_DATE
p494
VSEP 22, 1995
p495
sVHEIGHT
p496
V7-0
p497
sVPLAYER
p498
VDakari Johnson
p499
sVTeamID
p500
I1610612760
sVNUM
p501
V44
p502
sVEXP
p503
VR
p504
sVLeagueID
p505
V00
p506
sVPOSITION
p507
g47
sVPLAYER_ID
p508
I1626177
ssI1626178
(dp509
g210
VArizona
p510
sg212
V214
p511
sg214
V2017
p512
sg216
F22.0
sg217
VJAN 03, 1995
p513
sg219
V6-7
p514
sg221
VRondae Hollis-Jefferson
p515
sg223
I1610612751
sg224
V24
p516
sg225
g43
sg226
V00
p517
sg228
g111
sg229
I1626178
ssI1626179
(dp518
VSCHOOL
p519
VLouisville
p520
sVWEIGHT
p521
V190
p522
sVSEASON
p523
V2017
p524
sVAGE
p525
F23.0
sVBIRTH_DATE
p526
VMAR 17, 1994
p527
sVHEIGHT
p528
V6-2
p529
sVPLAYER
p530
VTerry Rozier
p531
sVTeamID
p532
I1610612738
sVNUM
p533
V12
p534
sVEXP
p535
g43
sVLeagueID
p536
V00
p537
sVPOSITION
p538
g69
sVPLAYER_ID
p539
I1626179
ssI1626181
(dp540
g156
VUCLA
p541
sg158
V215
p542
sg160
V2017
p543
sg162
F24.0
sg163
VMAY 25, 1993
p544
sg165
V6-4
p545
sg167
VNorman Powell
p546
sg169
I1610612761
sg170
V24
p547
sg172
g43
sg173
V00
p548
sg175
VF-G
p549
sg176
I1626181
ssI1626185
(dp550
g135
VLouisiana State
p551
sg137
V239
p552
sg139
V2017
p553
sg141
F23.0
sg142
VMAY 24, 1994
p554
sg144
V6-10
p555
sg146
VJarell Martin
p556
sg148
I1610612763
sg149
g87
sg150
g43
sg151
V00
p557
sg153
g111
sg154
I1626185
ssI1626188
(dp558
g438
VDuke
p559
sg440
V179
p560
sg442
V2017
p561
sg444
F24.0
sg445
VMAR 23, 1993
p562
sg447
V6-2
p563
sg449
VQuinn Cook
p564
sg451
I1610612744
sg452
V4
p565
sg453
g87
sg454
V00
p566
sg456
g69
sg457
I1626188
ssI200782
(dp567
VSCHOOL
p568
VTexas
p569
sVWEIGHT
p570
V245
p571
sVSEASON
p572
V2017
p573
sVAGE
p574
F32.0
sVBIRTH_DATE
p575
VMAY 05, 1985
p576
sVHEIGHT
p577
V6-6
p578
sVPLAYER
p579
VPJ Tucker
p580
sVTeamID
p581
I1610612745
sVNUM
p582
g565
sVEXP
p583
V6
p584
sVLeagueID
p585
V00
p586
sVPOSITION
p587
g111
sVPLAYER_ID
p588
I200782
ssI1626192
(dp589
VSCHOOL
p590
VNotre Dame
p591
sVWEIGHT
p592
V210
p593
sVSEASON
p594
V2017
p595
sVAGE
p596
F24.0
sVBIRTH_DATE
p597
VJAN 06, 1993
p598
sVHEIGHT
p599
V6-5
p600
sVPLAYER
p601
VPat Connaughton
p602
sVTeamID
p603
I1610612757
sVNUM
p604
g19
sVEXP
p605
g43
sVLeagueID
p606
V00
p607
sVPOSITION
p608
VG-F
p609
sVPLAYER_ID
p610
I1626192
ssI1626195
(dp611
VSCHOOL
p612
VSpain
p613
sVWEIGHT
p614
V240
p615
sVSEASON
p616
V2017
p617
sVAGE
p618
F23.0
sVBIRTH_DATE
p619
VMAY 27, 1994
p620
sVHEIGHT
p621
V6-11
p622
sVPLAYER
p623
VWilly Hernangomez
p624
sVTeamID
p625
I1610612752
sVNUM
p626
V14
p627
sVEXP
p628
g87
sVLeagueID
p629
V00
p630
sVPOSITION
p631
g47
sVPLAYER_ID
p632
I1626195
ssI1626196
(dp633
g250
VTennessee
p634
sg252
V200
p635
sg254
V2017
p636
sg256
F24.0
sg257
VSEP 15, 1993
p637
sg259
V6-6
p638
sg261
VJosh Richardson
p639
sg263
I1610612748
sg264
g64
sg266
g43
sg267
V00
p640
sg269
g111
sg270
I1626196
ssI1626199
(dp641
g178
VVillanova
p642
sg180
V220
p643
sg182
V2017
p644
sg184
F24.0
sg185
VAPR 13, 1993
p645
sg187
V6-6
p646
sg189
VDarrun Hilliard
p647
sg191
I1610612759
sg192
V24
p648
sg194
g43
sg196
V00
p649
sg198
g69
sg199
I1626199
ssI200794
(dp650
g50
VLouisiana Tech
p651
sg51
V246
p652
sg53
V2017
p653
sg55
F32.0
sg56
VFEB 10, 1985
p654
sg58
V6-8
p655
sg60
VPaul Millsap
p656
sg62
I1610612743
sg63
g565
sg65
V11
p657
sg66
V00
p658
sg68
g111
sg70
I200794
ssI1626204
(dp659
VSCHOOL
p660
VWyoming
p661
sVWEIGHT
p662
V230
p663
sVSEASON
p664
V2017
p665
sVAGE
p666
F24.0
sVBIRTH_DATE
p667
VJAN 01, 1993
p668
sVHEIGHT
p669
V6-9
p670
sVPLAYER
p671
VLarry Nance Jr.
p672
sVTeamID
p673
I1610612747
sVNUM
p674
g207
sVEXP
p675
g43
sVLeagueID
p676
V00
p677
sVPOSITION
p678
g111
sVPLAYER_ID
p679
I1626204
ssI1626205
(dp680
g135
VTexas-El Paso
p681
sg137
V208
p682
sg139
V2017
p683
sg141
F23.0
sg142
VAUG 05, 1994
p684
sg144
V6-8
p685
sg146
VVincent Hunter
p686
sg148
I1610612763
sg149
V32
p687
sg150
g504
sg151
V00
p688
sg153
g111
sg154
I1626205
ssI1626209
(dp689
g2
VCroatia
p690
sg4
V218
p691
sg6
V2017
p692
sg8
F22.0
sg9
VFEB 25, 1995
p693
sg11
V6-8
p694
sg13
VMario Hezonja
p695
sg15
I1610612753
sg16
g41
sg18
g43
sg20
V00
p696
sg22
VG-F
p697
sg24
I1626209
ssI1626210
(dp698
g326
VCalifornia-Santa Barbara
p699
sg328
V265
p700
sg330
V2017
p701
sg332
F24.0
sg333
VJAN 28, 1993
p702
sg335
V6-8
p703
sg337
VAlan Williams
p704
sg339
I1610612756
sg340
V15
p705
sg341
g43
sg342
V00
p706
sg344
VF-C
p707
sg345
I1626210
ssI1626220
(dp708
g347
VBaylor
p709
sg349
V226
p710
sg351
V2017
p711
sg353
F24.0
sg354
VJUN 05, 1993
p712
sg356
V6-6
p713
sg358
VRoyce O'Neale
p714
sg360
I1610612762
sg361
V23
p715
sg363
g504
sg365
V00
p716
sg367
g111
sg368
I1626220
ssI1626224
(dp717
VSCHOOL
p718
VAnadolu Efes
p719
sVWEIGHT
p720
V215
p721
sVSEASON
p722
V2017
p723
sVAGE
p724
F22.0
sVBIRTH_DATE
p725
VAPR 08, 1995
p726
sVHEIGHT
p727
V6-8
p728
sVPLAYER
p729
VCedi Osman
p730
sVTeamID
p731
I1610612739
sVNUM
p732
V16
p733
sVEXP
p734
g504
sVLeagueID
p735
V00
p736
sVPOSITION
p737
g111
sVPLAYER_ID
p738
I1626224
ssI200826
(dp739
VSCHOOL
p740
VNortheastern
p741
sVWEIGHT
p742
V185
p743
sVSEASON
p744
V2017
p745
sVAGE
p746
F33.0
sVBIRTH_DATE
p747
VJUN 26, 1984
p748
sVHEIGHT
p749
V6-0
p750
sVPLAYER
p751
VJ.J. Barea
p752
sVTeamID
p753
I1610612742
sVNUM
p754
g19
sVEXP
p755
V11
p756
sVLeagueID
p757
V00
p758
sVPOSITION
p759
g69
sVPLAYER_ID
p760
I200826
ssI1626245
(dp761
g370
Nsg372
V280
p762
sg374
V2017
p763
sg376
F25.0
sg377
VJUL 07, 1992
p764
sg379
V6-9
p765
sg381
VCristiano Felicio
p766
sg383
I1610612741
sg384
g584
sg386
g43
sg387
V00
p767
sg389
VC-F
p768
sg390
I1626245
ssI203458
(dp769
g326
VMaryland
p770
sg328
V250
p771
sg330
V2017
p772
sg332
F24.0
sg333
VJUN 16, 1993
p773
sg335
V7-1
p774
sg337
VAlex Len
p775
sg339
I1610612756
sg340
V21
p776
sg341
g565
sg342
V00
p777
sg344
g47
sg345
I203458
ssI1626257
(dp778
g740
Nsg742
V235
p779
sg744
V2017
p780
sg746
F31.0
sg747
VJUN 15, 1986
p781
sg749
V7-2
p782
sg751
VSalah Mejri
p783
sg753
I1610612742
sg754
V50
p784
sg755
g43
sg757
V00
p785
sg759
g47
sg760
I1626257
ssI1626259
(dp786
g156
VHoly Cross
p787
sg158
V210
p788
sg160
V2017
p789
sg162
F24.0
sg163
VMAR 06, 1993
p790
sg165
V6-7
p791
sg167
VMalcolm Miller
p792
sg169
I1610612761
sg170
V13
p793
sg172
g504
sg173
V00
p794
sg175
g111
sg176
I1626259
ssI2199
(dp795
g326
VDominquez H.S
p796
sg328
V240
p797
sg330
V2017
p798
sg332
F35.0
sg333
VOCT 02, 1982
p799
sg335
V7-1
p800
sg337
VTyson Chandler
p801
sg339
I1610612756
sg340
g565
sg341
V16
p802
sg342
V00
p803
sg344
g47
sg345
I2199
ssI2200
(dp804
g178
VBarcelona, Spain
p805
sg180
V250
p806
sg182
V2017
p807
sg184
F37.0
sg185
VJUL 06, 1980
p808
sg187
V7-0
p809
sg189
VPau Gasol
p810
sg191
I1610612759
sg192
V16
p811
sg194
V16
p812
sg196
V00
p813
sg198
g47
sg199
I2200
ssI2207
(dp814
g347
VArkansas
p815
sg349
V240
p816
sg351
V2017
p817
sg353
F36.0
sg354
VJUN 29, 1981
p818
sg356
V6-7
p819
sg358
VJoe Johnson
p820
sg360
I1610612762
sg361
g584
sg363
V16
p821
sg365
V00
p822
sg367
VG-F
p823
sg368
I2207
ssI2210
(dp824
g50
VArizona
p825
sg51
V233
p826
sg53
V2017
p827
sg55
F37.0
sg56
VJUN 21, 1980
p828
sg58
V6-7
p829
sg60
VRichard Jefferson
p830
sg62
I1610612743
sg63
V22
p831
sg65
V16
p832
sg66
V00
p833
sg68
g111
sg70
I2210
ssI2216
(dp834
g282
VMichigan State
p835
sg284
V250
p836
sg286
V2017
p837
sg288
F36.0
sg289
VJUL 16, 1981
p838
sg291
V6-9
p839
sg293
VZach Randolph
p840
sg295
I1610612758
sg296
V50
p841
sg298
V16
p842
sg299
V00
p843
sg301
g111
sg302
I2216
ssI2225
(dp844
g178
VParis, France
p845
sg180
V185
p846
sg182
V2017
p847
sg184
F35.0
sg185
VMAY 17, 1982
p848
sg187
V6-2
p849
sg189
VTony Parker
p850
sg191
I1610612759
sg192
V9
p851
sg194
V16
p852
sg196
V00
p853
sg198
g69
sg199
I2225
ssI1628365
(dp854
g26
VWashington
p855
sg28
V200
p856
sg30
V2017
p857
sg32
F19.0
sg33
VMAY 29, 1998
p858
sg35
V6-4
p859
sg37
VMarkelle Fultz
p860
sg39
I1610612755
sg40
V20
p861
sg42
g504
sg44
V00
p862
sg46
g69
sg48
I1628365
ssI1628366
(dp863
g660
VCalifornia-Los Angeles
p864
sg662
V190
p865
sg664
V2017
p866
sg666
F20.0
sg667
VOCT 27, 1997
p867
sg669
V6-6
p868
sg671
VLonzo Ball
p869
sg673
I1610612747
sg674
g43
sg675
g504
sg676
V00
p870
sg678
g69
sg679
I1628366
ssI1628367
(dp871
g326
VKansas
p872
sg328
V200
p873
sg330
V2017
p874
sg332
F20.0
sg333
VFEB 10, 1997
p875
sg335
V6-8
p876
sg337
VJosh Jackson
p877
sg339
I1610612756
sg340
V20
p878
sg341
g504
sg342
V00
p879
sg344
g111
sg345
I1628367
ssI1628368
(dp880
g282
VKentucky
p881
sg284
V175
p882
sg286
V2017
p883
sg288
F19.0
sg289
VDEC 20, 1997
p884
sg291
V6-3
p885
sg293
VDe'Aaron Fox
p886
sg295
I1610612758
sg296
g19
sg298
g504
sg299
V00
p887
sg301
g69
sg302
I1628368
ssI1628369
(dp888
g519
VDuke
p889
sg521
V205
p890
sg523
V2017
p891
sg525
F19.0
sg526
VMAR 03, 1998
p892
sg528
V6-8
p893
sg530
VJayson Tatum
p894
sg532
I1610612738
sg533
g64
sg535
g504
sg536
V00
p895
sg538
g111
sg539
I1628369
ssI1628371
(dp896
g2
VFlorida State
p897
sg4
V210
p898
sg6
V2017
p899
sg8
F20.0
sg9
VOCT 03, 1997
p900
sg11
V6-10
p901
sg13
VJonathan Isaac
p902
sg15
I1610612753
sg16
g87
sg18
g504
sg20
V00
p903
sg22
g111
sg24
I1628371
ssI1628372
(dp904
g740
VNorth Carolina State
p905
sg742
V195
p906
sg744
V2017
p907
sg746
F19.0
sg747
VNOV 25, 1997
p908
sg749
V6-3
p909
sg751
VDennis Smith Jr.
p910
sg753
I1610612742
sg754
g87
sg755
g504
sg757
V00
p911
sg759
g69
sg760
I1628372
ssI1628373
(dp912
g612
Nsg614
V190
p913
sg616
V2017
p914
sg618
F19.0
sg619
VJUL 28, 1998
p915
sg621
V6-5
p916
sg623
VFrank Ntilikina
p917
sg625
I1610612752
sg626
V11
p918
sg628
g504
sg629
V00
p919
sg631
g69
sg632
I1628373
ssI1628374
(dp920
g370
VArizona
p921
sg372
V230
p922
sg374
V2017
p923
sg376
F20.0
sg377
VMAY 22, 1997
p924
sg379
V7-0
p925
sg381
VLauri Markkanen
p926
sg383
I1610612741
sg384
V24
p927
sg386
g504
sg387
V00
p928
sg389
g111
sg390
I1628374
ssI1628378
(dp929
g347
VLouisville
p930
sg349
V215
p931
sg351
V2017
p932
sg353
F21.0
sg354
VSEP 07, 1996
p933
sg356
V6-3
p934
sg358
VDonovan Mitchell
p935
sg360
I1610612762
sg361
V45
p936
sg363
g504
sg365
V00
p937
sg367
g69
sg368
I1628378
ssI1628380
(dp938
g590
VGonzaga
p939
sg592
V230
p940
sg594
V2017
p941
sg596
F19.0
sg597
VNOV 19, 1997
p942
sg599
V7-0
p943
sg601
VZach Collins
p944
sg603
I1610612757
sg604
V33
p945
sg605
g504
sg606
V00
p946
sg608
VC-F
p947
sg610
I1628380
ssI1628381
(dp948
VSCHOOL
p949
VWake Forest
p950
sVWEIGHT
p951
V235
p952
sVSEASON
p953
V2017
p954
sVAGE
p955
F20.0
sVBIRTH_DATE
p956
VSEP 23, 1997
p957
sVHEIGHT
p958
V6-10
p959
sVPLAYER
p960
VJohn Collins
p961
sVTeamID
p962
I1610612737
sVNUM
p963
V20
p964
sVEXP
p965
g504
sVLeagueID
p966
V00
p967
sVPOSITION
p968
VF-C
p969
sVPLAYER_ID
p970
I1628381
ssI1628382
(dp971
g282
VNorth Carolina
p972
sg284
V210
p973
sg286
V2017
p974
sg288
F22.0
sg289
VMAR 28, 1995
p975
sg291
V6-8
p976
sg293
VJustin Jackson
p977
sg295
I1610612758
sg296
V25
p978
sg298
g504
sg299
V00
p979
sg301
g111
sg302
I1628382
ssI1628383
(dp980
g72
VCreighton
p981
sg74
V236
p982
sg76
V2017
p983
sg78
F20.0
sg79
VJUN 14, 1997
p984
sg81
V7-0
p985
sg83
VJustin Patton
p986
sg85
I1610612750
sg86
V24
p987
sg88
g504
sg89
V00
p988
sg91
g47
sg92
I1628383
ssI1628384
(dp989
g156
VIndiana
p990
sg158
V235
p991
sg160
V2017
p992
sg162
F20.0
sg163
VJUL 17, 1997
p993
sg165
V6-8
p994
sg167
VOG Anunoby
p995
sg169
I1610612761
sg170
g109
sg172
g504
sg173
V00
p996
sg175
g111
sg176
I1628384
ssI1628385
(dp997
g282
VDuke
p998
sg284
V240
p999
sg286
V2017
p1000
sg288
F19.0
sg289
VAPR 22, 1998
p1001
sg291
V6-10
p1002
sg293
VHarry Giles
p1003
sg295
I1610612758
sg296
V20
p1004
sg298
g504
sg299
V00
p1005
sg301
VF-C
p1006
sg302
I1628385
ssI1628386
(dp1007
g210
VTexas
p1008
sg212
V234
p1009
sg214
V2017
p1010
sg216
F19.0
sg217
VAPR 21, 1998
p1011
sg219
V6-11
p1012
sg221
VJarrett Allen
p1013
sg223
I1610612751
sg224
V31
p1014
sg225
g504
sg226
V00
p1015
sg228
g47
sg229
I1628386
ssI1628387
(dp1016
g392
VCalifornia-Los Angeles
p1017
sg394
V262
p1018
sg396
V2017
p1019
sg398
F19.0
sg399
VOCT 16, 1998
p1020
sg401
V6-10
p1021
sg403
VIke Anigbogu
p1022
sg405
I1610612754
sg406
V13
p1023
sg408
g504
sg409
V00
p1024
sg411
g47
sg412
I1628387
ssI1628388
(dp1025
g392
VCalifornia-Los Angeles
p1026
sg394
V230
p1027
sg396
V2017
p1028
sg398
F20.0
sg399
VAPR 30, 1997
p1029
sg401
V6-10
p1030
sg403
VTJ Leaf
p1031
sg405
I1610612754
sg406
V22
p1032
sg408
g504
sg409
V00
p1033
sg411
g111
sg412
I1628388
ssI1628389
(dp1034
g250
VKentucky
p1035
sg252
V255
p1036
sg254
V2017
p1037
sg256
F20.0
sg257
VJUL 18, 1997
p1038
sg259
V6-10
p1039
sg261
VBam Adebayo
p1040
sg263
I1610612748
sg264
V13
p1041
sg266
g504
sg267
V00
p1042
sg269
VC-F
p1043
sg270
I1628389
ssI1628390
(dp1044
g487
Nsg489
V184
p1045
sg491
V2017
p1046
sg493
F19.0
sg494
VMAY 17, 1998
p1047
sg496
V6-7
p1048
sg498
VTerrance Ferguson
p1049
sg500
I1610612760
sg501
V23
p1050
sg503
g504
sg505
V00
p1051
sg507
g69
sg508
I1628390
ssI1628391
(dp1052
g304
VMichigan
p1053
sg306
V236
p1054
sg308
V2017
p1055
sg310
F21.0
sg311
VFEB 19, 1996
p1056
sg313
V6-10
p1057
sg315
VD.J. Wilson
p1058
sg317
I1610612749
sg318
g19
sg320
g504
sg321
V00
p1059
sg323
g111
sg324
I1628391
ssI1628393
(dp1060
g113
VOklahoma State
p1061
sg115
V190
p1062
sg117
V2017
p1063
sg119
F21.0
sg120
VJUL 26, 1996
p1064
sg122
V6-0
p1065
sg124
VJawun Evans
p1066
sg126
I1610612746
sg127
g87
sg128
g504
sg129
V00
p1067
sg131
g69
sg133
I1628393
ssI1628395
(dp1068
g438
VOregon
p1069
sg440
V224
p1070
sg442
V2017
p1071
sg444
F22.0
sg445
VJAN 07, 1995
p1072
sg447
V6-9
p1073
sg449
VJordan Bell
p1074
sg451
I1610612744
sg452
g43
sg453
g504
sg454
V00
p1075
sg456
g111
sg457
I1628395
ssI1628396
(dp1076
g347
VNorth Carolina
p1077
sg349
V248
p1078
sg351
V2017
p1079
sg353
F19.0
sg354
VJAN 08, 1998
p1080
sg356
V6-10
p1081
sg358
VTony Bradley
p1082
sg360
I1610612762
sg361
V13
p1083
sg363
g504
sg365
V00
p1084
sg367
g47
sg368
I1628396
ssI1628397
(dp1085
g135
VCalifornia
p1086
sg137
V220
p1087
sg139
V2017
p1088
sg141
F20.0
sg142
VFEB 04, 1997
p1089
sg144
V6-10
p1090
sg146
VIvan Rabb
p1091
sg148
I1610612763
sg149
V10
p1092
sg150
g504
sg151
V00
p1093
sg153
g111
sg154
I1628397
ssI1628398
(dp1094
g660
VUtah
p1095
sg662
V220
p1096
sg664
V2017
p1097
sg666
F22.0
sg667
VJUL 24, 1995
p1098
sg669
V6-9
p1099
sg671
VKyle Kuzma
p1100
sg673
I1610612747
sg674
g64
sg675
g504
sg676
V00
p1101
sg678
g111
sg679
I1628398
ssI1628399
(dp1102
g50
VSyracuse
p1103
sg51
V220
p1104
sg53
V2017
p1105
sg55
F21.0
sg56
VAPR 09, 1996
p1106
sg58
V6-9
p1107
sg60
VTyler Lydon
p1108
sg62
I1610612743
sg63
V20
p1109
sg65
g504
sg66
V00
p1110
sg68
g111
sg70
I1628399
ssI1628400
(dp1111
g519
VSouthern Methodist
p1112
sg521
V235
p1113
sg523
V2017
p1114
sg525
F22.0
sg526
VDEC 05, 1994
p1115
sg528
V6-7
p1116
sg530
VSemi Ojeleye
p1117
sg532
I1610612738
sg533
V37
p1118
sg535
g504
sg536
V00
p1119
sg538
g111
sg539
I1628400
ssI1628401
(dp1120
g178
VColorado
p1121
sg180
V190
p1122
sg182
V2017
p1123
sg184
F23.0
sg185
VJUL 02, 1994
p1124
sg187
V6-4
p1125
sg189
VDerrick White
p1126
sg191
I1610612759
sg192
g565
sg194
g504
sg196
V00
p1127
sg198
g69
sg199
I1628401
ssI1628402
(dp1128
VSCHOOL
p1129
VDuke
p1130
sVWEIGHT
p1131
V205
p1132
sVSEASON
p1133
V2017
p1134
sVAGE
p1135
F19.0
sVBIRTH_DATE
p1136
VMAY 04, 1998
p1137
sVHEIGHT
p1138
V6-3
p1139
sVPLAYER
p1140
VFrank Jackson
p1141
sVTeamID
p1142
I1610612740
sVNUM
p1143
V15
p1144
sVEXP
p1145
g504
sVLeagueID
p1146
V00
p1147
sVPOSITION
p1148
g69
sVPLAYER_ID
p1149
I1628402
ssI1628403
(dp1150
g590
VPurdue
p1151
sg592
V250
p1152
sg594
V2017
p1153
sg596
F20.0
sg597
VAPR 18, 1997
p1154
sg599
V6-8
p1155
sg601
VCaleb Swanigan
p1156
sg603
I1610612757
sg604
V50
p1157
sg605
g504
sg606
V00
p1158
sg608
VF-C
p1159
sg610
I1628403
ssI1628404
(dp1160
g660
VVillanova
p1161
sg662
V215
p1162
sg664
V2017
p1163
sg666
F22.0
sg667
VMAR 06, 1995
p1164
sg669
V6-5
p1165
sg671
VJosh Hart
p1166
sg673
I1610612747
sg674
g19
sg675
g504
sg676
V00
p1167
sg678
g69
sg679
I1628404
ssI1628405
(dp1168
g740
VBaylor
p1169
sg742
V230
p1170
sg744
V2017
p1171
sg746
F22.0
sg747
VMAY 04, 1995
p1172
sg749
V6-10
p1173
sg751
VJohnathan Motley
p1174
sg753
I1610612742
sg754
g584
sg755
g504
sg757
V00
p1175
sg759
g111
sg760
I1628405
ssI1628408
(dp1176
g487
VSouth Carolina
p1177
sg489
V205
p1178
sg491
V2017
p1179
sg493
F21.0
sg494
VOCT 25, 1996
p1180
sg496
V6-6
p1181
sg498
VPJ Dozier
p1182
sg500
I1610612760
sg501
V35
p1183
sg503
g504
sg505
V00
p1184
sg507
g69
sg508
I1628408
ssI203476
(dp1185
g72
VLouisville
p1186
sg74
V251
p1187
sg76
V2017
p1188
sg78
F27.0
sg79
VJAN 18, 1990
p1189
sg81
V6-11
p1190
sg83
VGorgui Dieng
p1191
sg85
I1610612750
sg86
g19
sg88
g565
sg89
V00
p1192
sg91
g47
sg92
I203476
ssI1628410
(dp1193
g392
VXavier
p1194
sg394
V188
p1195
sg396
V2017
p1196
sg398
F21.0
sg399
VDEC 31, 1995
p1197
sg401
V6-5
p1198
sg403
VEdmond Sumner
p1199
sg405
I1610612754
sg406
g19
sg408
g504
sg409
V00
p1200
sg411
g69
sg412
I1628410
ssI1628411
(dp1201
g2
VKansas State
p1202
sg4
V195
p1203
sg6
V2017
p1204
sg8
F22.0
sg9
VDEC 20, 1994
p1205
sg11
V6-7
p1206
sg13
VWes Iwundu
p1207
sg15
I1610612753
sg16
V25
p1208
sg18
g504
sg20
V00
p1209
sg22
g111
sg24
I1628411
ssI1628412
(dp1210
g282
VKansas
p1211
sg284
V190
p1212
sg286
V2017
p1213
sg288
F23.0
sg289
VAPR 03, 1994
p1214
sg291
V5-11
p1215
sg293
VFrank Mason
p1216
sg295
I1610612758
sg296
V10
p1217
sg298
g504
sg299
V00
p1218
sg301
g69
sg302
I1628412
ssI1628414
(dp1219
g113
VSouth Carolina
p1220
sg115
V215
p1221
sg117
V2017
p1222
sg119
F22.0
sg120
VNOV 15, 1994
p1223
sg122
V6-5
p1224
sg124
VSindarius Thornwell
p1225
sg126
I1610612746
sg127
g64
sg128
g504
sg129
V00
p1226
sg131
g69
sg133
I1628414
ssI1628415
(dp1227
g135
VOregon
p1228
sg137
V220
p1229
sg139
V2017
p1230
sg141
F21.0
sg142
VJAN 22, 1996
p1231
sg144
V6-6
p1232
sg146
VDillon Brooks
p1233
sg148
I1610612763
sg149
V24
p1234
sg150
g504
sg151
V00
p1235
sg153
VF-G
p1236
sg154
I1628415
ssI1628416
(dp1237
g949
VOregon
p1238
sg951
V183
p1239
sg953
V2017
p1240
sg955
F21.0
sg956
VFEB 18, 1996
p1241
sg958
V6-4
p1242
sg960
VTyler Dorsey
p1243
sg962
I1610612737
sg963
g43
sg965
g504
sg966
V00
p1244
sg968
g69
sg970
I1628416
ssI1628418
(dp1245
g660
VIndiana
p1246
sg662
V248
p1247
sg664
V2017
p1248
sg666
F20.0
sg667
VJUL 31, 1997
p1249
sg669
V6-10
p1250
sg671
VThomas Bryant
p1251
sg673
I1610612747
sg674
V31
p1252
sg675
g504
sg676
V00
p1253
sg678
g47
sg679
I1628418
ssI1628420
(dp1254
g50
VIowa State
p1255
sg51
V175
p1256
sg53
V2017
p1257
sg55
F22.0
sg56
VJUN 27, 1995
p1258
sg58
V6-3
p1259
sg60
VMonte Morris
p1260
sg62
I1610612743
sg63
V11
p1261
sg65
g504
sg66
V00
p1262
sg68
g69
sg70
I1628420
ssI1628422
(dp1263
g612
VHouston
p1264
sg614
V210
p1265
sg616
V2017
p1266
sg618
F23.0
sg619
VMAY 06, 1994
p1267
sg621
V6-5
p1268
sg623
VDamyean Dotson
p1269
sg625
I1610612752
sg626
V21
p1270
sg628
g504
sg629
V00
p1271
sg631
g69
sg632
I1628422
ssI1628424
(dp1272
g135
VArizona
p1273
sg137
V170
p1274
sg139
V2017
p1275
sg141
F20.0
sg142
VJUL 04, 1997
p1276
sg144
V6-4
p1277
sg146
VKobi Simmons
p1278
sg148
I1610612763
sg149
g43
sg150
g504
sg151
V00
p1279
sg153
g69
sg154
I1628424
ssI1628425
(dp1280
g304
VSouthern Methodist
p1281
sg306
V230
p1282
sg308
V2017
p1283
sg310
F22.0
sg311
VFEB 10, 1995
p1284
sg313
V6-6
p1285
sg315
VSterling Brown
p1286
sg317
I1610612749
sg318
V23
p1287
sg320
g504
sg321
V00
p1288
sg323
g69
sg324
I1628425
ssI1628429
(dp1289
g1129
VDayton
p1290
sg1131
V196
p1291
sg1133
V2017
p1292
sg1135
F23.0
sg1136
VJUL 01, 1994
p1293
sg1138
V6-5
p1294
sg1140
VCharles Cooke
p1295
sg1142
I1610612740
sg1143
g565
sg1145
g504
sg1146
V00
p1296
sg1148
g69
sg1149
I1628429
ssI1628432
(dp1297
g326
VMiami (FL)
p1298
sg328
V210
p1299
sg330
V2017
p1300
sg332
F22.0
sg333
VJUN 11, 1995
p1301
sg335
V6-6
p1302
sg337
VDavon Reed
p1303
sg339
I1610612756
sg340
V32
p1304
sg341
g504
sg342
V00
p1305
sg344
g69
sg345
I1628432
ssI1628436
(dp1306
g612
VVanderbilt
p1307
sg614
V250
p1308
sg616
V2017
p1309
sg618
F22.0
sg619
VJUL 15, 1995
p1310
sg621
V7-1
p1311
sg623
VLuke Kornet
p1312
sg625
I1610612752
sg626
g43
sg628
g504
sg629
V00
p1313
sg631
VF-C
p1314
sg632
I1628436
ssI1628439
(dp1315
g612
VNorth Carolina
p1316
sg614
V242
p1317
sg616
V2017
p1318
sg618
F23.0
sg619
VJUL 24, 1994
p1319
sg621
V6-9
p1320
sg623
VIsaiah Hicks
p1321
sg625
I1610612752
sg626
g565
sg628
g504
sg629
V00
p1322
sg631
g111
sg632
I1628439
ssI1628443
(dp1323
g519
VArizona
p1324
sg521
V200
p1325
sg523
V2017
p1326
sg525
F24.0
sg526
VJAN 15, 1993
p1327
sg528
V6-3
p1328
sg530
VKadeem Allen
p1329
sg532
I1610612738
sg533
V45
p1330
sg535
g504
sg536
V00
p1331
sg538
g69
sg539
I1628443
ssI1628444
(dp1332
g519
VCalifornia
p1333
sg521
V198
p1334
sg523
V2017
p1335
sg525
F23.0
sg526
VJUL 03, 1994
p1336
sg528
V6-6
p1337
sg530
VJabari Bird
p1338
sg532
I1610612738
sg533
V26
p1339
sg535
g504
sg536
V00
p1340
sg538
g69
sg539
I1628444
ssI1628449
(dp1341
g438
VOregon
p1342
sg440
V200
p1343
sg442
V2017
p1344
sg444
F24.0
sg445
VJAN 11, 1993
p1345
sg447
V6-10
p1346
sg449
VChris Boucher
p1347
sg451
I1610612744
sg452
V25
p1348
sg453
g504
sg454
V00
p1349
sg456
g111
sg457
I1628449
ssI1628451
(dp1350
g210
VEastern Washington
p1351
sg212
V223
p1352
sg214
V2017
p1353
sg216
F23.0
sg217
VSEP 04, 1994
p1354
sg219
V6-8
p1355
sg221
VJacob Wiley
p1356
sg223
I1610612751
sg224
V21
p1357
sg225
g504
sg226
V00
p1358
sg228
g111
sg229
I1628451
ssI1628455
(dp1359
g326
VLamar
p1360
sg328
V195
p1361
sg330
V2017
p1362
sg332
F27.0
sg333
VAUG 18, 1990
p1363
sg335
V6-1
p1364
sg337
VMike James
p1365
sg339
I1610612756
sg340
V55
p1366
sg341
g504
sg342
V00
p1367
sg344
g69
sg345
I1628455
ssI1628462
(dp1368
g113
Nsg115
V196
p1369
sg117
V2017
p1370
sg119
F30.0
sg120
VMAR 19, 1987
p1371
sg122
V6-5
p1372
sg124
VMilos Teodosic
p1373
sg126
I1610612746
sg127
g565
sg128
g504
sg129
V00
p1374
sg131
g69
sg133
I1628462
ssI1628463
(dp1375
g949
VGeorge Washington
p1376
sg951
V238
p1377
sg953
V2017
p1378
sg955
F23.0
sg956
VFEB 09, 1994
p1379
sg958
V6-9
p1380
sg960
VTyler Cavanaugh
p1381
sg962
I1610612737
sg963
V34
p1382
sg965
g504
sg966
V00
p1383
sg968
g111
sg970
I1628463
ssI1628464
(dp1384
g519
Nsg521
V243
p1385
sg523
V2017
p1386
sg525
F25.0
sg526
VAPR 04, 1992
p1387
sg528
V6-9
p1388
sg530
VDaniel Theis
p1389
sg532
I1610612738
sg533
V27
p1390
sg535
g504
sg536
V00
p1391
sg538
VF-C
p1392
sg539
I1628464
ssI1628467
(dp1393
g740
Nsg742
V220
p1394
sg744
V2017
p1395
sg746
F25.0
sg747
VJAN 29, 1992
p1396
sg749
V6-11
p1397
sg751
VMaxi Kleber
p1398
sg753
I1610612742
sg754
V42
p1399
sg755
g504
sg757
V00
p1400
sg759
g111
sg760
I1628467
ssI1628469
(dp1401
g370
VLouisiana State
p1402
sg372
V197
p1403
sg374
V2017
p1404
sg376
F21.0
sg377
VOCT 04, 1996
p1405
sg379
V6-4
p1406
sg381
VAntonio Blakeney
p1407
sg383
I1610612741
sg384
g851
sg386
g504
sg387
V00
p1408
sg389
g69
sg390
I1628469
ssI1628470
(dp1409
g50
VSouth Carolina Upstate
p1410
sg51
V215
p1411
sg53
V2017
p1412
sg55
F26.0
sg56
VDEC 19, 1990
p1413
sg58
V6-6
p1414
sg60
VTorrey Craig
p1415
sg62
I1610612743
sg63
g109
sg65
g504
sg66
V00
p1416
sg68
VG-F
p1417
sg70
I1628470
ssI1628473
(dp1418
g210
Nsg212
V220
p1419
sg214
V2017
p1420
sg216
F25.0
sg217
VJAN 24, 1992
p1421
sg219
V6-4
p1422
sg221
VYakuba Ouattara
p1423
sg223
I1610612751
sg224
V00
p1424
sg225
g504
sg226
V00
p1425
sg228
g69
sg229
I1628473
ssI1628475
(dp1426
g250
VCentral Florida
p1427
sg252
V210
p1428
sg254
V2017
p1429
sg256
F24.0
sg257
VOCT 14, 1993
p1430
sg259
V6-5
p1431
sg261
VMatt Williams Jr.
p1432
sg263
I1610612748
sg264
V12
p1433
sg266
g504
sg267
V00
p1434
sg269
g69
sg270
I1628475
ssI1628476
(dp1435
g250
VMichigan
p1436
sg252
V185
p1437
sg254
V2017
p1438
sg256
F22.0
sg257
VAPR 03, 1995
p1439
sg259
V6-1
p1440
sg261
VDerrick Walton Jr.
p1441
sg263
I1610612748
sg264
V14
p1442
sg266
g504
sg267
V00
p1443
sg269
g69
sg270
I1628476
ssI203076
(dp1444
g1129
VKentucky
p1445
sg1131
V253
p1446
sg1133
V2017
p1447
sg1135
F24.0
sg1136
VMAR 11, 1993
p1448
sg1138
V6-10
p1449
sg1140
VAnthony Davis
p1450
sg1142
I1610612740
sg1143
V23
p1451
sg1145
g19
sg1146
V00
p1452
sg1148
VF-C
p1453
sg1149
I203076
ssI203079
(dp1454
g250
VSyracuse
p1455
sg252
V215
p1456
sg254
V2017
p1457
sg256
F25.0
sg257
VDEC 10, 1991
p1458
sg259
V6-4
p1459
sg261
VDion Waiters
p1460
sg263
I1610612748
sg264
V11
p1461
sg266
g19
sg267
V00
p1462
sg269
g69
sg270
I203079
ssI203081
(dp1463
g590
VWeber State
p1464
sg592
V195
p1465
sg594
V2017
p1466
sg596
F27.0
sg597
VJUL 15, 1990
p1467
sg599
V6-3
p1468
sg601
VDamian Lillard
p1469
sg603
I1610612757
sg604
g64
sg605
g19
sg606
V00
p1470
sg608
g69
sg610
I203081
ssI203082
(dp1471
g2
VWashington
p1472
sg4
V206
p1473
sg6
V2017
p1474
sg8
F26.0
sg9
VFEB 05, 1991
p1475
sg11
V6-7
p1476
sg13
VTerrence Ross
p1477
sg15
I1610612753
sg16
V31
p1478
sg18
g19
sg20
V00
p1479
sg22
VG-F
p1480
sg24
I203082
ssI1628492
(dp1481
g740
VColorado State
p1482
sg742
V185
p1483
sg744
V2017
p1484
sg746
F23.0
sg747
VNOV 26, 1993
p1485
sg749
V6-4
p1486
sg751
VGian Clavell
p1487
sg753
I1610612742
sg754
g41
sg755
g504
sg757
V00
p1488
sg759
g69
sg760
I1628492
ssI203085
(dp1489
g113
VDuke
p1490
sg115
V200
p1491
sg117
V2017
p1492
sg119
F25.0
sg120
VAUG 01, 1992
p1493
sg122
V6-4
p1494
sg124
VAustin Rivers
p1495
sg126
I1610612746
sg127
V25
p1496
sg128
g19
sg129
V00
p1497
sg131
g69
sg133
I203085
ssI203086
(dp1498
g590
VIllinois
p1499
sg592
V255
p1500
sg594
V2017
p1501
sg596
F25.0
sg597
VFEB 27, 1992
p1502
sg599
V7-1
p1503
sg601
VMeyers Leonard
p1504
sg603
I1610612757
sg604
V11
p1505
sg605
g19
sg606
V00
p1506
sg608
g47
sg610
I203086
ssI203089
(dp1507
g304
VNorth Carolina
p1508
sg306
V229
p1509
sg308
V2017
p1510
sg310
F26.0
sg311
VDEC 28, 1990
p1511
sg313
V6-11
p1512
sg315
VJohn Henson
p1513
sg317
I1610612749
sg318
V31
p1514
sg320
g19
sg321
V00
p1515
sg323
VF-C
p1516
sg324
I203089
ssI203090
(dp1517
g590
VSt. John's (NY)
p1518
sg592
V220
p1519
sg594
V2017
p1520
sg596
F24.0
sg597
VMAY 11, 1993
p1521
sg599
V6-9
p1522
sg601
VMaurice Harkless
p1523
sg603
I1610612757
sg604
g565
sg605
g19
sg606
V00
p1524
sg608
g111
sg610
I203090
ssI203092
(dp1525
g210
VNorth Carolina
p1526
sg212
V250
p1527
sg214
V2017
p1528
sg216
F27.0
sg217
VJAN 17, 1990
p1529
sg219
V7-0
p1530
sg221
VTyler Zeller
p1531
sg223
I1610612751
sg224
V44
p1532
sg225
g19
sg226
V00
p1533
sg228
g47
sg229
I203092
ssI1628503
(dp1534
g2
VPittsburgh
p1535
sg4
V213
p1536
sg6
V2017
p1537
sg8
F24.0
sg9
VJAN 12, 1993
p1538
sg11
V6-7
p1539
sg13
VJamel Artis
p1540
sg15
I1610612753
sg16
g64
sg18
g504
sg20
V00
p1541
sg22
g69
sg24
I1628503
ssI1628506
(dp1542
g718
VVirginia
p1543
sg720
V190
p1544
sg722
V2017
p1545
sg724
F23.0
sg725
VOCT 03, 1994
p1546
sg727
V6-2
p1547
sg729
VLondon Perrantes
p1548
sg731
I1610612739
sg732
V15
p1549
sg734
g504
sg735
V00
p1550
sg737
g69
sg738
I1628506
ssI203101
(dp1551
g949
VDuke
p1552
sg951
V249
p1553
sg953
V2017
p1554
sg955
F29.0
sg956
VSEP 01, 1988
p1555
sg958
V6-11
p1556
sg960
VMiles Plumlee
p1557
sg962
I1610612737
sg963
V18
p1558
sg965
g19
sg966
V00
p1559
sg968
g47
sg970
I203101
ssI2403
(dp1560
g568
VSao Carlos, Brazil
p1561
sg570
V250
p1562
sg572
V2017
p1563
sg574
F35.0
sg575
VSEP 13, 1982
p1564
sg577
V6-11
p1565
sg579
VNene
p1566
sg581
I1610612745
sg582
V42
p1567
sg583
V15
p1568
sg585
V00
p1569
sg587
VC-F
p1570
sg588
I2403
ssI203109
(dp1571
g718
VMarquette
p1572
sg720
V235
p1573
sg722
V2017
p1574
sg724
F27.0
sg725
VJUL 06, 1990
p1575
sg727
V6-6
p1576
sg729
VJae Crowder
p1577
sg731
I1610612739
sg732
V99
p1578
sg734
g19
sg735
V00
p1579
sg737
g111
sg738
I203109
ssI203110
(dp1580
g438
VMichigan State
p1581
sg440
V230
p1582
sg442
V2017
p1583
sg444
F27.0
sg445
VMAR 04, 1990
p1584
sg447
V6-7
p1585
sg449
VDraymond Green
p1586
sg451
I1610612744
sg452
V23
p1587
sg453
g19
sg454
V00
p1588
sg456
g111
sg457
I203110
ssI203112
(dp1589
g210
VBaylor
p1590
sg212
V240
p1591
sg214
V2017
p1592
sg216
F27.0
sg217
VOCT 06, 1990
p1593
sg219
V6-7
p1594
sg221
VQuincy Acy
p1595
sg223
I1610612751
sg224
V13
p1596
sg225
g19
sg226
V00
p1597
sg228
g111
sg229
I203112
ssI203114
(dp1598
g304
VTexas A&M
p1599
sg306
V234
p1600
sg308
V2017
p1601
sg310
F26.0
sg311
VAUG 12, 1991
p1602
sg313
V6-8
p1603
sg315
VKhris Middleton
p1604
sg317
I1610612749
sg318
V22
p1605
sg320
g19
sg321
V00
p1606
sg323
g111
sg324
I203114
ssI203115
(dp1607
g50
VMemphis
p1608
sg51
V190
p1609
sg53
V2017
p1610
sg55
F26.0
sg56
VJAN 06, 1991
p1611
sg58
V6-6
p1612
sg60
VWill Barton
p1613
sg62
I1610612743
sg63
g19
sg65
g19
sg66
V00
p1614
sg68
VG-F
p1615
sg70
I203115
ssI200765
(dp1616
g1129
VKentucky
p1617
sg1131
V186
p1618
sg1133
V2017
p1619
sg1135
F31.0
sg1136
VFEB 22, 1986
p1620
sg1138
V6-1
p1621
sg1140
VRajon Rondo
p1622
sg1142
I1610612740
sg1143
g851
sg1145
V11
p1623
sg1146
V00
p1624
sg1148
g69
sg1149
I200765
ssI203121
(dp1625
g1129
VKentucky
p1626
sg1131
V225
p1627
sg1133
V2017
p1628
sg1135
F27.0
sg1136
VMAR 21, 1990
p1629
sg1138
V6-8
p1630
sg1140
VDarius Miller
p1631
sg1142
I1610612740
sg1143
V21
p1632
sg1145
g109
sg1146
V00
p1633
sg1148
g111
sg1149
I203121
ssI203124
(dp1634
g612
VNorfolk State
p1635
sg614
V250
p1636
sg616
V2017
p1637
sg618
F27.0
sg619
VMAR 26, 1990
p1638
sg621
V6-10
p1639
sg623
VKyle O'Quinn
p1640
sg625
I1610612752
sg626
g851
sg628
g19
sg629
V00
p1641
sg631
VC-F
p1642
sg632
I203124
ssI203141
(dp1643
g304
VBosnia
p1644
sg306
V242
p1645
sg308
V2017
p1646
sg310
F32.0
sg311
VSEP 17, 1985
p1647
sg313
V6-9
p1648
sg315
VMirza Teletovic
p1649
sg317
I1610612749
sg318
V35
p1650
sg320
g19
sg321
V00
p1651
sg323
g111
sg324
I203141
ssI203145
(dp1652
g949
VOld Dominion
p1653
sg951
V201
p1654
sg953
V2017
p1655
sg955
F28.0
sg956
VJUL 01, 1989
p1656
sg958
V6-5
p1657
sg960
VKent Bazemore
p1658
sg962
I1610612737
sg963
V24
p1659
sg965
g19
sg966
V00
p1660
sg968
g69
sg970
I203145
ssI203506
(dp1661
g392
VIndiana
p1662
sg394
V210
p1663
sg396
V2017
p1664
sg398
F25.0
sg399
VMAY 04, 1992
p1665
sg401
V6-4
p1666
sg403
VVictor Oladipo
p1667
sg405
I1610612754
sg406
g565
sg408
g565
sg409
V00
p1668
sg411
g69
sg412
I203506
ssI203186
(dp1669
g113
VSaint Louis
p1670
sg115
V245
p1671
sg117
V2017
p1672
sg119
F27.0
sg120
VMAY 16, 1990
p1673
sg122
V6-11
p1674
sg124
VWillie Reed
p1675
sg126
I1610612746
sg127
V35
p1676
sg128
g43
sg129
V00
p1677
sg131
g47
sg133
I203186
ssI201142
(dp1678
g438
VTexas
p1679
sg440
V240
p1680
sg442
V2017
p1681
sg444
F29.0
sg445
VSEP 29, 1988
p1682
sg447
V6-9
p1683
sg449
VKevin Durant
p1684
sg451
I1610612744
sg452
V35
p1685
sg453
V10
p1686
sg454
V00
p1687
sg456
g111
sg457
I201142
ssI201143
(dp1688
g519
VFlorida
p1689
sg521
V245
p1690
sg523
V2017
p1691
sg525
F31.0
sg526
VJUN 03, 1986
p1692
sg528
V6-10
p1693
sg530
VAl Horford
p1694
sg532
I1610612738
sg533
V42
p1695
sg535
V10
p1696
sg536
V00
p1697
sg538
VF-C
p1698
sg539
I201143
ssI201144
(dp1699
g135
VOhio State
p1700
sg137
V175
p1701
sg139
V2017
p1702
sg141
F30.0
sg142
VOCT 11, 1987
p1703
sg144
V6-1
p1704
sg146
VMike Conley
p1705
sg148
I1610612763
sg149
V11
p1706
sg150
V10
p1707
sg151
V00
p1708
sg153
g69
sg154
I201144
ssI201145
(dp1709
g718
VGeorgetown
p1710
sg720
V235
p1711
sg722
V2017
p1712
sg724
F31.0
sg725
VAUG 28, 1986
p1713
sg727
V6-9
p1714
sg729
VJeff Green
p1715
sg731
I1610612739
sg732
V32
p1716
sg734
g851
sg735
V00
p1717
sg737
g111
sg738
I201145
ssI201147
(dp1718
g660
VFlorida
p1719
sg662
V186
p1720
sg664
V2017
p1721
sg666
F31.0
sg667
VMAR 05, 1986
p1722
sg669
V6-9
p1723
sg671
VCorey Brewer
p1724
sg673
I1610612747
sg674
g109
sg675
V10
p1725
sg676
V00
p1726
sg678
g111
sg679
I201147
ssI201148
(dp1727
g135
VNorth Carolina
p1728
sg137
V235
p1729
sg139
V2017
p1730
sg141
F30.0
sg142
VOCT 05, 1987
p1731
sg144
V6-10
p1732
sg146
VBrandan Wright
p1733
sg148
I1610612763
sg149
V34
p1734
sg150
g851
sg151
V00
p1735
sg153
VF-C
p1736
sg154
I201148
ssI201149
(dp1737
g612
VFlorida
p1738
sg614
V230
p1739
sg616
V2017
p1740
sg618
F32.0
sg619
VFEB 25, 1985
p1741
sg621
V6-11
p1742
sg623
VJoakim Noah
p1743
sg625
I1610612752
sg626
V13
p1744
sg628
V10
p1745
sg629
V00
p1746
sg631
g47
sg632
I201149
ssI203200
(dp1747
g370
VWashington
p1748
sg372
V185
p1749
sg374
V2017
p1750
sg376
F28.0
sg377
VAPR 05, 1989
p1751
sg379
V6-6
p1752
sg381
VJustin Holiday
p1753
sg383
I1610612741
sg384
g207
sg386
g565
sg387
V00
p1754
sg389
g69
sg390
I203200
ssI201156
(dp1755
g438
VSouthern California
p1756
sg440
V210
p1757
sg442
V2017
p1758
sg444
F32.0
sg445
VJUN 01, 1985
p1759
sg447
V6-7
p1760
sg449
VNick Young
p1761
sg451
I1610612744
sg452
g584
sg453
V10
p1762
sg454
V00
p1763
sg456
VG-F
p1764
sg457
I201156
ssI201158
(dp1765
g949
VBologna, Italy
p1766
sg951
V210
p1767
sg953
V2017
p1768
sg955
F31.0
sg956
VMAR 25, 1986
p1769
sg958
V6-5
p1770
sg960
VMarco Belinelli
p1771
sg962
I1610612737
sg963
g109
sg965
V10
p1772
sg966
V00
p1773
sg968
VG-F
p1774
sg970
I201158
ssI203210
(dp1775
g135
VAlabama
p1776
sg137
V227
p1777
sg139
V2017
p1778
sg141
F27.0
sg142
VJUN 21, 1990
p1779
sg144
V6-9
p1780
sg146
VJaMychal Green
p1781
sg148
I1610612763
sg149
g64
sg150
g109
sg151
V00
p1782
sg153
g111
sg154
I203210
ssI201163
(dp1783
g50
VDePaul
p1784
sg51
V225
p1785
sg53
V2017
p1786
sg55
F30.0
sg56
VMAY 10, 1987
p1787
sg58
V6-9
p1788
sg60
VWilson Chandler
p1789
sg62
I1610612743
sg63
V21
p1790
sg65
g851
sg66
V00
p1791
sg68
g111
sg70
I201163
ssI201166
(dp1792
g72
VOregon
p1793
sg74
V161
p1794
sg76
V2017
p1795
sg78
F32.0
sg79
VJAN 14, 1985
p1796
sg81
V6-0
p1797
sg83
VAaron Brooks
p1798
sg85
I1610612750
sg86
V30
p1799
sg88
g851
sg89
V00
p1800
sg91
g69
sg92
I201166
ssI201167
(dp1801
g2
VUCLA
p1802
sg4
V210
p1803
sg6
V2017
p1804
sg8
F32.0
sg9
VOCT 15, 1985
p1805
sg11
V6-5
p1806
sg13
VArron Afflalo
p1807
sg15
I1610612753
sg16
g565
sg18
V10
p1808
sg20
V00
p1809
sg22
g69
sg24
I201167
ssI101112
(dp1810
g718
VArizona
p1811
sg720
V255
p1812
sg722
V2017
p1813
sg724
F34.0
sg725
VMAY 17, 1983
p1814
sg727
V6-11
p1815
sg729
VChanning Frye
p1816
sg731
I1610612739
sg732
g41
sg734
V11
p1817
sg735
V00
p1818
sg737
g111
sg738
I101112
ssI201177
(dp1819
g740
VDuke
p1820
sg742
V240
p1821
sg744
V2017
p1822
sg746
F30.0
sg747
VFEB 28, 1987
p1823
sg749
V6-10
p1824
sg751
VJosh McRoberts
p1825
sg753
I1610612742
sg754
V13
p1826
sg755
V10
p1827
sg757
V00
p1828
sg759
VF-C
p1829
sg760
I201177
ssI201188
(dp1830
g135
VBarcelona, Spain
p1831
sg137
V255
p1832
sg139
V2017
p1833
sg141
F32.0
sg142
VJAN 29, 1985
p1834
sg144
V7-1
p1835
sg146
VMarc Gasol
p1836
sg148
I1610612763
sg149
V33
p1837
sg150
g851
sg151
V00
p1838
sg153
g47
sg154
I201188
ssI201196
(dp1839
g612
VNevada
p1840
sg614
V190
p1841
sg616
V2017
p1842
sg618
F31.0
sg619
VAPR 11, 1986
p1843
sg621
V6-3
p1844
sg623
VRamon Sessions
p1845
sg625
I1610612752
sg626
g87
sg628
V10
p1846
sg629
V00
p1847
sg631
g69
sg632
I201196
ssI2544
(dp1848
g718
VSt. Vincent-St. Mary HS (OH)
p1849
sg720
V250
p1850
sg722
V2017
p1851
sg724
F32.0
sg725
VDEC 30, 1984
p1852
sg727
V6-8
p1853
sg729
VLeBron James
p1854
sg731
I1610612739
sg732
V23
p1855
sg734
V14
p1856
sg735
V00
p1857
sg737
VF-G
p1858
sg738
I2544
ssI2546
(dp1859
g487
VSyracuse
p1860
sg489
V240
p1861
sg491
V2017
p1862
sg493
F33.0
sg494
VMAY 29, 1984
p1863
sg496
V6-8
p1864
sg498
VCarmelo Anthony
p1865
sg500
I1610612760
sg501
g207
sg503
V14
p1866
sg505
V00
p1867
sg507
g111
sg508
I2546
ssI2548
(dp1868
g718
VMarquette
p1869
sg720
V220
p1870
sg722
V2017
p1871
sg724
F35.0
sg725
VJAN 17, 1982
p1872
sg727
V6-4
p1873
sg729
VDwyane Wade
p1874
sg731
I1610612739
sg732
g851
sg734
V14
p1875
sg735
V00
p1876
sg737
g69
sg738
I2548
ssI2555
(dp1877
g487
VKansas
p1878
sg489
V255
p1879
sg491
V2017
p1880
sg493
F37.0
sg494
VOCT 26, 1980
p1881
sg496
V6-10
p1882
sg498
VNick Collison
p1883
sg500
I1610612760
sg501
g565
sg503
V13
p1884
sg505
V00
p1885
sg507
g111
sg508
I2555
ssI2561
(dp1886
g438
VXavier
p1887
sg440
V250
p1888
sg442
V2017
p1889
sg444
F37.0
sg445
VAUG 29, 1980
p1890
sg447
V6-9
p1891
sg449
VDavid West
p1892
sg451
I1610612744
sg452
g109
sg453
V14
p1893
sg454
V00
p1894
sg456
g111
sg457
I2561
ssI1626643
(dp1895
g26
VKansas State
p1896
sg28
V200
p1897
sg30
V2017
p1898
sg32
F28.0
sg33
VNOV 10, 1989
p1899
sg35
V6-1
p1900
sg37
VJacob Pullen
p1901
sg39
I1610612755
sg40
V00
p1902
sg42
g504
sg44
V00
p1903
sg46
g69
sg48
I1626643
ssI2585
(dp1904
g438
VTbilisi, Georgia
p1905
sg440
V270
p1906
sg442
V2017
p1907
sg444
F33.0
sg445
VFEB 10, 1984
p1908
sg447
V6-11
p1909
sg449
VZaza Pachulia
p1910
sg451
I1610612744
sg452
V27
p1911
sg453
V14
p1912
sg454
V00
p1913
sg456
g47
sg457
I2585
ssI1626202
(dp1914
g392
VOregon
p1915
sg394
V185
p1916
sg396
V2017
p1917
sg398
F25.0
sg399
VJUN 27, 1992
p1918
sg401
V6-2
p1919
sg403
VJoe Young
p1920
sg405
I1610612754
sg406
g109
sg408
g43
sg409
V00
p1921
sg411
g69
sg412
I1626202
ssI2594
(dp1922
g718
VCreighton
p1923
sg720
V212
p1924
sg722
V2017
p1925
sg724
F36.0
sg725
VMAR 17, 1981
p1926
sg727
V6-7
p1927
sg729
VKyle Korver
p1928
sg731
I1610612739
sg732
V26
p1929
sg734
V14
p1930
sg735
V00
p1931
sg737
g69
sg738
I2594
ssI2617
(dp1932
g250
VFlorida
p1933
sg252
V235
p1934
sg254
V2017
p1935
sg256
F37.0
sg257
VJUN 09, 1980
p1936
sg259
V6-8
p1937
sg261
VUdonis Haslem
p1938
sg263
I1610612748
sg264
V40
p1939
sg266
V14
p1940
sg267
V00
p1941
sg269
g111
sg270
I2617
ssI203382
(dp1942
g519
VWashington State
p1943
sg521
V260
p1944
sg523
V2017
p1945
sg525
F30.0
sg526
VDEC 09, 1986
p1946
sg528
V6-10
p1947
sg530
VAron Baynes
p1948
sg532
I1610612738
sg533
V46
p1949
sg535
g19
sg536
V00
p1950
sg538
g47
sg539
I203382
ssI201152
(dp1951
g392
VGeorgia Tech
p1952
sg394
V230
p1953
sg396
V2017
p1954
sg398
F29.0
sg399
VJUN 21, 1988
p1955
sg401
V6-8
p1956
sg403
VThaddeus Young
p1957
sg405
I1610612754
sg406
V21
p1958
sg408
V10
p1959
sg409
V00
p1960
sg411
g111
sg412
I201152
ssI2733
(dp1961
g438
VPeoria Central HS (IL)
p1962
sg440
V192
p1963
sg442
V2017
p1964
sg444
F32.0
sg445
VSEP 11, 1985
p1965
sg447
V6-7
p1966
sg449
VShaun Livingston
p1967
sg451
I1610612744
sg452
V34
p1968
sg453
V12
p1969
sg454
V00
p1970
sg456
g69
sg457
I2733
ssI2734
(dp1971
g740
VWisconsin
p1972
sg742
V185
p1973
sg744
V2017
p1974
sg746
F34.0
sg747
VFEB 27, 1983
p1975
sg749
V6-3
p1976
sg751
VDevin Harris
p1977
sg753
I1610612742
sg754
V34
p1978
sg755
V13
p1979
sg757
V00
p1980
sg759
g69
sg760
I2734
ssI2736
(dp1981
g660
VDuke
p1982
sg662
V220
p1983
sg664
V2017
p1984
sg666
F32.0
sg667
VAPR 16, 1985
p1985
sg669
V6-9
p1986
sg671
VLuol Deng
p1987
sg673
I1610612747
sg674
g851
sg675
V13
p1988
sg676
V00
p1989
sg678
g111
sg679
I2736
ssI2738
(dp1990
g438
VArizona
p1991
sg440
V215
p1992
sg442
V2017
p1993
sg444
F33.0
sg445
VJAN 28, 1984
p1994
sg447
V6-6
p1995
sg449
VAndre Iguodala
p1996
sg451
I1610612744
sg452
g851
sg453
V13
p1997
sg454
V00
p1998
sg456
VG-F
p1999
sg457
I2738
ssI2744
(dp2000
g392
VPrentiss HS (MS)
p2001
sg394
V280
p2002
sg396
V2017
p2003
sg398
F32.0
sg399
VJAN 04, 1985
p2004
sg401
V6-10
p2005
sg403
VAl Jefferson
p2006
sg405
I1610612754
sg406
V25
p2007
sg408
V13
p2008
sg409
V00
p2009
sg411
g47
sg412
I2744
ssI2747
(dp2010
g718
VSt. Benedict's Prep (NJ)
p2011
sg720
V225
p2012
sg722
V2017
p2013
sg724
F32.0
sg725
VSEP 09, 1985
p2014
sg727
V6-6
p2015
sg729
VJR Smith
p2016
sg731
I1610612739
sg732
g19
sg734
V13
p2017
sg735
V00
p2018
sg737
VG-F
p2019
sg738
I2747
ssI2749
(dp2020
g1129
VSaint Joseph's
p2021
sg1131
V190
p2022
sg1133
V2017
p2023
sg1135
F35.0
sg1136
VFEB 09, 1982
p2024
sg1138
V6-0
p2025
sg1140
VJameer Nelson
p2026
sg1142
I1610612740
sg1143
V14
p2027
sg1145
V13
p2028
sg1146
V00
p2029
sg1148
g69
sg1149
I2749
ssI203457
(dp2030
g740
VKentucky
p2031
sg742
V220
p2032
sg744
V2017
p2033
sg746
F23.0
sg747
VAPR 10, 1994
p2034
sg749
V6-11
p2035
sg751
VNerlens Noel
p2036
sg753
I1610612742
sg754
g109
sg755
g109
sg757
V00
p2037
sg759
g47
sg760
I203457
ssI2754
(dp2038
g1129
VOklahoma State
p2039
sg1131
V213
p2040
sg1133
V2017
p2041
sg1135
F35.0
sg1136
VJAN 11, 1982
p2042
sg1138
V6-4
p2043
sg1140
VTony Allen
p2044
sg1142
I1610612740
sg1143
V24
p2045
sg1145
V13
p2046
sg1146
V00
p2047
sg1148
VG-F
p2048
sg1149
I2754
ssI203459
(dp2049
g210
VCalifornia
p2050
sg212
V215
p2051
sg214
V2017
p2052
sg216
F25.0
sg217
VAPR 09, 1992
p2053
sg219
V6-6
p2054
sg221
VAllen Crabbe
p2055
sg223
I1610612751
sg224
V33
p2056
sg225
g565
sg226
V00
p2057
sg228
VG-F
p2058
sg229
I203459
ssI203460
(dp2059
g487
VColorado
p2060
sg489
V210
p2061
sg491
V2017
p2062
sg493
F25.0
sg494
VDEC 04, 1991
p2063
sg496
V6-7
p2064
sg498
VAndre Roberson
p2065
sg500
I1610612760
sg501
V21
p2066
sg503
g565
sg505
V00
p2067
sg507
g69
sg508
I203460
ssI203463
(dp2068
g135
VKansas
p2069
sg137
V195
p2070
sg139
V2017
p2071
sg141
F24.0
sg142
VFEB 11, 1993
p2072
sg144
V6-5
p2073
sg146
VBen McLemore
p2074
sg148
I1610612763
sg149
V23
p2075
sg150
g565
sg151
V00
p2076
sg153
g69
sg154
I203463
ssI203464
(dp2077
g178
Nsg180
V200
p2078
sg182
V2017
p2079
sg184
F26.0
sg185
VAPR 30, 1991
p2080
sg187
V6-4
p2081
sg189
VBrandon Paul
p2082
sg191
I1610612759
sg192
g109
sg194
g504
sg196
V00
p2083
sg198
g69
sg199
I203464
ssI203468
(dp2084
g590
VLehigh
p2085
sg592
V190
p2086
sg594
V2017
p2087
sg596
F26.0
sg597
VSEP 19, 1991
p2088
sg599
V6-3
p2089
sg601
VCJ McCollum
p2090
sg603
I1610612757
sg604
g109
sg605
g565
sg606
V00
p2091
sg608
g69
sg610
I203468
ssI203471
(dp2092
g949
VGermany
p2093
sg951
V172
p2094
sg953
V2017
p2095
sg955
F24.0
sg956
VSEP 15, 1993
p2096
sg958
V6-1
p2097
sg960
VDennis Schroder
p2098
sg962
I1610612737
sg963
V17
p2099
sg965
g565
sg966
V00
p2100
sg968
g69
sg970
I203471
ssI203473
(dp2101
g949
VSouthern California
p2102
sg951
V245
p2103
sg953
V2017
p2104
sg955
F28.0
sg956
VAUG 12, 1989
p2105
sg958
V7-0
p2106
sg960
VDewayne Dedmon
p2107
sg962
I1610612737
sg963
V14
p2108
sg965
g565
sg966
V00
p2109
sg968
g47
sg970
I203473
ssI2772
(dp2110
g568
VUCLA
p2111
sg570
V215
p2112
sg572
V2017
p2113
sg574
F32.0
sg575
VJUN 30, 1985
p2114
sg577
V6-8
p2115
sg579
VTrevor Ariza
p2116
sg581
I1610612745
sg582
g87
sg583
V13
p2117
sg585
V00
p2118
sg587
VF-G
p2119
sg588
I2772
ssI203481
(dp2120
g740
VKansas
p2121
sg742
V230
p2122
sg744
V2017
p2123
sg746
F27.0
sg747
VMAR 07, 1990
p2124
sg749
V7-0
p2125
sg751
VJeff Withey
p2126
sg753
I1610612742
sg754
V17
p2127
sg755
g565
sg757
V00
p2128
sg759
g47
sg760
I203481
ssI203482
(dp2129
g250
VGonzaga
p2130
sg252
V245
p2131
sg254
V2017
p2132
sg256
F26.0
sg257
VAPR 19, 1991
p2133
sg259
V7-0
p2134
sg261
VKelly Olynyk
p2135
sg263
I1610612748
sg264
g851
sg266
g565
sg267
V00
p2136
sg269
VC-F
p2137
sg270
I203482
ssI203484
(dp2138
g660
VGeorgia
p2139
sg662
V205
p2140
sg664
V2017
p2141
sg666
F24.0
sg667
VFEB 18, 1993
p2142
sg669
V6-5
p2143
sg671
VKentavious Caldwell-Pope
p2144
sg673
I1610612747
sg674
g87
sg675
g565
sg676
V00
p2145
sg678
g69
sg679
I203484
ssI203485
(dp2146
g156
VNorth Carolina State
p2147
sg158
V189
p2148
sg160
V2017
p2149
sg162
F27.0
sg163
VAUG 26, 1990
p2150
sg165
V6-5
p2151
sg167
VLorenzo Brown
p2152
sg169
I1610612761
sg170
g565
sg172
g109
sg173
V00
p2153
sg175
g69
sg176
I203485
ssI203486
(dp2154
g50
VDuke
p2155
sg51
V255
p2156
sg53
V2017
p2157
sg55
F27.0
sg56
VMAR 05, 1990
p2158
sg58
V6-11
p2159
sg60
VMason Plumlee
p2160
sg62
I1610612743
sg63
V24
p2161
sg65
g565
sg66
V00
p2162
sg68
VC-F
p2163
sg70
I203486
ssI203488
(dp2164
g949
VBucknell
p2165
sg951
V240
p2166
sg953
V2017
p2167
sg955
F26.0
sg956
VJUL 01, 1991
p2168
sg958
V6-11
p2169
sg960
VMike Muscala
p2170
sg962
I1610612737
sg963
V31
p2171
sg965
g565
sg966
V00
p2172
sg968
VF-C
p2173
sg970
I203488
ssI203489
(dp2174
g347
VSouth Dakota State
p2175
sg349
V190
p2176
sg351
V2017
p2177
sg353
F26.0
sg354
VMAY 15, 1991
p2178
sg356
V6-4
p2179
sg358
VNate Wolters
p2180
sg360
I1610612762
sg361
V16
p2181
sg363
g43
sg365
V00
p2182
sg367
g69
sg368
I203489
ssI203496
(dp2183
g26
VTennessee State
p2184
sg28
V225
p2185
sg30
V2017
p2186
sg32
F26.0
sg33
VDEC 14, 1990
p2187
sg35
V6-9
p2188
sg37
VRobert Covington
p2189
sg39
I1610612755
sg40
V33
p2190
sg42
g565
sg44
V00
p2191
sg46
g111
sg48
I203496
ssI203497
(dp2192
g347
VFrance
p2193
sg349
V245
p2194
sg351
V2017
p2195
sg353
F25.0
sg354
VJUN 26, 1992
p2196
sg356
V7-1
p2197
sg358
VRudy Gobert
p2198
sg360
I1610612762
sg361
V27
p2199
sg363
g565
sg365
V00
p2200
sg367
g47
sg368
I203497
ssI203498
(dp2201
g72
VUCLA
p2202
sg74
V221
p2203
sg76
V2017
p2204
sg78
F24.0
sg79
VNOV 13, 1992
p2205
sg81
V6-6
p2206
sg83
VShabazz Muhammad
p2207
sg85
I1610612750
sg86
V15
p2208
sg88
g565
sg89
V00
p2209
sg91
VG-F
p2210
sg92
I203498
ssI203499
(dp2211
g519
VMiami (FL)
p2212
sg521
V175
p2213
sg523
V2017
p2214
sg525
F25.0
sg526
VOCT 02, 1992
p2215
sg528
V5-11
p2216
sg530
VShane Larkin
p2217
sg532
I1610612738
sg533
g41
sg535
g109
sg536
V00
p2218
sg538
g69
sg539
I203499
ssI203500
(dp2219
g487
VPittsburgh
p2220
sg489
V255
p2221
sg491
V2017
p2222
sg493
F24.0
sg494
VJUL 20, 1993
p2223
sg496
V7-0
p2224
sg498
VSteven Adams
p2225
sg500
I1610612760
sg501
V12
p2226
sg503
g565
sg505
V00
p2227
sg507
g47
sg508
I203500
ssI203501
(dp2228
g612
VMichigan
p2229
sg614
V205
p2230
sg616
V2017
p2231
sg618
F25.0
sg619
VMAR 16, 1992
p2232
sg621
V6-6
p2233
sg623
VTim Hardaway Jr.
p2234
sg625
I1610612752
sg626
g109
sg628
g565
sg629
V00
p2235
sg631
VF-G
p2236
sg632
I203501
ssI203503
(dp2237
g304
VNew Mexico
p2238
sg306
V221
p2239
sg308
V2017
p2240
sg310
F26.0
sg311
VNOV 10, 1991
p2241
sg313
V6-7
p2242
sg315
VTony Snell
p2243
sg317
I1610612749
sg318
V21
p2244
sg320
g565
sg321
V00
p2245
sg323
g69
sg324
I203503
ssI203505
(dp2246
g660
VMarquette
p2247
sg662
V200
p2248
sg664
V2017
p2249
sg666
F25.0
sg667
VJUL 17, 1992
p2250
sg669
V6-5
p2251
sg671
VVander Blue
p2252
sg673
I1610612747
sg674
V17
p2253
sg675
g43
sg676
V00
p2254
sg678
g69
sg679
I203505
ssI101106
(dp2255
g660
VUtah
p2256
sg662
V260
p2257
sg664
V2017
p2258
sg666
F32.0
sg667
VNOV 28, 1984
p2259
sg669
V7-0
p2260
sg671
VAndrew Bogut
p2261
sg673
I1610612747
sg674
V66
p2262
sg675
V12
p2263
sg676
V00
p2264
sg678
g47
sg679
I101106
ssI203507
(dp2265
g304
VGreece
p2266
sg306
V222
p2267
sg308
V2017
p2268
sg310
F22.0
sg311
VDEC 06, 1994
p2269
sg313
V6-11
p2270
sg315
VGiannis Antetokounmpo
p2271
sg317
I1610612749
sg318
V34
p2272
sg320
g565
sg321
V00
p2273
sg323
g111
sg324
I203507
ssI101108
(dp2274
g568
VWake Forest
p2275
sg570
V175
p2276
sg572
V2017
p2277
sg574
F32.0
sg575
VMAY 06, 1985
p2278
sg577
V6-0
p2279
sg579
VChris Paul
p2280
sg581
I1610612745
sg582
g109
sg583
V12
p2281
sg585
V00
p2282
sg587
g69
sg588
I101108
ssI101109
(dp2283
g487
VNorth Carolina
p2284
sg489
V205
p2285
sg491
V2017
p2286
sg493
F33.0
sg494
VJUN 26, 1984
p2287
sg496
V6-1
p2288
sg498
VRaymond Felton
p2289
sg500
I1610612760
sg501
g43
sg503
V12
p2290
sg505
V00
p2291
sg507
g69
sg508
I101109
ssI203512
(dp2292
g156
Nsg158
V220
p2293
sg160
V2017
p2294
sg162
F25.0
sg163
VJUL 26, 1992
p2295
sg165
V7-0
p2296
sg167
VLucas Nogueira
p2297
sg169
I1610612761
sg170
V92
p2298
sg172
g109
sg173
V00
p2299
sg175
g47
sg176
I203512
ssI203516
(dp2300
g135
VLong Beach State
p2301
sg137
V210
p2302
sg139
V2017
p2303
sg141
F27.0
sg142
VJUL 01, 1990
p2304
sg144
V6-7
p2305
sg146
VJames Ennis III
p2306
sg148
I1610612763
sg149
g41
sg150
g109
sg151
V00
p2307
sg153
g111
sg154
I203516
ssI203518
(dp2308
g487
Nsg489
V190
p2309
sg491
V2017
p2310
sg493
F24.0
sg494
VAUG 01, 1993
p2311
sg496
V6-6
p2312
sg498
VAlex Abrines
p2313
sg500
I1610612760
sg501
g41
sg503
g87
sg505
V00
p2314
sg507
g69
sg508
I203518
ssI203521
(dp2315
g304
VSaint Mary's (CA)
p2316
sg306
V198
p2317
sg308
V2017
p2318
sg310
F27.0
sg311
VSEP 08, 1990
p2319
sg313
V6-4
p2320
sg315
VMatthew Dellavedova
p2321
sg317
I1610612749
sg318
g41
sg320
g565
sg321
V00
p2322
sg323
g69
sg324
I203521
ssI203524
(dp2323
g1129
VArizona
p2324
sg1131
V225
p2325
sg1133
V2017
p2326
sg1135
F26.0
sg1136
VMAR 18, 1991
p2327
sg1138
V6-7
p2328
sg1140
VSolomon Hill
p2329
sg1142
I1610612740
sg1143
V44
p2330
sg1145
g565
sg1146
V00
p2331
sg1148
g111
sg1149
I203524
ssI203526
(dp2332
g347
Nsg349
V179
p2333
sg351
V2017
p2334
sg353
F25.0
sg354
VMAY 19, 1992
p2335
sg356
V6-1
p2336
sg358
VRaul Neto
p2337
sg360
I1610612762
sg361
V25
p2338
sg363
g43
sg365
V00
p2339
sg367
g69
sg368
I203526
ssI101127
(dp2340
g612
VGeorgia Tech
p2341
sg614
V200
p2342
sg616
V2017
p2343
sg618
F34.0
sg619
VOCT 28, 1983
p2344
sg621
V6-3
p2345
sg623
VJarrett Jack
p2346
sg625
I1610612752
sg626
V55
p2347
sg628
V12
p2348
sg629
V00
p2349
sg631
g69
sg632
I101127
ssI203530
(dp2350
g178
Nsg180
V260
p2351
sg182
V2017
p2352
sg184
F26.0
sg185
VSEP 30, 1991
p2353
sg187
V6-11
p2354
sg189
VJoffrey Lauvergne
p2355
sg191
I1610612759
sg192
V77
p2356
sg194
g109
sg196
V00
p2357
sg198
g47
sg199
I203530
ssI101139
(dp2358
g156
VSkyline HS (TX)
p2359
sg158
V225
p2360
sg160
V2017
p2361
sg162
F30.0
sg163
VMAR 18, 1987
p2362
sg165
V6-6
p2363
sg167
VCJ Miles
p2364
sg169
I1610612761
sg170
g64
sg172
V12
p2365
sg173
V00
p2366
sg175
VF-G
p2367
sg176
I101139
ssI101141
(dp2368
g949
VEskisehir, Turkey
p2369
sg951
V235
p2370
sg953
V2017
p2371
sg955
F30.0
sg956
VMAY 15, 1987
p2372
sg958
V6-10
p2373
sg960
VErsan Ilyasova
p2374
sg962
I1610612737
sg963
g207
sg965
g851
sg966
V00
p2375
sg968
g111
sg970
I101141
ssI203546
(dp2376
g1129
VBelmont
p2377
sg1131
V175
p2378
sg1133
V2017
p2379
sg1135
F26.0
sg1136
VMAR 07, 1991
p2380
sg1138
V6-3
p2381
sg1140
VIan Clark
p2382
sg1142
I1610612740
sg1143
g43
sg1145
g565
sg1146
V00
p2383
sg1148
g69
sg1149
I203546
ssI203547
(dp2384
g347
VCampbell
p2385
sg349
V205
p2386
sg351
V2017
p2387
sg353
F27.0
sg354
VMAY 26, 1990
p2388
sg356
V6-8
p2389
sg358
VEric Griffin
p2390
sg360
I1610612762
sg361
V17
p2391
sg363
g504
sg365
V00
p2392
sg367
VC-F
p2393
sg368
I203547
ssI101150
(dp2394
g113
VSouth Gwinnett HS (GA)
p2395
sg115
V175
p2396
sg117
V2017
p2397
sg119
F31.0
sg120
VOCT 27, 1986
p2398
sg122
V6-1
p2399
sg124
VLou Williams
p2400
sg126
I1610612746
sg127
V23
p2401
sg128
V12
p2402
sg129
V00
p2403
sg131
g69
sg133
I101150
ssI203552
(dp2404
g740
VDuke
p2405
sg742
V185
p2406
sg744
V2017
p2407
sg746
F27.0
sg747
VAUG 23, 1990
p2408
sg749
V6-2
p2409
sg751
VSeth Curry
p2410
sg753
I1610612742
sg754
V30
p2411
sg755
g565
sg757
V00
p2412
sg759
g69
sg760
I203552
ssI101161
(dp2413
g26
VWestchester HS (Los Angeles)
p2414
sg28
V240
p2415
sg30
V2017
p2416
sg32
F30.0
sg33
VMAY 01, 1987
p2417
sg35
V6-9
p2418
sg37
VAmir Johnson
p2419
sg39
I1610612755
sg40
g19
sg42
V12
p2420
sg44
V00
p2421
sg46
VF-C
p2422
sg48
I101161
ssI2863
(dp2423
g392
VGeorgia
p2424
sg394
V217
p2425
sg396
V2017
p2426
sg398
F37.0
sg399
VJAN 11, 1980
p2427
sg401
V6-6
p2428
sg403
VDamien Wilkins
p2429
sg405
I1610612754
sg406
V12
p2430
sg408
g851
sg409
V00
p2431
sg411
VG-F
p2432
sg412
I2863
ssI101181
(dp2433
g718
VVillanueva de la Serena, Spain
p2434
sg720
V200
p2435
sg722
V2017
p2436
sg724
F36.0
sg725
VSEP 28, 1981
p2437
sg727
V6-3
p2438
sg729
VJose Calderon
p2439
sg731
I1610612739
sg732
V81
p2440
sg734
V12
p2441
sg735
V00
p2442
sg737
g69
sg738
I101181
ssI203584
(dp2443
g326
VVirginia Commonwealth
p2444
sg328
V205
p2445
sg330
V2017
p2446
sg332
F26.0
sg333
VJUL 15, 1991
p2447
sg335
V6-4
p2448
sg337
VTroy Daniels
p2449
sg339
I1610612756
sg340
V30
p2450
sg341
g565
sg342
V00
p2451
sg344
g69
sg345
I203584
ssI203585
(dp2452
g250
VKansas State
p2453
sg252
V200
p2454
sg254
V2017
p2455
sg256
F26.0
sg257
VJUL 29, 1991
p2456
sg259
V6-4
p2457
sg261
VRodney McGruder
p2458
sg263
I1610612748
sg264
V17
p2459
sg266
g87
sg267
V00
p2460
sg269
VG-F
p2461
sg270
I203585
ssI201563
(dp2462
g612
VKansas State
p2463
sg614
V235
p2464
sg616
V2017
p2465
sg618
F28.0
sg619
VJAN 09, 1989
p2466
sg621
V6-9
p2467
sg623
VMichael Beasley
p2468
sg625
I1610612752
sg626
g41
sg628
g851
sg629
V00
p2469
sg631
g111
sg632
I201563
ssI201565
(dp2470
g718
VMemphis
p2471
sg720
V190
p2472
sg722
V2017
p2473
sg724
F29.0
sg725
VOCT 04, 1988
p2474
sg727
V6-3
p2475
sg729
VDerrick Rose
p2476
sg731
I1610612739
sg732
g87
sg734
g41
sg735
V00
p2477
sg737
g69
sg738
I201565
ssI201566
(dp2478
g487
VUCLA
p2479
sg489
V200
p2480
sg491
V2017
p2481
sg493
F28.0
sg494
VNOV 12, 1988
p2482
sg496
V6-3
p2483
sg498
VRussell Westbrook
p2484
sg500
I1610612760
sg501
g64
sg503
g851
sg505
V00
p2485
sg507
g69
sg508
I201566
ssI201567
(dp2486
g718
VUCLA
p2487
sg720
V251
p2488
sg722
V2017
p2489
sg724
F29.0
sg725
VSEP 07, 1988
p2490
sg727
V6-10
p2491
sg729
VKevin Love
p2492
sg731
I1610612739
sg732
g64
sg734
g851
sg735
V00
p2493
sg737
VF-C
p2494
sg738
I201567
ssI201568
(dp2495
g113
VSant'Angelo Lodigiano, Italy
p2496
sg115
V225
p2497
sg117
V2017
p2498
sg119
F29.0
sg120
VAUG 08, 1988
p2499
sg122
V6-10
p2500
sg124
VDanilo Gallinari
p2501
sg126
I1610612746
sg127
g41
sg128
g41
sg129
V00
p2502
sg131
g111
sg133
I201568
ssI201569
(dp2503
g568
VIndiana
p2504
sg570
V215
p2505
sg572
V2017
p2506
sg574
F28.0
sg575
VDEC 25, 1988
p2507
sg577
V6-4
p2508
sg579
VEric Gordon
p2509
sg581
I1610612745
sg582
V10
p2510
sg583
g851
sg585
V00
p2511
sg587
g69
sg588
I201569
ssI201571
(dp2512
g2
VTexas
p2513
sg4
V183
p2514
sg6
V2017
p2515
sg8
F30.0
sg9
VNOV 10, 1987
p2516
sg11
V6-0
p2517
sg13
VD.J. Augustin
p2518
sg15
I1610612753
sg16
V14
p2519
sg18
g851
sg20
V00
p2520
sg22
g69
sg24
I201571
ssI201572
(dp2521
g660
VStanford
p2522
sg662
V268
p2523
sg664
V2017
p2524
sg666
F29.0
sg667
VAPR 01, 1988
p2525
sg669
V7-0
p2526
sg671
VBrook Lopez
p2527
sg673
I1610612747
sg674
V11
p2528
sg675
g851
sg676
V00
p2529
sg678
g47
sg679
I201572
ssI201573
(dp2530
g26
VArizona
p2531
sg28
V200
p2532
sg30
V2017
p2533
sg32
F29.0
sg33
VAUG 20, 1988
p2534
sg35
V6-3
p2535
sg37
VJerryd Bayless
p2536
sg39
I1610612755
sg40
g64
sg42
g851
sg44
V00
p2537
sg46
g69
sg48
I201573
ssI201577
(dp2538
g370
VStanford
p2539
sg372
V277
p2540
sg374
V2017
p2541
sg376
F29.0
sg377
VAPR 01, 1988
p2542
sg379
V7-0
p2543
sg381
VRobin Lopez
p2544
sg383
I1610612741
sg384
V42
p2545
sg386
g851
sg387
V00
p2546
sg389
g47
sg390
I201577
ssI201578
(dp2547
g2
VFlorida
p2548
sg4
V255
p2549
sg6
V2017
p2550
sg8
F30.0
sg9
VAUG 04, 1987
p2551
sg11
V6-10
p2552
sg13
VMarreese Speights
p2553
sg15
I1610612753
sg16
g19
sg18
g851
sg20
V00
p2554
sg22
VF-C
p2555
sg24
I201578
ssI201580
(dp2556
g438
VNevada
p2557
sg440
V270
p2558
sg442
V2017
p2559
sg444
F29.0
sg445
VJAN 19, 1988
p2560
sg447
V7-0
p2561
sg449
VJaVale McGee
p2562
sg451
I1610612744
sg452
g87
sg453
g851
sg454
V00
p2563
sg456
g47
sg457
I201580
ssI201582
(dp2564
g1129
VSaint Etienne, France
p2565
sg1131
V248
p2566
sg1133
V2017
p2567
sg1135
F29.0
sg1136
VMAY 06, 1988
p2568
sg1138
V7-2
p2569
sg1140
VAlexis Ajinca
p2570
sg1142
I1610612740
sg1143
V42
p2571
sg1145
g207
sg1146
V00
p2572
sg1148
g47
sg1149
I201582
ssI201583
(dp2573
g568
VCalifornia
p2574
sg570
V240
p2575
sg572
V2017
p2576
sg574
F29.0
sg575
VMAY 06, 1988
p2577
sg577
V6-10
p2578
sg579
VRyan Anderson
p2579
sg581
I1610612745
sg582
V33
p2580
sg583
g851
sg585
V00
p2581
sg587
g111
sg588
I201583
ssI201584
(dp2582
g612
VWestern Kentucky
p2583
sg614
V200
p2584
sg616
V2017
p2585
sg618
F32.0
sg619
VOCT 03, 1985
p2586
sg621
V6-5
p2587
sg623
VCourtney Lee
p2588
sg625
I1610612752
sg626
g19
sg628
g851
sg629
V00
p2589
sg631
g69
sg632
I201584
ssI201585
(dp2590
g282
VOhio State
p2591
sg284
V265
p2592
sg286
V2017
p2593
sg288
F28.0
sg289
VFEB 24, 1989
p2594
sg291
V7-0
p2595
sg293
VKosta Koufos
p2596
sg295
I1610612758
sg296
V41
p2597
sg298
g851
sg299
V00
p2598
sg301
g47
sg302
I201585
ssI201586
(dp2599
g156
VBrazzaville, Rep. of Congo
p2600
sg158
V235
p2601
sg160
V2017
p2602
sg162
F28.0
sg163
VSEP 18, 1989
p2603
sg165
V6-10
p2604
sg167
VSerge Ibaka
p2605
sg169
I1610612761
sg170
g851
sg172
g41
sg173
V00
p2606
sg175
g111
sg176
I201586
ssI201588
(dp2607
g282
VIndiana Purdue-Indianapolis
p2608
sg284
V188
p2609
sg286
V2017
p2610
sg288
F31.0
sg289
VMAY 04, 1986
p2611
sg291
V6-3
p2612
sg293
VGeorge Hill
p2613
sg295
I1610612758
sg296
g109
sg298
g851
sg299
V00
p2614
sg301
g69
sg302
I201588
ssI201589
(dp2615
g50
VKansas
p2616
sg51
V235
p2617
sg53
V2017
p2618
sg55
F29.0
sg56
VMAR 25, 1988
p2619
sg58
V6-9
p2620
sg60
VDarrell Arthur
p2621
sg62
I1610612743
sg63
V00
p2622
sg65
g41
sg66
V00
p2623
sg68
g111
sg70
I201589
ssI201596
(dp2624
g135
VKansas
p2625
sg137
V190
p2626
sg139
V2017
p2627
sg141
F31.0
sg142
VMAY 19, 1986
p2628
sg144
V6-2
p2629
sg146
VMario Chalmers
p2630
sg148
I1610612763
sg149
g584
sg150
g41
sg151
V00
p2631
sg153
g69
sg154
I201596
ssI201599
(dp2632
g113
VTexas A&M
p2633
sg115
V265
p2634
sg117
V2017
p2635
sg119
F29.0
sg120
VJUL 21, 1988
p2636
sg122
V6-11
p2637
sg124
VDeAndre Jordan
p2638
sg126
I1610612746
sg127
g584
sg128
g851
sg129
V00
p2639
sg131
g47
sg133
I201599
ssI201600
(dp2640
g1129
VTurkey
p2641
sg1131
V255
p2642
sg1133
V2017
p2643
sg1135
F31.0
sg1136
VJUL 04, 1986
p2644
sg1138
V7-0
p2645
sg1140
VOmer Asik
p2646
sg1142
I1610612740
sg1143
g109
sg1145
g207
sg1146
V00
p2647
sg1148
g47
sg1149
I201600
ssI201601
(dp2648
g568
VUCLA
p2649
sg570
V230
p2650
sg572
V2017
p2651
sg574
F31.0
sg575
VSEP 09, 1986
p2652
sg577
V6-8
p2653
sg579
VLuc Mbah a Moute
p2654
sg581
I1610612745
sg582
V12
p2655
sg583
g851
sg585
V00
p2656
sg587
g111
sg588
I201601
ssI201609
(dp2657
g250
VLjubljana, Slovenia
p2658
sg252
V190
p2659
sg254
V2017
p2660
sg256
F31.0
sg257
VMAY 06, 1986
p2661
sg259
V6-3
p2662
sg261
VGoran Dragic
p2663
sg263
I1610612748
sg264
g207
sg266
g851
sg267
V00
p2664
sg269
g69
sg270
I201609
ssI201628
(dp2665
g568
VCal State-Fullerton
p2666
sg570
V175
p2667
sg572
V2017
p2668
sg574
F33.0
sg575
VSEP 24, 1984
p2669
sg577
V6-2
p2670
sg579
VBobby Brown
p2671
sg581
I1610612745
sg582
g584
sg583
g109
sg585
V00
p2672
sg587
g69
sg588
I201628
ssI203705
(dp2673
g949
VAlabama-Huntsville
p2674
sg951
V160
p2675
sg953
V2017
p2676
sg955
F27.0
sg956
VNOV 28, 1989
p2677
sg958
V6-1
p2678
sg960
VJosh Magette
p2679
sg962
I1610612737
sg963
V11
p2680
sg965
g504
sg966
V00
p2681
sg968
g69
sg970
I203705
ssI203710
(dp2682
g113
VNorth Carolina State
p2683
sg115
V230
p2684
sg117
V2017
p2685
sg119
F27.0
sg120
VFEB 06, 1990
p2686
sg122
V6-5
p2687
sg124
VC.J. Williams
p2688
sg126
I1610612746
sg127
g851
sg128
g504
sg129
V00
p2689
sg131
g69
sg133
I203710
ssI1627098
(dp2690
g949
VVirginia Tech
p2691
sg951
V190
p2692
sg953
V2017
p2693
sg955
F28.0
sg956
VMAR 11, 1989
p2694
sg958
V6-3
p2695
sg960
VMalcolm Delaney
p2696
sg962
I1610612737
sg963
g19
sg965
g87
sg966
V00
p2697
sg968
g69
sg970
I1627098
ssI203613
(dp2698
g2
VHouston
p2699
sg4
V195
p2700
sg6
V2017
p2701
sg8
F28.0
sg9
VSEP 14, 1989
p2702
sg11
V6-6
p2703
sg13
VJonathon Simmons
p2704
sg15
I1610612753
sg16
V17
p2705
sg18
g43
sg20
V00
p2706
sg22
g111
sg24
I203613
ssI203894
(dp2707
g590
VConnecticut
p2708
sg592
V175
p2709
sg594
V2017
p2710
sg596
F26.0
sg597
VJUL 14, 1991
p2711
sg599
V6-1
p2712
sg601
VShabazz Napier
p2713
sg603
I1610612757
sg604
g584
sg605
g109
sg606
V00
p2714
sg608
g69
sg610
I203894
ssI203897
(dp2715
g370
VUCLA
p2716
sg372
V185
p2717
sg374
V2017
p2718
sg376
F22.0
sg377
VMAR 10, 1995
p2719
sg379
V6-5
p2720
sg381
VZach LaVine
p2721
sg383
I1610612741
sg384
g41
sg386
g109
sg387
V00
p2722
sg389
g69
sg390
I203897
ssI203898
(dp2723
g660
VSyracuse
p2724
sg662
V194
p2725
sg664
V2017
p2726
sg666
F23.0
sg667
VAUG 24, 1994
p2727
sg669
V6-3
p2728
sg671
VTyler Ennis
p2729
sg673
I1610612747
sg674
V10
p2730
sg675
g109
sg676
V00
p2731
sg678
g69
sg679
I203898
ssI203901
(dp2732
g2
VLouisiana-Lafayette
p2733
sg4
V185
p2734
sg6
V2017
p2735
sg8
F23.0
sg9
VFEB 22, 1994
p2736
sg11
V6-4
p2737
sg13
VElfrid Payton
p2738
sg15
I1610612753
sg16
g43
sg18
g109
sg20
V00
p2739
sg22
g69
sg24
I203901
ssI203903
(dp2740
g660
VMissouri
p2741
sg662
V194
p2742
sg664
V2017
p2743
sg666
F25.0
sg667
VJUN 07, 1992
p2744
sg669
V6-5
p2745
sg671
VJordan Clarkson
p2746
sg673
I1610612747
sg674
g584
sg675
g109
sg676
V00
p2747
sg678
g69
sg679
I203903
ssI203912
(dp2748
g590
VWashington
p2749
sg592
V195
p2750
sg594
V2017
p2751
sg596
F26.0
sg597
VDEC 30, 1990
p2752
sg599
V6-5
p2753
sg601
VCJ Wilcox
p2754
sg603
I1610612757
sg604
V23
p2755
sg605
g109
sg606
V00
p2756
sg608
g69
sg610
I203912
ssI203914
(dp2757
g50
VMichigan State
p2758
sg51
V210
p2759
sg53
V2017
p2760
sg55
F23.0
sg56
VSEP 14, 1994
p2761
sg58
V6-4
p2762
sg60
VGary Harris
p2763
sg62
I1610612743
sg63
V14
p2764
sg65
g109
sg66
V00
p2765
sg68
g69
sg70
I203914
ssI203915
(dp2766
g210
VColorado
p2767
sg212
V200
p2768
sg214
V2017
p2769
sg216
F24.0
sg217
VAPR 06, 1993
p2770
sg219
V6-6
p2771
sg221
VSpencer Dinwiddie
p2772
sg223
I1610612751
sg224
g41
sg225
g109
sg226
V00
p2773
sg228
g69
sg229
I203915
ssI203917
(dp2774
g26
VMichigan
p2775
sg28
V205
p2776
sg30
V2017
p2777
sg32
F24.0
sg33
VOCT 07, 1993
p2778
sg35
V6-6
p2779
sg37
VNik Stauskas
p2780
sg39
I1610612755
sg40
V11
p2781
sg42
g109
sg44
V00
p2782
sg46
g69
sg48
I203917
ssI203918
(dp2783
g347
VDuke
p2784
sg349
V206
p2785
sg351
V2017
p2786
sg353
F25.0
sg354
VOCT 20, 1992
p2787
sg356
V6-8
p2788
sg358
VRodney Hood
p2789
sg360
I1610612762
sg361
g19
sg363
g109
sg365
V00
p2790
sg367
g69
sg368
I203918
ssI203920
(dp2791
g2
VNevada-Las Vegas
p2792
sg4
V220
p2793
sg6
V2017
p2794
sg8
F25.0
sg9
VSEP 28, 1992
p2795
sg11
V6-9
p2796
sg13
VKhem Birch
p2797
sg15
I1610612753
sg16
V24
p2798
sg18
g504
sg20
V00
p2799
sg22
g47
sg24
I203920
ssI203922
(dp2800
g392
VMichigan
p2801
sg394
V215
p2802
sg396
V2017
p2803
sg398
F23.0
sg399
VJAN 08, 1994
p2804
sg401
V6-7
p2805
sg403
VGlenn Robinson III
p2806
sg405
I1610612754
sg406
V40
p2807
sg408
g109
sg409
V00
p2808
sg411
VG-F
p2809
sg412
I203922
ssI203924
(dp2810
g487
VSyracuse
p2811
sg489
V220
p2812
sg491
V2017
p2813
sg493
F23.0
sg494
VMAR 12, 1994
p2814
sg496
V6-9
p2815
sg498
VJerami Grant
p2816
sg500
I1610612760
sg501
g851
sg503
g109
sg505
V00
p2817
sg507
g111
sg508
I203924
ssI203925
(dp2818
g210
VVirginia
p2819
sg212
V219
p2820
sg214
V2017
p2821
sg216
F26.0
sg217
VSEP 06, 1991
p2822
sg219
V6-6
p2823
sg221
VJoe Harris
p2824
sg223
I1610612751
sg224
V12
p2825
sg225
g109
sg226
V00
p2826
sg228
g69
sg229
I203925
ssI203926
(dp2827
g612
VCreighton
p2828
sg614
V219
p2829
sg616
V2017
p2830
sg618
F25.0
sg619
VJAN 03, 1992
p2831
sg621
V6-8
p2832
sg623
VDoug McDermott
p2833
sg625
I1610612752
sg626
V20
p2834
sg628
g109
sg629
V00
p2835
sg631
g111
sg632
I203926
ssI203930
(dp2836
g210
VCincinnati
p2837
sg212
V212
p2838
sg214
V2017
p2839
sg216
F27.0
sg217
VJAN 06, 1990
p2840
sg219
V6-4
p2841
sg221
VSean Kilpatrick
p2842
sg223
I1610612751
sg224
g584
sg225
g109
sg226
V00
p2843
sg228
g69
sg229
I203930
ssI203932
(dp2844
g2
VArizona
p2845
sg4
V220
p2846
sg6
V2017
p2847
sg8
F22.0
sg9
VSEP 16, 1995
p2848
sg11
V6-9
p2849
sg13
VAaron Gordon
p2850
sg15
I1610612753
sg16
V00
p2851
sg18
g109
sg20
V00
p2852
sg22
g111
sg24
I203932
ssI203933
(dp2853
g326
VNorth Carolina State
p2854
sg328
V215
p2855
sg330
V2017
p2856
sg332
F24.0
sg333
VSEP 05, 1993
p2857
sg335
V6-8
p2858
sg337
VTJ Warren
p2859
sg339
I1610612756
sg340
V12
p2860
sg341
g109
sg342
V00
p2861
sg344
g111
sg345
I203933
ssI203935
(dp2862
g519
VOklahoma State
p2863
sg521
V220
p2864
sg523
V2017
p2865
sg525
F23.0
sg526
VMAR 06, 1994
p2866
sg528
V6-4
p2867
sg530
VMarcus Smart
p2868
sg532
I1610612738
sg533
V36
p2869
sg535
g109
sg536
V00
p2870
sg538
g69
sg539
I203935
ssI203937
(dp2871
g178
VUCLA
p2872
sg180
V230
p2873
sg182
V2017
p2874
sg184
F24.0
sg185
VSEP 20, 1993
p2875
sg187
V6-9
p2876
sg189
VKyle Anderson
p2877
sg191
I1610612759
sg192
g87
sg194
g109
sg196
V00
p2878
sg198
g111
sg199
I203937
ssI203939
(dp2879
g740
VStanford
p2880
sg742
V240
p2881
sg744
V2017
p2882
sg746
F26.0
sg747
VJUL 20, 1991
p2883
sg749
V6-11
p2884
sg751
VDwight Powell
p2885
sg753
I1610612742
sg754
g207
sg755
g109
sg757
V00
p2886
sg759
VF-C
p2887
sg760
I203939
ssI203940
(dp2888
g2
VMichigan State
p2889
sg4
V237
p2890
sg6
V2017
p2891
sg8
F26.0
sg9
VFEB 19, 1991
p2892
sg11
V6-10
p2893
sg13
VAdreian Payne
p2894
sg15
I1610612753
sg16
V33
p2895
sg18
g109
sg20
V00
p2896
sg22
g111
sg24
I203940
ssI203943
(dp2897
g590
VIndiana
p2898
sg592
V245
p2899
sg594
V2017
p2900
sg596
F22.0
sg597
VAUG 24, 1995
p2901
sg599
V6-9
p2902
sg601
VNoah Vonleh
p2903
sg603
I1610612757
sg604
V21
p2904
sg605
g109
sg606
V00
p2905
sg608
g111
sg610
I203943
ssI203944
(dp2906
g660
VKentucky
p2907
sg662
V250
p2908
sg664
V2017
p2909
sg666
F22.0
sg667
VNOV 29, 1994
p2910
sg669
V6-9
p2911
sg671
VJulius Randle
p2912
sg673
I1610612747
sg674
V30
p2913
sg675
g109
sg676
V00
p2914
sg678
VF-C
p2915
sg679
I203944
ssI203949
(dp2916
g26
VNorth Carolina
p2917
sg28
V230
p2918
sg30
V2017
p2919
sg32
F24.0
sg33
VJAN 04, 1993
p2920
sg35
V6-9
p2921
sg37
VJames Michael McAdoo
p2922
sg39
I1610612755
sg40
V14
p2923
sg42
g109
sg44
V00
p2924
sg46
g111
sg48
I203949
ssI203952
(dp2925
g72
VKansas
p2926
sg74
V202
p2927
sg76
V2017
p2928
sg78
F22.0
sg79
VFEB 23, 1995
p2929
sg81
V6-8
p2930
sg83
VAndrew Wiggins
p2931
sg85
I1610612750
sg86
V22
p2932
sg88
g109
sg89
V00
p2933
sg91
g111
sg92
I203952
ssI203953
(dp2934
g304
VDuke
p2935
sg306
V250
p2936
sg308
V2017
p2937
sg310
F22.0
sg311
VMAR 15, 1995
p2938
sg313
V6-8
p2939
sg315
VJabari Parker
p2940
sg317
I1610612749
sg318
V12
p2941
sg320
g109
sg321
V00
p2942
sg323
g111
sg324
I203953
ssI203954
(dp2943
g26
VKansas
p2944
sg28
V250
p2945
sg30
V2017
p2946
sg32
F23.0
sg33
VMAR 16, 1994
p2947
sg35
V7-0
p2948
sg37
VJoel Embiid
p2949
sg39
I1610612755
sg40
V21
p2950
sg42
g87
sg44
V00
p2951
sg46
g47
sg48
I203954
ssI203957
(dp2952
g347
Nsg349
V190
p2953
sg351
V2017
p2954
sg353
F22.0
sg354
VJUL 13, 1995
p2955
sg356
V6-6
p2956
sg358
VDante Exum
p2957
sg360
I1610612762
sg361
V11
p2958
sg363
g43
sg365
V00
p2959
sg367
g69
sg368
I203957
ssI203960
(dp2960
g282
VSt. John's (NY)
p2961
sg284
V207
p2962
sg286
V2017
p2963
sg288
F24.0
sg289
VMAR 20, 1993
p2964
sg291
V6-9
p2965
sg293
VJaKarr Sampson
p2966
sg295
I1610612758
sg296
V29
p2967
sg298
g43
sg299
V00
p2968
sg301
g111
sg302
I203960
ssI203962
(dp2969
g487
VStanford
p2970
sg489
V230
p2971
sg491
V2017
p2972
sg493
F25.0
sg494
VDEC 19, 1991
p2973
sg496
V6-7
p2974
sg498
VJosh Huestis
p2975
sg500
I1610612760
sg501
V34
p2976
sg503
g43
sg505
V00
p2977
sg507
g111
sg508
I203962
ssI203966
(dp2978
g113
VMarquette
p2979
sg115
V229
p2980
sg117
V2017
p2981
sg119
F26.0
sg120
VNOV 21, 1990
p2982
sg122
V6-7
p2983
sg124
VJamil Wilson
p2984
sg126
I1610612746
sg127
V13
p2985
sg128
g504
sg129
V00
p2986
sg131
g111
sg133
I203966
ssI203967
(dp2987
g26
Nsg28
V223
p2988
sg30
V2017
p2989
sg32
F23.0
sg33
VAPR 08, 1994
p2990
sg35
V6-10
p2991
sg37
VDario Saric
p2992
sg39
I1610612755
sg40
g851
sg42
g87
sg44
V00
p2993
sg46
g111
sg48
I203967
ssI201933
(dp2994
g113
VOklahoma
p2995
sg115
V251
p2996
sg117
V2017
p2997
sg119
F28.0
sg120
VMAR 16, 1989
p2998
sg122
V6-10
p2999
sg124
VBlake Griffin
p3000
sg126
I1610612746
sg127
V32
p3001
sg128
g207
sg129
V00
p3002
sg131
g111
sg133
I201933
ssI201935
(dp3003
g568
VArizona State
p3004
sg570
V220
p3005
sg572
V2017
p3006
sg574
F28.0
sg575
VAUG 26, 1989
p3007
sg577
V6-5
p3008
sg579
VJames Harden
p3009
sg581
I1610612745
sg582
V13
p3010
sg583
g41
sg585
V00
p3011
sg587
g69
sg588
I201935
ssI201936
(dp3012
g135
VMemphis
p3013
sg137
V220
p3014
sg139
V2017
p3015
sg141
F28.0
sg142
VSEP 19, 1989
p3016
sg144
V6-6
p3017
sg146
VTyreke Evans
p3018
sg148
I1610612763
sg149
V12
p3019
sg150
g41
sg151
V00
p3020
sg153
VG-F
p3021
sg154
I201936
ssI201937
(dp3022
g347
VEl Masnou, Spain
p3023
sg349
V190
p3024
sg351
V2017
p3025
sg353
F27.0
sg354
VOCT 21, 1990
p3026
sg356
V6-4
p3027
sg358
VRicky Rubio
p3028
sg360
I1610612762
sg361
g109
sg363
g584
sg365
V00
p3029
sg367
g69
sg368
I201937
ssI201939
(dp3030
g438
VDavidson
p3031
sg440
V190
p3032
sg442
V2017
p3033
sg444
F29.0
sg445
VMAR 14, 1988
p3034
sg447
V6-3
p3035
sg449
VStephen Curry
p3036
sg451
I1610612744
sg452
V30
p3037
sg453
g41
sg454
V00
p3038
sg456
g69
sg457
I201939
ssI201942
(dp3039
g156
VSouthern California
p3040
sg158
V220
p3041
sg160
V2017
p3042
sg162
F28.0
sg163
VAUG 07, 1989
p3043
sg165
V6-7
p3044
sg167
VDeMar DeRozan
p3045
sg169
I1610612761
sg170
V10
p3046
sg172
g41
sg173
V00
p3047
sg175
g69
sg176
I201942
ssI203991
(dp3048
g568
Nsg570
V240
p3049
sg572
V2017
p3050
sg574
F23.0
sg575
VMAY 18, 1994
p3051
sg577
V6-10
p3052
sg579
VClint Capela
p3053
sg581
I1610612745
sg582
V15
p3054
sg583
g109
sg585
V00
p3055
sg587
g47
sg588
I203991
ssI203992
(dp3056
g282
Nsg284
V205
p3057
sg286
V2017
p3058
sg288
F25.0
sg289
VAUG 18, 1992
p3059
sg291
V6-6
p3060
sg293
VBogdan Bogdanovic
p3061
sg295
I1610612758
sg296
g41
sg298
g504
sg299
V00
p3062
sg301
g69
sg302
I203992
ssI203994
(dp3063
g590
Nsg592
V280
p3064
sg594
V2017
p3065
sg596
F23.0
sg597
VAUG 23, 1994
p3066
sg599
V7-0
p3067
sg601
VJusuf Nurkic
p3068
sg603
I1610612757
sg604
V27
p3069
sg605
g109
sg606
V00
p3070
sg608
g47
sg610
I203994
ssI201949
(dp3071
g250
VWake Forest
p3072
sg252
V240
p3073
sg254
V2017
p3074
sg256
F30.0
sg257
VFEB 20, 1987
p3075
sg259
V6-8
p3076
sg261
VJames Johnson
p3077
sg263
I1610612748
sg264
V16
p3078
sg266
g41
sg267
V00
p3079
sg269
g111
sg270
I201949
ssI201950
(dp3080
g1129
VUCLA
p3081
sg1131
V205
p3082
sg1133
V2017
p3083
sg1135
F27.0
sg1136
VJUN 12, 1990
p3084
sg1138
V6-4
p3085
sg1140
VJrue Holiday
p3086
sg1142
I1610612740
sg1143
V11
p3087
sg1145
g41
sg1146
V00
p3088
sg1148
g69
sg1149
I201950
ssI203999
(dp3089
g50
Nsg51
V250
p3090
sg53
V2017
p3091
sg55
F22.0
sg56
VFEB 19, 1995
p3092
sg58
V6-10
p3093
sg60
VNikola Jokic
p3094
sg62
I1610612743
sg63
V15
p3095
sg65
g43
sg66
V00
p3096
sg68
g47
sg70
I203999
ssI201952
(dp3097
g72
VWake Forest
p3098
sg74
V189
p3099
sg76
V2017
p3100
sg78
F29.0
sg79
VJUN 10, 1988
p3101
sg81
V6-2
p3102
sg83
VJeff Teague
p3103
sg85
I1610612750
sg86
g64
sg88
g41
sg89
V00
p3104
sg91
g69
sg92
I201952
ssI204001
(dp3105
g612
Nsg614
V240
p3106
sg616
V2017
p3107
sg618
F22.0
sg619
VAUG 02, 1995
p3108
sg621
V7-3
p3109
sg623
VKristaps Porzingis
p3110
sg625
I1610612752
sg626
g584
sg628
g43
sg629
V00
p3111
sg631
VF-C
p3112
sg632
I204001
ssI1627362
(dp3113
g568
VVirginia Commonwealth
p3114
sg570
V165
p3115
sg572
V2017
p3116
sg574
F24.0
sg575
VDEC 29, 1992
p3117
sg577
V6-2
p3118
sg579
VBriante Weber
p3119
sg581
I1610612745
sg582
g64
sg583
g43
sg585
V00
p3120
sg587
g69
sg588
I1627362
ssI201956
(dp3121
g438
VYavne, Israel
p3122
sg440
V225
p3123
sg442
V2017
p3124
sg444
F29.0
sg445
VJUN 22, 1988
p3125
sg447
V6-9
p3126
sg449
VOmri Casspi
p3127
sg451
I1610612744
sg452
V18
p3128
sg453
g41
sg454
V00
p3129
sg456
g111
sg457
I201956
ssI201959
(dp3130
g72
VSouthern California
p3131
sg74
V235
p3132
sg76
V2017
p3133
sg78
F32.0
sg79
VJUN 24, 1985
p3134
sg81
V6-9
p3135
sg83
VTaj Gibson
p3136
sg85
I1610612750
sg86
V67
p3137
sg88
g41
sg89
V00
p3138
sg91
g111
sg92
I201959
ssI201960
(dp3139
g210
VMissouri
p3140
sg212
V215
p3141
sg214
V2017
p3142
sg216
F31.0
sg217
VJUL 27, 1986
p3143
sg219
V6-8
p3144
sg221
VDeMarre Carroll
p3145
sg223
I1610612751
sg224
g851
sg225
g41
sg226
V00
p3146
sg228
g111
sg229
I201960
ssI201961
(dp3147
g250
VNorth Carolina
p3148
sg252
V200
p3149
sg254
V2017
p3150
sg256
F29.0
sg257
VNOV 29, 1987
p3151
sg259
V6-5
p3152
sg261
VWayne Ellington
p3153
sg263
I1610612748
sg264
g43
sg266
g41
sg267
V00
p3154
sg269
g69
sg270
I201961
ssI201967
(dp3155
g1129
VVillanova
p3156
sg1131
V230
p3157
sg1133
V2017
p3158
sg1135
F30.0
sg1136
VAPR 22, 1987
p3159
sg1138
V6-8
p3160
sg1140
VDante Cunningham
p3161
sg1142
I1610612740
sg1143
V33
p3162
sg1145
g41
sg1146
V00
p3163
sg1148
g111
sg1149
I201967
ssI204020
(dp3164
g250
VFresno State
p3165
sg252
V190
p3166
sg254
V2017
p3167
sg256
F25.0
sg257
VMAY 07, 1992
p3168
sg259
V6-4
p3169
sg261
VTyler Johnson
p3170
sg263
I1610612748
sg264
g41
sg266
g109
sg267
V00
p3171
sg269
g69
sg270
I204020
ssI201973
(dp3172
g347
VKinna, Sweden
p3173
sg349
V231
p3174
sg351
V2017
p3175
sg353
F30.0
sg354
VMAR 02, 1987
p3176
sg356
V6-10
p3177
sg358
VJonas Jerebko
p3178
sg360
I1610612762
sg361
g41
sg363
g207
sg365
V00
p3179
sg367
g111
sg368
I201973
ssI204022
(dp3180
g282
VNotre Dame
p3181
sg284
V274
p3182
sg286
V2017
p3183
sg288
F26.0
sg289
VAPR 12, 1991
p3184
sg291
V6-10
p3185
sg293
VJack Cooley
p3186
sg295
I1610612758
sg296
V45
p3187
sg298
g87
sg299
V00
p3188
sg301
g47
sg302
I204022
ssI201976
(dp3189
g113
VArkansas
p3190
sg115
V185
p3191
sg117
V2017
p3192
sg119
F29.0
sg120
VJUL 12, 1988
p3193
sg122
V6-1
p3194
sg124
VPatrick Beverley
p3195
sg126
I1610612746
sg127
V21
p3196
sg128
g19
sg129
V00
p3197
sg131
g69
sg133
I201976
ssI201980
(dp3198
g178
VNorth Carolina
p3199
sg180
V215
p3200
sg182
V2017
p3201
sg184
F30.0
sg185
VJUN 22, 1987
p3202
sg187
V6-6
p3203
sg189
VDanny Green
p3204
sg191
I1610612759
sg192
V14
p3205
sg194
g41
sg196
V00
p3206
sg198
VG-F
p3207
sg199
I201980
ssI201988
(dp3208
g178
VSaint Mary's (CA)
p3209
sg180
V185
p3210
sg182
V2017
p3211
sg184
F29.0
sg185
VAUG 11, 1988
p3212
sg187
V6-0
p3213
sg189
VPatty Mills
p3214
sg191
I1610612759
sg192
g41
sg194
g41
sg196
V00
p3215
sg198
g69
sg199
I201988
ssI204060
(dp3216
g347
Nsg349
V226
p3217
sg351
V2017
p3218
sg353
F30.0
sg354
VOCT 02, 1987
p3219
sg356
V6-8
p3220
sg358
VJoe Ingles
p3221
sg360
I1610612762
sg361
g43
sg363
g109
sg365
V00
p3222
sg367
g111
sg368
I204060
ssI204066
(dp3223
g718
VBoston U.
p3224
sg720
V205
p3225
sg722
V2017
p3226
sg724
F29.0
sg725
VNOV 06, 1988
p3227
sg727
V6-5
p3228
sg729
VJohn Holland
p3229
sg731
I1610612739
sg732
V10
p3230
sg734
g87
sg735
V00
p3231
sg737
VG-F
p3232
sg738
I204066
ssI203998
(dp3233
g156
Nsg158
V205
p3234
sg160
V2017
p3235
sg162
F22.0
sg163
VSEP 21, 1995
p3236
sg165
V6-9
p3237
sg167
VBruno Caboclo
p3238
sg169
I1610612761
sg170
g19
sg172
g109
sg173
V00
p3239
sg175
g111
sg176
I203998
ssI201954
(dp3240
g392
VUCLA
p3241
sg394
V185
p3242
sg396
V2017
p3243
sg398
F30.0
sg399
VAUG 23, 1987
p3244
sg401
V6-2
p3245
sg403
VDarren Collison
p3246
sg405
I1610612754
sg406
g43
sg408
g41
sg409
V00
p3247
sg411
g69
sg412
I201954
ssI202066
(dp3248
g282
VLouisiana State
p3249
sg284
V195
p3250
sg286
V2017
p3251
sg288
F31.0
sg289
VMAY 08, 1986
p3252
sg291
V6-6
p3253
sg293
VGarrett Temple
p3254
sg295
I1610612758
sg296
V17
p3255
sg298
g207
sg299
V00
p3256
sg301
g69
sg302
I202066
ssI202083
(dp3257
g740
VMarquette
p3258
sg742
V220
p3259
sg744
V2017
p3260
sg746
F31.0
sg747
VOCT 14, 1986
p3261
sg749
V6-5
p3262
sg751
VWesley Matthews
p3263
sg753
I1610612742
sg754
V23
p3264
sg755
g41
sg757
V00
p3265
sg759
VG-F
p3266
sg760
I202083
ssI1628409
(dp3267
g326
VValparaiso
p3268
sg328
V235
p3269
sg330
V2017
p3270
sg332
F22.0
sg333
VAPR 13, 1995
p3271
sg335
V6-9
p3272
sg337
VAlec Peters
p3273
sg339
I1610612756
sg340
V25
p3274
sg341
g504
sg342
V00
p3275
sg344
g111
sg345
I1628409
ssI204028
(dp3276
g568
VKansas
p3277
sg570
V250
p3278
sg572
V2017
p3279
sg574
F25.0
sg575
VNOV 22, 1991
p3280
sg577
V6-9
p3281
sg579
VTarik Black
p3282
sg581
I1610612745
sg582
V28
p3283
sg583
g109
sg585
V00
p3284
sg587
VF-C
p3285
sg588
I204028
ssI202323
(dp3286
g590
VOhio State
p3287
sg592
V220
p3288
sg594
V2017
p3289
sg596
F29.0
sg597
VOCT 27, 1988
p3290
sg599
V6-7
p3291
sg601
VEvan Turner
p3292
sg603
I1610612757
sg604
g87
sg605
g207
sg606
V00
p3293
sg608
VG-F
p3294
sg610
I202323
ssI1627732
(dp3295
g26
VLouisiana State
p3296
sg28
V230
p3297
sg30
V2017
p3298
sg32
F21.0
sg33
VJUL 20, 1996
p3299
sg35
V6-10
p3300
sg37
VBen Simmons
p3301
sg39
I1610612755
sg40
V25
p3302
sg42
g504
sg44
V00
p3303
sg46
VG-F
p3304
sg48
I1627732
ssI1627733
(dp3305
g326
Nsg328
V225
p3306
sg330
V2017
p3307
sg332
F19.0
sg333
VNOV 17, 1997
p3308
sg335
V7-1
p3309
sg337
VDragan Bender
p3310
sg339
I1610612756
sg340
V35
p3311
sg341
g87
sg342
V00
p3312
sg344
g111
sg345
I1627733
ssI1627734
(dp3313
g392
VGonzaga
p3314
sg394
V252
p3315
sg396
V2017
p3316
sg398
F21.0
sg399
VMAY 03, 1996
p3317
sg401
V6-10
p3318
sg403
VDomantas Sabonis
p3319
sg405
I1610612754
sg406
V11
p3320
sg408
g87
sg409
V00
p3321
sg411
VC-F
p3322
sg412
I1627734
ssI1627735
(dp3323
g590
VVanderbilt
p3324
sg592
V202
p3325
sg594
V2017
p3326
sg596
F21.0
sg597
VMAR 29, 1996
p3327
sg599
V6-4
p3328
sg601
VWade Baldwin IV
p3329
sg603
I1610612757
sg604
g43
sg605
g87
sg606
V00
p3330
sg608
g69
sg610
I1627735
ssI202328
(dp3331
g326
VGeorgetown
p3332
sg328
V265
p3333
sg330
V2017
p3334
sg332
F27.0
sg333
VJUN 04, 1990
p3335
sg335
V6-11
p3336
sg337
VGreg Monroe
p3337
sg339
I1610612756
sg340
V14
p3338
sg341
g207
sg342
V00
p3339
sg344
VC-F
p3340
sg345
I202328
ssI1627737
(dp3341
g326
VWashington
p3342
sg328
V240
p3343
sg330
V2017
p3344
sg332
F20.0
sg333
VJUL 02, 1997
p3345
sg335
V6-10
p3346
sg337
VMarquese Chriss
p3347
sg339
I1610612756
sg340
g64
sg341
g87
sg342
V00
p3348
sg344
g111
sg345
I1627737
ssI202330
(dp3349
g519
VButler
p3350
sg521
V226
p3351
sg523
V2017
p3352
sg525
F27.0
sg526
VMAR 23, 1990
p3353
sg528
V6-8
p3354
sg530
VGordon Hayward
p3355
sg532
I1610612738
sg533
V20
p3356
sg535
g207
sg536
V00
p3357
sg538
g111
sg539
I202330
ssI202331
(dp3358
g487
VFresno State
p3359
sg489
V220
p3360
sg491
V2017
p3361
sg493
F27.0
sg494
VMAY 02, 1990
p3362
sg496
V6-9
p3363
sg498
VPaul George
p3364
sg500
I1610612760
sg501
V13
p3365
sg503
g207
sg505
V00
p3366
sg507
g111
sg508
I202331
ssI202334
(dp3367
g590
VNorth Carolina
p3368
sg592
V245
p3369
sg594
V2017
p3370
sg596
F28.0
sg597
VJUN 05, 1989
p3371
sg599
V6-10
p3372
sg601
VEd Davis
p3373
sg603
I1610612757
sg604
V17
p3374
sg605
g207
sg606
V00
p3375
sg608
VF-C
p3376
sg610
I202334
ssI1627743
(dp3377
g568
VNotre Dame
p3378
sg570
V201
p3379
sg572
V2017
p3380
sg574
F23.0
sg575
VSEP 07, 1994
p3381
sg577
V6-1
p3382
sg579
VDemetrius Jackson
p3383
sg581
I1610612745
sg582
g43
sg583
g87
sg585
V00
p3384
sg587
g69
sg588
I1627743
ssI201162
(dp3385
g326
VBoston College
p3386
sg328
V240
p3387
sg330
V2017
p3388
sg332
F32.0
sg333
VJUL 10, 1985
p3389
sg335
V6-7
p3390
sg337
VJared Dudley
p3391
sg339
I1610612756
sg340
g109
sg341
V10
p3392
sg342
V00
p3393
sg344
g111
sg345
I201162
ssI1627745
(dp3394
g438
VVanderbilt
p3395
sg440
V245
p3396
sg442
V2017
p3397
sg444
F22.0
sg445
VJUN 30, 1995
p3398
sg447
V7-0
p3399
sg449
VDamian Jones
p3400
sg451
I1610612744
sg452
V15
p3401
sg453
g87
sg454
V00
p3402
sg456
g47
sg457
I1627745
ssI1627747
(dp3403
g210
VMichigan
p3404
sg212
V203
p3405
sg214
V2017
p3406
sg216
F23.0
sg217
VAUG 25, 1994
p3407
sg219
V6-7
p3408
sg221
VCaris LeVert
p3409
sg223
I1610612751
sg224
V22
p3410
sg225
g87
sg226
V00
p3411
sg228
VG-F
p3412
sg229
I1627747
ssI202324
(dp3413
g347
VGeorgia Tech
p3414
sg349
V265
p3415
sg351
V2017
p3416
sg353
F26.0
sg354
VJUL 15, 1991
p3417
sg356
V6-10
p3418
sg358
VDerrick Favors
p3419
sg360
I1610612762
sg361
V15
p3420
sg363
g207
sg365
V00
p3421
sg367
VF-C
p3422
sg368
I202324
ssI202325
(dp3423
g113
VSyracuse
p3424
sg115
V215
p3425
sg117
V2017
p3426
sg119
F30.0
sg120
VJUL 11, 1987
p3427
sg122
V6-7
p3428
sg124
VWesley Johnson
p3429
sg126
I1610612746
sg127
V33
p3430
sg128
g207
sg129
V00
p3431
sg131
g111
sg133
I202325
ssI202326
(dp3432
g1129
VKentucky
p3433
sg1131
V270
p3434
sg1133
V2017
p3435
sg1135
F27.0
sg1136
VAUG 13, 1990
p3436
sg1138
V6-11
p3437
sg1140
VDeMarcus Cousins
p3438
sg1142
I1610612740
sg1143
g64
sg1145
g207
sg1146
V00
p3439
sg1148
g47
sg1149
I202326
ssI202327
(dp3440
g347
VBaylor
p3441
sg349
V245
p3442
sg351
V2017
p3443
sg353
F30.0
sg354
VMAY 20, 1987
p3444
sg356
V6-10
p3445
sg358
VEkpe Udoh
p3446
sg360
I1610612762
sg361
V33
p3447
sg363
g19
sg365
V00
p3448
sg367
VC-F
p3449
sg368
I202327
ssI1627736
(dp3450
g50
VFlorida State
p3451
sg51
V196
p3452
sg53
V2017
p3453
sg55
F20.0
sg56
VNOV 26, 1996
p3454
sg58
V6-5
p3455
sg60
VMalik Beasley
p3456
sg62
I1610612743
sg63
V25
p3457
sg65
g87
sg66
V00
p3458
sg68
g69
sg70
I1627736
ssI202329
(dp3459
g590
VWake Forest
p3460
sg592
V220
p3461
sg594
V2017
p3462
sg596
F27.0
sg597
VSEP 21, 1990
p3463
sg599
V6-9
p3464
sg601
VAl-Farouq Aminu
p3465
sg603
I1610612757
sg604
g41
sg605
g207
sg606
V00
p3466
sg608
g111
sg610
I202329
ssI1627738
(dp3467
g135
VMichigan State
p3468
sg137
V237
p3469
sg139
V2017
p3470
sg141
F20.0
sg142
VDEC 02, 1996
p3471
sg144
V6-11
p3472
sg146
VDeyonta Davis
p3473
sg148
I1610612763
sg149
V21
p3474
sg150
g87
sg151
V00
p3475
sg153
VC-F
p3476
sg154
I1627738
ssI1627739
(dp3477
g370
VProvidence
p3478
sg372
V210
p3479
sg374
V2017
p3480
sg376
F23.0
sg377
VMAR 18, 1994
p3481
sg379
V6-4
p3482
sg381
VKris Dunn
p3483
sg383
I1610612741
sg384
V32
p3484
sg386
g87
sg387
V00
p3485
sg389
g69
sg390
I1627739
ssI202332
(dp3486
g72
VKansas
p3487
sg74
V253
p3488
sg76
V2017
p3489
sg78
F29.0
sg79
VOCT 31, 1988
p3490
sg81
V6-11
p3491
sg83
VCole Aldrich
p3492
sg85
I1610612750
sg86
V45
p3493
sg88
g207
sg89
V00
p3494
sg91
g47
sg92
I202332
ssI1627741
(dp3495
g282
VOklahoma
p3496
sg284
V214
p3497
sg286
V2017
p3498
sg288
F23.0
sg289
VDEC 17, 1993
p3499
sg291
V6-4
p3500
sg293
VBuddy Hield
p3501
sg295
I1610612758
sg296
V24
p3502
sg298
g87
sg299
V00
p3503
sg301
g69
sg302
I1627741
ssI1627742
(dp3504
g660
VDuke
p3505
sg662
V190
p3506
sg664
V2017
p3507
sg666
F20.0
sg667
VSEP 02, 1997
p3508
sg669
V6-9
p3509
sg671
VBrandon Ingram
p3510
sg673
I1610612747
sg674
V14
p3511
sg675
g87
sg676
V00
p3512
sg678
VF-G
p3513
sg679
I1627742
ssI202335
(dp3514
g487
VKentucky
p3515
sg489
V230
p3516
sg491
V2017
p3517
sg493
F28.0
sg494
VMAR 14, 1989
p3518
sg496
V6-9
p3519
sg498
VPatrick Patterson
p3520
sg500
I1610612760
sg501
V54
p3521
sg503
g207
sg505
V00
p3522
sg507
g111
sg508
I202335
ssI1627744
(dp3523
g113
VNorth Carolina
p3524
sg115
V230
p3525
sg117
V2017
p3526
sg119
F23.0
sg120
VJUN 27, 1994
p3527
sg122
V6-10
p3528
sg124
VBrice Johnson
p3529
sg126
I1610612746
sg127
V11
p3530
sg128
g87
sg129
V00
p3531
sg131
g111
sg133
I1627744
ssI202337
(dp3532
g949
VNevada
p3533
sg951
V225
p3534
sg953
V2017
p3535
sg955
F28.0
sg956
VJUN 20, 1989
p3536
sg958
V6-9
p3537
sg960
VLuke Babbitt
p3538
sg962
I1610612737
sg963
g41
sg965
g207
sg966
V00
p3539
sg968
g111
sg970
I202337
ssI1627746
(dp3540
g282
VKentucky
p3541
sg284
V225
p3542
sg286
V2017
p3543
sg288
F21.0
sg289
VMAR 18, 1996
p3544
sg291
V6-11
p3545
sg293
VSkal Labissiere
p3546
sg295
I1610612758
sg296
g207
sg298
g87
sg299
V00
p3547
sg301
VF-C
p3548
sg302
I1627746
ssI202339
(dp3549
g304
VKentucky
p3550
sg306
V205
p3551
sg308
V2017
p3552
sg310
F27.0
sg311
VDEC 09, 1989
p3553
sg313
V6-1
p3554
sg315
VEric Bledsoe
p3555
sg317
I1610612749
sg318
g584
sg320
g207
sg321
V00
p3556
sg323
g69
sg324
I202339
ssI1627748
(dp3557
g304
Nsg306
V223
p3558
sg308
V2017
p3559
sg310
F20.0
sg311
VFEB 25, 1997
p3560
sg313
V7-1
p3561
sg315
VThon Maker
p3562
sg317
I1610612749
sg318
g207
sg320
g87
sg321
V00
p3563
sg323
VC-F
p3564
sg324
I1627748
ssI1627749
(dp3565
g178
VWashington
p3566
sg180
V170
p3567
sg182
V2017
p3568
sg184
F21.0
sg185
VSEP 19, 1996
p3569
sg187
V6-5
p3570
sg189
VDejounte Murray
p3571
sg191
I1610612759
sg192
g19
sg194
g87
sg196
V00
p3572
sg198
g69
sg199
I1627749
ssI1627750
(dp3573
g50
VKentucky
p3574
sg51
V207
p3575
sg53
V2017
p3576
sg55
F20.0
sg56
VFEB 23, 1997
p3577
sg58
V6-4
p3578
sg60
VJamal Murray
p3579
sg62
I1610612743
sg63
V27
p3580
sg65
g87
sg66
V00
p3581
sg68
g69
sg70
I1627750
ssI1627751
(dp3582
g156
VUtah
p3583
sg158
V230
p3584
sg160
V2017
p3585
sg162
F22.0
sg163
VOCT 15, 1995
p3586
sg165
V7-0
p3587
sg167
VJakob Poeltl
p3588
sg169
I1610612761
sg170
V42
p3589
sg172
g87
sg173
V00
p3590
sg175
g47
sg176
I1627751
ssI1627752
(dp3591
g949
VBaylor
p3592
sg951
V220
p3593
sg953
V2017
p3594
sg955
F23.0
sg956
VMAR 22, 1994
p3595
sg958
V6-8
p3596
sg960
VTaurean Prince
p3597
sg962
I1610612737
sg963
V12
p3598
sg965
g87
sg966
V00
p3599
sg968
g111
sg970
I1627752
ssI1627753
(dp3600
g568
Nsg570
V210
p3601
sg572
V2017
p3602
sg574
F21.0
sg575
VJAN 16, 1996
p3603
sg577
V7-1
p3604
sg579
VQi Qi
p3605
sg581
I1610612745
sg582
g851
sg583
g504
sg585
V00
p3606
sg587
VF-C
p3607
sg588
I1627753
ssI202347
(dp3608
g370
VWashington
p3609
sg372
V225
p3610
sg374
V2017
p3611
sg376
F29.0
sg377
VMAR 10, 1988
p3612
sg379
V6-7
p3613
sg381
VQuincy Pondexter
p3614
sg383
I1610612741
sg384
V20
p3615
sg386
g19
sg387
V00
p3616
sg389
g69
sg390
I202347
ssI1627756
(dp3617
g370
VMichigan State
p3618
sg372
V214
p3619
sg374
V2017
p3620
sg376
F23.0
sg377
VNOV 16, 1993
p3621
sg379
V6-6
p3622
sg381
VDenzel Valentine
p3623
sg383
I1610612741
sg384
V45
p3624
sg386
g87
sg387
V00
p3625
sg389
g111
sg390
I1627756
ssI1627758
(dp3626
g612
VWichita State
p3627
sg614
V220
p3628
sg616
V2017
p3629
sg618
F24.0
sg619
VMAR 30, 1993
p3630
sg621
V6-4
p3631
sg623
VRon Baker
p3632
sg625
I1610612752
sg626
V31
p3633
sg628
g87
sg629
V00
p3634
sg631
g69
sg632
I1627758
ssI1627759
(dp3635
g519
VCalifornia
p3636
sg521
V225
p3637
sg523
V2017
p3638
sg525
F21.0
sg526
VOCT 24, 1996
p3639
sg528
V6-7
p3640
sg530
VJaylen Brown
p3641
sg532
I1610612738
sg533
g207
sg535
g87
sg536
V00
p3642
sg538
VG-F
p3643
sg539
I1627759
ssI202344
(dp3644
g210
VClemson
p3645
sg212
V228
p3646
sg214
V2017
p3647
sg216
F29.0
sg217
VNOV 25, 1987
p3648
sg219
V6-8
p3649
sg221
VTrevor Booker
p3650
sg223
I1610612751
sg224
V35
p3651
sg225
g207
sg226
V00
p3652
sg228
g111
sg229
I202344
ssI1627762
(dp3653
g304
VWeber State
p3654
sg306
V235
p3655
sg308
V2017
p3656
sg310
F23.0
sg311
VJAN 28, 1994
p3657
sg313
V6-9
p3658
sg315
VJoel Bolomboy
p3659
sg317
I1610612749
sg318
V24
p3660
sg320
g87
sg321
V00
p3661
sg323
VF-C
p3662
sg324
I1627762
ssI202355
(dp3663
g250
VMarshall
p3664
sg252
V265
p3665
sg254
V2017
p3666
sg256
F28.0
sg257
VJUN 13, 1989
p3667
sg259
V7-0
p3668
sg261
VHassan Whiteside
p3669
sg263
I1610612748
sg264
V21
p3670
sg266
g19
sg267
V00
p3671
sg269
g47
sg270
I202355
ssI202357
(dp3672
g72
Nsg74
V230
p3673
sg76
V2017
p3674
sg78
F29.0
sg79
VMAY 09, 1988
p3675
sg81
V6-10
p3676
sg83
VNemanja Bjelica
p3677
sg85
I1610612750
sg86
g41
sg88
g43
sg89
V00
p3678
sg91
g111
sg92
I202357
ssI1627767
(dp3679
g1129
VKansas
p3680
sg1131
V220
p3681
sg1133
V2017
p3682
sg1135
F21.0
sg1136
VSEP 13, 1996
p3683
sg1138
V6-9
p3684
sg1140
VCheick Diallo
p3685
sg1142
I1610612740
sg1143
V13
p3686
sg1145
g87
sg1146
V00
p3687
sg1148
g111
sg1149
I1627767
ssI1627770
(dp3688
g370
VOakland
p3689
sg372
V176
p3690
sg374
V2017
p3691
sg376
F22.0
sg377
VMAR 29, 1995
p3692
sg379
V5-9
p3693
sg381
VKay Felder
p3694
sg383
I1610612741
sg384
g109
sg386
g87
sg387
V00
p3695
sg389
g69
sg390
I1627770
ssI1627772
(dp3696
g487
VConnecticut
p3697
sg489
V195
p3698
sg491
V2017
p3699
sg493
F22.0
sg494
VAUG 08, 1995
p3700
sg496
V6-7
p3701
sg498
VDaniel Hamilton
p3702
sg500
I1610612760
sg501
V25
p3703
sg503
g504
sg505
V00
p3704
sg507
g69
sg508
I1627772
ssI1627773
(dp3705
g250
VPurdue
p3706
sg252
V260
p3707
sg254
V2017
p3708
sg256
F25.0
sg257
VAUG 27, 1992
p3709
sg259
V7-0
p3710
sg261
VAJ Hammons
p3711
sg263
I1610612748
sg264
g565
sg266
g87
sg267
V00
p3712
sg269
g47
sg270
I1627773
ssI1627774
(dp3713
g590
VMaryland
p3714
sg592
V210
p3715
sg594
V2017
p3716
sg596
F23.0
sg597
VMAR 07, 1994
p3717
sg599
V6-9
p3718
sg601
VJake Layman
p3719
sg603
I1610612757
sg604
V10
p3720
sg605
g87
sg606
V00
p3721
sg608
g111
sg610
I1627774
ssI1627775
(dp3722
g438
VNevada-Las Vegas
p3723
sg440
V185
p3724
sg442
V2017
p3725
sg444
F22.0
sg445
VOCT 25, 1995
p3726
sg447
V6-7
p3727
sg449
VPatrick McCaw
p3728
sg451
I1610612744
sg452
g64
sg453
g87
sg454
V00
p3729
sg456
g69
sg457
I1627775
ssI200755
(dp3730
g26
VDuke
p3731
sg28
V200
p3732
sg30
V2017
p3733
sg32
F33.0
sg33
VJUN 24, 1984
p3734
sg35
V6-4
p3735
sg37
VJJ Redick
p3736
sg39
I1610612755
sg40
V17
p3737
sg42
V11
p3738
sg44
V00
p3739
sg46
VF-G
p3740
sg48
I200755
ssI1627778
(dp3741
g568
VLouisville
p3742
sg570
V245
p3743
sg572
V2017
p3744
sg574
F21.0
sg575
VNOV 01, 1996
p3745
sg577
V6-10
p3746
sg579
VChinanu Onuaku
p3747
sg581
I1610612745
sg582
V21
p3748
sg583
g87
sg585
V00
p3749
sg587
g47
sg588
I1627778
ssI1627755
(dp3750
g326
VKentucky
p3751
sg328
V160
p3752
sg330
V2017
p3753
sg332
F21.0
sg333
VJAN 05, 1996
p3754
sg335
V5-10
p3755
sg337
VTyler Ulis
p3756
sg339
I1610612756
sg340
g41
sg341
g87
sg342
V00
p3757
sg344
g69
sg345
I1627755
ssI1627780
(dp3758
g304
VOregon State
p3759
sg306
V190
p3760
sg308
V2017
p3761
sg310
F24.0
sg311
VDEC 01, 1992
p3762
sg313
V6-3
p3763
sg315
VGary Payton II
p3764
sg317
I1610612749
sg318
g64
sg320
g87
sg321
V00
p3765
sg323
g69
sg324
I1627780
ssI1627781
(dp3766
g282
VSyracuse
p3767
sg284
V205
p3768
sg286
V2017
p3769
sg288
F21.0
sg289
VJAN 05, 1996
p3770
sg291
V6-6
p3771
sg293
VMalachi Richardson
p3772
sg295
I1610612758
sg296
V23
p3773
sg298
g87
sg299
V00
p3774
sg301
g69
sg302
I1627781
ssI1627782
(dp3775
g135
VKansas
p3776
sg137
V230
p3777
sg139
V2017
p3778
sg141
F23.0
sg142
VSEP 30, 1994
p3779
sg144
V6-5
p3780
sg146
VWayne Selden
p3781
sg148
I1610612763
sg149
g207
sg150
g87
sg151
V00
p3782
sg153
VG-F
p3783
sg154
I1627782
ssI1627783
(dp3784
g156
VNew Mexico State
p3785
sg158
V230
p3786
sg160
V2017
p3787
sg162
F23.0
sg163
VAPR 02, 1994
p3788
sg165
V6-9
p3789
sg167
VPascal Siakam
p3790
sg169
I1610612761
sg170
V43
p3791
sg172
g87
sg173
V00
p3792
sg175
g111
sg176
I1627783
ssI1627785
(dp3793
g210
VSeton Hall
p3794
sg212
V213
p3795
sg214
V2017
p3796
sg216
F22.0
sg217
VMAR 08, 1995
p3797
sg219
V6-4
p3798
sg221
VIsaiah Whitehead
p3799
sg223
I1610612751
sg224
V15
p3800
sg225
g87
sg226
V00
p3801
sg228
g69
sg229
I1627785
ssI1627786
(dp3802
g568
VIndiana
p3803
sg570
V218
p3804
sg572
V2017
p3805
sg574
F22.0
sg575
VDEC 30, 1994
p3806
sg577
V6-7
p3807
sg579
VTroy Williams
p3808
sg581
I1610612745
sg582
g19
sg583
g87
sg585
V00
p3809
sg587
g111
sg588
I1627786
ssI1627788
(dp3810
g26
Nsg28
V190
p3811
sg30
V2017
p3812
sg32
F20.0
sg33
VJUL 24, 1997
p3813
sg35
V6-7
p3814
sg37
VFurkan Korkmaz
p3815
sg39
I1610612755
sg40
V30
p3816
sg42
g504
sg44
V00
p3817
sg46
VG-F
p3818
sg48
I1627788
ssI1627789
(dp3819
g26
Nsg28
V200
p3820
sg30
V2017
p3821
sg32
F22.0
sg33
VMAY 09, 1995
p3822
sg35
V6-6
p3823
sg37
VTimothe Luwawu-Cabarrot
p3824
sg39
I1610612755
sg40
g207
sg42
g87
sg44
V00
p3825
sg46
VG-F
p3826
sg48
I1627789
ssI1627790
(dp3827
g718
Nsg720
V250
p3828
sg722
V2017
p3829
sg724
F20.0
sg725
VJAN 04, 1997
p3830
sg727
V6-11
p3831
sg729
VAnte Zizic
p3832
sg731
I1610612739
sg732
V41
p3833
sg734
g504
sg735
V00
p3834
sg737
VF-C
p3835
sg738
I1627790
ssI202389
(dp3836
g210
VSt. Petersburg, Russia
p3837
sg212
V275
p3838
sg214
V2017
p3839
sg216
F31.0
sg217
VJUL 16, 1986
p3840
sg219
V7-1
p3841
sg221
VTimofey Mozgov
p3842
sg223
I1610612751
sg224
V20
p3843
sg225
g207
sg226
V00
p3844
sg228
g47
sg229
I202389
ssI202391
(dp3845
g210
VHarvard
p3846
sg212
V200
p3847
sg214
V2017
p3848
sg216
F29.0
sg217
VAUG 23, 1988
p3849
sg219
V6-3
p3850
sg221
VJeremy Lin
p3851
sg223
I1610612751
sg224
g207
sg225
g207
sg226
V00
p3852
sg228
g69
sg229
I202391
ssI1627812
(dp3853
g740
VIndiana
p3854
sg742
V180
p3855
sg744
V2017
p3856
sg746
F24.0
sg747
VMAY 09, 1993
p3857
sg749
V6-0
p3858
sg751
VYogi Ferrell
p3859
sg753
I1610612742
sg754
V11
p3860
sg755
g87
sg757
V00
p3861
sg759
g69
sg760
I1627812
ssI1627761
(dp3862
g949
VSaint Joseph's
p3863
sg951
V210
p3864
sg953
V2017
p3865
sg955
F23.0
sg956
VJUL 04, 1994
p3866
sg958
V6-6
p3867
sg960
VDeAndre' Bembry
p3868
sg962
I1610612737
sg963
V95
p3869
sg965
g87
sg966
V00
p3870
sg968
VF-G
p3871
sg970
I1627761
ssI204456
(dp3872
g26
VArizona
p3873
sg28
V190
p3874
sg30
V2017
p3875
sg32
F25.0
sg33
VMAR 25, 1992
p3876
sg35
V6-2
p3877
sg37
VT.J. McConnell
p3878
sg39
I1610612755
sg40
V12
p3879
sg42
g43
sg44
V00
p3880
sg46
g69
sg48
I204456
ssI1627819
(dp3881
g949
VTexas
p3882
sg951
V170
p3883
sg953
V2017
p3884
sg955
F23.0
sg956
VJUL 11, 1994
p3885
sg958
V6-3
p3886
sg960
VIsaiah Taylor
p3887
sg962
I1610612737
sg963
V22
p3888
sg965
g87
sg966
V00
p3889
sg968
g69
sg970
I1627819
ssI1627823
(dp3890
g50
Nsg51
V230
p3891
sg53
V2017
p3892
sg55
F22.0
sg56
VSEP 28, 1995
p3893
sg58
V6-9
p3894
sg60
VJuan Hernangomez
p3895
sg62
I1610612743
sg63
V41
p3896
sg65
g87
sg66
V00
p3897
sg68
g111
sg70
I1627823
ssI1627824
(dp3898
g519
Nsg521
V260
p3899
sg523
V2017
p3900
sg525
F21.0
sg526
VDEC 17, 1995
p3901
sg528
V6-8
p3902
sg530
VGuerschon Yabusele
p3903
sg532
I1610612738
sg533
V30
p3904
sg535
g504
sg536
V00
p3905
sg538
g111
sg539
I1627824
ssI1713
(dp3906
g282
VNorth Carolina
p3907
sg284
V220
p3908
sg286
V2017
p3909
sg288
F40.0
sg289
VJAN 26, 1977
p3910
sg291
V6-6
p3911
sg293
VVince Carter
p3912
sg295
I1610612758
sg296
V15
p3913
sg298
V19
p3914
sg299
V00
p3915
sg301
VG-F
p3916
sg302
I1713
ssI1627826
(dp3917
g660
Nsg662
V240
p3918
sg664
V2017
p3919
sg666
F20.0
sg667
VMAR 18, 1997
p3920
sg669
V7-1
p3921
sg671
VIvica Zubac
p3922
sg673
I1610612747
sg674
V40
p3923
sg675
g87
sg676
V00
p3924
sg678
g47
sg679
I1627826
ssI1627827
(dp3925
g740
VFlorida
p3926
sg742
V220
p3927
sg744
V2017
p3928
sg746
F24.0
sg747
VMAY 04, 1993
p3929
sg749
V6-8
p3930
sg751
VDorian Finney-Smith
p3931
sg753
I1610612742
sg754
V10
p3932
sg755
g87
sg757
V00
p3933
sg759
g111
sg760
I1627827
ssI1717
(dp3934
g740
VWurzburg, Germany
p3935
sg742
V245
p3936
sg744
V2017
p3937
sg746
F39.0
sg747
VJUN 19, 1978
p3938
sg749
V7-0
p3939
sg751
VDirk Nowitzki
p3940
sg753
I1610612742
sg754
V41
p3941
sg755
V19
p3942
sg757
V00
p3943
sg759
VF-C
p3944
sg760
I1717
ssI1627832
(dp3945
g156
VWichita State
p3946
sg158
V195
p3947
sg160
V2017
p3948
sg162
F23.0
sg163
VFEB 25, 1994
p3949
sg165
V6-0
p3950
sg167
VFred VanVleet
p3951
sg169
I1610612761
sg170
V23
p3952
sg172
g87
sg173
V00
p3953
sg175
g69
sg176
I1627832
ssI1627834
(dp3954
g282
Nsg284
V240
p3955
sg286
V2017
p3956
sg288
F20.0
sg289
VJUL 03, 1997
p3957
sg291
V7-1
p3958
sg293
VGeorgios Papagiannis
p3959
sg295
I1610612758
sg296
V13
p3960
sg298
g87
sg299
V00
p3961
sg301
g47
sg302
I1627834
ssI1627835
(dp3962
g370
Nsg372
V226
p3963
sg374
V2017
p3964
sg376
F23.0
sg377
VFEB 18, 1994
p3965
sg379
V6-8
p3966
sg381
VPaul Zipser
p3967
sg383
I1610612741
sg384
V16
p3968
sg386
g87
sg387
V00
p3969
sg389
g111
sg390
I1627835
ssI1627846
(dp3970
g519
VIowa State
p3971
sg521
V230
p3972
sg523
V2017
p3973
sg525
F24.0
sg526
VSEP 25, 1993
p3974
sg528
V6-6
p3975
sg530
VAbdel Nader
p3976
sg532
I1610612738
sg533
V28
p3977
sg535
g504
sg536
V00
p3978
sg538
g111
sg539
I1627846
ssI1627851
(dp3979
g612
Nsg614
V215
p3980
sg616
V2017
p3981
sg618
F28.0
sg619
VOCT 19, 1989
p3982
sg621
V6-9
p3983
sg623
VMindaugas Kuzminskas
p3984
sg625
I1610612752
sg626
V91
p3985
sg628
g87
sg629
V00
p3986
sg631
g111
sg632
I1627851
ssI1627852
(dp3987
g949
Nsg951
V195
p3988
sg953
V2017
p3989
sg955
F24.0
sg956
VMAR 02, 1993
p3990
sg958
V6-8
p3991
sg960
VNicolas Brussino
p3992
sg962
I1610612737
sg963
V16
p3993
sg965
g87
sg966
V00
p3994
sg968
g111
sg970
I1627852
ssI1627853
(dp3995
g370
VVillanova
p3996
sg372
V195
p3997
sg374
V2017
p3998
sg376
F23.0
sg377
VMAR 26, 1994
p3999
sg379
V6-3
p4000
sg381
VRyan Arcidiacono
p4001
sg383
I1610612741
sg384
V15
p4002
sg386
g504
sg387
V00
p4003
sg389
g69
sg390
I1627853
ssI1627854
(dp4004
g178
VMichigan State
p4005
sg180
V190
p4006
sg182
V2017
p4007
sg184
F24.0
sg185
VJUL 23, 1993
p4008
sg187
V6-3
p4009
sg189
VBryn Forbes
p4010
sg191
I1610612759
sg192
V11
p4011
sg194
g87
sg196
V00
p4012
sg198
g69
sg199
I1627854
ssI1627855
(dp4013
g250
VFlorida State
p4014
sg252
V215
p4015
sg254
V2017
p4016
sg256
F25.0
sg257
VAUG 13, 1992
p4017
sg259
V6-8
p4018
sg261
VOkaro White
p4019
sg263
I1610612748
sg264
V15
p4020
sg266
g87
sg267
V00
p4021
sg269
g111
sg270
I1627855
ssI1627856
(dp4022
g178
VMichigan State
p4023
sg180
V240
p4024
sg182
V2017
p4025
sg184
F24.0
sg185
VAUG 05, 1993
p4026
sg187
V6-10
p4027
sg189
VMatt Costello
p4028
sg191
I1610612759
sg192
V10
p4029
sg194
g504
sg196
V00
p4030
sg198
VF-C
p4031
sg199
I1627856
ssI202362
(dp4032
g392
VCincinnati
p4033
sg394
V230
p4034
sg396
V2017
p4035
sg398
F27.0
sg399
VSEP 05, 1990
p4036
sg401
V6-6
p4037
sg403
VLance Stephenson
p4038
sg405
I1610612754
sg406
g87
sg408
g207
sg409
V00
p4039
sg411
g69
sg412
I202362
ssI1627875
(dp4040
g72
VGeorgia Tech
p4041
sg74
V226
p4042
sg76
V2017
p4043
sg78
F23.0
sg79
VMAR 28, 1994
p4044
sg81
V6-5
p4045
sg83
VMarcus Georges-Hunt
p4046
sg85
I1610612750
sg86
V13
p4047
sg88
g87
sg89
V00
p4048
sg91
g69
sg92
I1627875
ssI1627883
(dp4049
g1129
VTexas A&M
p4050
sg1131
V220
p4051
sg1133
V2017
p4052
sg1135
F24.0
sg1136
VMAY 27, 1993
p4053
sg1138
V6-7
p4054
sg1140
VJalen Jones
p4055
sg1142
I1610612740
sg1143
V12
p4056
sg1145
g504
sg1146
V00
p4057
sg1148
g111
sg1149
I1627883
ssI1627884
(dp4058
g326
VNevada-Las Vegas
p4059
sg328
V195
p4060
sg330
V2017
p4061
sg332
F20.0
sg333
VFEB 15, 1997
p4062
sg335
V6-7
p4063
sg337
VDerrick Jones Jr.
p4064
sg339
I1610612756
sg340
V10
p4065
sg341
g87
sg342
V00
p4066
sg344
VF-G
p4067
sg345
I1627884
ssI202498
(dp4068
g612
VDuke
p4069
sg614
V235
p4070
sg616
V2017
p4071
sg618
F29.0
sg619
VAPR 24, 1988
p4072
sg621
V6-8
p4073
sg623
VLance Thomas
p4074
sg625
I1610612752
sg626
V42
p4075
sg628
g584
sg629
V00
p4076
sg631
g111
sg632
I202498
ssI1627936
(dp4077
g660
VTexas A&M
p4078
sg662
V186
p4079
sg664
V2017
p4080
sg666
F23.0
sg667
VFEB 28, 1994
p4081
sg669
V6-5
p4082
sg671
VAlex Caruso
p4083
sg673
I1610612747
sg674
g565
sg675
g504
sg676
V00
p4084
sg678
g69
sg679
I1627936
ssI1891
(dp4085
g304
VArizona
p4086
sg306
V185
p4087
sg308
V2017
p4088
sg310
F40.0
sg311
VSEP 15, 1977
p4089
sg313
V6-2
p4090
sg315
VJason Terry
p4091
sg317
I1610612749
sg318
g109
sg320
V18
p4092
sg321
V00
p4093
sg323
g69
sg324
I1891
ssI1628021
(dp4094
g370
VCal Poly-S.L.O.
p4095
sg372
V209
p4096
sg374
V2017
p4097
sg376
F24.0
sg377
VJAN 14, 1993
p4098
sg379
V6-4
p4099
sg381
VDavid Nwaba
p4100
sg383
I1610612741
sg384
V11
p4101
sg386
g87
sg387
V00
p4102
sg389
g69
sg390
I1628021
ssI1628035
(dp4103
g156
VWisc.-Green Bay
p4104
sg158
V215
p4105
sg160
V2017
p4106
sg162
F25.0
sg163
VSEP 17, 1992
p4107
sg165
V6-8
p4108
sg167
VAlfonzo McKinnie
p4109
sg169
I1610612761
sg170
V34
p4110
sg172
g504
sg173
V00
p4111
sg175
g111
sg176
I1628035
ssI1938
(dp4112
g178
VBahia Blanca, Argentina
p4113
sg180
V205
p4114
sg182
V2017
p4115
sg184
F40.0
sg185
VJUL 28, 1977
p4116
sg187
V6-6
p4117
sg189
VManu Ginobili
p4118
sg191
I1610612759
sg192
V20
p4119
sg194
V15
p4120
sg196
V00
p4121
sg198
g69
sg199
I1938
ssI203084
(dp4122
g740
VNorth Carolina
p4123
sg742
V225
p4124
sg744
V2017
p4125
sg746
F25.0
sg747
VMAY 30, 1992
p4126
sg749
V6-8
p4127
sg751
VHarrison Barnes
p4128
sg753
I1610612742
sg754
V40
p4129
sg755
g19
sg757
V00
p4130
sg759
g111
sg760
I203084
ssI202681
(dp4131
g519
VDuke
p4132
sg521
V193
p4133
sg523
V2017
p4134
sg525
F25.0
sg526
VMAR 23, 1992
p4135
sg528
V6-3
p4136
sg530
VKyrie Irving
p4137
sg532
I1610612738
sg533
V11
p4138
sg535
g584
sg536
V00
p4139
sg538
g69
sg539
I202681
ssI202683
(dp4140
g612
VKentucky
p4141
sg614
V245
p4142
sg616
V2017
p4143
sg618
F25.0
sg619
VMAY 20, 1992
p4144
sg621
V6-11
p4145
sg623
VEnes Kanter
p4146
sg625
I1610612752
sg626
V00
p4147
sg628
g584
sg629
V00
p4148
sg631
g47
sg632
I202683
ssI202684
(dp4149
g718
VTexas
p4150
sg720
V238
p4151
sg722
V2017
p4152
sg724
F26.0
sg725
VMAR 13, 1991
p4153
sg727
V6-9
p4154
sg729
VTristan Thompson
p4155
sg731
I1610612739
sg732
V13
p4156
sg734
g584
sg735
V00
p4157
sg737
VC-F
p4158
sg738
I202684
ssI202685
(dp4159
g156
VUtena, Lithuania
p4160
sg158
V255
p4161
sg160
V2017
p4162
sg162
F25.0
sg163
VMAY 06, 1992
p4163
sg165
V7-0
p4164
sg167
VJonas Valanciunas
p4165
sg169
I1610612761
sg170
V17
p4166
sg172
g19
sg173
V00
p4167
sg175
g47
sg176
I202685
ssI202687
(dp4168
g2
VLubumbashi, DR Congo
p4169
sg4
V255
p4170
sg6
V2017
p4171
sg8
F25.0
sg9
VAUG 28, 1992
p4172
sg11
V6-9
p4173
sg13
VBismack Biyombo
p4174
sg15
I1610612753
sg16
V11
p4175
sg18
g584
sg20
V00
p4176
sg22
g47
sg24
I202687
ssI202688
(dp4177
g326
VKentucky
p4178
sg328
V195
p4179
sg330
V2017
p4180
sg332
F25.0
sg333
VDEC 02, 1991
p4181
sg335
V6-3
p4182
sg337
VBrandon Knight
p4183
sg339
I1610612756
sg340
V11
p4184
sg341
g584
sg342
V00
p4185
sg344
g69
sg345
I202688
ssI202691
(dp4186
g438
VWashington State
p4187
sg440
V215
p4188
sg442
V2017
p4189
sg444
F27.0
sg445
VFEB 08, 1990
p4190
sg447
V6-7
p4191
sg449
VKlay Thompson
p4192
sg451
I1610612744
sg452
V11
p4193
sg453
g584
sg454
V00
p4194
sg456
g69
sg457
I202691
ssI202692
(dp4195
g347
VColorado
p4196
sg349
V214
p4197
sg351
V2017
p4198
sg353
F26.0
sg354
VJUL 20, 1991
p4199
sg356
V6-6
p4200
sg358
VAlec Burks
p4201
sg360
I1610612762
sg361
V10
p4202
sg363
g584
sg365
V00
p4203
sg367
g69
sg368
I202692
ssI202694
(dp4204
g519
VKansas
p4205
sg521
V235
p4206
sg523
V2017
p4207
sg525
F28.0
sg526
VSEP 02, 1989
p4208
sg528
V6-9
p4209
sg530
VMarcus Morris
p4210
sg532
I1610612738
sg533
V13
p4211
sg535
g584
sg536
V00
p4212
sg538
g111
sg539
I202694
ssI202695
(dp4213
g178
VSan Diego State
p4214
sg180
V230
p4215
sg182
V2017
p4216
sg184
F26.0
sg185
VJUN 29, 1991
p4217
sg187
V6-7
p4218
sg189
VKawhi Leonard
p4219
sg191
I1610612759
sg192
g43
sg194
g584
sg196
V00
p4220
sg198
g111
sg199
I202695
ssI202696
(dp4221
g2
VSouthern California
p4222
sg4
V260
p4223
sg6
V2017
p4224
sg8
F27.0
sg9
VOCT 24, 1990
p4225
sg11
V7-0
p4226
sg13
VNikola Vucevic
p4227
sg15
I1610612753
sg16
g851
sg18
g584
sg20
V00
p4228
sg22
g47
sg24
I202696
ssI202697
(dp4229
g718
VGeorgia Tech
p4230
sg720
V220
p4231
sg722
V2017
p4232
sg724
F27.0
sg725
VJUN 26, 1990
p4233
sg727
V6-5
p4234
sg729
VIman Shumpert
p4235
sg731
I1610612739
sg732
g565
sg734
g584
sg735
V00
p4236
sg737
g69
sg738
I202697
ssI202702
(dp4237
g50
VMorehead State
p4238
sg51
V228
p4239
sg53
V2017
p4240
sg55
F27.0
sg56
VNOV 19, 1989
p4241
sg58
V6-8
p4242
sg60
VKenneth Faried
p4243
sg62
I1610612743
sg63
V35
p4244
sg65
g584
sg66
V00
p4245
sg68
g111
sg70
I202702
ssI202703
(dp4246
g370
Nsg372
V238
p4247
sg374
V2017
p4248
sg376
F26.0
sg377
VFEB 11, 1991
p4249
sg379
V6-10
p4250
sg381
VNikola Mirotic
p4251
sg383
I1610612741
sg384
V44
p4252
sg386
g109
sg387
V00
p4253
sg389
g111
sg390
I202703
ssI202709
(dp4254
g392
VTexas
p4255
sg394
V190
p4256
sg396
V2017
p4257
sg398
F26.0
sg399
VAUG 20, 1991
p4258
sg401
V6-3
p4259
sg403
VCory Joseph
p4260
sg405
I1610612754
sg406
g584
sg408
g584
sg409
V00
p4261
sg411
g69
sg412
I202709
ssI202710
(dp4262
g72
VMarquette
p4263
sg74
V236
p4264
sg76
V2017
p4265
sg78
F28.0
sg79
VSEP 14, 1989
p4266
sg81
V6-8
p4267
sg83
VJimmy Butler
p4268
sg85
I1610612750
sg86
V23
p4269
sg88
g584
sg89
V00
p4270
sg91
g69
sg92
I202710
ssI202711
(dp4271
g392
Nsg394
V230
p4272
sg396
V2017
p4273
sg398
F28.0
sg399
VAPR 18, 1989
p4274
sg401
V6-8
p4275
sg403
VBojan Bogdanovic
p4276
sg405
I1610612754
sg406
V44
p4277
sg408
g109
sg409
V00
p4278
sg411
g111
sg412
I202711
ssI202713
(dp4279
g487
VDuke
p4280
sg489
V228
p4281
sg491
V2017
p4282
sg493
F29.0
sg494
VMAY 04, 1988
p4283
sg496
V6-8
p4284
sg498
VKyle Singler
p4285
sg500
I1610612760
sg501
V15
p4286
sg503
g19
sg505
V00
p4287
sg507
g111
sg508
I202713
ssI202714
(dp4288
g2
VButler
p4289
sg4
V203
p4290
sg6
V2017
p4291
sg8
F27.0
sg9
VAPR 22, 1990
p4292
sg11
V6-3
p4293
sg13
VShelvin Mack
p4294
sg15
I1610612753
sg16
g207
sg18
g584
sg20
V00
p4295
sg22
g69
sg24
I202714
ssI202718
(dp4296
g135
VFlorida
p4297
sg137
V230
p4298
sg139
V2017
p4299
sg141
F29.0
sg142
VOCT 25, 1988
p4300
sg144
V6-10
p4301
sg146
VChandler Parsons
p4302
sg148
I1610612763
sg149
V25
p4303
sg150
g584
sg151
V00
p4304
sg153
g111
sg154
I202718
ssI202722
(dp4305
g178
Nsg180
V210
p4306
sg182
V2017
p4307
sg184
F24.0
sg185
VNOV 12, 1992
p4308
sg187
V6-10
p4309
sg189
VDavis Bertans
p4310
sg191
I1610612759
sg192
V42
p4311
sg194
g87
sg196
V00
p4312
sg198
g111
sg199
I202722
ssI202732
(dp4313
g304
VKentucky
p4314
sg306
V209
p4315
sg308
V2017
p4316
sg310
F29.0
sg311
VMAR 31, 1988
p4317
sg313
V6-6
p4318
sg315
VDeAndre Liggins
p4319
sg317
I1610612749
sg318
V25
p4320
sg320
g565
sg321
V00
p4321
sg323
g69
sg324
I202732
ssI202734
(dp4322
g1129
VPurdue
p4323
sg1131
V191
p4324
sg1133
V2017
p4325
sg1135
F28.0
sg1136
VFEB 25, 1989
p4326
sg1138
V6-4
p4327
sg1140
VE'Twaun Moore
p4328
sg1142
I1610612740
sg1143
V55
p4329
sg1145
g584
sg1146
V00
p4330
sg1148
g69
sg1149
I202734
ssI1627816
(dp4331
g392
VKentucky
p4332
sg394
V235
p4333
sg396
V2017
p4334
sg398
F24.0
sg399
VSEP 06, 1993
p4335
sg401
V6-9
p4336
sg403
VAlex Poythress
p4337
sg405
I1610612754
sg406
g64
sg408
g87
sg409
V00
p4338
sg411
g111
sg412
I1627816
ssI202738
(dp4339
g718
VWashington
p4340
sg720
V185
p4341
sg722
V2017
p4342
sg724
F28.0
sg725
VFEB 07, 1989
p4343
sg727
V5-9
p4344
sg729
VIsaiah Thomas
p4345
sg731
I1610612739
sg732
g109
sg734
g584
sg735
V00
p4346
sg737
g69
sg738
I202738
ssI2037
(dp4347
g72
VMichigan
p4348
sg74
V185
p4349
sg76
V2017
p4350
sg78
F37.0
sg79
VMAR 20, 1980
p4351
sg81
V6-5
p4352
sg83
VJamal Crawford
p4353
sg85
I1610612750
sg86
V11
p4354
sg88
V17
p4355
sg89
V00
p4356
sg91
g69
sg92
I2037
ss.