(dp0
I2561
(dp1
VSCHOOL
p2
VXavier
p3
sVWEIGHT
p4
V250
p5
sVSEASON
p6
V2017
p7
sVAGE
p8
F37.0
sVBIRTH_DATE
p9
VAUG 29, 1980
p10
sVHEIGHT
p11
V6-9
p12
sVPLAYER
p13
VDavid West
p14
sVTeamID
p15
I1610612744
sVNUM
p16
V3
p17
sVEXP
p18
V14
p19
sVLeagueID
p20
V00
p21
sVPOSITION
p22
VF
p23
sVPLAYER_ID
p24
I2561
ssI201145
(dp25
VSCHOOL
p26
VGeorgetown
p27
sVWEIGHT
p28
V235
p29
sVSEASON
p30
V2017
p31
sVAGE
p32
F31.0
sVBIRTH_DATE
p33
VAUG 28, 1986
p34
sVHEIGHT
p35
V6-9
p36
sVPLAYER
p37
VJeff Green
p38
sVTeamID
p39
I1610612739
sVNUM
p40
V32
p41
sVEXP
p42
V9
p43
sVLeagueID
p44
V00
p45
sVPOSITION
p46
g23
sVPLAYER_ID
p47
I201145
ssI1626199
(dp48
VSCHOOL
p49
VVillanova
p50
sVWEIGHT
p51
V220
p52
sVSEASON
p53
V2017
p54
sVAGE
p55
F24.0
sVBIRTH_DATE
p56
VAPR 13, 1993
p57
sVHEIGHT
p58
V6-6
p59
sVPLAYER
p60
VDarrun Hilliard
p61
sVTeamID
p62
I1610612759
sVNUM
p63
V24
p64
sVEXP
p65
V2
p66
sVLeagueID
p67
V00
p68
sVPOSITION
p69
VG
p70
sVPLAYER_ID
p71
I1626199
ssI203101
(dp72
VSCHOOL
p73
VDuke
p74
sVWEIGHT
p75
V249
p76
sVSEASON
p77
V2017
p78
sVAGE
p79
F29.0
sVBIRTH_DATE
p80
VSEP 01, 1988
p81
sVHEIGHT
p82
V6-11
p83
sVPLAYER
p84
VMiles Plumlee
p85
sVTeamID
p86
I1610612737
sVNUM
p87
V18
p88
sVEXP
p89
V5
p90
sVLeagueID
p91
V00
p92
sVPOSITION
p93
VC
p94
sVPLAYER_ID
p95
I203101
ssI203705
(dp96
g73
VAlabama-Huntsville
p97
sg75
V160
p98
sg77
V2017
p99
sg79
F27.0
sg80
VNOV 28, 1989
p100
sg82
V6-1
p101
sg84
VJosh Magette
p102
sg86
I1610612737
sg87
V11
p103
sg89
VR
p104
sg91
V00
p105
sg93
g70
sg95
I203705
ssI1627834
(dp106
VSCHOOL
p107
NsVWEIGHT
p108
V240
p109
sVSEASON
p110
V2017
p111
sVAGE
p112
F20.0
sVBIRTH_DATE
p113
VJUL 03, 1997
p114
sVHEIGHT
p115
V7-1
p116
sVPLAYER
p117
VGeorgios Papagiannis
p118
sVTeamID
p119
I1610612758
sVNUM
p120
V13
p121
sVEXP
p122
V1
p123
sVLeagueID
p124
V00
p125
sVPOSITION
p126
g94
sVPLAYER_ID
p127
I1627834
ssI203524
(dp128
VSCHOOL
p129
VArizona
p130
sVWEIGHT
p131
V225
p132
sVSEASON
p133
V2017
p134
sVAGE
p135
F26.0
sVBIRTH_DATE
p136
VMAR 18, 1991
p137
sVHEIGHT
p138
V6-7
p139
sVPLAYER
p140
VSolomon Hill
p141
sVTeamID
p142
I1610612740
sVNUM
p143
V44
p144
sVEXP
p145
V4
p146
sVLeagueID
p147
V00
p148
sVPOSITION
p149
g23
sVPLAYER_ID
p150
I203524
ssI1628393
(dp151
VSCHOOL
p152
VOklahoma State
p153
sVWEIGHT
p154
V190
p155
sVSEASON
p156
V2017
p157
sVAGE
p158
F21.0
sVBIRTH_DATE
p159
VJUL 26, 1996
p160
sVHEIGHT
p161
V6-0
p162
sVPLAYER
p163
VJawun Evans
p164
sVTeamID
p165
I1610612746
sVNUM
p166
g123
sVEXP
p167
g104
sVLeagueID
p168
V00
p169
sVPOSITION
p170
g70
sVPLAYER_ID
p171
I1628393
ssI203898
(dp172
VSCHOOL
p173
VSyracuse
p174
sVWEIGHT
p175
V194
p176
sVSEASON
p177
V2017
p178
sVAGE
p179
F23.0
sVBIRTH_DATE
p180
VAUG 24, 1994
p181
sVHEIGHT
p182
V6-3
p183
sVPLAYER
p184
VTyler Ennis
p185
sVTeamID
p186
I1610612747
sVNUM
p187
V10
p188
sVEXP
p189
g17
sVLeagueID
p190
V00
p191
sVPOSITION
p192
g70
sVPLAYER_ID
p193
I203898
ssI200794
(dp194
VSCHOOL
p195
VLouisiana Tech
p196
sVWEIGHT
p197
V246
p198
sVSEASON
p199
V2017
p200
sVAGE
p201
F32.0
sVBIRTH_DATE
p202
VFEB 10, 1985
p203
sVHEIGHT
p204
V6-8
p205
sVPLAYER
p206
VPaul Millsap
p207
sVTeamID
p208
I1610612743
sVNUM
p209
g146
sVEXP
p210
V11
p211
sVLeagueID
p212
V00
p213
sVPOSITION
p214
g23
sVPLAYER_ID
p215
I200794
ssI202738
(dp216
g26
VWashington
p217
sg28
V185
p218
sg30
V2017
p219
sg32
F28.0
sg33
VFEB 07, 1989
p220
sg35
V5-9
p221
sg37
VIsaiah Thomas
p222
sg39
I1610612739
sg40
g17
sg42
V6
p223
sg44
V00
p224
sg46
g70
sg47
I202738
ssI1626144
(dp225
g195
Nsg197
V200
p226
sg199
V2017
p227
sg201
F21.0
sg202
VMAR 05, 1996
p228
sg204
V6-5
p229
sg206
VEmmanuel Mudiay
p230
sg208
I1610612743
sg209
V0
p231
sg210
g66
sg212
V00
p232
sg214
g70
sg215
I1626144
ssI2736
(dp233
g173
VDuke
p234
sg175
V220
p235
sg177
V2017
p236
sg179
F32.0
sg180
VAPR 16, 1985
p237
sg182
V6-9
p238
sg184
VLuol Deng
p239
sg186
I1610612747
sg187
g43
sg189
V13
p240
sg190
V00
p241
sg192
g23
sg193
I2736
ssI2594
(dp242
g26
VCreighton
p243
sg28
V212
p244
sg30
V2017
p245
sg32
F36.0
sg33
VMAR 17, 1981
p246
sg35
V6-7
p247
sg37
VKyle Korver
p248
sg39
I1610612739
sg40
V26
p249
sg42
V14
p250
sg44
V00
p251
sg46
g70
sg47
I2594
ssI1627739
(dp252
VSCHOOL
p253
VProvidence
p254
sVWEIGHT
p255
V210
p256
sVSEASON
p257
V2017
p258
sVAGE
p259
F23.0
sVBIRTH_DATE
p260
VMAR 18, 1994
p261
sVHEIGHT
p262
V6-4
p263
sVPLAYER
p264
VKris Dunn
p265
sVTeamID
p266
I1610612741
sVNUM
p267
V32
p268
sVEXP
p269
g123
sVLeagueID
p270
V00
p271
sVPOSITION
p272
g70
sVPLAYER_ID
p273
I1627739
ssI1626149
(dp274
g152
VLouisville
p275
sg154
V240
p276
sg156
V2017
p277
sg158
F23.0
sg159
VJAN 26, 1994
p278
sg161
V6-8
p279
sg163
VMontrezl Harrell
p280
sg165
I1610612746
sg166
g90
sg167
g66
sg168
V00
p281
sg170
VF-C
p282
sg171
I1626149
ssI1626150
(dp283
VSCHOOL
p284
VKentucky
p285
sVWEIGHT
p286
V213
p287
sVSEASON
p288
V2017
p289
sVAGE
p290
F23.0
sVBIRTH_DATE
p291
VOCT 28, 1994
p292
sVHEIGHT
p293
V6-6
p294
sVPLAYER
p295
VAndrew Harrison
p296
sVTeamID
p297
I1610612763
sVNUM
p298
g90
sVEXP
p299
g123
sVLeagueID
p300
V00
p301
sVPOSITION
p302
g70
sVPLAYER_ID
p303
I1626150
ssI2225
(dp304
g49
VParis, France
p305
sg51
V185
p306
sg53
V2017
p307
sg55
F35.0
sg56
VMAY 17, 1982
p308
sg58
V6-2
p309
sg60
VTony Parker
p310
sg62
I1610612759
sg63
g43
sg65
V16
p311
sg67
V00
p312
sg69
g70
sg71
I2225
ssI1626153
(dp313
VSCHOOL
p314
VUtah
p315
sVWEIGHT
p316
V190
p317
sVSEASON
p318
V2017
p319
sVAGE
p320
F25.0
sVBIRTH_DATE
p321
VAPR 26, 1992
p322
sVHEIGHT
p323
V6-5
p324
sVPLAYER
p325
VDelon Wright
p326
sVTeamID
p327
I1610612761
sVNUM
p328
V55
p329
sVEXP
p330
g66
sVLeagueID
p331
V00
p332
sVPOSITION
p333
g70
sVPLAYER_ID
p334
I1626153
ssI200746
(dp335
g49
VTexas
p336
sg51
V260
p337
sg53
V2017
p338
sg55
F32.0
sg56
VJUL 19, 1985
p339
sg58
V6-11
p340
sg60
VLaMarcus Aldridge
p341
sg62
I1610612759
sg63
V12
p342
sg65
V11
p343
sg67
V00
p344
sg69
g23
sg71
I200746
ssI1626155
(dp345
g152
VWisconsin
p346
sg154
V230
p347
sg156
V2017
p348
sg158
F23.0
sg159
VMAY 08, 1994
p349
sg161
V6-9
p350
sg163
VSam Dekker
p351
sg165
I1610612746
sg166
V7
p352
sg167
g66
sg168
V00
p353
sg170
g23
sg171
I1626155
ssI1627826
(dp354
g173
Nsg175
V240
p355
sg177
V2017
p356
sg179
F20.0
sg180
VMAR 18, 1997
p357
sg182
V7-1
p358
sg184
VIvica Zubac
p359
sg186
I1610612747
sg187
V40
p360
sg189
g123
sg190
V00
p361
sg192
g94
sg193
I1627826
ssI1626159
(dp362
VSCHOOL
p363
VDuke
p364
sVWEIGHT
p365
V225
p366
sVSEASON
p367
V2017
p368
sVAGE
p369
F21.0
sVBIRTH_DATE
p370
VMAR 26, 1996
p371
sVHEIGHT
p372
V6-7
p373
sVPLAYER
p374
VJustise Winslow
p375
sVTeamID
p376
I1610612748
sVNUM
p377
V20
p378
sVEXP
p379
g66
sVLeagueID
p380
V00
p381
sVPOSITION
p382
g23
sVPLAYER_ID
p383
I1626159
ssI1627098
(dp384
g73
VVirginia Tech
p385
sg75
V190
p386
sg77
V2017
p387
sg79
F28.0
sg80
VMAR 11, 1989
p388
sg82
V6-3
p389
sg84
VMalcolm Delaney
p390
sg86
I1610612737
sg87
g90
sg89
g123
sg91
V00
p391
sg93
g70
sg95
I1627098
ssI201967
(dp392
g129
VVillanova
p393
sg131
V230
p394
sg133
V2017
p395
sg135
F30.0
sg136
VAPR 22, 1987
p396
sg138
V6-8
p397
sg140
VDante Cunningham
p398
sg142
I1610612740
sg143
V33
p399
sg145
V8
p400
sg147
V00
p401
sg149
g23
sg150
I201967
ssI1627827
(dp402
VSCHOOL
p403
VFlorida
p404
sVWEIGHT
p405
V220
p406
sVSEASON
p407
V2017
p408
sVAGE
p409
F24.0
sVBIRTH_DATE
p410
VMAY 04, 1993
p411
sVHEIGHT
p412
V6-8
p413
sVPLAYER
p414
VDorian Finney-Smith
p415
sVTeamID
p416
I1610612742
sVNUM
p417
V10
p418
sVEXP
p419
g123
sVLeagueID
p420
V00
p421
sVPOSITION
p422
g23
sVPLAYER_ID
p423
I1627827
ssI1628368
(dp424
g107
VKentucky
p425
sg108
V175
p426
sg110
V2017
p427
sg112
F19.0
sg113
VDEC 20, 1997
p428
sg115
V6-3
p429
sg117
VDe'Aaron Fox
p430
sg119
I1610612758
sg120
g90
sg122
g104
sg124
V00
p431
sg126
g70
sg127
I1628368
ssI200757
(dp432
VSCHOOL
p433
VVevey, Switzerland
p434
sVWEIGHT
p435
V220
p436
sVSEASON
p437
V2017
p438
sVAGE
p439
F33.0
sVBIRTH_DATE
p440
VMAY 02, 1984
p441
sVHEIGHT
p442
V6-7
p443
sVPLAYER
p444
VThabo Sefolosha
p445
sVTeamID
p446
I1610612762
sVNUM
p447
V22
p448
sVEXP
p449
V11
p450
sVLeagueID
p451
V00
p452
sVPOSITION
p453
g23
sVPLAYER_ID
p454
I200757
ssI1626166
(dp455
g253
VMurray State
p456
sg255
V185
p457
sg257
V2017
p458
sg259
F23.0
sg260
VAUG 08, 1994
p459
sg262
V6-3
p460
sg264
VCameron Payne
p461
sg266
I1610612741
sg267
V22
p462
sg269
g66
sg270
V00
p463
sg272
g70
sg273
I1626166
ssI1626168
(dp464
g195
VKentucky
p465
sg197
V234
p466
sg199
V2017
p467
sg201
F22.0
sg202
VNOV 05, 1995
p468
sg204
V6-10
p469
sg206
VTrey Lyles
p470
sg208
I1610612743
sg209
g352
sg210
g66
sg212
V00
p471
sg214
g23
sg215
I1626168
ssI2617
(dp472
g363
VFlorida
p473
sg365
V235
p474
sg367
V2017
p475
sg369
F37.0
sg370
VJUN 09, 1980
p476
sg372
V6-8
p477
sg374
VUdonis Haslem
p478
sg376
I1610612748
sg377
V40
p479
sg379
V14
p480
sg380
V00
p481
sg382
g23
sg383
I2617
ssI1626170
(dp482
g253
VNotre Dame
p483
sg255
V198
p484
sg257
V2017
p485
sg259
F25.0
sg260
VOCT 09, 1992
p486
sg262
V6-4
p487
sg264
VJerian Grant
p488
sg266
I1610612741
sg267
g66
sg269
g66
sg270
V00
p489
sg272
g70
sg273
I1626170
ssI1626171
(dp490
g253
VArkansas
p491
sg255
V248
p492
sg257
V2017
p493
sg259
F22.0
sg260
VFEB 10, 1995
p494
sg262
V6-11
p495
sg264
VBobby Portis
p496
sg266
I1610612741
sg267
g90
sg269
g66
sg270
V00
p497
sg272
g23
sg273
I1626171
ssI1626172
(dp498
g2
VUCLA
p499
sg4
V220
p500
sg6
V2017
p501
sg8
F21.0
sg9
VFEB 06, 1996
p502
sg11
V6-9
p503
sg13
VKevon Looney
p504
sg15
I1610612744
sg16
g90
sg18
g66
sg20
V00
p505
sg22
g23
sg24
I1626172
ssI1626173
(dp506
VSCHOOL
p507
VUNLV
p508
sVWEIGHT
p509
V202
p510
sVSEASON
p511
V2017
p512
sVAGE
p513
F21.0
sVBIRTH_DATE
p514
VAUG 16, 1996
p515
sVHEIGHT
p516
V6-6
p517
sVPLAYER
p518
VRashad Vaughn
p519
sVTeamID
p520
I1610612749
sVNUM
p521
V20
p522
sVEXP
p523
g66
sVLeagueID
p524
V00
p525
sVPOSITION
p526
g70
sVPLAYER_ID
p527
I1626173
ssI1626175
(dp528
g363
VLouisiana State
p529
sg365
V235
p530
sg367
V2017
p531
sg369
F23.0
sg370
VJUL 09, 1994
p532
sg372
V6-8
p533
sg374
VJordan Mickey
p534
sg376
I1610612748
sg377
V25
p535
sg379
g66
sg380
V00
p536
sg382
VC-F
p537
sg383
I1626175
ssI200768
(dp538
g314
VVillanova
p539
sg316
V205
p540
sg318
V2017
p541
sg320
F31.0
sg321
VMAR 25, 1986
p542
sg323
V6-0
p543
sg325
VKyle Lowry
p544
sg327
I1610612761
sg328
g352
sg330
V11
p545
sg331
V00
p546
sg333
g70
sg334
I200768
ssI1626177
(dp547
VSCHOOL
p548
VKentucky
p549
sVWEIGHT
p550
V255
p551
sVSEASON
p552
V2017
p553
sVAGE
p554
F22.0
sVBIRTH_DATE
p555
VSEP 22, 1995
p556
sVHEIGHT
p557
V7-0
p558
sVPLAYER
p559
VDakari Johnson
p560
sVTeamID
p561
I1610612760
sVNUM
p562
V44
p563
sVEXP
p564
g104
sVLeagueID
p565
V00
p566
sVPOSITION
p567
g94
sVPLAYER_ID
p568
I1626177
ssI1626179
(dp569
VSCHOOL
p570
VLouisville
p571
sVWEIGHT
p572
V190
p573
sVSEASON
p574
V2017
p575
sVAGE
p576
F23.0
sVBIRTH_DATE
p577
VMAR 17, 1994
p578
sVHEIGHT
p579
V6-2
p580
sVPLAYER
p581
VTerry Rozier
p582
sVTeamID
p583
I1610612738
sVNUM
p584
V12
p585
sVEXP
p586
g66
sVLeagueID
p587
V00
p588
sVPOSITION
p589
g70
sVPLAYER_ID
p590
I1626179
ssI1626181
(dp591
g314
VUCLA
p592
sg316
V215
p593
sg318
V2017
p594
sg320
F24.0
sg321
VMAY 25, 1993
p595
sg323
V6-4
p596
sg325
VNorman Powell
p597
sg327
I1610612761
sg328
V24
p598
sg330
g66
sg331
V00
p599
sg333
VF-G
p600
sg334
I1626181
ssI202337
(dp601
g73
VNevada
p602
sg75
V225
p603
sg77
V2017
p604
sg79
F28.0
sg80
VJUN 20, 1989
p605
sg82
V6-9
p606
sg84
VLuke Babbitt
p607
sg86
I1610612737
sg87
g400
sg89
g352
sg91
V00
p608
sg93
g23
sg95
I202337
ssI1626185
(dp609
g284
VLouisiana State
p610
sg286
V239
p611
sg288
V2017
p612
sg290
F23.0
sg291
VMAY 24, 1994
p613
sg293
V6-10
p614
sg295
VJarell Martin
p615
sg297
I1610612763
sg298
g123
sg299
g66
sg300
V00
p616
sg302
g23
sg303
I1626185
ssI1626188
(dp617
g2
VDuke
p618
sg4
V179
p619
sg6
V2017
p620
sg8
F24.0
sg9
VMAR 23, 1993
p621
sg11
V6-2
p622
sg13
VQuinn Cook
p623
sg15
I1610612744
sg16
g146
sg18
g123
sg20
V00
p624
sg22
g70
sg24
I1626188
ssI200782
(dp625
VSCHOOL
p626
VTexas
p627
sVWEIGHT
p628
V245
p629
sVSEASON
p630
V2017
p631
sVAGE
p632
F32.0
sVBIRTH_DATE
p633
VMAY 05, 1985
p634
sVHEIGHT
p635
V6-6
p636
sVPLAYER
p637
VPJ Tucker
p638
sVTeamID
p639
I1610612745
sVNUM
p640
g146
sVEXP
p641
g223
sVLeagueID
p642
V00
p643
sVPOSITION
p644
g23
sVPLAYER_ID
p645
I200782
ssI1627781
(dp646
g107
VSyracuse
p647
sg108
V205
p648
sg110
V2017
p649
sg112
F21.0
sg113
VJAN 05, 1996
p650
sg115
V6-6
p651
sg117
VMalachi Richardson
p652
sg119
I1610612758
sg120
V23
p653
sg122
g123
sg124
V00
p654
sg126
g70
sg127
I1627781
ssI1628463
(dp655
g73
VGeorge Washington
p656
sg75
V238
p657
sg77
V2017
p658
sg79
F23.0
sg80
VFEB 09, 1994
p659
sg82
V6-9
p660
sg84
VTyler Cavanaugh
p661
sg86
I1610612737
sg87
V34
p662
sg89
g104
sg91
V00
p663
sg93
g23
sg95
I1628463
ssI202083
(dp664
g403
VMarquette
p665
sg405
V220
p666
sg407
V2017
p667
sg409
F31.0
sg410
VOCT 14, 1986
p668
sg412
V6-5
p669
sg414
VWesley Matthews
p670
sg416
I1610612742
sg417
V23
p671
sg419
g400
sg420
V00
p672
sg422
VG-F
p673
sg423
I202083
ssI202324
(dp674
g433
VGeorgia Tech
p675
sg435
V265
p676
sg437
V2017
p677
sg439
F26.0
sg440
VJUL 15, 1991
p678
sg442
V6-10
p679
sg444
VDerrick Favors
p680
sg446
I1610612762
sg447
V15
p681
sg449
g352
sg451
V00
p682
sg453
VF-C
p683
sg454
I202324
ssI202325
(dp684
g152
VSyracuse
p685
sg154
V215
p686
sg156
V2017
p687
sg158
F30.0
sg159
VJUL 11, 1987
p688
sg161
V6-7
p689
sg163
VWesley Johnson
p690
sg165
I1610612746
sg166
V33
p691
sg167
g352
sg168
V00
p692
sg170
g23
sg171
I202325
ssI202326
(dp693
g129
VKentucky
p694
sg131
V270
p695
sg133
V2017
p696
sg135
F27.0
sg136
VAUG 13, 1990
p697
sg138
V6-11
p698
sg140
VDeMarcus Cousins
p699
sg142
I1610612740
sg143
g231
sg145
g352
sg147
V00
p700
sg149
g94
sg150
I202326
ssI202327
(dp701
g433
VBaylor
p702
sg435
V245
p703
sg437
V2017
p704
sg439
F30.0
sg440
VMAY 20, 1987
p705
sg442
V6-10
p706
sg444
VEkpe Udoh
p707
sg446
I1610612762
sg447
V33
p708
sg449
g90
sg451
V00
p709
sg453
VC-F
p710
sg454
I202327
ssI1627736
(dp711
g195
VFlorida State
p712
sg197
V196
p713
sg199
V2017
p714
sg201
F20.0
sg202
VNOV 26, 1996
p715
sg204
V6-5
p716
sg206
VMalik Beasley
p717
sg208
I1610612743
sg209
V25
p718
sg210
g123
sg212
V00
p719
sg214
g70
sg215
I1627736
ssI1627738
(dp720
g284
VMichigan State
p721
sg286
V237
p722
sg288
V2017
p723
sg290
F20.0
sg291
VDEC 02, 1996
p724
sg293
V6-11
p725
sg295
VDeyonta Davis
p726
sg297
I1610612763
sg298
V21
p727
sg299
g123
sg300
V00
p728
sg302
VC-F
p729
sg303
I1627738
ssI202331
(dp730
g548
VFresno State
p731
sg550
V220
p732
sg552
V2017
p733
sg554
F27.0
sg555
VMAY 02, 1990
p734
sg557
V6-9
p735
sg559
VPaul George
p736
sg561
I1610612760
sg562
V13
p737
sg564
g352
sg565
V00
p738
sg567
g23
sg568
I202331
ssI1626204
(dp739
g173
VWyoming
p740
sg175
V230
p741
sg177
V2017
p742
sg179
F24.0
sg180
VJAN 01, 1993
p743
sg182
V6-9
p744
sg184
VLarry Nance Jr.
p745
sg186
I1610612747
sg187
g352
sg189
g66
sg190
V00
p746
sg192
g23
sg193
I1626204
ssI1626205
(dp747
g284
VTexas-El Paso
p748
sg286
V208
p749
sg288
V2017
p750
sg290
F23.0
sg291
VAUG 05, 1994
p751
sg293
V6-8
p752
sg295
VVincent Hunter
p753
sg297
I1610612763
sg298
V32
p754
sg299
g104
sg300
V00
p755
sg302
g23
sg303
I1626205
ssI1627742
(dp756
g173
VDuke
p757
sg175
V190
p758
sg177
V2017
p759
sg179
F20.0
sg180
VSEP 02, 1997
p760
sg182
V6-9
p761
sg184
VBrandon Ingram
p762
sg186
I1610612747
sg187
V14
p763
sg189
g123
sg190
V00
p764
sg192
VF-G
p765
sg193
I1627742
ssI202335
(dp766
g548
VKentucky
p767
sg550
V230
p768
sg552
V2017
p769
sg554
F28.0
sg555
VMAR 14, 1989
p770
sg557
V6-9
p771
sg559
VPatrick Patterson
p772
sg561
I1610612760
sg562
V54
p773
sg564
g352
sg565
V00
p774
sg567
g23
sg568
I202335
ssI1627744
(dp775
g152
VNorth Carolina
p776
sg154
V230
p777
sg156
V2017
p778
sg158
F23.0
sg159
VJUN 27, 1994
p779
sg161
V6-10
p780
sg163
VBrice Johnson
p781
sg165
I1610612746
sg166
V11
p782
sg167
g123
sg168
V00
p783
sg170
g23
sg171
I1627744
ssI1627745
(dp784
g2
VVanderbilt
p785
sg4
V245
p786
sg6
V2017
p787
sg8
F22.0
sg9
VJUN 30, 1995
p788
sg11
V7-0
p789
sg13
VDamian Jones
p790
sg15
I1610612744
sg16
V15
p791
sg18
g123
sg20
V00
p792
sg22
g94
sg24
I1627745
ssI1627746
(dp793
g107
VKentucky
p794
sg108
V225
p795
sg110
V2017
p796
sg112
F21.0
sg113
VMAR 18, 1996
p797
sg115
V6-11
p798
sg117
VSkal Labissiere
p799
sg119
I1610612758
sg120
g352
sg122
g123
sg124
V00
p800
sg126
VF-C
p801
sg127
I1627746
ssI202339
(dp802
g507
VKentucky
p803
sg509
V205
p804
sg511
V2017
p805
sg513
F27.0
sg514
VDEC 09, 1989
p806
sg516
V6-1
p807
sg518
VEric Bledsoe
p808
sg520
I1610612749
sg521
g223
sg523
g352
sg524
V00
p809
sg526
g70
sg527
I202339
ssI1627748
(dp810
g507
Nsg509
V223
p811
sg511
V2017
p812
sg513
F20.0
sg514
VFEB 25, 1997
p813
sg516
V7-1
p814
sg518
VThon Maker
p815
sg520
I1610612749
sg521
g352
sg523
g123
sg524
V00
p816
sg526
VC-F
p817
sg527
I1627748
ssI1627749
(dp818
g49
VWashington
p819
sg51
V170
p820
sg53
V2017
p821
sg55
F21.0
sg56
VSEP 19, 1996
p822
sg58
V6-5
p823
sg60
VDejounte Murray
p824
sg62
I1610612759
sg63
g90
sg65
g123
sg67
V00
p825
sg69
g70
sg71
I1627749
ssI1627750
(dp826
g195
VKentucky
p827
sg197
V207
p828
sg199
V2017
p829
sg201
F20.0
sg202
VFEB 23, 1997
p830
sg204
V6-4
p831
sg206
VJamal Murray
p832
sg208
I1610612743
sg209
V27
p833
sg210
g123
sg212
V00
p834
sg214
g70
sg215
I1627750
ssI1627751
(dp835
g314
VUtah
p836
sg316
V230
p837
sg318
V2017
p838
sg320
F22.0
sg321
VOCT 15, 1995
p839
sg323
V7-0
p840
sg325
VJakob Poeltl
p841
sg327
I1610612761
sg328
V42
p842
sg330
g123
sg331
V00
p843
sg333
g94
sg334
I1627751
ssI1627752
(dp844
g73
VBaylor
p845
sg75
V220
p846
sg77
V2017
p847
sg79
F23.0
sg80
VMAR 22, 1994
p848
sg82
V6-8
p849
sg84
VTaurean Prince
p850
sg86
I1610612737
sg87
V12
p851
sg89
g123
sg91
V00
p852
sg93
g23
sg95
I1627752
ssI1627753
(dp853
g626
Nsg628
V210
p854
sg630
V2017
p855
sg632
F21.0
sg633
VJAN 16, 1996
p856
sg635
V7-1
p857
sg637
VQi Qi
p858
sg639
I1610612745
sg640
g43
sg641
g104
sg642
V00
p859
sg644
VF-C
p860
sg645
I1627753
ssI202347
(dp861
g253
VWashington
p862
sg255
V225
p863
sg257
V2017
p864
sg259
F29.0
sg260
VMAR 10, 1988
p865
sg262
V6-7
p866
sg264
VQuincy Pondexter
p867
sg266
I1610612741
sg267
V20
p868
sg269
g90
sg270
V00
p869
sg272
g70
sg273
I202347
ssI1626220
(dp870
g433
VBaylor
p871
sg435
V226
p872
sg437
V2017
p873
sg439
F24.0
sg440
VJUN 05, 1993
p874
sg442
V6-6
p875
sg444
VRoyce O'Neale
p876
sg446
I1610612762
sg447
V23
p877
sg449
g104
sg451
V00
p878
sg453
g23
sg454
I1626220
ssI1627759
(dp879
g570
VCalifornia
p880
sg572
V225
p881
sg574
V2017
p882
sg576
F21.0
sg577
VOCT 24, 1996
p883
sg579
V6-7
p884
sg581
VJaylen Brown
p885
sg583
I1610612738
sg584
g352
sg586
g123
sg587
V00
p886
sg589
VG-F
p887
sg590
I1627759
ssI1626224
(dp888
g26
VAnadolu Efes
p889
sg28
V215
p890
sg30
V2017
p891
sg32
F22.0
sg33
VAPR 08, 1995
p892
sg35
V6-8
p893
sg37
VCedi Osman
p894
sg39
I1610612739
sg40
V16
p895
sg42
g104
sg44
V00
p896
sg46
g23
sg47
I1626224
ssI202681
(dp897
g570
VDuke
p898
sg572
V193
p899
sg574
V2017
p900
sg576
F25.0
sg577
VMAR 23, 1992
p901
sg579
V6-3
p902
sg581
VKyrie Irving
p903
sg583
I1610612738
sg584
V11
p904
sg586
g223
sg587
V00
p905
sg589
g70
sg590
I202681
ssI1627762
(dp906
g507
VWeber State
p907
sg509
V235
p908
sg511
V2017
p909
sg513
F23.0
sg514
VJAN 28, 1994
p910
sg516
V6-9
p911
sg518
VJoel Bolomboy
p912
sg520
I1610612749
sg521
V24
p913
sg523
g123
sg524
V00
p914
sg526
VF-C
p915
sg527
I1627762
ssI202355
(dp916
g363
VMarshall
p917
sg365
V265
p918
sg367
V2017
p919
sg369
F28.0
sg370
VJUN 13, 1989
p920
sg372
V7-0
p921
sg374
VHassan Whiteside
p922
sg376
I1610612748
sg377
V21
p923
sg379
g90
sg380
V00
p924
sg382
g94
sg383
I202355
ssI203382
(dp925
g570
VWashington State
p926
sg572
V260
p927
sg574
V2017
p928
sg576
F30.0
sg577
VDEC 09, 1986
p929
sg579
V6-10
p930
sg581
VAron Baynes
p931
sg583
I1610612738
sg584
V46
p932
sg586
g90
sg587
V00
p933
sg589
g94
sg590
I203382
ssI1627767
(dp934
g129
VKansas
p935
sg131
V220
p936
sg133
V2017
p937
sg135
F21.0
sg136
VSEP 13, 1996
p938
sg138
V6-9
p939
sg140
VCheick Diallo
p940
sg142
I1610612740
sg143
V13
p941
sg145
g123
sg147
V00
p942
sg149
g23
sg150
I1627767
ssI203897
(dp943
g253
VUCLA
p944
sg255
V185
p945
sg257
V2017
p946
sg259
F22.0
sg260
VMAR 10, 1995
p947
sg262
V6-5
p948
sg264
VZach LaVine
p949
sg266
I1610612741
sg267
g400
sg269
g17
sg270
V00
p950
sg272
g70
sg273
I203897
ssI200826
(dp951
g403
VNortheastern
p952
sg405
V185
p953
sg407
V2017
p954
sg409
F33.0
sg410
VJUN 26, 1984
p955
sg412
V6-0
p956
sg414
VJ.J. Barea
p957
sg416
I1610612742
sg417
g90
sg419
V11
p958
sg420
V00
p959
sg422
g70
sg423
I200826
ssI203960
(dp960
g107
VSt. John's (NY)
p961
sg108
V207
p962
sg110
V2017
p963
sg112
F24.0
sg113
VMAR 20, 1993
p964
sg115
V6-9
p965
sg117
VJaKarr Sampson
p966
sg119
I1610612758
sg120
V29
p967
sg122
g66
sg124
V00
p968
sg126
g23
sg127
I203960
ssI1627772
(dp969
g548
VConnecticut
p970
sg550
V195
p971
sg552
V2017
p972
sg554
F22.0
sg555
VAUG 08, 1995
p973
sg557
V6-7
p974
sg559
VDaniel Hamilton
p975
sg561
I1610612760
sg562
V25
p976
sg564
g104
sg565
V00
p977
sg567
g70
sg568
I1627772
ssI1627773
(dp978
g363
VPurdue
p979
sg365
V260
p980
sg367
V2017
p981
sg369
F25.0
sg370
VAUG 27, 1992
p982
sg372
V7-0
p983
sg374
VAJ Hammons
p984
sg376
I1610612748
sg377
g146
sg379
g123
sg380
V00
p985
sg382
g94
sg383
I1627773
ssI1627936
(dp986
g173
VTexas A&M
p987
sg175
V186
p988
sg177
V2017
p989
sg179
F23.0
sg180
VFEB 28, 1994
p990
sg182
V6-5
p991
sg184
VAlex Caruso
p992
sg186
I1610612747
sg187
g146
sg189
g104
sg190
V00
p993
sg192
g70
sg193
I1627936
ssI1627778
(dp994
g626
VLouisville
p995
sg628
V245
p996
sg630
V2017
p997
sg632
F21.0
sg633
VNOV 01, 1996
p998
sg635
V6-10
p999
sg637
VChinanu Onuaku
p1000
sg639
I1610612745
sg640
V21
p1001
sg641
g123
sg642
V00
p1002
sg644
g94
sg645
I1627778
ssI1627780
(dp1003
g507
VOregon State
p1004
sg509
V190
p1005
sg511
V2017
p1006
sg513
F24.0
sg514
VDEC 01, 1992
p1007
sg516
V6-3
p1008
sg518
VGary Payton II
p1009
sg520
I1610612749
sg521
g231
sg523
g123
sg524
V00
p1010
sg526
g70
sg527
I1627780
ssI203500
(dp1011
g548
VPittsburgh
p1012
sg550
V255
p1013
sg552
V2017
p1014
sg554
F24.0
sg555
VJUL 20, 1993
p1015
sg557
V7-0
p1016
sg559
VSteven Adams
p1017
sg561
I1610612760
sg562
V12
p1018
sg564
g146
sg565
V00
p1019
sg567
g94
sg568
I203500
ssI1627782
(dp1020
g284
VKansas
p1021
sg286
V230
p1022
sg288
V2017
p1023
sg290
F23.0
sg291
VSEP 30, 1994
p1024
sg293
V6-5
p1025
sg295
VWayne Selden
p1026
sg297
I1610612763
sg298
g352
sg299
g123
sg300
V00
p1027
sg302
VG-F
p1028
sg303
I1627782
ssI1627783
(dp1029
g314
VNew Mexico State
p1030
sg316
V230
p1031
sg318
V2017
p1032
sg320
F23.0
sg321
VAPR 02, 1994
p1033
sg323
V6-9
p1034
sg325
VPascal Siakam
p1035
sg327
I1610612761
sg328
V43
p1036
sg330
g123
sg331
V00
p1037
sg333
g23
sg334
I1627783
ssI1627756
(dp1038
g253
VMichigan State
p1039
sg255
V214
p1040
sg257
V2017
p1041
sg259
F23.0
sg260
VNOV 16, 1993
p1042
sg262
V6-6
p1043
sg264
VDenzel Valentine
p1044
sg266
I1610612741
sg267
V45
p1045
sg269
g123
sg270
V00
p1046
sg272
g23
sg273
I1627756
ssI203914
(dp1047
g195
VMichigan State
p1048
sg197
V210
p1049
sg199
V2017
p1050
sg201
F23.0
sg202
VSEP 14, 1994
p1051
sg204
V6-4
p1052
sg206
VGary Harris
p1053
sg208
I1610612743
sg209
V14
p1054
sg210
g17
sg212
V00
p1055
sg214
g70
sg215
I203914
ssI203918
(dp1056
g433
VDuke
p1057
sg435
V206
p1058
sg437
V2017
p1059
sg439
F25.0
sg440
VOCT 20, 1992
p1060
sg442
V6-8
p1061
sg444
VRodney Hood
p1062
sg446
I1610612762
sg447
g90
sg449
g17
sg451
V00
p1063
sg453
g70
sg454
I203918
ssI1626257
(dp1064
g403
Nsg405
V235
p1065
sg407
V2017
p1066
sg409
F31.0
sg410
VJUN 15, 1986
p1067
sg412
V7-2
p1068
sg414
VSalah Mejri
p1069
sg416
I1610612742
sg417
V50
p1070
sg419
g66
sg420
V00
p1071
sg422
g94
sg423
I1626257
ssI1626259
(dp1072
g314
VHoly Cross
p1073
sg316
V210
p1074
sg318
V2017
p1075
sg320
F24.0
sg321
VMAR 06, 1993
p1076
sg323
V6-7
p1077
sg325
VMalcolm Miller
p1078
sg327
I1610612761
sg328
V13
p1079
sg330
g104
sg331
V00
p1080
sg333
g23
sg334
I1626259
ssI203924
(dp1081
g548
VSyracuse
p1082
sg550
V220
p1083
sg552
V2017
p1084
sg554
F23.0
sg555
VMAR 12, 1994
p1085
sg557
V6-9
p1086
sg559
VJerami Grant
p1087
sg561
I1610612760
sg562
g43
sg564
g17
sg565
V00
p1088
sg567
g23
sg568
I203924
ssI2585
(dp1089
g2
VTbilisi, Georgia
p1090
sg4
V270
p1091
sg6
V2017
p1092
sg8
F33.0
sg9
VFEB 10, 1984
p1093
sg11
V6-11
p1094
sg13
VZaza Pachulia
p1095
sg15
I1610612744
sg16
V27
p1096
sg18
V14
p1097
sg20
V00
p1098
sg22
g94
sg24
I2585
ssI2200
(dp1099
g49
VBarcelona, Spain
p1100
sg51
V250
p1101
sg53
V2017
p1102
sg55
F37.0
sg56
VJUL 06, 1980
p1103
sg58
V7-0
p1104
sg60
VPau Gasol
p1105
sg62
I1610612759
sg63
V16
p1106
sg65
V16
p1107
sg67
V00
p1108
sg69
g94
sg71
I2200
ssI201156
(dp1109
g2
VSouthern California
p1110
sg4
V210
p1111
sg6
V2017
p1112
sg8
F32.0
sg9
VJUN 01, 1985
p1113
sg11
V6-7
p1114
sg13
VNick Young
p1115
sg15
I1610612744
sg16
g223
sg18
V10
p1116
sg20
V00
p1117
sg22
VG-F
p1118
sg24
I201156
ssI201583
(dp1119
g626
VCalifornia
p1120
sg628
V240
p1121
sg630
V2017
p1122
sg632
F29.0
sg633
VMAY 06, 1988
p1123
sg635
V6-10
p1124
sg637
VRyan Anderson
p1125
sg639
I1610612745
sg640
V33
p1126
sg641
g43
sg642
V00
p1127
sg644
g23
sg645
I201583
ssI2207
(dp1128
g433
VArkansas
p1129
sg435
V240
p1130
sg437
V2017
p1131
sg439
F36.0
sg440
VJUN 29, 1981
p1132
sg442
V6-7
p1133
sg444
VJoe Johnson
p1134
sg446
I1610612762
sg447
g223
sg449
V16
p1135
sg451
V00
p1136
sg453
VG-F
p1137
sg454
I2207
ssI203937
(dp1138
g49
VUCLA
p1139
sg51
V230
p1140
sg53
V2017
p1141
sg55
F24.0
sg56
VSEP 20, 1993
p1142
sg58
V6-9
p1143
sg60
VKyle Anderson
p1144
sg62
I1610612759
sg63
g123
sg65
g17
sg67
V00
p1145
sg69
g23
sg71
I203937
ssI2210
(dp1146
g195
VArizona
p1147
sg197
V233
p1148
sg199
V2017
p1149
sg201
F37.0
sg202
VJUN 21, 1980
p1150
sg204
V6-7
p1151
sg206
VRichard Jefferson
p1152
sg208
I1610612743
sg209
V22
p1153
sg210
V16
p1154
sg212
V00
p1155
sg214
g23
sg215
I2210
ssI203939
(dp1156
g403
VStanford
p1157
sg405
V240
p1158
sg407
V2017
p1159
sg409
F26.0
sg410
VJUL 20, 1991
p1160
sg412
V6-11
p1161
sg414
VDwight Powell
p1162
sg416
I1610612742
sg417
g352
sg419
g17
sg420
V00
p1163
sg422
VF-C
p1164
sg423
I203939
ssI1627812
(dp1165
g403
VIndiana
p1166
sg405
V180
p1167
sg407
V2017
p1168
sg409
F24.0
sg410
VMAY 09, 1993
p1169
sg412
V6-0
p1170
sg414
VYogi Ferrell
p1171
sg416
I1610612742
sg417
V11
p1172
sg419
g123
sg420
V00
p1173
sg422
g70
sg423
I1627812
ssI202694
(dp1174
g570
VKansas
p1175
sg572
V235
p1176
sg574
V2017
p1177
sg576
F28.0
sg577
VSEP 02, 1989
p1178
sg579
V6-9
p1179
sg581
VMarcus Morris
p1180
sg583
I1610612738
sg584
V13
p1181
sg586
g223
sg587
V00
p1182
sg589
g23
sg590
I202694
ssI203121
(dp1183
g129
VKentucky
p1184
sg131
V225
p1185
sg133
V2017
p1186
sg135
F27.0
sg136
VMAR 21, 1990
p1187
sg138
V6-8
p1188
sg140
VDarius Miller
p1189
sg142
I1610612740
sg143
V21
p1190
sg145
g17
sg147
V00
p1191
sg149
g23
sg150
I203121
ssI203944
(dp1192
g173
VKentucky
p1193
sg175
V250
p1194
sg177
V2017
p1195
sg179
F22.0
sg180
VNOV 29, 1994
p1196
sg182
V6-9
p1197
sg184
VJulius Randle
p1198
sg186
I1610612747
sg187
V30
p1199
sg189
g17
sg190
V00
p1200
sg192
VF-C
p1201
sg193
I203944
ssI1628444
(dp1202
g570
VCalifornia
p1203
sg572
V198
p1204
sg574
V2017
p1205
sg576
F23.0
sg577
VJUL 03, 1994
p1206
sg579
V6-6
p1207
sg581
VJabari Bird
p1208
sg583
I1610612738
sg584
V26
p1209
sg586
g104
sg587
V00
p1210
sg589
g70
sg590
I1628444
ssI1627819
(dp1211
g73
VTexas
p1212
sg75
V170
p1213
sg77
V2017
p1214
sg79
F23.0
sg80
VJUL 11, 1994
p1215
sg82
V6-3
p1216
sg84
VIsaiah Taylor
p1217
sg86
I1610612737
sg87
V22
p1218
sg89
g123
sg91
V00
p1219
sg93
g70
sg95
I1627819
ssI2733
(dp1220
g2
VPeoria Central HS (IL)
p1221
sg4
V192
p1222
sg6
V2017
p1223
sg8
F32.0
sg9
VSEP 11, 1985
p1224
sg11
V6-7
p1225
sg13
VShaun Livingston
p1226
sg15
I1610612744
sg16
V34
p1227
sg18
V12
p1228
sg20
V00
p1229
sg22
g70
sg24
I2733
ssI2734
(dp1230
g403
VWisconsin
p1231
sg405
V185
p1232
sg407
V2017
p1233
sg409
F34.0
sg410
VFEB 27, 1983
p1234
sg412
V6-3
p1235
sg414
VDevin Harris
p1236
sg416
I1610612742
sg417
V34
p1237
sg419
V13
p1238
sg420
V00
p1239
sg422
g70
sg423
I2734
ssI1627823
(dp1240
g195
Nsg197
V230
p1241
sg199
V2017
p1242
sg201
F22.0
sg202
VSEP 28, 1995
p1243
sg204
V6-9
p1244
sg206
VJuan Hernangomez
p1245
sg208
I1610612743
sg209
V41
p1246
sg210
g123
sg212
V00
p1247
sg214
g23
sg215
I1627823
ssI201950
(dp1248
g129
VUCLA
p1249
sg131
V205
p1250
sg133
V2017
p1251
sg135
F27.0
sg136
VJUN 12, 1990
p1252
sg138
V6-4
p1253
sg140
VJrue Holiday
p1254
sg142
I1610612740
sg143
V11
p1255
sg145
g400
sg147
V00
p1256
sg149
g70
sg150
I201950
ssI203953
(dp1257
g507
VDuke
p1258
sg509
V250
p1259
sg511
V2017
p1260
sg513
F22.0
sg514
VMAR 15, 1995
p1261
sg516
V6-8
p1262
sg518
VJabari Parker
p1263
sg520
I1610612749
sg521
V12
p1264
sg523
g17
sg524
V00
p1265
sg526
g23
sg527
I203953
ssI201933
(dp1266
g152
VOklahoma
p1267
sg154
V251
p1268
sg156
V2017
p1269
sg158
F28.0
sg159
VMAR 16, 1989
p1270
sg161
V6-10
p1271
sg163
VBlake Griffin
p1272
sg165
I1610612746
sg166
V32
p1273
sg167
g352
sg168
V00
p1274
sg170
g23
sg171
I201933
ssI1627763
(dp1275
g507
VVirginia
p1276
sg509
V215
p1277
sg511
V2017
p1278
sg513
F24.0
sg514
VDEC 11, 1992
p1279
sg516
V6-5
p1280
sg518
VMalcolm Brogdon
p1281
sg520
I1610612749
sg521
V13
p1282
sg523
g123
sg524
V00
p1283
sg526
g70
sg527
I1627763
ssI203957
(dp1284
g433
Nsg435
V190
p1285
sg437
V2017
p1286
sg439
F22.0
sg440
VJUL 13, 1995
p1287
sg442
V6-6
p1288
sg444
VDante Exum
p1289
sg446
I1610612762
sg447
V11
p1290
sg449
g66
sg451
V00
p1291
sg453
g70
sg454
I203957
ssI1627775
(dp1292
g2
VNevada-Las Vegas
p1293
sg4
V185
p1294
sg6
V2017
p1295
sg8
F22.0
sg9
VOCT 25, 1995
p1296
sg11
V6-7
p1297
sg13
VPatrick McCaw
p1298
sg15
I1610612744
sg16
g231
sg18
g123
sg20
V00
p1299
sg22
g70
sg24
I1627775
ssI202697
(dp1300
g26
VGeorgia Tech
p1301
sg28
V220
p1302
sg30
V2017
p1303
sg32
F27.0
sg33
VJUN 26, 1990
p1304
sg35
V6-5
p1305
sg37
VIman Shumpert
p1306
sg39
I1610612739
sg40
g146
sg42
g223
sg44
V00
p1307
sg46
g70
sg47
I202697
ssI1627832
(dp1308
g314
VWichita State
p1309
sg316
V195
p1310
sg318
V2017
p1311
sg320
F23.0
sg321
VFEB 25, 1994
p1312
sg323
V6-0
p1313
sg325
VFred VanVleet
p1314
sg327
I1610612761
sg328
V23
p1315
sg330
g123
sg331
V00
p1316
sg333
g70
sg334
I1627832
ssI203962
(dp1317
g548
VStanford
p1318
sg550
V230
p1319
sg552
V2017
p1320
sg554
F25.0
sg555
VDEC 19, 1991
p1321
sg557
V6-7
p1322
sg559
VJosh Huestis
p1323
sg561
I1610612760
sg562
V34
p1324
sg564
g66
sg565
V00
p1325
sg567
g23
sg568
I203962
ssI1627835
(dp1326
g253
Nsg255
V226
p1327
sg257
V2017
p1328
sg259
F23.0
sg260
VFEB 18, 1994
p1329
sg262
V6-8
p1330
sg264
VPaul Zipser
p1331
sg266
I1610612741
sg267
V16
p1332
sg269
g123
sg270
V00
p1333
sg272
g23
sg273
I1627835
ssI203488
(dp1334
g73
VBucknell
p1335
sg75
V240
p1336
sg77
V2017
p1337
sg79
F26.0
sg80
VJUL 01, 1991
p1338
sg82
V6-11
p1339
sg84
VMike Muscala
p1340
sg86
I1610612737
sg87
V31
p1341
sg89
g146
sg91
V00
p1342
sg93
VF-C
p1343
sg95
I203488
ssI2749
(dp1344
g129
VSaint Joseph's
p1345
sg131
V190
p1346
sg133
V2017
p1347
sg135
F35.0
sg136
VFEB 09, 1982
p1348
sg138
V6-0
p1349
sg140
VJameer Nelson
p1350
sg142
I1610612740
sg143
V14
p1351
sg145
V13
p1352
sg147
V00
p1353
sg149
g70
sg150
I2749
ssI203966
(dp1354
g152
VMarquette
p1355
sg154
V229
p1356
sg156
V2017
p1357
sg158
F26.0
sg159
VNOV 21, 1990
p1358
sg161
V6-7
p1359
sg163
VJamil Wilson
p1360
sg165
I1610612746
sg166
V13
p1361
sg167
g104
sg168
V00
p1362
sg170
g23
sg171
I203966
ssI1628021
(dp1363
g253
VCal Poly-S.L.O.
p1364
sg255
V209
p1365
sg257
V2017
p1366
sg259
F24.0
sg260
VJAN 14, 1993
p1367
sg262
V6-4
p1368
sg264
VDavid Nwaba
p1369
sg266
I1610612741
sg267
V11
p1370
sg269
g123
sg270
V00
p1371
sg272
g70
sg273
I1628021
ssI203457
(dp1372
g403
VKentucky
p1373
sg405
V220
p1374
sg407
V2017
p1375
sg409
F23.0
sg410
VAPR 10, 1994
p1376
sg412
V6-11
p1377
sg414
VNerlens Noel
p1378
sg416
I1610612742
sg417
g17
sg419
g17
sg420
V00
p1379
sg422
g94
sg423
I203457
ssI2754
(dp1380
g129
VOklahoma State
p1381
sg131
V213
p1382
sg133
V2017
p1383
sg135
F35.0
sg136
VJAN 11, 1982
p1384
sg138
V6-4
p1385
sg140
VTony Allen
p1386
sg142
I1610612740
sg143
V24
p1387
sg145
V13
p1388
sg147
V00
p1389
sg149
VG-F
p1390
sg150
I2754
ssI203460
(dp1391
g548
VColorado
p1392
sg550
V210
p1393
sg552
V2017
p1394
sg554
F25.0
sg555
VDEC 04, 1991
p1395
sg557
V6-7
p1396
sg559
VAndre Roberson
p1397
sg561
I1610612760
sg562
V21
p1398
sg564
g146
sg565
V00
p1399
sg567
g70
sg568
I203460
ssI1627846
(dp1400
g570
VIowa State
p1401
sg572
V230
p1402
sg574
V2017
p1403
sg576
F24.0
sg577
VSEP 25, 1993
p1404
sg579
V6-6
p1405
sg581
VAbdel Nader
p1406
sg583
I1610612738
sg584
V28
p1407
sg586
g104
sg587
V00
p1408
sg589
g23
sg590
I1627846
ssI203463
(dp1409
g284
VKansas
p1410
sg286
V195
p1411
sg288
V2017
p1412
sg290
F24.0
sg291
VFEB 11, 1993
p1413
sg293
V6-5
p1414
sg295
VBen McLemore
p1415
sg297
I1610612763
sg298
V23
p1416
sg299
g146
sg300
V00
p1417
sg302
g70
sg303
I203463
ssI203464
(dp1418
g49
Nsg51
V200
p1419
sg53
V2017
p1420
sg55
F26.0
sg56
VAPR 30, 1991
p1421
sg58
V6-4
p1422
sg60
VBrandon Paul
p1423
sg62
I1610612759
sg63
g17
sg65
g104
sg67
V00
p1424
sg69
g70
sg71
I203464
ssI203499
(dp1425
g570
VMiami (FL)
p1426
sg572
V175
p1427
sg574
V2017
p1428
sg576
F25.0
sg577
VOCT 02, 1992
p1429
sg579
V5-11
p1430
sg581
VShane Larkin
p1431
sg583
I1610612738
sg584
g400
sg586
g17
sg587
V00
p1432
sg589
g70
sg590
I203499
ssI202684
(dp1433
g26
VTexas
p1434
sg28
V238
p1435
sg30
V2017
p1436
sg32
F26.0
sg33
VMAR 13, 1991
p1437
sg35
V6-9
p1438
sg37
VTristan Thompson
p1439
sg39
I1610612739
sg40
V13
p1440
sg42
g223
sg44
V00
p1441
sg46
VC-F
p1442
sg47
I202684
ssI1627852
(dp1443
g73
Nsg75
V195
p1444
sg77
V2017
p1445
sg79
F24.0
sg80
VMAR 02, 1993
p1446
sg82
V6-8
p1447
sg84
VNicolas Brussino
p1448
sg86
I1610612737
sg87
V16
p1449
sg89
g123
sg91
V00
p1450
sg93
g23
sg95
I1627852
ssI1627853
(dp1451
g253
VVillanova
p1452
sg255
V195
p1453
sg257
V2017
p1454
sg259
F23.0
sg260
VMAR 26, 1994
p1455
sg262
V6-3
p1456
sg264
VRyan Arcidiacono
p1457
sg266
I1610612741
sg267
V15
p1458
sg269
g104
sg270
V00
p1459
sg272
g70
sg273
I1627853
ssI1628366
(dp1460
g173
VCalifornia-Los Angeles
p1461
sg175
V190
p1462
sg177
V2017
p1463
sg179
F20.0
sg180
VOCT 27, 1997
p1464
sg182
V6-6
p1465
sg184
VLonzo Ball
p1466
sg186
I1610612747
sg187
g66
sg189
g104
sg190
V00
p1467
sg192
g70
sg193
I1628366
ssI1627855
(dp1468
g363
VFlorida State
p1469
sg365
V215
p1470
sg367
V2017
p1471
sg369
F25.0
sg370
VAUG 13, 1992
p1472
sg372
V6-8
p1473
sg374
VOkaro White
p1474
sg376
I1610612748
sg377
V15
p1475
sg379
g123
sg380
V00
p1476
sg382
g23
sg383
I1627855
ssI201936
(dp1477
g284
VMemphis
p1478
sg286
V220
p1479
sg288
V2017
p1480
sg290
F28.0
sg291
VSEP 19, 1989
p1481
sg293
V6-6
p1482
sg295
VTyreke Evans
p1483
sg297
I1610612763
sg298
V12
p1484
sg299
g400
sg300
V00
p1485
sg302
VG-F
p1486
sg303
I201936
ssI201937
(dp1487
g433
VEl Masnou, Spain
p1488
sg435
V190
p1489
sg437
V2017
p1490
sg439
F27.0
sg440
VOCT 21, 1990
p1491
sg442
V6-4
p1492
sg444
VRicky Rubio
p1493
sg446
I1610612762
sg447
g17
sg449
g223
sg451
V00
p1494
sg453
g70
sg454
I201937
ssI201939
(dp1495
g2
VDavidson
p1496
sg4
V190
p1497
sg6
V2017
p1498
sg8
F29.0
sg9
VMAR 14, 1988
p1499
sg11
V6-3
p1500
sg13
VStephen Curry
p1501
sg15
I1610612744
sg16
V30
p1502
sg18
g400
sg20
V00
p1503
sg22
g70
sg24
I201939
ssI1628372
(dp1504
g403
VNorth Carolina State
p1505
sg405
V195
p1506
sg407
V2017
p1507
sg409
F19.0
sg410
VNOV 25, 1997
p1508
sg412
V6-3
p1509
sg414
VDennis Smith Jr.
p1510
sg416
I1610612742
sg417
g123
sg419
g104
sg420
V00
p1511
sg422
g70
sg423
I1628372
ssI1627854
(dp1512
g49
VMichigan State
p1513
sg51
V190
p1514
sg53
V2017
p1515
sg55
F24.0
sg56
VJUL 23, 1993
p1516
sg58
V6-3
p1517
sg60
VBryn Forbes
p1518
sg62
I1610612759
sg63
V11
p1519
sg65
g123
sg67
V00
p1520
sg69
g70
sg71
I1627854
ssI201942
(dp1521
g314
VSouthern California
p1522
sg316
V220
p1523
sg318
V2017
p1524
sg320
F28.0
sg321
VAUG 07, 1989
p1525
sg323
V6-7
p1526
sg325
VDeMar DeRozan
p1527
sg327
I1610612761
sg328
V10
p1528
sg330
g400
sg331
V00
p1529
sg333
g70
sg334
I201942
ssI203991
(dp1530
g626
Nsg628
V240
p1531
sg630
V2017
p1532
sg632
F23.0
sg633
VMAY 18, 1994
p1533
sg635
V6-10
p1534
sg637
VClint Capela
p1535
sg639
I1610612745
sg640
V15
p1536
sg641
g17
sg642
V00
p1537
sg644
g94
sg645
I203991
ssI203992
(dp1538
g107
Nsg108
V205
p1539
sg110
V2017
p1540
sg112
F25.0
sg113
VAUG 18, 1992
p1541
sg115
V6-6
p1542
sg117
VBogdan Bogdanovic
p1543
sg119
I1610612758
sg120
g400
sg122
g104
sg124
V00
p1544
sg126
g70
sg127
I203992
ssI203481
(dp1545
g403
VKansas
p1546
sg405
V230
p1547
sg407
V2017
p1548
sg409
F27.0
sg410
VMAR 07, 1990
p1549
sg412
V7-0
p1550
sg414
VJeff Withey
p1551
sg416
I1610612742
sg417
V17
p1552
sg419
g146
sg420
V00
p1553
sg422
g94
sg423
I203481
ssI1628378
(dp1554
g433
VLouisville
p1555
sg435
V215
p1556
sg437
V2017
p1557
sg439
F21.0
sg440
VSEP 07, 1996
p1558
sg442
V6-3
p1559
sg444
VDonovan Mitchell
p1560
sg446
I1610612762
sg447
V45
p1561
sg449
g104
sg451
V00
p1562
sg453
g70
sg454
I1628378
ssI201935
(dp1563
g626
VArizona State
p1564
sg628
V220
p1565
sg630
V2017
p1566
sg632
F28.0
sg633
VAUG 26, 1989
p1567
sg635
V6-5
p1568
sg637
VJames Harden
p1569
sg639
I1610612745
sg640
V13
p1570
sg641
g400
sg642
V00
p1571
sg644
g70
sg645
I201935
ssI203484
(dp1572
g173
VGeorgia
p1573
sg175
V205
p1574
sg177
V2017
p1575
sg179
F24.0
sg180
VFEB 18, 1993
p1576
sg182
V6-5
p1577
sg184
VKentavious Caldwell-Pope
p1578
sg186
I1610612747
sg187
g123
sg189
g146
sg190
V00
p1579
sg192
g70
sg193
I203484
ssI201949
(dp1580
g363
VWake Forest
p1581
sg365
V240
p1582
sg367
V2017
p1583
sg369
F30.0
sg370
VFEB 20, 1987
p1584
sg372
V6-8
p1585
sg374
VJames Johnson
p1586
sg376
I1610612748
sg377
V16
p1587
sg379
g400
sg380
V00
p1588
sg382
g23
sg383
I201949
ssI203998
(dp1589
g314
Nsg316
V205
p1590
sg318
V2017
p1591
sg320
F22.0
sg321
VSEP 21, 1995
p1592
sg323
V6-9
p1593
sg325
VBruno Caboclo
p1594
sg327
I1610612761
sg328
g90
sg330
g17
sg331
V00
p1595
sg333
g23
sg334
I203998
ssI203999
(dp1596
g195
Nsg197
V250
p1597
sg199
V2017
p1598
sg201
F22.0
sg202
VFEB 19, 1995
p1599
sg204
V6-10
p1600
sg206
VNikola Jokic
p1601
sg208
I1610612743
sg209
V15
p1602
sg210
g66
sg212
V00
p1603
sg214
g94
sg215
I203999
ssI1628384
(dp1604
g314
VIndiana
p1605
sg316
V235
p1606
sg318
V2017
p1607
sg320
F20.0
sg321
VJUL 17, 1997
p1608
sg323
V6-8
p1609
sg325
VOG Anunoby
p1610
sg327
I1610612761
sg328
g17
sg330
g104
sg331
V00
p1611
sg333
g23
sg334
I1628384
ssI203489
(dp1612
g433
VSouth Dakota State
p1613
sg435
V190
p1614
sg437
V2017
p1615
sg439
F26.0
sg440
VMAY 15, 1991
p1616
sg442
V6-4
p1617
sg444
VNate Wolters
p1618
sg446
I1610612762
sg447
V16
p1619
sg449
g66
sg451
V00
p1620
sg453
g70
sg454
I203489
ssI1627362
(dp1621
g626
VVirginia Commonwealth
p1622
sg628
V165
p1623
sg630
V2017
p1624
sg632
F24.0
sg633
VDEC 29, 1992
p1625
sg635
V6-2
p1626
sg637
VBriante Weber
p1627
sg639
I1610612745
sg640
g231
sg641
g66
sg642
V00
p1628
sg644
g70
sg645
I1627362
ssI201956
(dp1629
g2
VYavne, Israel
p1630
sg4
V225
p1631
sg6
V2017
p1632
sg8
F29.0
sg9
VJUN 22, 1988
p1633
sg11
V6-9
p1634
sg13
VOmri Casspi
p1635
sg15
I1610612744
sg16
V18
p1636
sg18
g400
sg20
V00
p1637
sg22
g23
sg24
I201956
ssI1628389
(dp1638
g363
VKentucky
p1639
sg365
V255
p1640
sg367
V2017
p1641
sg369
F20.0
sg370
VJUL 18, 1997
p1642
sg372
V6-10
p1643
sg374
VBam Adebayo
p1644
sg376
I1610612748
sg377
V13
p1645
sg379
g104
sg380
V00
p1646
sg382
VC-F
p1647
sg383
I1628389
ssI1628390
(dp1648
g548
Nsg550
V184
p1649
sg552
V2017
p1650
sg554
F19.0
sg555
VMAY 17, 1998
p1651
sg557
V6-7
p1652
sg559
VTerrance Ferguson
p1653
sg561
I1610612760
sg562
V23
p1654
sg564
g104
sg565
V00
p1655
sg567
g70
sg568
I1628390
ssI1628391
(dp1656
g507
VMichigan
p1657
sg509
V236
p1658
sg511
V2017
p1659
sg513
F21.0
sg514
VFEB 19, 1996
p1660
sg516
V6-10
p1661
sg518
VD.J. Wilson
p1662
sg520
I1610612749
sg521
g90
sg523
g104
sg524
V00
p1663
sg526
g23
sg527
I1628391
ssI203497
(dp1664
g433
VFrance
p1665
sg435
V245
p1666
sg437
V2017
p1667
sg439
F25.0
sg440
VJUN 26, 1992
p1668
sg442
V7-1
p1669
sg444
VRudy Gobert
p1670
sg446
I1610612762
sg447
V27
p1671
sg449
g146
sg451
V00
p1672
sg453
g94
sg454
I203497
ssI1627883
(dp1673
g129
VTexas A&M
p1674
sg131
V220
p1675
sg133
V2017
p1676
sg135
F24.0
sg136
VMAY 27, 1993
p1677
sg138
V6-7
p1678
sg140
VJalen Jones
p1679
sg142
I1610612740
sg143
V12
p1680
sg145
g104
sg147
V00
p1681
sg149
g23
sg150
I1627883
ssI1628396
(dp1682
g433
VNorth Carolina
p1683
sg435
V248
p1684
sg437
V2017
p1685
sg439
F19.0
sg440
VJAN 08, 1998
p1686
sg442
V6-10
p1687
sg444
VTony Bradley
p1688
sg446
I1610612762
sg447
V13
p1689
sg449
g104
sg451
V00
p1690
sg453
g94
sg454
I1628396
ssI1628397
(dp1691
g284
VCalifornia
p1692
sg286
V220
p1693
sg288
V2017
p1694
sg290
F20.0
sg291
VFEB 04, 1997
p1695
sg293
V6-10
p1696
sg295
VIvan Rabb
p1697
sg297
I1610612763
sg298
V10
p1698
sg299
g104
sg300
V00
p1699
sg302
g23
sg303
I1628397
ssI1628398
(dp1700
g173
VUtah
p1701
sg175
V220
p1702
sg177
V2017
p1703
sg179
F22.0
sg180
VJUL 24, 1995
p1704
sg182
V6-9
p1705
sg184
VKyle Kuzma
p1706
sg186
I1610612747
sg187
g231
sg189
g104
sg190
V00
p1707
sg192
g23
sg193
I1628398
ssI203503
(dp1708
g507
VNew Mexico
p1709
sg509
V221
p1710
sg511
V2017
p1711
sg513
F26.0
sg514
VNOV 10, 1991
p1712
sg516
V6-7
p1713
sg518
VTony Snell
p1714
sg520
I1610612749
sg521
V21
p1715
sg523
g146
sg524
V00
p1716
sg526
g70
sg527
I203503
ssI1628400
(dp1717
g570
VSouthern Methodist
p1718
sg572
V235
p1719
sg574
V2017
p1720
sg576
F22.0
sg577
VDEC 05, 1994
p1721
sg579
V6-7
p1722
sg581
VSemi Ojeleye
p1723
sg583
I1610612738
sg584
V37
p1724
sg586
g104
sg587
V00
p1725
sg589
g23
sg590
I1628400
ssI203505
(dp1726
g173
VMarquette
p1727
sg175
V200
p1728
sg177
V2017
p1729
sg179
F25.0
sg180
VJUL 17, 1992
p1730
sg182
V6-5
p1731
sg184
VVander Blue
p1732
sg186
I1610612747
sg187
V17
p1733
sg189
g66
sg190
V00
p1734
sg192
g70
sg193
I203505
ssI1628402
(dp1735
g129
VDuke
p1736
sg131
V205
p1737
sg133
V2017
p1738
sg135
F19.0
sg136
VMAY 04, 1998
p1739
sg138
V6-3
p1740
sg140
VFrank Jackson
p1741
sg142
I1610612740
sg143
V15
p1742
sg145
g104
sg147
V00
p1743
sg149
g70
sg150
I1628402
ssI203507
(dp1744
g507
VGreece
p1745
sg509
V222
p1746
sg511
V2017
p1747
sg513
F22.0
sg514
VDEC 06, 1994
p1748
sg516
V6-11
p1749
sg518
VGiannis Antetokounmpo
p1750
sg520
I1610612749
sg521
V34
p1751
sg523
g146
sg524
V00
p1752
sg526
g23
sg527
I203507
ssI204020
(dp1753
g363
VFresno State
p1754
sg365
V190
p1755
sg367
V2017
p1756
sg369
F25.0
sg370
VMAY 07, 1992
p1757
sg372
V6-4
p1758
sg374
VTyler Johnson
p1759
sg376
I1610612748
sg377
g400
sg379
g17
sg380
V00
p1760
sg382
g70
sg383
I204020
ssI201973
(dp1761
g433
VKinna, Sweden
p1762
sg435
V231
p1763
sg437
V2017
p1764
sg439
F30.0
sg440
VMAR 02, 1987
p1765
sg442
V6-10
p1766
sg444
VJonas Jerebko
p1767
sg446
I1610612762
sg447
g400
sg449
g352
sg451
V00
p1768
sg453
g23
sg454
I201973
ssI204022
(dp1769
g107
VNotre Dame
p1770
sg108
V274
p1771
sg110
V2017
p1772
sg112
F26.0
sg113
VAPR 12, 1991
p1773
sg115
V6-10
p1774
sg117
VJack Cooley
p1775
sg119
I1610612758
sg120
V45
p1776
sg122
g123
sg124
V00
p1777
sg126
g94
sg127
I204022
ssI203512
(dp1778
g314
Nsg316
V220
p1779
sg318
V2017
p1780
sg320
F25.0
sg321
VJUL 26, 1992
p1781
sg323
V7-0
p1782
sg325
VLucas Nogueira
p1783
sg327
I1610612761
sg328
V92
p1784
sg330
g17
sg331
V00
p1785
sg333
g94
sg334
I203512
ssI2772
(dp1786
g626
VUCLA
p1787
sg628
V215
p1788
sg630
V2017
p1789
sg632
F32.0
sg633
VJUN 30, 1985
p1790
sg635
V6-8
p1791
sg637
VTrevor Ariza
p1792
sg639
I1610612745
sg640
g123
sg641
V13
p1793
sg642
V00
p1794
sg644
VF-G
p1795
sg645
I2772
ssI203903
(dp1796
g173
VMissouri
p1797
sg175
V194
p1798
sg177
V2017
p1799
sg179
F25.0
sg180
VJUN 07, 1992
p1800
sg182
V6-5
p1801
sg184
VJordan Clarkson
p1802
sg186
I1610612747
sg187
g223
sg189
g17
sg190
V00
p1803
sg192
g70
sg193
I203903
ssI203516
(dp1804
g284
VLong Beach State
p1805
sg286
V210
p1806
sg288
V2017
p1807
sg290
F27.0
sg291
VJUL 01, 1990
p1808
sg293
V6-7
p1809
sg295
VJames Ennis III
p1810
sg297
I1610612763
sg298
g400
sg299
g17
sg300
V00
p1811
sg302
g23
sg303
I203516
ssI203518
(dp1812
g548
Nsg550
V190
p1813
sg552
V2017
p1814
sg554
F24.0
sg555
VAUG 01, 1993
p1815
sg557
V6-6
p1816
sg559
VAlex Abrines
p1817
sg561
I1610612760
sg562
g400
sg564
g123
sg565
V00
p1818
sg567
g70
sg568
I203518
ssI1628415
(dp1819
g284
VOregon
p1820
sg286
V220
p1821
sg288
V2017
p1822
sg290
F21.0
sg291
VJAN 22, 1996
p1823
sg293
V6-6
p1824
sg295
VDillon Brooks
p1825
sg297
I1610612763
sg298
V24
p1826
sg299
g104
sg300
V00
p1827
sg302
VF-G
p1828
sg303
I1628415
ssI1628416
(dp1829
g73
VOregon
p1830
sg75
V183
p1831
sg77
V2017
p1832
sg79
F21.0
sg80
VFEB 18, 1996
p1833
sg82
V6-4
p1834
sg84
VTyler Dorsey
p1835
sg86
I1610612737
sg87
g66
sg89
g104
sg91
V00
p1836
sg93
g70
sg95
I1628416
ssI203521
(dp1837
g507
VSaint Mary's (CA)
p1838
sg509
V198
p1839
sg511
V2017
p1840
sg513
F27.0
sg514
VSEP 08, 1990
p1841
sg516
V6-4
p1842
sg518
VMatthew Dellavedova
p1843
sg520
I1610612749
sg521
g400
sg523
g146
sg524
V00
p1844
sg526
g70
sg527
I203521
ssI1628418
(dp1845
g173
VIndiana
p1846
sg175
V248
p1847
sg177
V2017
p1848
sg179
F20.0
sg180
VJUL 31, 1997
p1849
sg182
V6-10
p1850
sg184
VThomas Bryant
p1851
sg186
I1610612747
sg187
V31
p1852
sg189
g104
sg190
V00
p1853
sg192
g94
sg193
I1628418
ssI1628506
(dp1854
g26
VVirginia
p1855
sg28
V190
p1856
sg30
V2017
p1857
sg32
F23.0
sg33
VOCT 03, 1994
p1858
sg35
V6-2
p1859
sg37
VLondon Perrantes
p1860
sg39
I1610612739
sg40
V15
p1861
sg42
g104
sg44
V00
p1862
sg46
g70
sg47
I1628506
ssI1628420
(dp1863
g195
VIowa State
p1864
sg197
V175
p1865
sg199
V2017
p1866
sg201
F22.0
sg202
VJUN 27, 1995
p1867
sg204
V6-3
p1868
sg206
VMonte Morris
p1869
sg208
I1610612743
sg209
V11
p1870
sg210
g104
sg212
V00
p1871
sg214
g70
sg215
I1628420
ssI1627770
(dp1872
g253
VOakland
p1873
sg255
V176
p1874
sg257
V2017
p1875
sg259
F22.0
sg260
VMAR 29, 1995
p1876
sg262
V5-9
p1877
sg264
VKay Felder
p1878
sg266
I1610612741
sg267
g17
sg269
g123
sg270
V00
p1879
sg272
g70
sg273
I1627770
ssI203526
(dp1880
g433
Nsg435
V179
p1881
sg437
V2017
p1882
sg439
F25.0
sg440
VMAY 19, 1992
p1883
sg442
V6-1
p1884
sg444
VRaul Neto
p1885
sg446
I1610612762
sg447
V25
p1886
sg449
g66
sg451
V00
p1887
sg453
g70
sg454
I203526
ssI1628424
(dp1888
g284
VArizona
p1889
sg286
V170
p1890
sg288
V2017
p1891
sg290
F20.0
sg291
VJUL 04, 1997
p1892
sg293
V6-4
p1893
sg295
VKobi Simmons
p1894
sg297
I1610612763
sg298
g66
sg299
g104
sg300
V00
p1895
sg302
g70
sg303
I1628424
ssI1628425
(dp1896
g507
VSouthern Methodist
p1897
sg509
V230
p1898
sg511
V2017
p1899
sg513
F22.0
sg514
VFEB 10, 1995
p1900
sg516
V6-6
p1901
sg518
VSterling Brown
p1902
sg520
I1610612749
sg521
V23
p1903
sg523
g104
sg524
V00
p1904
sg526
g70
sg527
I1628425
ssI203530
(dp1905
g49
Nsg51
V260
p1906
sg53
V2017
p1907
sg55
F26.0
sg56
VSEP 30, 1991
p1908
sg58
V6-11
p1909
sg60
VJoffrey Lauvergne
p1910
sg62
I1610612759
sg63
V77
p1911
sg65
g17
sg67
V00
p1912
sg69
g94
sg71
I203530
ssI1628429
(dp1913
g129
VDayton
p1914
sg131
V196
p1915
sg133
V2017
p1916
sg135
F23.0
sg136
VJUL 01, 1994
p1917
sg138
V6-5
p1918
sg140
VCharles Cooke
p1919
sg142
I1610612740
sg143
g146
sg145
g104
sg147
V00
p1920
sg149
g70
sg150
I1628429
ssI201980
(dp1921
g49
VNorth Carolina
p1922
sg51
V215
p1923
sg53
V2017
p1924
sg55
F30.0
sg56
VJUN 22, 1987
p1925
sg58
V6-6
p1926
sg60
VDanny Green
p1927
sg62
I1610612759
sg63
V14
p1928
sg65
g400
sg67
V00
p1929
sg69
VG-F
p1930
sg71
I201980
ssI101139
(dp1931
g314
VSkyline HS (TX)
p1932
sg316
V225
p1933
sg318
V2017
p1934
sg320
F30.0
sg321
VMAR 18, 1987
p1935
sg323
V6-6
p1936
sg325
VCJ Miles
p1937
sg327
I1610612761
sg328
g231
sg330
V12
p1938
sg331
V00
p1939
sg333
VF-G
p1940
sg334
I101139
ssI101141
(dp1941
g73
VEskisehir, Turkey
p1942
sg75
V235
p1943
sg77
V2017
p1944
sg79
F30.0
sg80
VMAY 15, 1987
p1945
sg82
V6-10
p1946
sg84
VErsan Ilyasova
p1947
sg86
I1610612737
sg87
g352
sg89
g43
sg91
V00
p1948
sg93
g23
sg95
I101141
ssI201177
(dp1949
g403
VDuke
p1950
sg405
V240
p1951
sg407
V2017
p1952
sg409
F30.0
sg410
VFEB 28, 1987
p1953
sg412
V6-10
p1954
sg414
VJosh McRoberts
p1955
sg416
I1610612742
sg417
V13
p1956
sg419
V10
p1957
sg420
V00
p1958
sg422
VF-C
p1959
sg423
I201177
ssI203546
(dp1960
g129
VBelmont
p1961
sg131
V175
p1962
sg133
V2017
p1963
sg135
F26.0
sg136
VMAR 07, 1991
p1964
sg138
V6-3
p1965
sg140
VIan Clark
p1966
sg142
I1610612740
sg143
g66
sg145
g146
sg147
V00
p1967
sg149
g70
sg150
I203546
ssI203547
(dp1968
g433
VCampbell
p1969
sg435
V205
p1970
sg437
V2017
p1971
sg439
F27.0
sg440
VMAY 26, 1990
p1972
sg442
V6-8
p1973
sg444
VEric Griffin
p1974
sg446
I1610612762
sg447
V17
p1975
sg449
g104
sg451
V00
p1976
sg453
VC-F
p1977
sg454
I203547
ssI204060
(dp1978
g433
Nsg435
V226
p1979
sg437
V2017
p1980
sg439
F30.0
sg440
VOCT 02, 1987
p1981
sg442
V6-8
p1982
sg444
VJoe Ingles
p1983
sg446
I1610612762
sg447
g66
sg449
g17
sg451
V00
p1984
sg453
g23
sg454
I204060
ssI203482
(dp1985
g363
VGonzaga
p1986
sg365
V245
p1987
sg367
V2017
p1988
sg369
F26.0
sg370
VAPR 19, 1991
p1989
sg372
V7-0
p1990
sg374
VKelly Olynyk
p1991
sg376
I1610612748
sg377
g43
sg379
g146
sg380
V00
p1992
sg382
VC-F
p1993
sg383
I203482
ssI101150
(dp1994
g152
VSouth Gwinnett HS (GA)
p1995
sg154
V175
p1996
sg156
V2017
p1997
sg158
F31.0
sg159
VOCT 27, 1986
p1998
sg161
V6-1
p1999
sg163
VLou Williams
p2000
sg165
I1610612746
sg166
V23
p2001
sg167
V12
p2002
sg168
V00
p2003
sg170
g70
sg171
I101150
ssI1626245
(dp2004
g253
Nsg255
V280
p2005
sg257
V2017
p2006
sg259
F25.0
sg260
VJUL 07, 1992
p2007
sg262
V6-9
p2008
sg264
VCristiano Felicio
p2009
sg266
I1610612741
sg267
g223
sg269
g66
sg270
V00
p2010
sg272
VC-F
p2011
sg273
I1626245
ssI203552
(dp2012
g403
VDuke
p2013
sg405
V185
p2014
sg407
V2017
p2015
sg409
F27.0
sg410
VAUG 23, 1990
p2016
sg412
V6-2
p2017
sg414
VSeth Curry
p2018
sg416
I1610612742
sg417
V30
p2019
sg419
g146
sg420
V00
p2020
sg422
g70
sg423
I203552
ssI1628449
(dp2021
g2
VOregon
p2022
sg4
V200
p2023
sg6
V2017
p2024
sg8
F24.0
sg9
VJAN 11, 1993
p2025
sg11
V6-10
p2026
sg13
VChris Boucher
p2027
sg15
I1610612744
sg16
V25
p2028
sg18
g104
sg20
V00
p2029
sg22
g23
sg24
I1628449
ssI204066
(dp2030
g26
VBoston U.
p2031
sg28
V205
p2032
sg30
V2017
p2033
sg32
F29.0
sg33
VNOV 06, 1988
p2034
sg35
V6-5
p2035
sg37
VJohn Holland
p2036
sg39
I1610612739
sg40
V10
p2037
sg42
g123
sg44
V00
p2038
sg46
VG-F
p2039
sg47
I204066
ssI201988
(dp2040
g49
VSaint Mary's (CA)
p2041
sg51
V185
p2042
sg53
V2017
p2043
sg55
F29.0
sg56
VAUG 11, 1988
p2044
sg58
V6-0
p2045
sg60
VPatty Mills
p2046
sg62
I1610612759
sg63
g400
sg65
g400
sg67
V00
p2047
sg69
g70
sg71
I201988
ssI203145
(dp2048
g73
VOld Dominion
p2049
sg75
V201
p2050
sg77
V2017
p2051
sg79
F28.0
sg80
VJUL 01, 1989
p2052
sg82
V6-5
p2053
sg84
VKent Bazemore
p2054
sg86
I1610612737
sg87
V24
p2055
sg89
g90
sg91
V00
p2056
sg93
g70
sg95
I203145
ssI1628385
(dp2057
g107
VDuke
p2058
sg108
V240
p2059
sg110
V2017
p2060
sg112
F19.0
sg113
VAPR 22, 1998
p2061
sg115
V6-10
p2062
sg117
VHarry Giles
p2063
sg119
I1610612758
sg120
V20
p2064
sg122
g104
sg124
V00
p2065
sg126
VF-C
p2066
sg127
I1628385
ssI101108
(dp2067
g626
VWake Forest
p2068
sg628
V175
p2069
sg630
V2017
p2070
sg632
F32.0
sg633
VMAY 06, 1985
p2071
sg635
V6-0
p2072
sg637
VChris Paul
p2073
sg639
I1610612745
sg640
g17
sg641
V12
p2074
sg642
V00
p2075
sg644
g70
sg645
I101108
ssI1628462
(dp2076
g152
Nsg154
V196
p2077
sg156
V2017
p2078
sg158
F30.0
sg159
VMAR 19, 1987
p2079
sg161
V6-5
p2080
sg163
VMilos Teodosic
p2081
sg165
I1610612746
sg166
g146
sg167
g104
sg168
V00
p2082
sg170
g70
sg171
I1628462
ssI203485
(dp2083
g314
VNorth Carolina State
p2084
sg316
V189
p2085
sg318
V2017
p2086
sg320
F27.0
sg321
VAUG 26, 1990
p2087
sg323
V6-5
p2088
sg325
VLorenzo Brown
p2089
sg327
I1610612761
sg328
g146
sg330
g17
sg331
V00
p2090
sg333
g70
sg334
I203485
ssI1628464
(dp2091
g570
Nsg572
V243
p2092
sg574
V2017
p2093
sg576
F25.0
sg577
VAPR 04, 1992
p2094
sg579
V6-9
p2095
sg581
VDaniel Theis
p2096
sg583
I1610612738
sg584
V27
p2097
sg586
g104
sg587
V00
p2098
sg589
VF-C
p2099
sg590
I1628464
ssI1628467
(dp2100
g403
Nsg405
V220
p2101
sg407
V2017
p2102
sg409
F25.0
sg410
VJAN 29, 1992
p2103
sg412
V6-11
p2104
sg414
VMaxi Kleber
p2105
sg416
I1610612742
sg417
V42
p2106
sg419
g104
sg420
V00
p2107
sg422
g23
sg423
I1628467
ssI203486
(dp2108
g195
VDuke
p2109
sg197
V255
p2110
sg199
V2017
p2111
sg201
F27.0
sg202
VMAR 05, 1990
p2112
sg204
V6-11
p2113
sg206
VMason Plumlee
p2114
sg208
I1610612743
sg209
V24
p2115
sg210
g146
sg212
V00
p2116
sg214
VC-F
p2117
sg215
I203486
ssI1628470
(dp2118
g195
VSouth Carolina Upstate
p2119
sg197
V215
p2120
sg199
V2017
p2121
sg201
F26.0
sg202
VDEC 19, 1990
p2122
sg204
V6-6
p2123
sg206
VTorrey Craig
p2124
sg208
I1610612743
sg209
g17
sg210
g104
sg212
V00
p2125
sg214
VG-F
p2126
sg215
I1628470
ssI2738
(dp2127
g2
VArizona
p2128
sg4
V215
p2129
sg6
V2017
p2130
sg8
F33.0
sg9
VJAN 28, 1984
p2131
sg11
V6-6
p2132
sg13
VAndre Iguodala
p2133
sg15
I1610612744
sg16
g43
sg18
V13
p2134
sg20
V00
p2135
sg22
VG-F
p2136
sg24
I2738
ssI1628475
(dp2137
g363
VCentral Florida
p2138
sg365
V210
p2139
sg367
V2017
p2140
sg369
F24.0
sg370
VOCT 14, 1993
p2141
sg372
V6-5
p2142
sg374
VMatt Williams Jr.
p2143
sg376
I1610612748
sg377
V12
p2144
sg379
g104
sg380
V00
p2145
sg382
g70
sg383
I1628475
ssI1628476
(dp2146
g363
VMichigan
p2147
sg365
V185
p2148
sg367
V2017
p2149
sg369
F22.0
sg370
VAPR 03, 1995
p2150
sg372
V6-1
p2151
sg374
VDerrick Walton Jr.
p2152
sg376
I1610612748
sg377
V14
p2153
sg379
g104
sg380
V00
p2154
sg382
g70
sg383
I1628476
ssI1627786
(dp2155
g626
VIndiana
p2156
sg628
V218
p2157
sg630
V2017
p2158
sg632
F22.0
sg633
VDEC 30, 1994
p2159
sg635
V6-7
p2160
sg637
VTroy Williams
p2161
sg639
I1610612745
sg640
g90
sg641
g123
sg642
V00
p2162
sg644
g23
sg645
I1627786
ssI1628469
(dp2163
g253
VLouisiana State
p2164
sg255
V197
p2165
sg257
V2017
p2166
sg259
F21.0
sg260
VOCT 04, 1996
p2167
sg262
V6-4
p2168
sg264
VAntonio Blakeney
p2169
sg266
I1610612741
sg267
g43
sg269
g104
sg270
V00
p2170
sg272
g70
sg273
I1628469
ssI203585
(dp2171
g363
VKansas State
p2172
sg365
V200
p2173
sg367
V2017
p2174
sg369
F26.0
sg370
VJUL 29, 1991
p2175
sg372
V6-4
p2176
sg374
VRodney McGruder
p2177
sg376
I1610612748
sg377
V17
p2178
sg379
g123
sg380
V00
p2179
sg382
VG-F
p2180
sg383
I203585
ssI203076
(dp2181
g129
VKentucky
p2182
sg131
V253
p2183
sg133
V2017
p2184
sg135
F24.0
sg136
VMAR 11, 1993
p2185
sg138
V6-10
p2186
sg140
VAnthony Davis
p2187
sg142
I1610612740
sg143
V23
p2188
sg145
g90
sg147
V00
p2189
sg149
VF-C
p2190
sg150
I203076
ssI203079
(dp2191
g363
VSyracuse
p2192
sg365
V215
p2193
sg367
V2017
p2194
sg369
F25.0
sg370
VDEC 10, 1991
p2195
sg372
V6-4
p2196
sg374
VDion Waiters
p2197
sg376
I1610612748
sg377
V11
p2198
sg379
g90
sg380
V00
p2199
sg382
g70
sg383
I203079
ssI1628369
(dp2200
g570
VDuke
p2201
sg572
V205
p2202
sg574
V2017
p2203
sg576
F19.0
sg577
VMAR 03, 1998
p2204
sg579
V6-8
p2205
sg581
VJayson Tatum
p2206
sg583
I1610612738
sg584
g231
sg586
g104
sg587
V00
p2207
sg589
g23
sg590
I1628369
ssI1628492
(dp2208
g403
VColorado State
p2209
sg405
V185
p2210
sg407
V2017
p2211
sg409
F23.0
sg410
VNOV 26, 1993
p2212
sg412
V6-4
p2213
sg414
VGian Clavell
p2214
sg416
I1610612742
sg417
g400
sg419
g104
sg420
V00
p2215
sg422
g70
sg423
I1628492
ssI203085
(dp2216
g152
VDuke
p2217
sg154
V200
p2218
sg156
V2017
p2219
sg158
F25.0
sg159
VAUG 01, 1992
p2220
sg161
V6-4
p2221
sg163
VAustin Rivers
p2222
sg165
I1610612746
sg166
V25
p2223
sg167
g90
sg168
V00
p2224
sg170
g70
sg171
I203085
ssI203089
(dp2225
g507
VNorth Carolina
p2226
sg509
V229
p2227
sg511
V2017
p2228
sg513
F26.0
sg514
VDEC 28, 1990
p2229
sg516
V6-11
p2230
sg518
VJohn Henson
p2231
sg520
I1610612749
sg521
V31
p2232
sg523
g90
sg524
V00
p2233
sg526
VF-C
p2234
sg527
I203089
ssI202066
(dp2235
g107
VLouisiana State
p2236
sg108
V195
p2237
sg110
V2017
p2238
sg112
F31.0
sg113
VMAY 08, 1986
p2239
sg115
V6-6
p2240
sg117
VGarrett Temple
p2241
sg119
I1610612758
sg120
V17
p2242
sg122
g352
sg124
V00
p2243
sg126
g70
sg127
I202066
ssI1627790
(dp2244
g26
Nsg28
V250
p2245
sg30
V2017
p2246
sg32
F20.0
sg33
VJAN 04, 1997
p2247
sg35
V6-11
p2248
sg37
VAnte Zizic
p2249
sg39
I1610612739
sg40
V41
p2250
sg42
g104
sg44
V00
p2251
sg46
VF-C
p2252
sg47
I1627790
ssI201976
(dp2253
g152
VArkansas
p2254
sg154
V185
p2255
sg156
V2017
p2256
sg158
F29.0
sg159
VJUL 12, 1988
p2257
sg161
V6-1
p2258
sg163
VPatrick Beverley
p2259
sg165
I1610612746
sg166
V21
p2260
sg167
g90
sg168
V00
p2261
sg170
g70
sg171
I201976
ssI1627824
(dp2262
g570
Nsg572
V260
p2263
sg574
V2017
p2264
sg576
F21.0
sg577
VDEC 17, 1995
p2265
sg579
V6-8
p2266
sg581
VGuerschon Yabusele
p2267
sg583
I1610612738
sg584
V30
p2268
sg586
g104
sg587
V00
p2269
sg589
g23
sg590
I1627824
ssI2747
(dp2270
g26
VSt. Benedict's Prep (NJ)
p2271
sg28
V225
p2272
sg30
V2017
p2273
sg32
F32.0
sg33
VSEP 09, 1985
p2274
sg35
V6-6
p2275
sg37
VJR Smith
p2276
sg39
I1610612739
sg40
g90
sg42
V13
p2277
sg44
V00
p2278
sg46
VG-F
p2279
sg47
I2747
ssI201565
(dp2280
g26
VMemphis
p2281
sg28
V190
p2282
sg30
V2017
p2283
sg32
F29.0
sg33
VOCT 04, 1988
p2284
sg35
V6-3
p2285
sg37
VDerrick Rose
p2286
sg39
I1610612739
sg40
g123
sg42
g400
sg44
V00
p2287
sg46
g70
sg47
I201565
ssI201566
(dp2288
g548
VUCLA
p2289
sg550
V200
p2290
sg552
V2017
p2291
sg554
F28.0
sg555
VNOV 12, 1988
p2292
sg557
V6-3
p2293
sg559
VRussell Westbrook
p2294
sg561
I1610612760
sg562
g231
sg564
g43
sg565
V00
p2295
sg567
g70
sg568
I201566
ssI201567
(dp2296
g26
VUCLA
p2297
sg28
V251
p2298
sg30
V2017
p2299
sg32
F29.0
sg33
VSEP 07, 1988
p2300
sg35
V6-10
p2301
sg37
VKevin Love
p2302
sg39
I1610612739
sg40
g231
sg42
g43
sg44
V00
p2303
sg46
VF-C
p2304
sg47
I201567
ssI201568
(dp2305
g152
VSant'Angelo Lodigiano, Italy
p2306
sg154
V225
p2307
sg156
V2017
p2308
sg158
F29.0
sg159
VAUG 08, 1988
p2309
sg161
V6-10
p2310
sg163
VDanilo Gallinari
p2311
sg165
I1610612746
sg166
g400
sg167
g400
sg168
V00
p2312
sg170
g23
sg171
I201568
ssI201569
(dp2313
g626
VIndiana
p2314
sg628
V215
p2315
sg630
V2017
p2316
sg632
F28.0
sg633
VDEC 25, 1988
p2317
sg635
V6-4
p2318
sg637
VEric Gordon
p2319
sg639
I1610612745
sg640
V10
p2320
sg641
g43
sg642
V00
p2321
sg644
g70
sg645
I201569
ssI1891
(dp2322
g507
VArizona
p2323
sg509
V185
p2324
sg511
V2017
p2325
sg513
F40.0
sg514
VSEP 15, 1977
p2326
sg516
V6-2
p2327
sg518
VJason Terry
p2328
sg520
I1610612749
sg521
g17
sg523
V18
p2329
sg524
V00
p2330
sg526
g70
sg527
I1891
ssI201572
(dp2331
g173
VStanford
p2332
sg175
V268
p2333
sg177
V2017
p2334
sg179
F29.0
sg180
VAPR 01, 1988
p2335
sg182
V7-0
p2336
sg184
VBrook Lopez
p2337
sg186
I1610612747
sg187
V11
p2338
sg189
g43
sg190
V00
p2339
sg192
g94
sg193
I201572
ssI203109
(dp2340
g26
VMarquette
p2341
sg28
V235
p2342
sg30
V2017
p2343
sg32
F27.0
sg33
VJUL 06, 1990
p2344
sg35
V6-6
p2345
sg37
VJae Crowder
p2346
sg39
I1610612739
sg40
V99
p2347
sg42
g90
sg44
V00
p2348
sg46
g23
sg47
I203109
ssI203110
(dp2349
g2
VMichigan State
p2350
sg4
V230
p2351
sg6
V2017
p2352
sg8
F27.0
sg9
VMAR 04, 1990
p2353
sg11
V6-7
p2354
sg13
VDraymond Green
p2355
sg15
I1610612744
sg16
V23
p2356
sg18
g90
sg20
V00
p2357
sg22
g23
sg24
I203110
ssI201577
(dp2358
g253
VStanford
p2359
sg255
V277
p2360
sg257
V2017
p2361
sg259
F29.0
sg260
VAPR 01, 1988
p2362
sg262
V7-0
p2363
sg264
VRobin Lopez
p2364
sg266
I1610612741
sg267
V42
p2365
sg269
g43
sg270
V00
p2366
sg272
g94
sg273
I201577
ssI203114
(dp2367
g507
VTexas A&M
p2368
sg509
V234
p2369
sg511
V2017
p2370
sg513
F26.0
sg514
VAUG 12, 1991
p2371
sg516
V6-8
p2372
sg518
VKhris Middleton
p2373
sg520
I1610612749
sg521
V22
p2374
sg523
g90
sg524
V00
p2375
sg526
g23
sg527
I203114
ssI203115
(dp2376
g195
VMemphis
p2377
sg197
V190
p2378
sg199
V2017
p2379
sg201
F26.0
sg202
VJAN 06, 1991
p2380
sg204
V6-6
p2381
sg206
VWill Barton
p2382
sg208
I1610612743
sg209
g90
sg210
g90
sg212
V00
p2383
sg214
VG-F
p2384
sg215
I203115
ssI201580
(dp2385
g2
VNevada
p2386
sg4
V270
p2387
sg6
V2017
p2388
sg8
F29.0
sg9
VJAN 19, 1988
p2389
sg11
V7-0
p2390
sg13
VJaVale McGee
p2391
sg15
I1610612744
sg16
g123
sg18
g43
sg20
V00
p2392
sg22
g94
sg24
I201580
ssI101112
(dp2393
g26
VArizona
p2394
sg28
V255
p2395
sg30
V2017
p2396
sg32
F34.0
sg33
VMAY 17, 1983
p2397
sg35
V6-11
p2398
sg37
VChanning Frye
p2399
sg39
I1610612739
sg40
g400
sg42
V11
p2400
sg44
V00
p2401
sg46
g23
sg47
I101112
ssI201582
(dp2402
g129
VSaint Etienne, France
p2403
sg131
V248
p2404
sg133
V2017
p2405
sg135
F29.0
sg136
VMAY 06, 1988
p2406
sg138
V7-2
p2407
sg140
VAlexis Ajinca
p2408
sg142
I1610612740
sg143
V42
p2409
sg145
g352
sg147
V00
p2410
sg149
g94
sg150
I201582
ssI200765
(dp2411
g129
VKentucky
p2412
sg131
V186
p2413
sg133
V2017
p2414
sg135
F31.0
sg136
VFEB 22, 1986
p2415
sg138
V6-1
p2416
sg140
VRajon Rondo
p2417
sg142
I1610612740
sg143
g43
sg145
V11
p2418
sg147
V00
p2419
sg149
g70
sg150
I200765
ssI1717
(dp2420
g403
VWurzburg, Germany
p2421
sg405
V245
p2422
sg407
V2017
p2423
sg409
F39.0
sg410
VJUN 19, 1978
p2424
sg412
V7-0
p2425
sg414
VDirk Nowitzki
p2426
sg416
I1610612742
sg417
V41
p2427
sg419
V19
p2428
sg420
V00
p2429
sg422
VF-C
p2430
sg423
I1717
ssI201586
(dp2431
g314
VBrazzaville, Rep. of Congo
p2432
sg316
V235
p2433
sg318
V2017
p2434
sg320
F28.0
sg321
VSEP 18, 1989
p2435
sg323
V6-10
p2436
sg325
VSerge Ibaka
p2437
sg327
I1610612761
sg328
g43
sg330
g400
sg331
V00
p2438
sg333
g23
sg334
I201586
ssI201588
(dp2439
g107
VIndiana Purdue-Indianapolis
p2440
sg108
V188
p2441
sg110
V2017
p2442
sg112
F31.0
sg113
VMAY 04, 1986
p2443
sg115
V6-3
p2444
sg117
VGeorge Hill
p2445
sg119
I1610612758
sg120
g17
sg122
g43
sg124
V00
p2446
sg126
g70
sg127
I201588
ssI201589
(dp2447
g195
VKansas
p2448
sg197
V235
p2449
sg199
V2017
p2450
sg201
F29.0
sg202
VMAR 25, 1988
p2451
sg204
V6-9
p2452
sg206
VDarrell Arthur
p2453
sg208
I1610612743
sg209
V00
p2454
sg210
g400
sg212
V00
p2455
sg214
g23
sg215
I201589
ssI201961
(dp2456
g363
VNorth Carolina
p2457
sg365
V200
p2458
sg367
V2017
p2459
sg369
F29.0
sg370
VNOV 29, 1987
p2460
sg372
V6-5
p2461
sg374
VWayne Ellington
p2462
sg376
I1610612748
sg377
g66
sg379
g400
sg380
V00
p2463
sg382
g70
sg383
I201961
ssI201596
(dp2464
g284
VKansas
p2465
sg286
V190
p2466
sg288
V2017
p2467
sg290
F31.0
sg291
VMAY 19, 1986
p2468
sg293
V6-2
p2469
sg295
VMario Chalmers
p2470
sg297
I1610612763
sg298
g223
sg299
g400
sg300
V00
p2471
sg302
g70
sg303
I201596
ssI201599
(dp2472
g152
VTexas A&M
p2473
sg154
V265
p2474
sg156
V2017
p2475
sg158
F29.0
sg159
VJUL 21, 1988
p2476
sg161
V6-11
p2477
sg163
VDeAndre Jordan
p2478
sg165
I1610612746
sg166
g223
sg167
g43
sg168
V00
p2479
sg170
g94
sg171
I201599
ssI201600
(dp2480
g129
VTurkey
p2481
sg131
V255
p2482
sg133
V2017
p2483
sg135
F31.0
sg136
VJUL 04, 1986
p2484
sg138
V7-0
p2485
sg140
VOmer Asik
p2486
sg142
I1610612740
sg143
g17
sg145
g352
sg147
V00
p2487
sg149
g94
sg150
I201600
ssI201601
(dp2488
g626
VUCLA
p2489
sg628
V230
p2490
sg630
V2017
p2491
sg632
F31.0
sg633
VSEP 09, 1986
p2492
sg635
V6-8
p2493
sg637
VLuc Mbah a Moute
p2494
sg639
I1610612745
sg640
V12
p2495
sg641
g43
sg642
V00
p2496
sg644
g23
sg645
I201601
ssI1628035
(dp2497
g314
VWisc.-Green Bay
p2498
sg316
V215
p2499
sg318
V2017
p2500
sg320
F25.0
sg321
VSEP 17, 1992
p2501
sg323
V6-8
p2502
sg325
VAlfonzo McKinnie
p2503
sg327
I1610612761
sg328
V34
p2504
sg330
g104
sg331
V00
p2505
sg333
g23
sg334
I1628035
ssI203141
(dp2506
g507
VBosnia
p2507
sg509
V242
p2508
sg511
V2017
p2509
sg513
F32.0
sg514
VSEP 17, 1985
p2510
sg516
V6-9
p2511
sg518
VMirza Teletovic
p2512
sg520
I1610612749
sg521
V35
p2513
sg523
g90
sg524
V00
p2514
sg526
g23
sg527
I203141
ssI200752
(dp2515
g49
VConnecticut
p2516
sg51
V230
p2517
sg53
V2017
p2518
sg55
F31.0
sg56
VAUG 17, 1986
p2519
sg58
V6-8
p2520
sg60
VRudy Gay
p2521
sg62
I1610612759
sg63
V22
p2522
sg65
V11
p2523
sg67
V00
p2524
sg69
g23
sg71
I200752
ssI201609
(dp2525
g363
VLjubljana, Slovenia
p2526
sg365
V190
p2527
sg367
V2017
p2528
sg369
F31.0
sg370
VMAY 06, 1986
p2529
sg372
V6-3
p2530
sg374
VGoran Dragic
p2531
sg376
I1610612748
sg377
g352
sg379
g43
sg380
V00
p2532
sg382
g70
sg383
I201609
ssI203935
(dp2533
g570
VOklahoma State
p2534
sg572
V220
p2535
sg574
V2017
p2536
sg576
F23.0
sg577
VMAR 06, 1994
p2537
sg579
V6-4
p2538
sg581
VMarcus Smart
p2539
sg583
I1610612738
sg584
V36
p2540
sg586
g17
sg587
V00
p2541
sg589
g70
sg590
I203935
ssI1626161
(dp2542
g107
VKentucky
p2543
sg108
V240
p2544
sg110
V2017
p2545
sg112
F24.0
sg113
VAUG 18, 1993
p2546
sg115
V7-0
p2547
sg117
VWillie Cauley-Stein
p2548
sg119
I1610612758
sg120
V00
p2549
sg122
g66
sg124
V00
p2550
sg126
g94
sg127
I1626161
ssI1938
(dp2551
g49
VBahia Blanca, Argentina
p2552
sg51
V205
p2553
sg53
V2017
p2554
sg55
F40.0
sg56
VJUL 28, 1977
p2555
sg58
V6-6
p2556
sg60
VManu Ginobili
p2557
sg62
I1610612759
sg63
V20
p2558
sg65
V15
p2559
sg67
V00
p2560
sg69
g70
sg71
I1938
ssI1628382
(dp2561
g107
VNorth Carolina
p2562
sg108
V210
p2563
sg110
V2017
p2564
sg112
F22.0
sg113
VMAR 28, 1995
p2565
sg115
V6-8
p2566
sg117
VJustin Jackson
p2567
sg119
I1610612758
sg120
V25
p2568
sg122
g104
sg124
V00
p2569
sg126
g23
sg127
I1628382
ssI1628399
(dp2570
g195
VSyracuse
p2571
sg197
V220
p2572
sg199
V2017
p2573
sg201
F21.0
sg202
VAPR 09, 1996
p2574
sg204
V6-9
p2575
sg206
VTyler Lydon
p2576
sg208
I1610612743
sg209
V20
p2577
sg210
g104
sg212
V00
p2578
sg214
g23
sg215
I1628399
ssI201628
(dp2579
g626
VCal State-Fullerton
p2580
sg628
V175
p2581
sg630
V2017
p2582
sg632
F33.0
sg633
VSEP 24, 1984
p2583
sg635
V6-2
p2584
sg637
VBobby Brown
p2585
sg639
I1610612745
sg640
g223
sg641
g17
sg642
V00
p2586
sg644
g70
sg645
I201628
ssI1627741
(dp2587
g107
VOklahoma
p2588
sg108
V214
p2589
sg110
V2017
p2590
sg112
F23.0
sg113
VDEC 17, 1993
p2591
sg115
V6-4
p2592
sg117
VBuddy Hield
p2593
sg119
I1610612758
sg120
V24
p2594
sg122
g123
sg124
V00
p2595
sg126
g70
sg127
I1627741
ssI1628401
(dp2596
g49
VColorado
p2597
sg51
V190
p2598
sg53
V2017
p2599
sg55
F23.0
sg56
VJUL 02, 1994
p2600
sg58
V6-4
p2601
sg60
VDerrick White
p2602
sg62
I1610612759
sg63
g146
sg65
g104
sg67
V00
p2603
sg69
g70
sg71
I1628401
ssI101106
(dp2604
g173
VUtah
p2605
sg175
V260
p2606
sg177
V2017
p2607
sg179
F32.0
sg180
VNOV 28, 1984
p2608
sg182
V7-0
p2609
sg184
VAndrew Bogut
p2610
sg186
I1610612747
sg187
V66
p2611
sg189
V12
p2612
sg190
V00
p2613
sg192
g94
sg193
I101106
ssI202330
(dp2614
g570
VButler
p2615
sg572
V226
p2616
sg574
V2017
p2617
sg576
F27.0
sg577
VMAR 23, 1990
p2618
sg579
V6-8
p2619
sg581
VGordon Hayward
p2620
sg583
I1610612738
sg584
V20
p2621
sg586
g352
sg587
V00
p2622
sg589
g23
sg590
I202330
ssI1628381
(dp2623
g73
VWake Forest
p2624
sg75
V235
p2625
sg77
V2017
p2626
sg79
F20.0
sg80
VSEP 23, 1997
p2627
sg82
V6-10
p2628
sg84
VJohn Collins
p2629
sg86
I1610612737
sg87
V20
p2630
sg89
g104
sg91
V00
p2631
sg93
VF-C
p2632
sg95
I1628381
ssI203186
(dp2633
g152
VSaint Louis
p2634
sg154
V245
p2635
sg156
V2017
p2636
sg158
F27.0
sg159
VMAY 16, 1990
p2637
sg161
V6-11
p2638
sg163
VWillie Reed
p2639
sg165
I1610612746
sg166
V35
p2640
sg167
g66
sg168
V00
p2641
sg170
g94
sg171
I203186
ssI203473
(dp2642
g73
VSouthern California
p2643
sg75
V245
p2644
sg77
V2017
p2645
sg79
F28.0
sg80
VAUG 12, 1989
p2646
sg82
V7-0
p2647
sg84
VDewayne Dedmon
p2648
sg86
I1610612737
sg87
V14
p2649
sg89
g146
sg91
V00
p2650
sg93
g94
sg95
I203473
ssI201142
(dp2651
g2
VTexas
p2652
sg4
V240
p2653
sg6
V2017
p2654
sg8
F29.0
sg9
VSEP 29, 1988
p2655
sg11
V6-9
p2656
sg13
VKevin Durant
p2657
sg15
I1610612744
sg16
V35
p2658
sg18
V10
p2659
sg20
V00
p2660
sg22
g23
sg24
I201142
ssI201143
(dp2661
g570
VFlorida
p2662
sg572
V245
p2663
sg574
V2017
p2664
sg576
F31.0
sg577
VJUN 03, 1986
p2665
sg579
V6-10
p2666
sg581
VAl Horford
p2667
sg583
I1610612738
sg584
V42
p2668
sg586
V10
p2669
sg587
V00
p2670
sg589
VF-C
p2671
sg590
I201143
ssI201144
(dp2672
g284
VOhio State
p2673
sg286
V175
p2674
sg288
V2017
p2675
sg290
F30.0
sg291
VOCT 11, 1987
p2676
sg293
V6-1
p2677
sg295
VMike Conley
p2678
sg297
I1610612763
sg298
V11
p2679
sg299
V10
p2680
sg300
V00
p2681
sg302
g70
sg303
I201144
ssI1628404
(dp2682
g173
VVillanova
p2683
sg175
V215
p2684
sg177
V2017
p2685
sg179
F22.0
sg180
VMAR 06, 1995
p2686
sg182
V6-5
p2687
sg184
VJosh Hart
p2688
sg186
I1610612747
sg187
g90
sg189
g104
sg190
V00
p2689
sg192
g70
sg193
I1628404
ssI201147
(dp2690
g173
VFlorida
p2691
sg175
V186
p2692
sg177
V2017
p2693
sg179
F31.0
sg180
VMAR 05, 1986
p2694
sg182
V6-9
p2695
sg184
VCorey Brewer
p2696
sg186
I1610612747
sg187
g17
sg189
V10
p2697
sg190
V00
p2698
sg192
g23
sg193
I201147
ssI201148
(dp2699
g284
VNorth Carolina
p2700
sg286
V235
p2701
sg288
V2017
p2702
sg290
F30.0
sg291
VOCT 05, 1987
p2703
sg293
V6-10
p2704
sg295
VBrandan Wright
p2705
sg297
I1610612763
sg298
V34
p2706
sg299
g43
sg300
V00
p2707
sg302
VF-C
p2708
sg303
I201148
ssI202685
(dp2709
g314
VUtena, Lithuania
p2710
sg316
V255
p2711
sg318
V2017
p2712
sg320
F25.0
sg321
VMAY 06, 1992
p2713
sg323
V7-0
p2714
sg325
VJonas Valanciunas
p2715
sg327
I1610612761
sg328
V17
p2716
sg330
g90
sg331
V00
p2717
sg333
g94
sg334
I202685
ssI203710
(dp2718
g152
VNorth Carolina State
p2719
sg154
V230
p2720
sg156
V2017
p2721
sg158
F27.0
sg159
VFEB 06, 1990
p2722
sg161
V6-5
p2723
sg163
VC.J. Williams
p2724
sg165
I1610612746
sg166
g43
sg167
g104
sg168
V00
p2725
sg170
g70
sg171
I203710
ssI101109
(dp2726
g548
VNorth Carolina
p2727
sg550
V205
p2728
sg552
V2017
p2729
sg554
F33.0
sg555
VJUN 26, 1984
p2730
sg557
V6-1
p2731
sg559
VRaymond Felton
p2732
sg561
I1610612760
sg562
g66
sg564
V12
p2733
sg565
V00
p2734
sg567
g70
sg568
I101109
ssI203200
(dp2735
g253
VWashington
p2736
sg255
V185
p2737
sg257
V2017
p2738
sg259
F28.0
sg260
VAPR 05, 1989
p2739
sg262
V6-6
p2740
sg264
VJustin Holiday
p2741
sg266
I1610612741
sg267
g352
sg269
g146
sg270
V00
p2742
sg272
g70
sg273
I203200
ssI1627856
(dp2743
g49
VMichigan State
p2744
sg51
V240
p2745
sg53
V2017
p2746
sg55
F24.0
sg56
VAUG 05, 1993
p2747
sg58
V6-10
p2748
sg60
VMatt Costello
p2749
sg62
I1610612759
sg63
V10
p2750
sg65
g104
sg67
V00
p2751
sg69
VF-C
p2752
sg71
I1627856
ssI202691
(dp2753
g2
VWashington State
p2754
sg4
V215
p2755
sg6
V2017
p2756
sg8
F27.0
sg9
VFEB 08, 1990
p2757
sg11
V6-7
p2758
sg13
VKlay Thompson
p2759
sg15
I1610612744
sg16
V11
p2760
sg18
g223
sg20
V00
p2761
sg22
g70
sg24
I202691
ssI202692
(dp2762
g433
VColorado
p2763
sg435
V214
p2764
sg437
V2017
p2765
sg439
F26.0
sg440
VJUL 20, 1991
p2766
sg442
V6-6
p2767
sg444
VAlec Burks
p2768
sg446
I1610612762
sg447
V10
p2769
sg449
g223
sg451
V00
p2770
sg453
g70
sg454
I202692
ssI1628405
(dp2771
g403
VBaylor
p2772
sg405
V230
p2773
sg407
V2017
p2774
sg409
F22.0
sg410
VMAY 04, 1995
p2775
sg412
V6-10
p2776
sg414
VJohnathan Motley
p2777
sg416
I1610612742
sg417
g223
sg419
g104
sg420
V00
p2778
sg422
g23
sg423
I1628405
ssI202695
(dp2779
g49
VSan Diego State
p2780
sg51
V230
p2781
sg53
V2017
p2782
sg55
F26.0
sg56
VJUN 29, 1991
p2783
sg58
V6-7
p2784
sg60
VKawhi Leonard
p2785
sg62
I1610612759
sg63
g66
sg65
g223
sg67
V00
p2786
sg69
g23
sg71
I202695
ssI201158
(dp2787
g73
VBologna, Italy
p2788
sg75
V210
p2789
sg77
V2017
p2790
sg79
F31.0
sg80
VMAR 25, 1986
p2791
sg82
V6-5
p2792
sg84
VMarco Belinelli
p2793
sg86
I1610612737
sg87
g17
sg89
V10
p2794
sg91
V00
p2795
sg93
VG-F
p2796
sg95
I201158
ssI203084
(dp2797
g403
VNorth Carolina
p2798
sg405
V225
p2799
sg407
V2017
p2800
sg409
F25.0
sg410
VMAY 30, 1992
p2801
sg412
V6-8
p2802
sg414
VHarrison Barnes
p2803
sg416
I1610612742
sg417
V40
p2804
sg419
g90
sg420
V00
p2805
sg422
g23
sg423
I203084
ssI203210
(dp2806
g284
VAlabama
p2807
sg286
V227
p2808
sg288
V2017
p2809
sg290
F27.0
sg291
VJUN 21, 1990
p2810
sg293
V6-9
p2811
sg295
VJaMychal Green
p2812
sg297
I1610612763
sg298
g231
sg299
g17
sg300
V00
p2813
sg302
g23
sg303
I203210
ssI201163
(dp2814
g195
VDePaul
p2815
sg197
V225
p2816
sg199
V2017
p2817
sg201
F30.0
sg202
VMAY 10, 1987
p2818
sg204
V6-9
p2819
sg206
VWilson Chandler
p2820
sg208
I1610612743
sg209
V21
p2821
sg210
g43
sg212
V00
p2822
sg214
g23
sg215
I201163
ssI1713
(dp2823
g107
VNorth Carolina
p2824
sg108
V220
p2825
sg110
V2017
p2826
sg112
F40.0
sg113
VJAN 26, 1977
p2827
sg115
V6-6
p2828
sg117
VVince Carter
p2829
sg119
I1610612758
sg120
V15
p2830
sg122
V19
p2831
sg124
V00
p2832
sg126
VG-F
p2833
sg127
I1713
ssI202702
(dp2834
g195
VMorehead State
p2835
sg197
V228
p2836
sg199
V2017
p2837
sg201
F27.0
sg202
VNOV 19, 1989
p2838
sg204
V6-8
p2839
sg206
VKenneth Faried
p2840
sg208
I1610612743
sg209
V35
p2841
sg210
g223
sg212
V00
p2842
sg214
g23
sg215
I202702
ssI202703
(dp2843
g253
Nsg255
V238
p2844
sg257
V2017
p2845
sg259
F26.0
sg260
VFEB 11, 1991
p2846
sg262
V6-10
p2847
sg264
VNikola Mirotic
p2848
sg266
I1610612741
sg267
V44
p2849
sg269
g17
sg270
V00
p2850
sg272
g23
sg273
I202703
ssI1628408
(dp2851
g548
VSouth Carolina
p2852
sg550
V205
p2853
sg552
V2017
p2854
sg554
F21.0
sg555
VOCT 25, 1996
p2855
sg557
V6-6
p2856
sg559
VPJ Dozier
p2857
sg561
I1610612760
sg562
V35
p2858
sg564
g104
sg565
V00
p2859
sg567
g70
sg568
I1628408
ssI203471
(dp2860
g73
VGermany
p2861
sg75
V172
p2862
sg77
V2017
p2863
sg79
F24.0
sg80
VSEP 15, 1993
p2864
sg82
V6-1
p2865
sg84
VDennis Schroder
p2866
sg86
I1610612737
sg87
V17
p2867
sg89
g146
sg91
V00
p2868
sg93
g70
sg95
I203471
ssI202713
(dp2869
g548
VDuke
p2870
sg550
V228
p2871
sg552
V2017
p2872
sg554
F29.0
sg555
VMAY 04, 1988
p2873
sg557
V6-8
p2874
sg559
VKyle Singler
p2875
sg561
I1610612760
sg562
V15
p2876
sg564
g90
sg565
V00
p2877
sg567
g23
sg568
I202713
ssI1627743
(dp2878
g626
VNotre Dame
p2879
sg628
V201
p2880
sg630
V2017
p2881
sg632
F23.0
sg633
VSEP 07, 1994
p2882
sg635
V6-1
p2883
sg637
VDemetrius Jackson
p2884
sg639
I1610612745
sg640
g66
sg641
g123
sg642
V00
p2885
sg644
g70
sg645
I1627743
ssI1628412
(dp2886
g107
VKansas
p2887
sg108
V190
p2888
sg110
V2017
p2889
sg112
F23.0
sg113
VAPR 03, 1994
p2890
sg115
V5-11
p2891
sg117
VFrank Mason
p2892
sg119
I1610612758
sg120
V10
p2893
sg122
g104
sg124
V00
p2894
sg126
g70
sg127
I1628412
ssI202718
(dp2895
g284
VFlorida
p2896
sg286
V230
p2897
sg288
V2017
p2898
sg290
F29.0
sg291
VOCT 25, 1988
p2899
sg293
V6-10
p2900
sg295
VChandler Parsons
p2901
sg297
I1610612763
sg298
V25
p2902
sg299
g223
sg300
V00
p2903
sg302
g23
sg303
I202718
ssI201585
(dp2904
g107
VOhio State
p2905
sg108
V265
p2906
sg110
V2017
p2907
sg112
F28.0
sg113
VFEB 24, 1989
p2908
sg115
V7-0
p2909
sg117
VKosta Koufos
p2910
sg119
I1610612758
sg120
V41
p2911
sg122
g43
sg124
V00
p2912
sg126
g94
sg127
I201585
ssI1628374
(dp2913
g253
VArizona
p2914
sg255
V230
p2915
sg257
V2017
p2916
sg259
F20.0
sg260
VMAY 22, 1997
p2917
sg262
V7-0
p2918
sg264
VLauri Markkanen
p2919
sg266
I1610612741
sg267
V24
p2920
sg269
g104
sg270
V00
p2921
sg272
g23
sg273
I1628374
ssI202722
(dp2922
g49
Nsg51
V210
p2923
sg53
V2017
p2924
sg55
F24.0
sg56
VNOV 12, 1992
p2925
sg58
V6-10
p2926
sg60
VDavis Bertans
p2927
sg62
I1610612759
sg63
V42
p2928
sg65
g123
sg67
V00
p2929
sg69
g23
sg71
I202722
ssI201188
(dp2930
g284
VBarcelona, Spain
p2931
sg286
V255
p2932
sg288
V2017
p2933
sg290
F32.0
sg291
VJAN 29, 1985
p2934
sg293
V7-1
p2935
sg295
VMarc Gasol
p2936
sg297
I1610612763
sg298
V33
p2937
sg299
g43
sg300
V00
p2938
sg302
g94
sg303
I201188
ssI204028
(dp2939
g626
VKansas
p2940
sg628
V250
p2941
sg630
V2017
p2942
sg632
F25.0
sg633
VNOV 22, 1991
p2943
sg635
V6-9
p2944
sg637
VTarik Black
p2945
sg639
I1610612745
sg640
V28
p2946
sg641
g17
sg642
V00
p2947
sg644
VF-C
p2948
sg645
I204028
ssI1628395
(dp2949
g2
VOregon
p2950
sg4
V224
p2951
sg6
V2017
p2952
sg8
F22.0
sg9
VJAN 07, 1995
p2953
sg11
V6-9
p2954
sg13
VJordan Bell
p2955
sg15
I1610612744
sg16
g66
sg18
g104
sg20
V00
p2956
sg22
g23
sg24
I1628395
ssI2403
(dp2957
g626
VSao Carlos, Brazil
p2958
sg628
V250
p2959
sg630
V2017
p2960
sg632
F35.0
sg633
VSEP 13, 1982
p2961
sg635
V6-11
p2962
sg637
VNene
p2963
sg639
I1610612745
sg640
V42
p2964
sg641
V15
p2965
sg642
V00
p2966
sg644
VC-F
p2967
sg645
I2403
ssI202732
(dp2968
g507
VKentucky
p2969
sg509
V209
p2970
sg511
V2017
p2971
sg513
F29.0
sg514
VMAR 31, 1988
p2972
sg516
V6-6
p2973
sg518
VDeAndre Liggins
p2974
sg520
I1610612749
sg521
V25
p2975
sg523
g146
sg524
V00
p2976
sg526
g70
sg527
I202732
ssI202734
(dp2977
g129
VPurdue
p2978
sg131
V191
p2979
sg133
V2017
p2980
sg135
F28.0
sg136
VFEB 25, 1989
p2981
sg138
V6-4
p2982
sg140
VE'Twaun Moore
p2983
sg142
I1610612740
sg143
V55
p2984
sg145
g223
sg147
V00
p2985
sg149
g70
sg150
I202734
ssI2544
(dp2986
g26
VSt. Vincent-St. Mary HS (OH)
p2987
sg28
V250
p2988
sg30
V2017
p2989
sg32
F32.0
sg33
VDEC 30, 1984
p2990
sg35
V6-8
p2991
sg37
VLeBron James
p2992
sg39
I1610612739
sg40
V23
p2993
sg42
V14
p2994
sg44
V00
p2995
sg46
VF-G
p2996
sg47
I2544
ssI2216
(dp2997
g107
VMichigan State
p2998
sg108
V250
p2999
sg110
V2017
p3000
sg112
F36.0
sg113
VJUL 16, 1981
p3001
sg115
V6-9
p3002
sg117
VZach Randolph
p3003
sg119
I1610612758
sg120
V50
p3004
sg122
V16
p3005
sg124
V00
p3006
sg126
g23
sg127
I2216
ssI2546
(dp3007
g548
VSyracuse
p3008
sg550
V240
p3009
sg552
V2017
p3010
sg554
F33.0
sg555
VMAY 29, 1984
p3011
sg557
V6-8
p3012
sg559
VCarmelo Anthony
p3013
sg561
I1610612760
sg562
g352
sg564
V14
p3014
sg565
V00
p3015
sg567
g23
sg568
I2546
ssI2548
(dp3016
g26
VMarquette
p3017
sg28
V220
p3018
sg30
V2017
p3019
sg32
F35.0
sg33
VJAN 17, 1982
p3020
sg35
V6-4
p3021
sg37
VDwyane Wade
p3022
sg39
I1610612739
sg40
g43
sg42
V14
p3023
sg44
V00
p3024
sg46
g70
sg47
I2548
ssI1628414
(dp3025
g152
VSouth Carolina
p3026
sg154
V215
p3027
sg156
V2017
p3028
sg158
F22.0
sg159
VNOV 15, 1994
p3029
sg161
V6-5
p3030
sg163
VSindarius Thornwell
p3031
sg165
I1610612746
sg166
g231
sg167
g104
sg168
V00
p3032
sg170
g70
sg171
I1628414
ssI1627761
(dp3033
g73
VSaint Joseph's
p3034
sg75
V210
p3035
sg77
V2017
p3036
sg79
F23.0
sg80
VJUL 04, 1994
p3037
sg82
V6-6
p3038
sg84
VDeAndre' Bembry
p3039
sg86
I1610612737
sg87
V95
p3040
sg89
g123
sg91
V00
p3041
sg93
VF-G
p3042
sg95
I1627761
ssI1628443
(dp3043
g570
VArizona
p3044
sg572
V200
p3045
sg574
V2017
p3046
sg576
F24.0
sg577
VJAN 15, 1993
p3047
sg579
V6-3
p3048
sg581
VKadeem Allen
p3049
sg583
I1610612738
sg584
V45
p3050
sg586
g104
sg587
V00
p3051
sg589
g70
sg590
I1628443
ssI1626196
(dp3052
g363
VTennessee
p3053
sg365
V200
p3054
sg367
V2017
p3055
sg369
F24.0
sg370
VSEP 15, 1993
p3056
sg372
V6-6
p3057
sg374
VJosh Richardson
p3058
sg376
I1610612748
sg377
g231
sg379
g66
sg380
V00
p3059
sg382
g23
sg383
I1626196
ssI2555
(dp3060
g548
VKansas
p3061
sg550
V255
p3062
sg552
V2017
p3063
sg554
F37.0
sg555
VOCT 26, 1980
p3064
sg557
V6-10
p3065
sg559
VNick Collison
p3066
sg561
I1610612760
sg562
g146
sg564
V13
p3067
sg565
V00
p3068
sg567
g23
sg568
I2555
ssI101181
(dp3069
g26
VVillanueva de la Serena, Spain
p3070
sg28
V200
p3071
sg30
V2017
p3072
sg32
F36.0
sg33
VSEP 28, 1981
p3073
sg35
V6-3
p3074
sg37
VJose Calderon
p3075
sg39
I1610612739
sg40
V81
p3076
sg42
V12
p3077
sg44
V00
p3078
sg46
g70
sg47
I101181
ss.