(dp0
I1628035
(dp1
VSCHOOL
p2
VWisc.-Green Bay
p3
sVWEIGHT
p4
V215
p5
sVSEASON
p6
V2017
p7
sVAGE
p8
F25.0
sVBIRTH_DATE
p9
VSEP 17, 1992
p10
sVHEIGHT
p11
V6-8
p12
sVPLAYER
p13
VAlfonzo McKinnie
p14
sVTeamID
p15
I1610612761
sVNUM
p16
V34
p17
sVEXP
p18
VR
p19
sVLeagueID
p20
V00
p21
sVPOSITION
p22
VF
p23
sVPLAYER_ID
p24
I1628035
ssI203526
(dp25
VSCHOOL
p26
NsVWEIGHT
p27
V179
p28
sVSEASON
p29
V2017
p30
sVAGE
p31
F25.0
sVBIRTH_DATE
p32
VMAY 19, 1992
p33
sVHEIGHT
p34
V6-1
p35
sVPLAYER
p36
VRaul Neto
p37
sVTeamID
p38
I1610612762
sVNUM
p39
V25
p40
sVEXP
p41
V2
p42
sVLeagueID
p43
V00
p44
sVPOSITION
p45
VG
p46
sVPLAYER_ID
p47
I203526
ssI1627783
(dp48
g2
VNew Mexico State
p49
sg4
V230
p50
sg6
V2017
p51
sg8
F23.0
sg9
VAPR 02, 1994
p52
sg11
V6-9
p53
sg13
VPascal Siakam
p54
sg15
I1610612761
sg16
V43
p55
sg18
V1
p56
sg20
V00
p57
sg22
g23
sg24
I1627783
ssI1628424
(dp58
VSCHOOL
p59
VArizona
p60
sVWEIGHT
p61
V170
p62
sVSEASON
p63
V2017
p64
sVAGE
p65
F20.0
sVBIRTH_DATE
p66
VJUL 04, 1997
p67
sVHEIGHT
p68
V6-4
p69
sVPLAYER
p70
VKobi Simmons
p71
sVTeamID
p72
I1610612763
sVNUM
p73
g42
sVEXP
p74
g19
sVLeagueID
p75
V00
p76
sVPOSITION
p77
g46
sVPLAYER_ID
p78
I1628424
ssI1628396
(dp79
g26
VNorth Carolina
p80
sg27
V248
p81
sg29
V2017
p82
sg31
F19.0
sg32
VJAN 08, 1998
p83
sg34
V6-10
p84
sg36
VTony Bradley
p85
sg38
I1610612762
sg39
V13
p86
sg41
g19
sg43
V00
p87
sg45
VC
p88
sg47
I1628396
ssI203918
(dp89
g26
VDuke
p90
sg27
V206
p91
sg29
V2017
p92
sg31
F25.0
sg32
VOCT 20, 1992
p93
sg34
V6-8
p94
sg36
VRodney Hood
p95
sg38
I1610612762
sg39
V5
p96
sg41
V3
p97
sg43
V00
p98
sg45
g46
sg47
I203918
ssI201596
(dp99
g59
VKansas
p100
sg61
V190
p101
sg63
V2017
p102
sg65
F31.0
sg66
VMAY 19, 1986
p103
sg68
V6-2
p104
sg70
VMario Chalmers
p105
sg72
I1610612763
sg73
V6
p106
sg74
V8
p107
sg75
V00
p108
sg77
g46
sg78
I201596
ssI101139
(dp109
g2
VSkyline HS (TX)
p110
sg4
V225
p111
sg6
V2017
p112
sg8
F30.0
sg9
VMAR 18, 1987
p113
sg11
V6-6
p114
sg13
VCJ Miles
p115
sg15
I1610612761
sg16
V0
p116
sg18
V12
p117
sg20
V00
p118
sg22
VF-G
p119
sg24
I101139
ssI203924
(dp120
VSCHOOL
p121
VSyracuse
p122
sVWEIGHT
p123
V220
p124
sVSEASON
p125
V2017
p126
sVAGE
p127
F23.0
sVBIRTH_DATE
p128
VMAR 12, 1994
p129
sVHEIGHT
p130
V6-9
p131
sVPLAYER
p132
VJerami Grant
p133
sVTeamID
p134
I1610612760
sVNUM
p135
V9
p136
sVEXP
p137
g97
sVLeagueID
p138
V00
p139
sVPOSITION
p140
g23
sVPLAYER_ID
p141
I203924
ssI202692
(dp142
g26
VColorado
p143
sg27
V214
p144
sg29
V2017
p145
sg31
F26.0
sg32
VJUL 20, 1991
p146
sg34
V6-6
p147
sg36
VAlec Burks
p148
sg38
I1610612762
sg39
V10
p149
sg41
g106
sg43
V00
p150
sg45
g46
sg47
I202692
ssI203547
(dp151
g26
VCampbell
p152
sg27
V205
p153
sg29
V2017
p154
sg31
F27.0
sg32
VMAY 26, 1990
p155
sg34
V6-8
p156
sg36
VEric Griffin
p157
sg38
I1610612762
sg39
V17
p158
sg41
g19
sg43
V00
p159
sg45
VC-F
p160
sg47
I203547
ssI204060
(dp161
g26
Nsg27
V226
p162
sg29
V2017
p163
sg31
F30.0
sg32
VOCT 02, 1987
p164
sg34
V6-8
p165
sg36
VJoe Ingles
p166
sg38
I1610612762
sg39
g42
sg41
g97
sg43
V00
p167
sg45
g23
sg47
I204060
ssI1627738
(dp168
g59
VMichigan State
p169
sg61
V237
p170
sg63
V2017
p171
sg65
F20.0
sg66
VDEC 02, 1996
p172
sg68
V6-11
p173
sg70
VDeyonta Davis
p174
sg72
I1610612763
sg73
V21
p175
sg74
g56
sg75
V00
p176
sg77
VC-F
p177
sg78
I1627738
ssI2207
(dp178
g26
VArkansas
p179
sg27
V240
p180
sg29
V2017
p181
sg31
F36.0
sg32
VJUN 29, 1981
p182
sg34
V6-7
p183
sg36
VJoe Johnson
p184
sg38
I1610612762
sg39
g106
sg41
V16
p185
sg43
V00
p186
sg45
VG-F
p187
sg47
I2207
ssI203957
(dp188
g26
Nsg27
V190
p189
sg29
V2017
p190
sg31
F22.0
sg32
VJUL 13, 1995
p191
sg34
V6-6
p192
sg36
VDante Exum
p193
sg38
I1610612762
sg39
V11
p194
sg41
g42
sg43
V00
p195
sg45
g46
sg47
I203957
ssI201144
(dp196
g59
VOhio State
p197
sg61
V175
p198
sg63
V2017
p199
sg65
F30.0
sg66
VOCT 11, 1987
p200
sg68
V6-1
p201
sg70
VMike Conley
p202
sg72
I1610612763
sg73
V11
p203
sg74
V10
p204
sg75
V00
p205
sg77
g46
sg78
I201144
ssI1627782
(dp206
g59
VKansas
p207
sg61
V230
p208
sg63
V2017
p209
sg65
F23.0
sg66
VSEP 30, 1994
p210
sg68
V6-5
p211
sg70
VWayne Selden
p212
sg72
I1610612763
sg73
V7
p213
sg74
g56
sg75
V00
p214
sg77
VG-F
p215
sg78
I1627782
ssI1626150
(dp216
g59
VKentucky
p217
sg61
V213
p218
sg63
V2017
p219
sg65
F23.0
sg66
VOCT 28, 1994
p220
sg68
V6-6
p221
sg70
VAndrew Harrison
p222
sg72
I1610612763
sg73
g96
sg74
g56
sg75
V00
p223
sg77
g46
sg78
I1626150
ssI1626153
(dp224
g2
VUtah
p225
sg4
V190
p226
sg6
V2017
p227
sg8
F25.0
sg9
VAPR 26, 1992
p228
sg11
V6-5
p229
sg13
VDelon Wright
p230
sg15
I1610612761
sg16
V55
p231
sg18
g42
sg20
V00
p232
sg22
g46
sg24
I1626153
ssI201937
(dp233
g26
VEl Masnou, Spain
p234
sg27
V190
p235
sg29
V2017
p236
sg31
F27.0
sg32
VOCT 21, 1990
p237
sg34
V6-4
p238
sg36
VRicky Rubio
p239
sg38
I1610612762
sg39
g97
sg41
g106
sg43
V00
p240
sg45
g46
sg47
I201937
ssI2546
(dp241
g121
VSyracuse
p242
sg123
V240
p243
sg125
V2017
p244
sg127
F33.0
sg128
VMAY 29, 1984
p245
sg130
V6-8
p246
sg132
VCarmelo Anthony
p247
sg134
I1610612760
sg135
g213
sg137
V14
p248
sg138
V00
p249
sg140
g23
sg141
I2546
ssI1626205
(dp250
g59
VTexas-El Paso
p251
sg61
V208
p252
sg63
V2017
p253
sg65
F23.0
sg66
VAUG 05, 1994
p254
sg68
V6-8
p255
sg70
VVincent Hunter
p256
sg72
I1610612763
sg73
V32
p257
sg74
g19
sg75
V00
p258
sg77
g23
sg78
I1626205
ssI1626220
(dp259
g26
VBaylor
p260
sg27
V226
p261
sg29
V2017
p262
sg31
F24.0
sg32
VJUN 05, 1993
p263
sg34
V6-6
p264
sg36
VRoyce O'Neale
p265
sg38
I1610612762
sg39
V23
p266
sg41
g19
sg43
V00
p267
sg45
g23
sg47
I1626220
ssI203998
(dp268
g2
Nsg4
V205
p269
sg6
V2017
p270
sg8
F22.0
sg9
VSEP 21, 1995
p271
sg11
V6-9
p272
sg13
VBruno Caboclo
p273
sg15
I1610612761
sg16
g96
sg18
g97
sg20
V00
p274
sg22
g23
sg24
I203998
ssI1627832
(dp275
g2
VWichita State
p276
sg4
V195
p277
sg6
V2017
p278
sg8
F23.0
sg9
VFEB 25, 1994
p279
sg11
V6-0
p280
sg13
VFred VanVleet
p281
sg15
I1610612761
sg16
V23
p282
sg18
g56
sg20
V00
p283
sg22
g46
sg24
I1627832
ssI203962
(dp284
g121
VStanford
p285
sg123
V230
p286
sg125
V2017
p287
sg127
F25.0
sg128
VDEC 19, 1991
p288
sg130
V6-7
p289
sg132
VJosh Huestis
p290
sg134
I1610612760
sg135
V34
p291
sg137
g42
sg138
V00
p292
sg140
g23
sg141
I203962
ssI201148
(dp293
g59
VNorth Carolina
p294
sg61
V235
p295
sg63
V2017
p296
sg65
F30.0
sg66
VOCT 05, 1987
p297
sg68
V6-10
p298
sg70
VBrandan Wright
p299
sg72
I1610612763
sg73
V34
p300
sg74
g136
sg75
V00
p301
sg77
VF-C
p302
sg78
I201148
ssI202685
(dp303
g2
VUtena, Lithuania
p304
sg4
V255
p305
sg6
V2017
p306
sg8
F25.0
sg9
VMAY 06, 1992
p307
sg11
V7-0
p308
sg13
VJonas Valanciunas
p309
sg15
I1610612761
sg16
V17
p310
sg18
g96
sg20
V00
p311
sg22
g88
sg24
I202685
ssI201973
(dp312
g26
VKinna, Sweden
p313
sg27
V231
p314
sg29
V2017
p315
sg31
F30.0
sg32
VMAR 02, 1987
p316
sg34
V6-10
p317
sg36
VJonas Jerebko
p318
sg38
I1610612762
sg39
g107
sg41
g213
sg43
V00
p319
sg45
g23
sg47
I201973
ssI200768
(dp320
g2
VVillanova
p321
sg4
V205
p322
sg6
V2017
p323
sg8
F31.0
sg9
VMAR 25, 1986
p324
sg11
V6-0
p325
sg13
VKyle Lowry
p326
sg15
I1610612761
sg16
g213
sg18
V11
p327
sg20
V00
p328
sg22
g46
sg24
I200768
ssI1626177
(dp329
g121
VKentucky
p330
sg123
V255
p331
sg125
V2017
p332
sg127
F22.0
sg128
VSEP 22, 1995
p333
sg130
V7-0
p334
sg132
VDakari Johnson
p335
sg134
I1610612760
sg135
V44
p336
sg137
g19
sg138
V00
p337
sg140
g88
sg141
I1626177
ssI203460
(dp338
g121
VColorado
p339
sg123
V210
p340
sg125
V2017
p341
sg127
F25.0
sg128
VDEC 04, 1991
p342
sg130
V6-7
p343
sg132
VAndre Roberson
p344
sg134
I1610612760
sg135
V21
p345
sg137
V4
p346
sg138
V00
p347
sg140
g46
sg141
I203460
ssI1626181
(dp348
g2
VUCLA
p349
sg4
V215
p350
sg6
V2017
p351
sg8
F24.0
sg9
VMAY 25, 1993
p352
sg11
V6-4
p353
sg13
VNorman Powell
p354
sg15
I1610612761
sg16
V24
p355
sg18
g42
sg20
V00
p356
sg22
VF-G
p357
sg24
I1626181
ssI203463
(dp358
g59
VKansas
p359
sg61
V195
p360
sg63
V2017
p361
sg65
F24.0
sg66
VFEB 11, 1993
p362
sg68
V6-5
p363
sg70
VBen McLemore
p364
sg72
I1610612763
sg73
V23
p365
sg74
g346
sg75
V00
p366
sg77
g46
sg78
I203463
ssI202718
(dp367
g59
VFlorida
p368
sg61
V230
p369
sg63
V2017
p370
sg65
F29.0
sg66
VOCT 25, 1988
p371
sg68
V6-10
p372
sg70
VChandler Parsons
p373
sg72
I1610612763
sg73
V25
p374
sg74
g106
sg75
V00
p375
sg77
g23
sg78
I202718
ssI1626185
(dp376
g59
VLouisiana State
p377
sg61
V239
p378
sg63
V2017
p379
sg65
F23.0
sg66
VMAY 24, 1994
p380
sg68
V6-10
p381
sg70
VJarell Martin
p382
sg72
I1610612763
sg73
g56
sg74
g42
sg75
V00
p383
sg77
g23
sg78
I1626185
ssI203210
(dp384
g59
VAlabama
p385
sg61
V227
p386
sg63
V2017
p387
sg65
F27.0
sg66
VJUN 21, 1990
p388
sg68
V6-9
p389
sg70
VJaMychal Green
p390
sg72
I1610612763
sg73
g116
sg74
g97
sg75
V00
p391
sg77
g23
sg78
I203210
ssI201936
(dp392
g59
VMemphis
p393
sg61
V220
p394
sg63
V2017
p395
sg65
F28.0
sg66
VSEP 19, 1989
p396
sg68
V6-6
p397
sg70
VTyreke Evans
p398
sg72
I1610612763
sg73
V12
p399
sg74
g107
sg75
V00
p400
sg77
VG-F
p401
sg78
I201936
ssI203512
(dp402
g2
Nsg4
V220
p403
sg6
V2017
p404
sg8
F25.0
sg9
VJUL 26, 1992
p405
sg11
V7-0
p406
sg13
VLucas Nogueira
p407
sg15
I1610612761
sg16
V92
p408
sg18
g97
sg20
V00
p409
sg22
g88
sg24
I203512
ssI202324
(dp410
g26
VGeorgia Tech
p411
sg27
V265
p412
sg29
V2017
p413
sg31
F26.0
sg32
VJUL 15, 1991
p414
sg34
V6-10
p415
sg36
VDerrick Favors
p416
sg38
I1610612762
sg39
V15
p417
sg41
g213
sg43
V00
p418
sg45
VF-C
p419
sg47
I202324
ssI201942
(dp420
g2
VSouthern California
p421
sg4
V220
p422
sg6
V2017
p423
sg8
F28.0
sg9
VAUG 07, 1989
p424
sg11
V6-7
p425
sg13
VDeMar DeRozan
p426
sg15
I1610612761
sg16
V10
p427
sg18
g107
sg20
V00
p428
sg22
g46
sg24
I201942
ssI202327
(dp429
g26
VBaylor
p430
sg27
V245
p431
sg29
V2017
p432
sg31
F30.0
sg32
VMAY 20, 1987
p433
sg34
V6-10
p434
sg36
VEkpe Udoh
p435
sg38
I1610612762
sg39
V33
p436
sg41
g96
sg43
V00
p437
sg45
VC-F
p438
sg47
I202327
ssI202713
(dp439
g121
VDuke
p440
sg123
V228
p441
sg125
V2017
p442
sg127
F29.0
sg128
VMAY 04, 1988
p443
sg130
V6-8
p444
sg132
VKyle Singler
p445
sg134
I1610612760
sg135
V15
p446
sg137
g96
sg138
V00
p447
sg140
g23
sg141
I202713
ssI1628378
(dp448
g26
VLouisville
p449
sg27
V215
p450
sg29
V2017
p451
sg31
F21.0
sg32
VSEP 07, 1996
p452
sg34
V6-3
p453
sg36
VDonovan Mitchell
p454
sg38
I1610612762
sg39
V45
p455
sg41
g19
sg43
V00
p456
sg45
g46
sg47
I1628378
ssI202331
(dp457
g121
VFresno State
p458
sg123
V220
p459
sg125
V2017
p460
sg127
F27.0
sg128
VMAY 02, 1990
p461
sg130
V6-9
p462
sg132
VPaul George
p463
sg134
I1610612760
sg135
V13
p464
sg137
g213
sg138
V00
p465
sg140
g23
sg141
I202331
ssI203485
(dp466
g2
VNorth Carolina State
p467
sg4
V189
p468
sg6
V2017
p469
sg8
F27.0
sg9
VAUG 26, 1990
p470
sg11
V6-5
p471
sg13
VLorenzo Brown
p472
sg15
I1610612761
sg16
g346
sg18
g97
sg20
V00
p473
sg22
g46
sg24
I203485
ssI201566
(dp474
g121
VUCLA
p475
sg123
V200
p476
sg125
V2017
p477
sg127
F28.0
sg128
VNOV 12, 1988
p478
sg130
V6-3
p479
sg132
VRussell Westbrook
p480
sg134
I1610612760
sg135
g116
sg137
g136
sg138
V00
p481
sg140
g46
sg141
I201566
ssI202335
(dp482
g121
VKentucky
p483
sg123
V230
p484
sg125
V2017
p485
sg127
F28.0
sg128
VMAR 14, 1989
p486
sg130
V6-9
p487
sg132
VPatrick Patterson
p488
sg134
I1610612760
sg135
V54
p489
sg137
g213
sg138
V00
p490
sg140
g23
sg141
I202335
ssI1628384
(dp491
g2
VIndiana
p492
sg4
V235
p493
sg6
V2017
p494
sg8
F20.0
sg9
VJUL 17, 1997
p495
sg11
V6-8
p496
sg13
VOG Anunoby
p497
sg15
I1610612761
sg16
g97
sg18
g19
sg20
V00
p498
sg22
g23
sg24
I1628384
ssI203489
(dp499
g26
VSouth Dakota State
p500
sg27
V190
p501
sg29
V2017
p502
sg31
F26.0
sg32
VMAY 15, 1991
p503
sg34
V6-4
p504
sg36
VNate Wolters
p505
sg38
I1610612762
sg39
V16
p506
sg41
g42
sg43
V00
p507
sg45
g46
sg47
I203489
ssI201188
(dp508
g59
VBarcelona, Spain
p509
sg61
V255
p510
sg63
V2017
p511
sg65
F32.0
sg66
VJAN 29, 1985
p512
sg68
V7-1
p513
sg70
VMarc Gasol
p514
sg72
I1610612763
sg73
V33
p515
sg74
g136
sg75
V00
p516
sg77
g88
sg78
I201188
ssI203516
(dp517
g59
VLong Beach State
p518
sg61
V210
p519
sg63
V2017
p520
sg65
F27.0
sg66
VJUL 01, 1990
p521
sg68
V6-7
p522
sg70
VJames Ennis III
p523
sg72
I1610612763
sg73
g107
sg74
g97
sg75
V00
p524
sg77
g23
sg78
I203516
ssI1628390
(dp525
g121
Nsg123
V184
p526
sg125
V2017
p527
sg127
F19.0
sg128
VMAY 17, 1998
p528
sg130
V6-7
p529
sg132
VTerrance Ferguson
p530
sg134
I1610612760
sg135
V23
p531
sg137
g19
sg138
V00
p532
sg140
g46
sg141
I1628390
ssI1627751
(dp533
g2
VUtah
p534
sg4
V230
p535
sg6
V2017
p536
sg8
F22.0
sg9
VOCT 15, 1995
p537
sg11
V7-0
p538
sg13
VJakob Poeltl
p539
sg15
I1610612761
sg16
V42
p540
sg18
g56
sg20
V00
p541
sg22
g88
sg24
I1627751
ssI203497
(dp542
g26
VFrance
p543
sg27
V245
p544
sg29
V2017
p545
sg31
F25.0
sg32
VJUN 26, 1992
p546
sg34
V7-1
p547
sg36
VRudy Gobert
p548
sg38
I1610612762
sg39
V27
p549
sg41
g346
sg43
V00
p550
sg45
g88
sg47
I203497
ssI203500
(dp551
g121
VPittsburgh
p552
sg123
V255
p553
sg125
V2017
p554
sg127
F24.0
sg128
VJUL 20, 1993
p555
sg130
V7-0
p556
sg132
VSteven Adams
p557
sg134
I1610612760
sg135
V12
p558
sg137
g346
sg138
V00
p559
sg140
g88
sg141
I203500
ssI1628397
(dp560
g59
VCalifornia
p561
sg61
V220
p562
sg63
V2017
p563
sg65
F20.0
sg66
VFEB 04, 1997
p564
sg68
V6-10
p565
sg70
VIvan Rabb
p566
sg72
I1610612763
sg73
V10
p567
sg74
g19
sg75
V00
p568
sg77
g23
sg78
I1628397
ssI201586
(dp569
g2
VBrazzaville, Rep. of Congo
p570
sg4
V235
p571
sg6
V2017
p572
sg8
F28.0
sg9
VSEP 18, 1989
p573
sg11
V6-10
p574
sg13
VSerge Ibaka
p575
sg15
I1610612761
sg16
g136
sg18
g107
sg20
V00
p576
sg22
g23
sg24
I201586
ssI1626259
(dp577
g2
VHoly Cross
p578
sg4
V210
p579
sg6
V2017
p580
sg8
F24.0
sg9
VMAR 06, 1993
p581
sg11
V6-7
p582
sg13
VMalcolm Miller
p583
sg15
I1610612761
sg16
V13
p584
sg18
g19
sg20
V00
p585
sg22
g23
sg24
I1626259
ssI101109
(dp586
g121
VNorth Carolina
p587
sg123
V205
p588
sg125
V2017
p589
sg127
F33.0
sg128
VJUN 26, 1984
p590
sg130
V6-1
p591
sg132
VRaymond Felton
p592
sg134
I1610612760
sg135
g42
sg137
V12
p593
sg138
V00
p594
sg140
g46
sg141
I101109
ssI200757
(dp595
g26
VVevey, Switzerland
p596
sg27
V220
p597
sg29
V2017
p598
sg31
F33.0
sg32
VMAY 02, 1984
p599
sg34
V6-7
p600
sg36
VThabo Sefolosha
p601
sg38
I1610612762
sg39
V22
p602
sg41
V11
p603
sg43
V00
p604
sg45
g23
sg47
I200757
ssI1628408
(dp605
g121
VSouth Carolina
p606
sg123
V205
p607
sg125
V2017
p608
sg127
F21.0
sg128
VOCT 25, 1996
p609
sg130
V6-6
p610
sg132
VPJ Dozier
p611
sg134
I1610612760
sg135
V35
p612
sg137
g19
sg138
V00
p613
sg140
g46
sg141
I1628408
ssI2555
(dp614
g121
VKansas
p615
sg123
V255
p616
sg125
V2017
p617
sg127
F37.0
sg128
VOCT 26, 1980
p618
sg130
V6-10
p619
sg132
VNick Collison
p620
sg134
I1610612760
sg135
g346
sg137
V13
p621
sg138
V00
p622
sg140
g23
sg141
I2555
ssI1627772
(dp623
g121
VConnecticut
p624
sg123
V195
p625
sg125
V2017
p626
sg127
F22.0
sg128
VAUG 08, 1995
p627
sg130
V6-7
p628
sg132
VDaniel Hamilton
p629
sg134
I1610612760
sg135
V25
p630
sg137
g19
sg138
V00
p631
sg140
g46
sg141
I1627772
ssI203518
(dp632
g121
Nsg123
V190
p633
sg125
V2017
p634
sg127
F24.0
sg128
VAUG 01, 1993
p635
sg130
V6-6
p636
sg132
VAlex Abrines
p637
sg134
I1610612760
sg135
g107
sg137
g56
sg138
V00
p638
sg140
g46
sg141
I203518
ssI1628415
(dp639
g59
VOregon
p640
sg61
V220
p641
sg63
V2017
p642
sg65
F21.0
sg66
VJAN 22, 1996
p643
sg68
V6-6
p644
sg70
VDillon Brooks
p645
sg72
I1610612763
sg73
V24
p646
sg74
g19
sg75
V00
p647
sg77
VF-G
p648
sg78
I1628415
ss.