(dp0
I203524
(dp1
VSCHOOL
p2
VArizona
p3
sVWEIGHT
p4
V225
p5
sVSEASON
p6
V2017
p7
sVAGE
p8
F26.0
sVBIRTH_DATE
p9
VMAR 18, 1991
p10
sVHEIGHT
p11
V6-7
p12
sVPLAYER
p13
VSolomon Hill
p14
sVTeamID
p15
I1610612740
sVNUM
p16
V44
p17
sVEXP
p18
V4
p19
sVLeagueID
p20
V00
p21
sVPOSITION
p22
VF
p23
sVPLAYER_ID
p24
I203524
ssI200794
(dp25
VSCHOOL
p26
VLouisiana Tech
p27
sVWEIGHT
p28
V246
p29
sVSEASON
p30
V2017
p31
sVAGE
p32
F32.0
sVBIRTH_DATE
p33
VFEB 10, 1985
p34
sVHEIGHT
p35
V6-8
p36
sVPLAYER
p37
VPaul Millsap
p38
sVTeamID
p39
I1610612743
sVNUM
p40
g19
sVEXP
p41
V11
p42
sVLeagueID
p43
V00
p44
sVPOSITION
p45
g23
sVPLAYER_ID
p46
I200794
ssI1626144
(dp47
g26
Nsg28
V200
p48
sg30
V2017
p49
sg32
F21.0
sg33
VMAR 05, 1996
p50
sg35
V6-5
p51
sg37
VEmmanuel Mudiay
p52
sg39
I1610612743
sg40
V0
p53
sg41
V2
p54
sg43
V00
p55
sg45
VG
p56
sg46
I1626144
ssI1626150
(dp57
VSCHOOL
p58
VKentucky
p59
sVWEIGHT
p60
V213
p61
sVSEASON
p62
V2017
p63
sVAGE
p64
F23.0
sVBIRTH_DATE
p65
VOCT 28, 1994
p66
sVHEIGHT
p67
V6-6
p68
sVPLAYER
p69
VAndrew Harrison
p70
sVTeamID
p71
I1610612763
sVNUM
p72
V5
p73
sVEXP
p74
V1
p75
sVLeagueID
p76
V00
p77
sVPOSITION
p78
g56
sVPLAYER_ID
p79
I1626150
ssI1626153
(dp80
VSCHOOL
p81
VUtah
p82
sVWEIGHT
p83
V190
p84
sVSEASON
p85
V2017
p86
sVAGE
p87
F25.0
sVBIRTH_DATE
p88
VAPR 26, 1992
p89
sVHEIGHT
p90
V6-5
p91
sVPLAYER
p92
VDelon Wright
p93
sVTeamID
p94
I1610612761
sVNUM
p95
V55
p96
sVEXP
p97
g54
sVLeagueID
p98
V00
p99
sVPOSITION
p100
g56
sVPLAYER_ID
p101
I1626153
ssI1626159
(dp102
VSCHOOL
p103
VDuke
p104
sVWEIGHT
p105
V225
p106
sVSEASON
p107
V2017
p108
sVAGE
p109
F21.0
sVBIRTH_DATE
p110
VMAR 26, 1996
p111
sVHEIGHT
p112
V6-7
p113
sVPLAYER
p114
VJustise Winslow
p115
sVTeamID
p116
I1610612748
sVNUM
p117
V20
p118
sVEXP
p119
g54
sVLeagueID
p120
V00
p121
sVPOSITION
p122
g23
sVPLAYER_ID
p123
I1626159
ssI201967
(dp124
g2
VVillanova
p125
sg4
V230
p126
sg6
V2017
p127
sg8
F30.0
sg9
VAPR 22, 1987
p128
sg11
V6-8
p129
sg13
VDante Cunningham
p130
sg15
I1610612740
sg16
V33
p131
sg18
V8
p132
sg20
V00
p133
sg22
g23
sg24
I201967
ssI1627827
(dp134
VSCHOOL
p135
VFlorida
p136
sVWEIGHT
p137
V220
p138
sVSEASON
p139
V2017
p140
sVAGE
p141
F24.0
sVBIRTH_DATE
p142
VMAY 04, 1993
p143
sVHEIGHT
p144
V6-8
p145
sVPLAYER
p146
VDorian Finney-Smith
p147
sVTeamID
p148
I1610612742
sVNUM
p149
V10
p150
sVEXP
p151
g75
sVLeagueID
p152
V00
p153
sVPOSITION
p154
g23
sVPLAYER_ID
p155
I1627827
ssI200757
(dp156
VSCHOOL
p157
VVevey, Switzerland
p158
sVWEIGHT
p159
V220
p160
sVSEASON
p161
V2017
p162
sVAGE
p163
F33.0
sVBIRTH_DATE
p164
VMAY 02, 1984
p165
sVHEIGHT
p166
V6-7
p167
sVPLAYER
p168
VThabo Sefolosha
p169
sVTeamID
p170
I1610612762
sVNUM
p171
V22
p172
sVEXP
p173
V11
p174
sVLeagueID
p175
V00
p176
sVPOSITION
p177
g23
sVPLAYER_ID
p178
I200757
ssI1626168
(dp179
g26
VKentucky
p180
sg28
V234
p181
sg30
V2017
p182
sg32
F22.0
sg33
VNOV 05, 1995
p183
sg35
V6-10
p184
sg37
VTrey Lyles
p185
sg39
I1610612743
sg40
V7
p186
sg41
g54
sg43
V00
p187
sg45
g23
sg46
I1626168
ssI2617
(dp188
g103
VFlorida
p189
sg105
V235
p190
sg107
V2017
p191
sg109
F37.0
sg110
VJUN 09, 1980
p192
sg112
V6-8
p193
sg114
VUdonis Haslem
p194
sg116
I1610612748
sg117
V40
p195
sg119
V14
p196
sg120
V00
p197
sg122
g23
sg123
I2617
ssI1626173
(dp198
VSCHOOL
p199
VUNLV
p200
sVWEIGHT
p201
V202
p202
sVSEASON
p203
V2017
p204
sVAGE
p205
F21.0
sVBIRTH_DATE
p206
VAUG 16, 1996
p207
sVHEIGHT
p208
V6-6
p209
sVPLAYER
p210
VRashad Vaughn
p211
sVTeamID
p212
I1610612749
sVNUM
p213
V20
p214
sVEXP
p215
g54
sVLeagueID
p216
V00
p217
sVPOSITION
p218
g56
sVPLAYER_ID
p219
I1626173
ssI1626175
(dp220
g103
VLouisiana State
p221
sg105
V235
p222
sg107
V2017
p223
sg109
F23.0
sg110
VJUL 09, 1994
p224
sg112
V6-8
p225
sg114
VJordan Mickey
p226
sg116
I1610612748
sg117
V25
p227
sg119
g54
sg120
V00
p228
sg122
VC-F
p229
sg123
I1626175
ssI200768
(dp230
g81
VVillanova
p231
sg83
V205
p232
sg85
V2017
p233
sg87
F31.0
sg88
VMAR 25, 1986
p234
sg90
V6-0
p235
sg92
VKyle Lowry
p236
sg94
I1610612761
sg95
g186
sg97
V11
p237
sg98
V00
p238
sg100
g56
sg101
I200768
ssI1626177
(dp239
VSCHOOL
p240
VKentucky
p241
sVWEIGHT
p242
V255
p243
sVSEASON
p244
V2017
p245
sVAGE
p246
F22.0
sVBIRTH_DATE
p247
VSEP 22, 1995
p248
sVHEIGHT
p249
V7-0
p250
sVPLAYER
p251
VDakari Johnson
p252
sVTeamID
p253
I1610612760
sVNUM
p254
V44
p255
sVEXP
p256
VR
p257
sVLeagueID
p258
V00
p259
sVPOSITION
p260
VC
p261
sVPLAYER_ID
p262
I1626177
ssI1626181
(dp263
g81
VUCLA
p264
sg83
V215
p265
sg85
V2017
p266
sg87
F24.0
sg88
VMAY 25, 1993
p267
sg90
V6-4
p268
sg92
VNorman Powell
p269
sg94
I1610612761
sg95
V24
p270
sg97
g54
sg98
V00
p271
sg100
VF-G
p272
sg101
I1626181
ssI1626185
(dp273
g58
VLouisiana State
p274
sg60
V239
p275
sg62
V2017
p276
sg64
F23.0
sg65
VMAY 24, 1994
p277
sg67
V6-10
p278
sg69
VJarell Martin
p279
sg71
I1610612763
sg72
g75
sg74
g54
sg76
V00
p280
sg78
g23
sg79
I1626185
ssI202083
(dp281
g135
VMarquette
p282
sg137
V220
p283
sg139
V2017
p284
sg141
F31.0
sg142
VOCT 14, 1986
p285
sg144
V6-5
p286
sg146
VWesley Matthews
p287
sg148
I1610612742
sg149
V23
p288
sg151
g132
sg152
V00
p289
sg154
VG-F
p290
sg155
I202083
ssI202324
(dp291
g157
VGeorgia Tech
p292
sg159
V265
p293
sg161
V2017
p294
sg163
F26.0
sg164
VJUL 15, 1991
p295
sg166
V6-10
p296
sg168
VDerrick Favors
p297
sg170
I1610612762
sg171
V15
p298
sg173
g186
sg175
V00
p299
sg177
VF-C
p300
sg178
I202324
ssI202326
(dp301
g2
VKentucky
p302
sg4
V270
p303
sg6
V2017
p304
sg8
F27.0
sg9
VAUG 13, 1990
p305
sg11
V6-11
p306
sg13
VDeMarcus Cousins
p307
sg15
I1610612740
sg16
g53
sg18
g186
sg20
V00
p308
sg22
g261
sg24
I202326
ssI202327
(dp309
g157
VBaylor
p310
sg159
V245
p311
sg161
V2017
p312
sg163
F30.0
sg164
VMAY 20, 1987
p313
sg166
V6-10
p314
sg168
VEkpe Udoh
p315
sg170
I1610612762
sg171
V33
p316
sg173
g73
sg175
V00
p317
sg177
VC-F
p318
sg178
I202327
ssI1627736
(dp319
g26
VFlorida State
p320
sg28
V196
p321
sg30
V2017
p322
sg32
F20.0
sg33
VNOV 26, 1996
p323
sg35
V6-5
p324
sg37
VMalik Beasley
p325
sg39
I1610612743
sg40
V25
p326
sg41
g75
sg43
V00
p327
sg45
g56
sg46
I1627736
ssI1627738
(dp328
g58
VMichigan State
p329
sg60
V237
p330
sg62
V2017
p331
sg64
F20.0
sg65
VDEC 02, 1996
p332
sg67
V6-11
p333
sg69
VDeyonta Davis
p334
sg71
I1610612763
sg72
V21
p335
sg74
g75
sg76
V00
p336
sg78
VC-F
p337
sg79
I1627738
ssI202331
(dp338
g240
VFresno State
p339
sg242
V220
p340
sg244
V2017
p341
sg246
F27.0
sg247
VMAY 02, 1990
p342
sg249
V6-9
p343
sg251
VPaul George
p344
sg253
I1610612760
sg254
V13
p345
sg256
g186
sg258
V00
p346
sg260
g23
sg262
I202331
ssI1626205
(dp347
g58
VTexas-El Paso
p348
sg60
V208
p349
sg62
V2017
p350
sg64
F23.0
sg65
VAUG 05, 1994
p351
sg67
V6-8
p352
sg69
VVincent Hunter
p353
sg71
I1610612763
sg72
V32
p354
sg74
g257
sg76
V00
p355
sg78
g23
sg79
I1626205
ssI202335
(dp356
g240
VKentucky
p357
sg242
V230
p358
sg244
V2017
p359
sg246
F28.0
sg247
VMAR 14, 1989
p360
sg249
V6-9
p361
sg251
VPatrick Patterson
p362
sg253
I1610612760
sg254
V54
p363
sg256
g186
sg258
V00
p364
sg260
g23
sg262
I202335
ssI202339
(dp365
g199
VKentucky
p366
sg201
V205
p367
sg203
V2017
p368
sg205
F27.0
sg206
VDEC 09, 1989
p369
sg208
V6-1
p370
sg210
VEric Bledsoe
p371
sg212
I1610612749
sg213
V6
p372
sg215
g186
sg216
V00
p373
sg218
g56
sg219
I202339
ssI1627748
(dp374
g199
Nsg201
V223
p375
sg203
V2017
p376
sg205
F20.0
sg206
VFEB 25, 1997
p377
sg208
V7-1
p378
sg210
VThon Maker
p379
sg212
I1610612749
sg213
g186
sg215
g75
sg216
V00
p380
sg218
VC-F
p381
sg219
I1627748
ssI1627750
(dp382
g26
VKentucky
p383
sg28
V207
p384
sg30
V2017
p385
sg32
F20.0
sg33
VFEB 23, 1997
p386
sg35
V6-4
p387
sg37
VJamal Murray
p388
sg39
I1610612743
sg40
V27
p389
sg41
g75
sg43
V00
p390
sg45
g56
sg46
I1627750
ssI1627751
(dp391
g81
VUtah
p392
sg83
V230
p393
sg85
V2017
p394
sg87
F22.0
sg88
VOCT 15, 1995
p395
sg90
V7-0
p396
sg92
VJakob Poeltl
p397
sg94
I1610612761
sg95
V42
p398
sg97
g75
sg98
V00
p399
sg100
g261
sg101
I1627751
ssI1626220
(dp400
g157
VBaylor
p401
sg159
V226
p402
sg161
V2017
p403
sg163
F24.0
sg164
VJUN 05, 1993
p404
sg166
V6-6
p405
sg168
VRoyce O'Neale
p406
sg170
I1610612762
sg171
V23
p407
sg173
g257
sg175
V00
p408
sg177
g23
sg178
I1626220
ssI1627762
(dp409
g199
VWeber State
p410
sg201
V235
p411
sg203
V2017
p412
sg205
F23.0
sg206
VJAN 28, 1994
p413
sg208
V6-9
p414
sg210
VJoel Bolomboy
p415
sg212
I1610612749
sg213
V24
p416
sg215
g75
sg216
V00
p417
sg218
VF-C
p418
sg219
I1627762
ssI202355
(dp419
g103
VMarshall
p420
sg105
V265
p421
sg107
V2017
p422
sg109
F28.0
sg110
VJUN 13, 1989
p423
sg112
V7-0
p424
sg114
VHassan Whiteside
p425
sg116
I1610612748
sg117
V21
p426
sg119
g73
sg120
V00
p427
sg122
g261
sg123
I202355
ssI1627767
(dp428
g2
VKansas
p429
sg4
V220
p430
sg6
V2017
p431
sg8
F21.0
sg9
VSEP 13, 1996
p432
sg11
V6-9
p433
sg13
VCheick Diallo
p434
sg15
I1610612740
sg16
V13
p435
sg18
g75
sg20
V00
p436
sg22
g23
sg24
I1627767
ssI200826
(dp437
g135
VNortheastern
p438
sg137
V185
p439
sg139
V2017
p440
sg141
F33.0
sg142
VJUN 26, 1984
p441
sg144
V6-0
p442
sg146
VJ.J. Barea
p443
sg148
I1610612742
sg149
g73
sg151
V11
p444
sg152
V00
p445
sg154
g56
sg155
I200826
ssI1627772
(dp446
g240
VConnecticut
p447
sg242
V195
p448
sg244
V2017
p449
sg246
F22.0
sg247
VAUG 08, 1995
p450
sg249
V6-7
p451
sg251
VDaniel Hamilton
p452
sg253
I1610612760
sg254
V25
p453
sg256
g257
sg258
V00
p454
sg260
g56
sg262
I1627772
ssI1627773
(dp455
g103
VPurdue
p456
sg105
V260
p457
sg107
V2017
p458
sg109
F25.0
sg110
VAUG 27, 1992
p459
sg112
V7-0
p460
sg114
VAJ Hammons
p461
sg116
I1610612748
sg117
g19
sg119
g75
sg120
V00
p462
sg122
g261
sg123
I1627773
ssI1627780
(dp463
g199
VOregon State
p464
sg201
V190
p465
sg203
V2017
p466
sg205
F24.0
sg206
VDEC 01, 1992
p467
sg208
V6-3
p468
sg210
VGary Payton II
p469
sg212
I1610612749
sg213
g53
sg215
g75
sg216
V00
p470
sg218
g56
sg219
I1627780
ssI203500
(dp471
g240
VPittsburgh
p472
sg242
V255
p473
sg244
V2017
p474
sg246
F24.0
sg247
VJUL 20, 1993
p475
sg249
V7-0
p476
sg251
VSteven Adams
p477
sg253
I1610612760
sg254
V12
p478
sg256
g19
sg258
V00
p479
sg260
g261
sg262
I203500
ssI1627782
(dp480
g58
VKansas
p481
sg60
V230
p482
sg62
V2017
p483
sg64
F23.0
sg65
VSEP 30, 1994
p484
sg67
V6-5
p485
sg69
VWayne Selden
p486
sg71
I1610612763
sg72
g186
sg74
g75
sg76
V00
p487
sg78
VG-F
p488
sg79
I1627782
ssI1627783
(dp489
g81
VNew Mexico State
p490
sg83
V230
p491
sg85
V2017
p492
sg87
F23.0
sg88
VAPR 02, 1994
p493
sg90
V6-9
p494
sg92
VPascal Siakam
p495
sg94
I1610612761
sg95
V43
p496
sg97
g75
sg98
V00
p497
sg100
g23
sg101
I1627783
ssI203914
(dp498
g26
VMichigan State
p499
sg28
V210
p500
sg30
V2017
p501
sg32
F23.0
sg33
VSEP 14, 1994
p502
sg35
V6-4
p503
sg37
VGary Harris
p504
sg39
I1610612743
sg40
V14
p505
sg41
V3
p506
sg43
V00
p507
sg45
g56
sg46
I203914
ssI203918
(dp508
g157
VDuke
p509
sg159
V206
p510
sg161
V2017
p511
sg163
F25.0
sg164
VOCT 20, 1992
p512
sg166
V6-8
p513
sg168
VRodney Hood
p514
sg170
I1610612762
sg171
g73
sg173
g506
sg175
V00
p515
sg177
g56
sg178
I203918
ssI1626257
(dp516
g135
Nsg137
V235
p517
sg139
V2017
p518
sg141
F31.0
sg142
VJUN 15, 1986
p519
sg144
V7-2
p520
sg146
VSalah Mejri
p521
sg148
I1610612742
sg149
V50
p522
sg151
g54
sg152
V00
p523
sg154
g261
sg155
I1626257
ssI1626259
(dp524
g81
VHoly Cross
p525
sg83
V210
p526
sg85
V2017
p527
sg87
F24.0
sg88
VMAR 06, 1993
p528
sg90
V6-7
p529
sg92
VMalcolm Miller
p530
sg94
I1610612761
sg95
V13
p531
sg97
g257
sg98
V00
p532
sg100
g23
sg101
I1626259
ssI203924
(dp533
g240
VSyracuse
p534
sg242
V220
p535
sg244
V2017
p536
sg246
F23.0
sg247
VMAR 12, 1994
p537
sg249
V6-9
p538
sg251
VJerami Grant
p539
sg253
I1610612760
sg254
V9
p540
sg256
g506
sg258
V00
p541
sg260
g23
sg262
I203924
ssI2207
(dp542
g157
VArkansas
p543
sg159
V240
p544
sg161
V2017
p545
sg163
F36.0
sg164
VJUN 29, 1981
p546
sg166
V6-7
p547
sg168
VJoe Johnson
p548
sg170
I1610612762
sg171
g372
sg173
V16
p549
sg175
V00
p550
sg177
VG-F
p551
sg178
I2207
ssI2210
(dp552
g26
VArizona
p553
sg28
V233
p554
sg30
V2017
p555
sg32
F37.0
sg33
VJUN 21, 1980
p556
sg35
V6-7
p557
sg37
VRichard Jefferson
p558
sg39
I1610612743
sg40
V22
p559
sg41
V16
p560
sg43
V00
p561
sg45
g23
sg46
I2210
ssI203939
(dp562
g135
VStanford
p563
sg137
V240
p564
sg139
V2017
p565
sg141
F26.0
sg142
VJUL 20, 1991
p566
sg144
V6-11
p567
sg146
VDwight Powell
p568
sg148
I1610612742
sg149
g186
sg151
g506
sg152
V00
p569
sg154
VF-C
p570
sg155
I203939
ssI1627812
(dp571
g135
VIndiana
p572
sg137
V180
p573
sg139
V2017
p574
sg141
F24.0
sg142
VMAY 09, 1993
p575
sg144
V6-0
p576
sg146
VYogi Ferrell
p577
sg148
I1610612742
sg149
V11
p578
sg151
g75
sg152
V00
p579
sg154
g56
sg155
I1627812
ssI203121
(dp580
g2
VKentucky
p581
sg4
V225
p582
sg6
V2017
p583
sg8
F27.0
sg9
VMAR 21, 1990
p584
sg11
V6-8
p585
sg13
VDarius Miller
p586
sg15
I1610612740
sg16
V21
p587
sg18
g506
sg20
V00
p588
sg22
g23
sg24
I203121
ssI2734
(dp589
g135
VWisconsin
p590
sg137
V185
p591
sg139
V2017
p592
sg141
F34.0
sg142
VFEB 27, 1983
p593
sg144
V6-3
p594
sg146
VDevin Harris
p595
sg148
I1610612742
sg149
V34
p596
sg151
V13
p597
sg152
V00
p598
sg154
g56
sg155
I2734
ssI1627823
(dp599
g26
Nsg28
V230
p600
sg30
V2017
p601
sg32
F22.0
sg33
VSEP 28, 1995
p602
sg35
V6-9
p603
sg37
VJuan Hernangomez
p604
sg39
I1610612743
sg40
V41
p605
sg41
g75
sg43
V00
p606
sg45
g23
sg46
I1627823
ssI201950
(dp607
g2
VUCLA
p608
sg4
V205
p609
sg6
V2017
p610
sg8
F27.0
sg9
VJUN 12, 1990
p611
sg11
V6-4
p612
sg13
VJrue Holiday
p613
sg15
I1610612740
sg16
V11
p614
sg18
g132
sg20
V00
p615
sg22
g56
sg24
I201950
ssI203953
(dp616
g199
VDuke
p617
sg201
V250
p618
sg203
V2017
p619
sg205
F22.0
sg206
VMAR 15, 1995
p620
sg208
V6-8
p621
sg210
VJabari Parker
p622
sg212
I1610612749
sg213
V12
p623
sg215
g506
sg216
V00
p624
sg218
g23
sg219
I203953
ssI1627763
(dp625
g199
VVirginia
p626
sg201
V215
p627
sg203
V2017
p628
sg205
F24.0
sg206
VDEC 11, 1992
p629
sg208
V6-5
p630
sg210
VMalcolm Brogdon
p631
sg212
I1610612749
sg213
V13
p632
sg215
g75
sg216
V00
p633
sg218
g56
sg219
I1627763
ssI203957
(dp634
g157
Nsg159
V190
p635
sg161
V2017
p636
sg163
F22.0
sg164
VJUL 13, 1995
p637
sg166
V6-6
p638
sg168
VDante Exum
p639
sg170
I1610612762
sg171
V11
p640
sg173
g54
sg175
V00
p641
sg177
g56
sg178
I203957
ssI1627832
(dp642
g81
VWichita State
p643
sg83
V195
p644
sg85
V2017
p645
sg87
F23.0
sg88
VFEB 25, 1994
p646
sg90
V6-0
p647
sg92
VFred VanVleet
p648
sg94
I1610612761
sg95
V23
p649
sg97
g75
sg98
V00
p650
sg100
g56
sg101
I1627832
ssI203962
(dp651
g240
VStanford
p652
sg242
V230
p653
sg244
V2017
p654
sg246
F25.0
sg247
VDEC 19, 1991
p655
sg249
V6-7
p656
sg251
VJosh Huestis
p657
sg253
I1610612760
sg254
V34
p658
sg256
g54
sg258
V00
p659
sg260
g23
sg262
I203962
ssI2749
(dp660
g2
VSaint Joseph's
p661
sg4
V190
p662
sg6
V2017
p663
sg8
F35.0
sg9
VFEB 09, 1982
p664
sg11
V6-0
p665
sg13
VJameer Nelson
p666
sg15
I1610612740
sg16
V14
p667
sg18
V13
p668
sg20
V00
p669
sg22
g56
sg24
I2749
ssI203457
(dp670
g135
VKentucky
p671
sg137
V220
p672
sg139
V2017
p673
sg141
F23.0
sg142
VAPR 10, 1994
p674
sg144
V6-11
p675
sg146
VNerlens Noel
p676
sg148
I1610612742
sg149
g506
sg151
g506
sg152
V00
p677
sg154
g261
sg155
I203457
ssI2754
(dp678
g2
VOklahoma State
p679
sg4
V213
p680
sg6
V2017
p681
sg8
F35.0
sg9
VJAN 11, 1982
p682
sg11
V6-4
p683
sg13
VTony Allen
p684
sg15
I1610612740
sg16
V24
p685
sg18
V13
p686
sg20
V00
p687
sg22
VG-F
p688
sg24
I2754
ssI203460
(dp689
g240
VColorado
p690
sg242
V210
p691
sg244
V2017
p692
sg246
F25.0
sg247
VDEC 04, 1991
p693
sg249
V6-7
p694
sg251
VAndre Roberson
p695
sg253
I1610612760
sg254
V21
p696
sg256
g19
sg258
V00
p697
sg260
g56
sg262
I203460
ssI203463
(dp698
g58
VKansas
p699
sg60
V195
p700
sg62
V2017
p701
sg64
F24.0
sg65
VFEB 11, 1993
p702
sg67
V6-5
p703
sg69
VBen McLemore
p704
sg71
I1610612763
sg72
V23
p705
sg74
g19
sg76
V00
p706
sg78
g56
sg79
I203463
ssI1627855
(dp707
g103
VFlorida State
p708
sg105
V215
p709
sg107
V2017
p710
sg109
F25.0
sg110
VAUG 13, 1992
p711
sg112
V6-8
p712
sg114
VOkaro White
p713
sg116
I1610612748
sg117
V15
p714
sg119
g75
sg120
V00
p715
sg122
g23
sg123
I1627855
ssI201936
(dp716
g58
VMemphis
p717
sg60
V220
p718
sg62
V2017
p719
sg64
F28.0
sg65
VSEP 19, 1989
p720
sg67
V6-6
p721
sg69
VTyreke Evans
p722
sg71
I1610612763
sg72
V12
p723
sg74
g132
sg76
V00
p724
sg78
VG-F
p725
sg79
I201936
ssI201937
(dp726
g157
VEl Masnou, Spain
p727
sg159
V190
p728
sg161
V2017
p729
sg163
F27.0
sg164
VOCT 21, 1990
p730
sg166
V6-4
p731
sg168
VRicky Rubio
p732
sg170
I1610612762
sg171
g506
sg173
g372
sg175
V00
p733
sg177
g56
sg178
I201937
ssI1628372
(dp734
g135
VNorth Carolina State
p735
sg137
V195
p736
sg139
V2017
p737
sg141
F19.0
sg142
VNOV 25, 1997
p738
sg144
V6-3
p739
sg146
VDennis Smith Jr.
p740
sg148
I1610612742
sg149
g75
sg151
g257
sg152
V00
p741
sg154
g56
sg155
I1628372
ssI201942
(dp742
g81
VSouthern California
p743
sg83
V220
p744
sg85
V2017
p745
sg87
F28.0
sg88
VAUG 07, 1989
p746
sg90
V6-7
p747
sg92
VDeMar DeRozan
p748
sg94
I1610612761
sg95
V10
p749
sg97
g132
sg98
V00
p750
sg100
g56
sg101
I201942
ssI203481
(dp751
g135
VKansas
p752
sg137
V230
p753
sg139
V2017
p754
sg141
F27.0
sg142
VMAR 07, 1990
p755
sg144
V7-0
p756
sg146
VJeff Withey
p757
sg148
I1610612742
sg149
V17
p758
sg151
g19
sg152
V00
p759
sg154
g261
sg155
I203481
ssI1628378
(dp760
g157
VLouisville
p761
sg159
V215
p762
sg161
V2017
p763
sg163
F21.0
sg164
VSEP 07, 1996
p764
sg166
V6-3
p765
sg168
VDonovan Mitchell
p766
sg170
I1610612762
sg171
V45
p767
sg173
g257
sg175
V00
p768
sg177
g56
sg178
I1628378
ssI201949
(dp769
g103
VWake Forest
p770
sg105
V240
p771
sg107
V2017
p772
sg109
F30.0
sg110
VFEB 20, 1987
p773
sg112
V6-8
p774
sg114
VJames Johnson
p775
sg116
I1610612748
sg117
V16
p776
sg119
g132
sg120
V00
p777
sg122
g23
sg123
I201949
ssI203998
(dp778
g81
Nsg83
V205
p779
sg85
V2017
p780
sg87
F22.0
sg88
VSEP 21, 1995
p781
sg90
V6-9
p782
sg92
VBruno Caboclo
p783
sg94
I1610612761
sg95
g73
sg97
g506
sg98
V00
p784
sg100
g23
sg101
I203998
ssI203999
(dp785
g26
Nsg28
V250
p786
sg30
V2017
p787
sg32
F22.0
sg33
VFEB 19, 1995
p788
sg35
V6-10
p789
sg37
VNikola Jokic
p790
sg39
I1610612743
sg40
V15
p791
sg41
g54
sg43
V00
p792
sg45
g261
sg46
I203999
ssI1628384
(dp793
g81
VIndiana
p794
sg83
V235
p795
sg85
V2017
p796
sg87
F20.0
sg88
VJUL 17, 1997
p797
sg90
V6-8
p798
sg92
VOG Anunoby
p799
sg94
I1610612761
sg95
g506
sg97
g257
sg98
V00
p800
sg100
g23
sg101
I1628384
ssI203489
(dp801
g157
VSouth Dakota State
p802
sg159
V190
p803
sg161
V2017
p804
sg163
F26.0
sg164
VMAY 15, 1991
p805
sg166
V6-4
p806
sg168
VNate Wolters
p807
sg170
I1610612762
sg171
V16
p808
sg173
g54
sg175
V00
p809
sg177
g56
sg178
I203489
ssI1628389
(dp810
g103
VKentucky
p811
sg105
V255
p812
sg107
V2017
p813
sg109
F20.0
sg110
VJUL 18, 1997
p814
sg112
V6-10
p815
sg114
VBam Adebayo
p816
sg116
I1610612748
sg117
V13
p817
sg119
g257
sg120
V00
p818
sg122
VC-F
p819
sg123
I1628389
ssI1628390
(dp820
g240
Nsg242
V184
p821
sg244
V2017
p822
sg246
F19.0
sg247
VMAY 17, 1998
p823
sg249
V6-7
p824
sg251
VTerrance Ferguson
p825
sg253
I1610612760
sg254
V23
p826
sg256
g257
sg258
V00
p827
sg260
g56
sg262
I1628390
ssI1628391
(dp828
g199
VMichigan
p829
sg201
V236
p830
sg203
V2017
p831
sg205
F21.0
sg206
VFEB 19, 1996
p832
sg208
V6-10
p833
sg210
VD.J. Wilson
p834
sg212
I1610612749
sg213
g73
sg215
g257
sg216
V00
p835
sg218
g23
sg219
I1628391
ssI203497
(dp836
g157
VFrance
p837
sg159
V245
p838
sg161
V2017
p839
sg163
F25.0
sg164
VJUN 26, 1992
p840
sg166
V7-1
p841
sg168
VRudy Gobert
p842
sg170
I1610612762
sg171
V27
p843
sg173
g19
sg175
V00
p844
sg177
g261
sg178
I203497
ssI1627883
(dp845
g2
VTexas A&M
p846
sg4
V220
p847
sg6
V2017
p848
sg8
F24.0
sg9
VMAY 27, 1993
p849
sg11
V6-7
p850
sg13
VJalen Jones
p851
sg15
I1610612740
sg16
V12
p852
sg18
g257
sg20
V00
p853
sg22
g23
sg24
I1627883
ssI1628396
(dp854
g157
VNorth Carolina
p855
sg159
V248
p856
sg161
V2017
p857
sg163
F19.0
sg164
VJAN 08, 1998
p858
sg166
V6-10
p859
sg168
VTony Bradley
p860
sg170
I1610612762
sg171
V13
p861
sg173
g257
sg175
V00
p862
sg177
g261
sg178
I1628396
ssI1628397
(dp863
g58
VCalifornia
p864
sg60
V220
p865
sg62
V2017
p866
sg64
F20.0
sg65
VFEB 04, 1997
p867
sg67
V6-10
p868
sg69
VIvan Rabb
p869
sg71
I1610612763
sg72
V10
p870
sg74
g257
sg76
V00
p871
sg78
g23
sg79
I1628397
ssI203503
(dp872
g199
VNew Mexico
p873
sg201
V221
p874
sg203
V2017
p875
sg205
F26.0
sg206
VNOV 10, 1991
p876
sg208
V6-7
p877
sg210
VTony Snell
p878
sg212
I1610612749
sg213
V21
p879
sg215
g19
sg216
V00
p880
sg218
g56
sg219
I203503
ssI1628402
(dp881
g2
VDuke
p882
sg4
V205
p883
sg6
V2017
p884
sg8
F19.0
sg9
VMAY 04, 1998
p885
sg11
V6-3
p886
sg13
VFrank Jackson
p887
sg15
I1610612740
sg16
V15
p888
sg18
g257
sg20
V00
p889
sg22
g56
sg24
I1628402
ssI203507
(dp890
g199
VGreece
p891
sg201
V222
p892
sg203
V2017
p893
sg205
F22.0
sg206
VDEC 06, 1994
p894
sg208
V6-11
p895
sg210
VGiannis Antetokounmpo
p896
sg212
I1610612749
sg213
V34
p897
sg215
g19
sg216
V00
p898
sg218
g23
sg219
I203507
ssI204020
(dp899
g103
VFresno State
p900
sg105
V190
p901
sg107
V2017
p902
sg109
F25.0
sg110
VMAY 07, 1992
p903
sg112
V6-4
p904
sg114
VTyler Johnson
p905
sg116
I1610612748
sg117
g132
sg119
g506
sg120
V00
p906
sg122
g56
sg123
I204020
ssI201973
(dp907
g157
VKinna, Sweden
p908
sg159
V231
p909
sg161
V2017
p910
sg163
F30.0
sg164
VMAR 02, 1987
p911
sg166
V6-10
p912
sg168
VJonas Jerebko
p913
sg170
I1610612762
sg171
g132
sg173
g186
sg175
V00
p914
sg177
g23
sg178
I201973
ssI203512
(dp915
g81
Nsg83
V220
p916
sg85
V2017
p917
sg87
F25.0
sg88
VJUL 26, 1992
p918
sg90
V7-0
p919
sg92
VLucas Nogueira
p920
sg94
I1610612761
sg95
V92
p921
sg97
g506
sg98
V00
p922
sg100
g261
sg101
I203512
ssI203516
(dp923
g58
VLong Beach State
p924
sg60
V210
p925
sg62
V2017
p926
sg64
F27.0
sg65
VJUL 01, 1990
p927
sg67
V6-7
p928
sg69
VJames Ennis III
p929
sg71
I1610612763
sg72
g132
sg74
g506
sg76
V00
p930
sg78
g23
sg79
I203516
ssI203518
(dp931
g240
Nsg242
V190
p932
sg244
V2017
p933
sg246
F24.0
sg247
VAUG 01, 1993
p934
sg249
V6-6
p935
sg251
VAlex Abrines
p936
sg253
I1610612760
sg254
g132
sg256
g75
sg258
V00
p937
sg260
g56
sg262
I203518
ssI1628415
(dp938
g58
VOregon
p939
sg60
V220
p940
sg62
V2017
p941
sg64
F21.0
sg65
VJAN 22, 1996
p942
sg67
V6-6
p943
sg69
VDillon Brooks
p944
sg71
I1610612763
sg72
V24
p945
sg74
g257
sg76
V00
p946
sg78
VF-G
p947
sg79
I1628415
ssI203521
(dp948
g199
VSaint Mary's (CA)
p949
sg201
V198
p950
sg203
V2017
p951
sg205
F27.0
sg206
VSEP 08, 1990
p952
sg208
V6-4
p953
sg210
VMatthew Dellavedova
p954
sg212
I1610612749
sg213
g132
sg215
g19
sg216
V00
p955
sg218
g56
sg219
I203521
ssI1628420
(dp956
g26
VIowa State
p957
sg28
V175
p958
sg30
V2017
p959
sg32
F22.0
sg33
VJUN 27, 1995
p960
sg35
V6-3
p961
sg37
VMonte Morris
p962
sg39
I1610612743
sg40
V11
p963
sg41
g257
sg43
V00
p964
sg45
g56
sg46
I1628420
ssI203526
(dp965
g157
Nsg159
V179
p966
sg161
V2017
p967
sg163
F25.0
sg164
VMAY 19, 1992
p968
sg166
V6-1
p969
sg168
VRaul Neto
p970
sg170
I1610612762
sg171
V25
p971
sg173
g54
sg175
V00
p972
sg177
g56
sg178
I203526
ssI1628424
(dp973
g58
VArizona
p974
sg60
V170
p975
sg62
V2017
p976
sg64
F20.0
sg65
VJUL 04, 1997
p977
sg67
V6-4
p978
sg69
VKobi Simmons
p979
sg71
I1610612763
sg72
g54
sg74
g257
sg76
V00
p980
sg78
g56
sg79
I1628424
ssI1628425
(dp981
g199
VSouthern Methodist
p982
sg201
V230
p983
sg203
V2017
p984
sg205
F22.0
sg206
VFEB 10, 1995
p985
sg208
V6-6
p986
sg210
VSterling Brown
p987
sg212
I1610612749
sg213
V23
p988
sg215
g257
sg216
V00
p989
sg218
g56
sg219
I1628425
ssI1628429
(dp990
g2
VDayton
p991
sg4
V196
p992
sg6
V2017
p993
sg8
F23.0
sg9
VJUL 01, 1994
p994
sg11
V6-5
p995
sg13
VCharles Cooke
p996
sg15
I1610612740
sg16
g19
sg18
g257
sg20
V00
p997
sg22
g56
sg24
I1628429
ssI101139
(dp998
g81
VSkyline HS (TX)
p999
sg83
V225
p1000
sg85
V2017
p1001
sg87
F30.0
sg88
VMAR 18, 1987
p1002
sg90
V6-6
p1003
sg92
VCJ Miles
p1004
sg94
I1610612761
sg95
g53
sg97
V12
p1005
sg98
V00
p1006
sg100
VF-G
p1007
sg101
I101139
ssI201177
(dp1008
g135
VDuke
p1009
sg137
V240
p1010
sg139
V2017
p1011
sg141
F30.0
sg142
VFEB 28, 1987
p1012
sg144
V6-10
p1013
sg146
VJosh McRoberts
p1014
sg148
I1610612742
sg149
V13
p1015
sg151
V10
p1016
sg152
V00
p1017
sg154
VF-C
p1018
sg155
I201177
ssI203546
(dp1019
g2
VBelmont
p1020
sg4
V175
p1021
sg6
V2017
p1022
sg8
F26.0
sg9
VMAR 07, 1991
p1023
sg11
V6-3
p1024
sg13
VIan Clark
p1025
sg15
I1610612740
sg16
g54
sg18
g19
sg20
V00
p1026
sg22
g56
sg24
I203546
ssI203547
(dp1027
g157
VCampbell
p1028
sg159
V205
p1029
sg161
V2017
p1030
sg163
F27.0
sg164
VMAY 26, 1990
p1031
sg166
V6-8
p1032
sg168
VEric Griffin
p1033
sg170
I1610612762
sg171
V17
p1034
sg173
g257
sg175
V00
p1035
sg177
VC-F
p1036
sg178
I203547
ssI204060
(dp1037
g157
Nsg159
V226
p1038
sg161
V2017
p1039
sg163
F30.0
sg164
VOCT 02, 1987
p1040
sg166
V6-8
p1041
sg168
VJoe Ingles
p1042
sg170
I1610612762
sg171
g54
sg173
g506
sg175
V00
p1043
sg177
g23
sg178
I204060
ssI203482
(dp1044
g103
VGonzaga
p1045
sg105
V245
p1046
sg107
V2017
p1047
sg109
F26.0
sg110
VAPR 19, 1991
p1048
sg112
V7-0
p1049
sg114
VKelly Olynyk
p1050
sg116
I1610612748
sg117
g540
sg119
g19
sg120
V00
p1051
sg122
VC-F
p1052
sg123
I203482
ssI203552
(dp1053
g135
VDuke
p1054
sg137
V185
p1055
sg139
V2017
p1056
sg141
F27.0
sg142
VAUG 23, 1990
p1057
sg144
V6-2
p1058
sg146
VSeth Curry
p1059
sg148
I1610612742
sg149
V30
p1060
sg151
g19
sg152
V00
p1061
sg154
g56
sg155
I203552
ssI203485
(dp1062
g81
VNorth Carolina State
p1063
sg83
V189
p1064
sg85
V2017
p1065
sg87
F27.0
sg88
VAUG 26, 1990
p1066
sg90
V6-5
p1067
sg92
VLorenzo Brown
p1068
sg94
I1610612761
sg95
g19
sg97
g506
sg98
V00
p1069
sg100
g56
sg101
I203485
ssI1628467
(dp1070
g135
Nsg137
V220
p1071
sg139
V2017
p1072
sg141
F25.0
sg142
VJAN 29, 1992
p1073
sg144
V6-11
p1074
sg146
VMaxi Kleber
p1075
sg148
I1610612742
sg149
V42
p1076
sg151
g257
sg152
V00
p1077
sg154
g23
sg155
I1628467
ssI203486
(dp1078
g26
VDuke
p1079
sg28
V255
p1080
sg30
V2017
p1081
sg32
F27.0
sg33
VMAR 05, 1990
p1082
sg35
V6-11
p1083
sg37
VMason Plumlee
p1084
sg39
I1610612743
sg40
V24
p1085
sg41
g19
sg43
V00
p1086
sg45
VC-F
p1087
sg46
I203486
ssI1628470
(dp1088
g26
VSouth Carolina Upstate
p1089
sg28
V215
p1090
sg30
V2017
p1091
sg32
F26.0
sg33
VDEC 19, 1990
p1092
sg35
V6-6
p1093
sg37
VTorrey Craig
p1094
sg39
I1610612743
sg40
g506
sg41
g257
sg43
V00
p1095
sg45
VG-F
p1096
sg46
I1628470
ssI1628475
(dp1097
g103
VCentral Florida
p1098
sg105
V210
p1099
sg107
V2017
p1100
sg109
F24.0
sg110
VOCT 14, 1993
p1101
sg112
V6-5
p1102
sg114
VMatt Williams Jr.
p1103
sg116
I1610612748
sg117
V12
p1104
sg119
g257
sg120
V00
p1105
sg122
g56
sg123
I1628475
ssI1628476
(dp1106
g103
VMichigan
p1107
sg105
V185
p1108
sg107
V2017
p1109
sg109
F22.0
sg110
VAPR 03, 1995
p1110
sg112
V6-1
p1111
sg114
VDerrick Walton Jr.
p1112
sg116
I1610612748
sg117
V14
p1113
sg119
g257
sg120
V00
p1114
sg122
g56
sg123
I1628476
ssI203585
(dp1115
g103
VKansas State
p1116
sg105
V200
p1117
sg107
V2017
p1118
sg109
F26.0
sg110
VJUL 29, 1991
p1119
sg112
V6-4
p1120
sg114
VRodney McGruder
p1121
sg116
I1610612748
sg117
V17
p1122
sg119
g75
sg120
V00
p1123
sg122
VG-F
p1124
sg123
I203585
ssI203076
(dp1125
g2
VKentucky
p1126
sg4
V253
p1127
sg6
V2017
p1128
sg8
F24.0
sg9
VMAR 11, 1993
p1129
sg11
V6-10
p1130
sg13
VAnthony Davis
p1131
sg15
I1610612740
sg16
V23
p1132
sg18
g73
sg20
V00
p1133
sg22
VF-C
p1134
sg24
I203076
ssI203079
(dp1135
g103
VSyracuse
p1136
sg105
V215
p1137
sg107
V2017
p1138
sg109
F25.0
sg110
VDEC 10, 1991
p1139
sg112
V6-4
p1140
sg114
VDion Waiters
p1141
sg116
I1610612748
sg117
V11
p1142
sg119
g73
sg120
V00
p1143
sg122
g56
sg123
I203079
ssI1628492
(dp1144
g135
VColorado State
p1145
sg137
V185
p1146
sg139
V2017
p1147
sg141
F23.0
sg142
VNOV 26, 1993
p1148
sg144
V6-4
p1149
sg146
VGian Clavell
p1150
sg148
I1610612742
sg149
g132
sg151
g257
sg152
V00
p1151
sg154
g56
sg155
I1628492
ssI203089
(dp1152
g199
VNorth Carolina
p1153
sg201
V229
p1154
sg203
V2017
p1155
sg205
F26.0
sg206
VDEC 28, 1990
p1156
sg208
V6-11
p1157
sg210
VJohn Henson
p1158
sg212
I1610612749
sg213
V31
p1159
sg215
g73
sg216
V00
p1160
sg218
VF-C
p1161
sg219
I203089
ssI201566
(dp1162
g240
VUCLA
p1163
sg242
V200
p1164
sg244
V2017
p1165
sg246
F28.0
sg247
VNOV 12, 1988
p1166
sg249
V6-3
p1167
sg251
VRussell Westbrook
p1168
sg253
I1610612760
sg254
g53
sg256
g540
sg258
V00
p1169
sg260
g56
sg262
I201566
ssI1891
(dp1170
g199
VArizona
p1171
sg201
V185
p1172
sg203
V2017
p1173
sg205
F40.0
sg206
VSEP 15, 1977
p1174
sg208
V6-2
p1175
sg210
VJason Terry
p1176
sg212
I1610612749
sg213
g506
sg215
V18
p1177
sg216
V00
p1178
sg218
g56
sg219
I1891
ssI203114
(dp1179
g199
VTexas A&M
p1180
sg201
V234
p1181
sg203
V2017
p1182
sg205
F26.0
sg206
VAUG 12, 1991
p1183
sg208
V6-8
p1184
sg210
VKhris Middleton
p1185
sg212
I1610612749
sg213
V22
p1186
sg215
g73
sg216
V00
p1187
sg218
g23
sg219
I203114
ssI203115
(dp1188
g26
VMemphis
p1189
sg28
V190
p1190
sg30
V2017
p1191
sg32
F26.0
sg33
VJAN 06, 1991
p1192
sg35
V6-6
p1193
sg37
VWill Barton
p1194
sg39
I1610612743
sg40
g73
sg41
g73
sg43
V00
p1195
sg45
VG-F
p1196
sg46
I203115
ssI201582
(dp1197
g2
VSaint Etienne, France
p1198
sg4
V248
p1199
sg6
V2017
p1200
sg8
F29.0
sg9
VMAY 06, 1988
p1201
sg11
V7-2
p1202
sg13
VAlexis Ajinca
p1203
sg15
I1610612740
sg16
V42
p1204
sg18
g186
sg20
V00
p1205
sg22
g261
sg24
I201582
ssI200765
(dp1206
g2
VKentucky
p1207
sg4
V186
p1208
sg6
V2017
p1209
sg8
F31.0
sg9
VFEB 22, 1986
p1210
sg11
V6-1
p1211
sg13
VRajon Rondo
p1212
sg15
I1610612740
sg16
g540
sg18
V11
p1213
sg20
V00
p1214
sg22
g56
sg24
I200765
ssI1717
(dp1215
g135
VWurzburg, Germany
p1216
sg137
V245
p1217
sg139
V2017
p1218
sg141
F39.0
sg142
VJUN 19, 1978
p1219
sg144
V7-0
p1220
sg146
VDirk Nowitzki
p1221
sg148
I1610612742
sg149
V41
p1222
sg151
V19
p1223
sg152
V00
p1224
sg154
VF-C
p1225
sg155
I1717
ssI201586
(dp1226
g81
VBrazzaville, Rep. of Congo
p1227
sg83
V235
p1228
sg85
V2017
p1229
sg87
F28.0
sg88
VSEP 18, 1989
p1230
sg90
V6-10
p1231
sg92
VSerge Ibaka
p1232
sg94
I1610612761
sg95
g540
sg97
g132
sg98
V00
p1233
sg100
g23
sg101
I201586
ssI201589
(dp1234
g26
VKansas
p1235
sg28
V235
p1236
sg30
V2017
p1237
sg32
F29.0
sg33
VMAR 25, 1988
p1238
sg35
V6-9
p1239
sg37
VDarrell Arthur
p1240
sg39
I1610612743
sg40
V00
p1241
sg41
g132
sg43
V00
p1242
sg45
g23
sg46
I201589
ssI201961
(dp1243
g103
VNorth Carolina
p1244
sg105
V200
p1245
sg107
V2017
p1246
sg109
F29.0
sg110
VNOV 29, 1987
p1247
sg112
V6-5
p1248
sg114
VWayne Ellington
p1249
sg116
I1610612748
sg117
g54
sg119
g132
sg120
V00
p1250
sg122
g56
sg123
I201961
ssI201596
(dp1251
g58
VKansas
p1252
sg60
V190
p1253
sg62
V2017
p1254
sg64
F31.0
sg65
VMAY 19, 1986
p1255
sg67
V6-2
p1256
sg69
VMario Chalmers
p1257
sg71
I1610612763
sg72
g372
sg74
g132
sg76
V00
p1258
sg78
g56
sg79
I201596
ssI201600
(dp1259
g2
VTurkey
p1260
sg4
V255
p1261
sg6
V2017
p1262
sg8
F31.0
sg9
VJUL 04, 1986
p1263
sg11
V7-0
p1264
sg13
VOmer Asik
p1265
sg15
I1610612740
sg16
g506
sg18
g186
sg20
V00
p1266
sg22
g261
sg24
I201600
ssI1628035
(dp1267
g81
VWisc.-Green Bay
p1268
sg83
V215
p1269
sg85
V2017
p1270
sg87
F25.0
sg88
VSEP 17, 1992
p1271
sg90
V6-8
p1272
sg92
VAlfonzo McKinnie
p1273
sg94
I1610612761
sg95
V34
p1274
sg97
g257
sg98
V00
p1275
sg100
g23
sg101
I1628035
ssI203141
(dp1276
g199
VBosnia
p1277
sg201
V242
p1278
sg203
V2017
p1279
sg205
F32.0
sg206
VSEP 17, 1985
p1280
sg208
V6-9
p1281
sg210
VMirza Teletovic
p1282
sg212
I1610612749
sg213
V35
p1283
sg215
g73
sg216
V00
p1284
sg218
g23
sg219
I203141
ssI201609
(dp1285
g103
VLjubljana, Slovenia
p1286
sg105
V190
p1287
sg107
V2017
p1288
sg109
F31.0
sg110
VMAY 06, 1986
p1289
sg112
V6-3
p1290
sg114
VGoran Dragic
p1291
sg116
I1610612748
sg117
g186
sg119
g540
sg120
V00
p1292
sg122
g56
sg123
I201609
ssI1628399
(dp1293
g26
VSyracuse
p1294
sg28
V220
p1295
sg30
V2017
p1296
sg32
F21.0
sg33
VAPR 09, 1996
p1297
sg35
V6-9
p1298
sg37
VTyler Lydon
p1299
sg39
I1610612743
sg40
V20
p1300
sg41
g257
sg43
V00
p1301
sg45
g23
sg46
I1628399
ssI201144
(dp1302
g58
VOhio State
p1303
sg60
V175
p1304
sg62
V2017
p1305
sg64
F30.0
sg65
VOCT 11, 1987
p1306
sg67
V6-1
p1307
sg69
VMike Conley
p1308
sg71
I1610612763
sg72
V11
p1309
sg74
V10
p1310
sg76
V00
p1311
sg78
g56
sg79
I201144
ssI201148
(dp1312
g58
VNorth Carolina
p1313
sg60
V235
p1314
sg62
V2017
p1315
sg64
F30.0
sg65
VOCT 05, 1987
p1316
sg67
V6-10
p1317
sg69
VBrandan Wright
p1318
sg71
I1610612763
sg72
V34
p1319
sg74
g540
sg76
V00
p1320
sg78
VF-C
p1321
sg79
I201148
ssI202685
(dp1322
g81
VUtena, Lithuania
p1323
sg83
V255
p1324
sg85
V2017
p1325
sg87
F25.0
sg88
VMAY 06, 1992
p1326
sg90
V7-0
p1327
sg92
VJonas Valanciunas
p1328
sg94
I1610612761
sg95
V17
p1329
sg97
g73
sg98
V00
p1330
sg100
g261
sg101
I202685
ssI101109
(dp1331
g240
VNorth Carolina
p1332
sg242
V205
p1333
sg244
V2017
p1334
sg246
F33.0
sg247
VJUN 26, 1984
p1335
sg249
V6-1
p1336
sg251
VRaymond Felton
p1337
sg253
I1610612760
sg254
g54
sg256
V12
p1338
sg258
V00
p1339
sg260
g56
sg262
I101109
ssI202692
(dp1340
g157
VColorado
p1341
sg159
V214
p1342
sg161
V2017
p1343
sg163
F26.0
sg164
VJUL 20, 1991
p1344
sg166
V6-6
p1345
sg168
VAlec Burks
p1346
sg170
I1610612762
sg171
V10
p1347
sg173
g372
sg175
V00
p1348
sg177
g56
sg178
I202692
ssI1628405
(dp1349
g135
VBaylor
p1350
sg137
V230
p1351
sg139
V2017
p1352
sg141
F22.0
sg142
VMAY 04, 1995
p1353
sg144
V6-10
p1354
sg146
VJohnathan Motley
p1355
sg148
I1610612742
sg149
g372
sg151
g257
sg152
V00
p1356
sg154
g23
sg155
I1628405
ssI203084
(dp1357
g135
VNorth Carolina
p1358
sg137
V225
p1359
sg139
V2017
p1360
sg141
F25.0
sg142
VMAY 30, 1992
p1361
sg144
V6-8
p1362
sg146
VHarrison Barnes
p1363
sg148
I1610612742
sg149
V40
p1364
sg151
g73
sg152
V00
p1365
sg154
g23
sg155
I203084
ssI203210
(dp1366
g58
VAlabama
p1367
sg60
V227
p1368
sg62
V2017
p1369
sg64
F27.0
sg65
VJUN 21, 1990
p1370
sg67
V6-9
p1371
sg69
VJaMychal Green
p1372
sg71
I1610612763
sg72
g53
sg74
g506
sg76
V00
p1373
sg78
g23
sg79
I203210
ssI201163
(dp1374
g26
VDePaul
p1375
sg28
V225
p1376
sg30
V2017
p1377
sg32
F30.0
sg33
VMAY 10, 1987
p1378
sg35
V6-9
p1379
sg37
VWilson Chandler
p1380
sg39
I1610612743
sg40
V21
p1381
sg41
g540
sg43
V00
p1382
sg45
g23
sg46
I201163
ssI202702
(dp1383
g26
VMorehead State
p1384
sg28
V228
p1385
sg30
V2017
p1386
sg32
F27.0
sg33
VNOV 19, 1989
p1387
sg35
V6-8
p1388
sg37
VKenneth Faried
p1389
sg39
I1610612743
sg40
V35
p1390
sg41
g372
sg43
V00
p1391
sg45
g23
sg46
I202702
ssI1628408
(dp1392
g240
VSouth Carolina
p1393
sg242
V205
p1394
sg244
V2017
p1395
sg246
F21.0
sg247
VOCT 25, 1996
p1396
sg249
V6-6
p1397
sg251
VPJ Dozier
p1398
sg253
I1610612760
sg254
V35
p1399
sg256
g257
sg258
V00
p1400
sg260
g56
sg262
I1628408
ssI202713
(dp1401
g240
VDuke
p1402
sg242
V228
p1403
sg244
V2017
p1404
sg246
F29.0
sg247
VMAY 04, 1988
p1405
sg249
V6-8
p1406
sg251
VKyle Singler
p1407
sg253
I1610612760
sg254
V15
p1408
sg256
g73
sg258
V00
p1409
sg260
g23
sg262
I202713
ssI202718
(dp1410
g58
VFlorida
p1411
sg60
V230
p1412
sg62
V2017
p1413
sg64
F29.0
sg65
VOCT 25, 1988
p1414
sg67
V6-10
p1415
sg69
VChandler Parsons
p1416
sg71
I1610612763
sg72
V25
p1417
sg74
g372
sg76
V00
p1418
sg78
g23
sg79
I202718
ssI201188
(dp1419
g58
VBarcelona, Spain
p1420
sg60
V255
p1421
sg62
V2017
p1422
sg64
F32.0
sg65
VJAN 29, 1985
p1423
sg67
V7-1
p1424
sg69
VMarc Gasol
p1425
sg71
I1610612763
sg72
V33
p1426
sg74
g540
sg76
V00
p1427
sg78
g261
sg79
I201188
ssI202732
(dp1428
g199
VKentucky
p1429
sg201
V209
p1430
sg203
V2017
p1431
sg205
F29.0
sg206
VMAR 31, 1988
p1432
sg208
V6-6
p1433
sg210
VDeAndre Liggins
p1434
sg212
I1610612749
sg213
V25
p1435
sg215
g19
sg216
V00
p1436
sg218
g56
sg219
I202732
ssI202734
(dp1437
g2
VPurdue
p1438
sg4
V191
p1439
sg6
V2017
p1440
sg8
F28.0
sg9
VFEB 25, 1989
p1441
sg11
V6-4
p1442
sg13
VE'Twaun Moore
p1443
sg15
I1610612740
sg16
V55
p1444
sg18
g372
sg20
V00
p1445
sg22
g56
sg24
I202734
ssI2546
(dp1446
g240
VSyracuse
p1447
sg242
V240
p1448
sg244
V2017
p1449
sg246
F33.0
sg247
VMAY 29, 1984
p1450
sg249
V6-8
p1451
sg251
VCarmelo Anthony
p1452
sg253
I1610612760
sg254
g186
sg256
V14
p1453
sg258
V00
p1454
sg260
g23
sg262
I2546
ssI1626196
(dp1455
g103
VTennessee
p1456
sg105
V200
p1457
sg107
V2017
p1458
sg109
F24.0
sg110
VSEP 15, 1993
p1459
sg112
V6-6
p1460
sg114
VJosh Richardson
p1461
sg116
I1610612748
sg117
g53
sg119
g54
sg120
V00
p1462
sg122
g23
sg123
I1626196
ssI2555
(dp1463
g240
VKansas
p1464
sg242
V255
p1465
sg244
V2017
p1466
sg246
F37.0
sg247
VOCT 26, 1980
p1467
sg249
V6-10
p1468
sg251
VNick Collison
p1469
sg253
I1610612760
sg254
g19
sg256
V13
p1470
sg258
V00
p1471
sg260
g23
sg262
I2555
ss.