(dp0
I203524
(dp1
VSCHOOL
p2
VArizona
p3
sVWEIGHT
p4
V225
p5
sVSEASON
p6
V2017
p7
sVAGE
p8
F26.0
sVBIRTH_DATE
p9
VMAR 18, 1991
p10
sVHEIGHT
p11
V6-7
p12
sVPLAYER
p13
VSolomon Hill
p14
sVTeamID
p15
I1610612740
sVNUM
p16
V44
p17
sVEXP
p18
V4
p19
sVLeagueID
p20
V00
p21
sVPOSITION
p22
VF
p23
sVPLAYER_ID
p24
I203524
ssI1628393
(dp25
VSCHOOL
p26
VOklahoma State
p27
sVWEIGHT
p28
V190
p29
sVSEASON
p30
V2017
p31
sVAGE
p32
F21.0
sVBIRTH_DATE
p33
VJUL 26, 1996
p34
sVHEIGHT
p35
V6-0
p36
sVPLAYER
p37
VJawun Evans
p38
sVTeamID
p39
I1610612746
sVNUM
p40
V1
p41
sVEXP
p42
VR
p43
sVLeagueID
p44
V00
p45
sVPOSITION
p46
VG
p47
sVPLAYER_ID
p48
I1628393
ssI200794
(dp49
VSCHOOL
p50
VLouisiana Tech
p51
sVWEIGHT
p52
V246
p53
sVSEASON
p54
V2017
p55
sVAGE
p56
F32.0
sVBIRTH_DATE
p57
VFEB 10, 1985
p58
sVHEIGHT
p59
V6-8
p60
sVPLAYER
p61
VPaul Millsap
p62
sVTeamID
p63
I1610612743
sVNUM
p64
g19
sVEXP
p65
V11
p66
sVLeagueID
p67
V00
p68
sVPOSITION
p69
g23
sVPLAYER_ID
p70
I200794
ssI1626144
(dp71
g50
Nsg52
V200
p72
sg54
V2017
p73
sg56
F21.0
sg57
VMAR 05, 1996
p74
sg59
V6-5
p75
sg61
VEmmanuel Mudiay
p76
sg63
I1610612743
sg64
V0
p77
sg65
V2
p78
sg67
V00
p79
sg69
g47
sg70
I1626144
ssI1627739
(dp80
VSCHOOL
p81
VProvidence
p82
sVWEIGHT
p83
V210
p84
sVSEASON
p85
V2017
p86
sVAGE
p87
F23.0
sVBIRTH_DATE
p88
VMAR 18, 1994
p89
sVHEIGHT
p90
V6-4
p91
sVPLAYER
p92
VKris Dunn
p93
sVTeamID
p94
I1610612741
sVNUM
p95
V32
p96
sVEXP
p97
g41
sVLeagueID
p98
V00
p99
sVPOSITION
p100
g47
sVPLAYER_ID
p101
I1627739
ssI1626149
(dp102
g26
VLouisville
p103
sg28
V240
p104
sg30
V2017
p105
sg32
F23.0
sg33
VJAN 26, 1994
p106
sg35
V6-8
p107
sg37
VMontrezl Harrell
p108
sg39
I1610612746
sg40
V5
p109
sg42
g78
sg44
V00
p110
sg46
VF-C
p111
sg48
I1626149
ssI1626150
(dp112
VSCHOOL
p113
VKentucky
p114
sVWEIGHT
p115
V213
p116
sVSEASON
p117
V2017
p118
sVAGE
p119
F23.0
sVBIRTH_DATE
p120
VOCT 28, 1994
p121
sVHEIGHT
p122
V6-6
p123
sVPLAYER
p124
VAndrew Harrison
p125
sVTeamID
p126
I1610612763
sVNUM
p127
g109
sVEXP
p128
g41
sVLeagueID
p129
V00
p130
sVPOSITION
p131
g47
sVPLAYER_ID
p132
I1626150
ssI1626153
(dp133
VSCHOOL
p134
VUtah
p135
sVWEIGHT
p136
V190
p137
sVSEASON
p138
V2017
p139
sVAGE
p140
F25.0
sVBIRTH_DATE
p141
VAPR 26, 1992
p142
sVHEIGHT
p143
V6-5
p144
sVPLAYER
p145
VDelon Wright
p146
sVTeamID
p147
I1610612761
sVNUM
p148
V55
p149
sVEXP
p150
g78
sVLeagueID
p151
V00
p152
sVPOSITION
p153
g47
sVPLAYER_ID
p154
I1626153
ssI1626155
(dp155
g26
VWisconsin
p156
sg28
V230
p157
sg30
V2017
p158
sg32
F23.0
sg33
VMAY 08, 1994
p159
sg35
V6-9
p160
sg37
VSam Dekker
p161
sg39
I1610612746
sg40
V7
p162
sg42
g78
sg44
V00
p163
sg46
g23
sg48
I1626155
ssI1626159
(dp164
VSCHOOL
p165
VDuke
p166
sVWEIGHT
p167
V225
p168
sVSEASON
p169
V2017
p170
sVAGE
p171
F21.0
sVBIRTH_DATE
p172
VMAR 26, 1996
p173
sVHEIGHT
p174
V6-7
p175
sVPLAYER
p176
VJustise Winslow
p177
sVTeamID
p178
I1610612748
sVNUM
p179
V20
p180
sVEXP
p181
g78
sVLeagueID
p182
V00
p183
sVPOSITION
p184
g23
sVPLAYER_ID
p185
I1626159
ssI201967
(dp186
g2
VVillanova
p187
sg4
V230
p188
sg6
V2017
p189
sg8
F30.0
sg9
VAPR 22, 1987
p190
sg11
V6-8
p191
sg13
VDante Cunningham
p192
sg15
I1610612740
sg16
V33
p193
sg18
V8
p194
sg20
V00
p195
sg22
g23
sg24
I201967
ssI1627827
(dp196
VSCHOOL
p197
VFlorida
p198
sVWEIGHT
p199
V220
p200
sVSEASON
p201
V2017
p202
sVAGE
p203
F24.0
sVBIRTH_DATE
p204
VMAY 04, 1993
p205
sVHEIGHT
p206
V6-8
p207
sVPLAYER
p208
VDorian Finney-Smith
p209
sVTeamID
p210
I1610612742
sVNUM
p211
V10
p212
sVEXP
p213
g41
sVLeagueID
p214
V00
p215
sVPOSITION
p216
g23
sVPLAYER_ID
p217
I1627827
ssI200757
(dp218
VSCHOOL
p219
VVevey, Switzerland
p220
sVWEIGHT
p221
V220
p222
sVSEASON
p223
V2017
p224
sVAGE
p225
F33.0
sVBIRTH_DATE
p226
VMAY 02, 1984
p227
sVHEIGHT
p228
V6-7
p229
sVPLAYER
p230
VThabo Sefolosha
p231
sVTeamID
p232
I1610612762
sVNUM
p233
V22
p234
sVEXP
p235
V11
p236
sVLeagueID
p237
V00
p238
sVPOSITION
p239
g23
sVPLAYER_ID
p240
I200757
ssI1626166
(dp241
g81
VMurray State
p242
sg83
V185
p243
sg85
V2017
p244
sg87
F23.0
sg88
VAUG 08, 1994
p245
sg90
V6-3
p246
sg92
VCameron Payne
p247
sg94
I1610612741
sg95
V22
p248
sg97
g78
sg98
V00
p249
sg100
g47
sg101
I1626166
ssI1626168
(dp250
g50
VKentucky
p251
sg52
V234
p252
sg54
V2017
p253
sg56
F22.0
sg57
VNOV 05, 1995
p254
sg59
V6-10
p255
sg61
VTrey Lyles
p256
sg63
I1610612743
sg64
g162
sg65
g78
sg67
V00
p257
sg69
g23
sg70
I1626168
ssI2617
(dp258
g165
VFlorida
p259
sg167
V235
p260
sg169
V2017
p261
sg171
F37.0
sg172
VJUN 09, 1980
p262
sg174
V6-8
p263
sg176
VUdonis Haslem
p264
sg178
I1610612748
sg179
V40
p265
sg181
V14
p266
sg182
V00
p267
sg184
g23
sg185
I2617
ssI1626170
(dp268
g81
VNotre Dame
p269
sg83
V198
p270
sg85
V2017
p271
sg87
F25.0
sg88
VOCT 09, 1992
p272
sg90
V6-4
p273
sg92
VJerian Grant
p274
sg94
I1610612741
sg95
g78
sg97
g78
sg98
V00
p275
sg100
g47
sg101
I1626170
ssI1626171
(dp276
g81
VArkansas
p277
sg83
V248
p278
sg85
V2017
p279
sg87
F22.0
sg88
VFEB 10, 1995
p280
sg90
V6-11
p281
sg92
VBobby Portis
p282
sg94
I1610612741
sg95
g109
sg97
g78
sg98
V00
p283
sg100
g23
sg101
I1626171
ssI1626173
(dp284
VSCHOOL
p285
VUNLV
p286
sVWEIGHT
p287
V202
p288
sVSEASON
p289
V2017
p290
sVAGE
p291
F21.0
sVBIRTH_DATE
p292
VAUG 16, 1996
p293
sVHEIGHT
p294
V6-6
p295
sVPLAYER
p296
VRashad Vaughn
p297
sVTeamID
p298
I1610612749
sVNUM
p299
V20
p300
sVEXP
p301
g78
sVLeagueID
p302
V00
p303
sVPOSITION
p304
g47
sVPLAYER_ID
p305
I1626173
ssI1626175
(dp306
g165
VLouisiana State
p307
sg167
V235
p308
sg169
V2017
p309
sg171
F23.0
sg172
VJUL 09, 1994
p310
sg174
V6-8
p311
sg176
VJordan Mickey
p312
sg178
I1610612748
sg179
V25
p313
sg181
g78
sg182
V00
p314
sg184
VC-F
p315
sg185
I1626175
ssI200768
(dp316
g134
VVillanova
p317
sg136
V205
p318
sg138
V2017
p319
sg140
F31.0
sg141
VMAR 25, 1986
p320
sg143
V6-0
p321
sg145
VKyle Lowry
p322
sg147
I1610612761
sg148
g162
sg150
V11
p323
sg151
V00
p324
sg153
g47
sg154
I200768
ssI1626177
(dp325
VSCHOOL
p326
VKentucky
p327
sVWEIGHT
p328
V255
p329
sVSEASON
p330
V2017
p331
sVAGE
p332
F22.0
sVBIRTH_DATE
p333
VSEP 22, 1995
p334
sVHEIGHT
p335
V7-0
p336
sVPLAYER
p337
VDakari Johnson
p338
sVTeamID
p339
I1610612760
sVNUM
p340
V44
p341
sVEXP
p342
g43
sVLeagueID
p343
V00
p344
sVPOSITION
p345
VC
p346
sVPLAYER_ID
p347
I1626177
ssI1626181
(dp348
g134
VUCLA
p349
sg136
V215
p350
sg138
V2017
p351
sg140
F24.0
sg141
VMAY 25, 1993
p352
sg143
V6-4
p353
sg145
VNorman Powell
p354
sg147
I1610612761
sg148
V24
p355
sg150
g78
sg151
V00
p356
sg153
VF-G
p357
sg154
I1626181
ssI1626185
(dp358
g113
VLouisiana State
p359
sg115
V239
p360
sg117
V2017
p361
sg119
F23.0
sg120
VMAY 24, 1994
p362
sg122
V6-10
p363
sg124
VJarell Martin
p364
sg126
I1610612763
sg127
g41
sg128
g78
sg129
V00
p365
sg131
g23
sg132
I1626185
ssI202083
(dp366
g197
VMarquette
p367
sg199
V220
p368
sg201
V2017
p369
sg203
F31.0
sg204
VOCT 14, 1986
p370
sg206
V6-5
p371
sg208
VWesley Matthews
p372
sg210
I1610612742
sg211
V23
p373
sg213
g194
sg214
V00
p374
sg216
VG-F
p375
sg217
I202083
ssI202324
(dp376
g219
VGeorgia Tech
p377
sg221
V265
p378
sg223
V2017
p379
sg225
F26.0
sg226
VJUL 15, 1991
p380
sg228
V6-10
p381
sg230
VDerrick Favors
p382
sg232
I1610612762
sg233
V15
p383
sg235
g162
sg237
V00
p384
sg239
VF-C
p385
sg240
I202324
ssI202325
(dp386
g26
VSyracuse
p387
sg28
V215
p388
sg30
V2017
p389
sg32
F30.0
sg33
VJUL 11, 1987
p390
sg35
V6-7
p391
sg37
VWesley Johnson
p392
sg39
I1610612746
sg40
V33
p393
sg42
g162
sg44
V00
p394
sg46
g23
sg48
I202325
ssI202326
(dp395
g2
VKentucky
p396
sg4
V270
p397
sg6
V2017
p398
sg8
F27.0
sg9
VAUG 13, 1990
p399
sg11
V6-11
p400
sg13
VDeMarcus Cousins
p401
sg15
I1610612740
sg16
g77
sg18
g162
sg20
V00
p402
sg22
g346
sg24
I202326
ssI202327
(dp403
g219
VBaylor
p404
sg221
V245
p405
sg223
V2017
p406
sg225
F30.0
sg226
VMAY 20, 1987
p407
sg228
V6-10
p408
sg230
VEkpe Udoh
p409
sg232
I1610612762
sg233
V33
p410
sg235
g109
sg237
V00
p411
sg239
VC-F
p412
sg240
I202327
ssI1627736
(dp413
g50
VFlorida State
p414
sg52
V196
p415
sg54
V2017
p416
sg56
F20.0
sg57
VNOV 26, 1996
p417
sg59
V6-5
p418
sg61
VMalik Beasley
p419
sg63
I1610612743
sg64
V25
p420
sg65
g41
sg67
V00
p421
sg69
g47
sg70
I1627736
ssI1627738
(dp422
g113
VMichigan State
p423
sg115
V237
p424
sg117
V2017
p425
sg119
F20.0
sg120
VDEC 02, 1996
p426
sg122
V6-11
p427
sg124
VDeyonta Davis
p428
sg126
I1610612763
sg127
V21
p429
sg128
g41
sg129
V00
p430
sg131
VC-F
p431
sg132
I1627738
ssI202331
(dp432
g326
VFresno State
p433
sg328
V220
p434
sg330
V2017
p435
sg332
F27.0
sg333
VMAY 02, 1990
p436
sg335
V6-9
p437
sg337
VPaul George
p438
sg339
I1610612760
sg340
V13
p439
sg342
g162
sg343
V00
p440
sg345
g23
sg347
I202331
ssI1626205
(dp441
g113
VTexas-El Paso
p442
sg115
V208
p443
sg117
V2017
p444
sg119
F23.0
sg120
VAUG 05, 1994
p445
sg122
V6-8
p446
sg124
VVincent Hunter
p447
sg126
I1610612763
sg127
V32
p448
sg128
g43
sg129
V00
p449
sg131
g23
sg132
I1626205
ssI202335
(dp450
g326
VKentucky
p451
sg328
V230
p452
sg330
V2017
p453
sg332
F28.0
sg333
VMAR 14, 1989
p454
sg335
V6-9
p455
sg337
VPatrick Patterson
p456
sg339
I1610612760
sg340
V54
p457
sg342
g162
sg343
V00
p458
sg345
g23
sg347
I202335
ssI1627744
(dp459
g26
VNorth Carolina
p460
sg28
V230
p461
sg30
V2017
p462
sg32
F23.0
sg33
VJUN 27, 1994
p463
sg35
V6-10
p464
sg37
VBrice Johnson
p465
sg39
I1610612746
sg40
V11
p466
sg42
g41
sg44
V00
p467
sg46
g23
sg48
I1627744
ssI202339
(dp468
g285
VKentucky
p469
sg287
V205
p470
sg289
V2017
p471
sg291
F27.0
sg292
VDEC 09, 1989
p472
sg294
V6-1
p473
sg296
VEric Bledsoe
p474
sg298
I1610612749
sg299
V6
p475
sg301
g162
sg302
V00
p476
sg304
g47
sg305
I202339
ssI1627748
(dp477
g285
Nsg287
V223
p478
sg289
V2017
p479
sg291
F20.0
sg292
VFEB 25, 1997
p480
sg294
V7-1
p481
sg296
VThon Maker
p482
sg298
I1610612749
sg299
g162
sg301
g41
sg302
V00
p483
sg304
VC-F
p484
sg305
I1627748
ssI1627750
(dp485
g50
VKentucky
p486
sg52
V207
p487
sg54
V2017
p488
sg56
F20.0
sg57
VFEB 23, 1997
p489
sg59
V6-4
p490
sg61
VJamal Murray
p491
sg63
I1610612743
sg64
V27
p492
sg65
g41
sg67
V00
p493
sg69
g47
sg70
I1627750
ssI1627751
(dp494
g134
VUtah
p495
sg136
V230
p496
sg138
V2017
p497
sg140
F22.0
sg141
VOCT 15, 1995
p498
sg143
V7-0
p499
sg145
VJakob Poeltl
p500
sg147
I1610612761
sg148
V42
p501
sg150
g41
sg151
V00
p502
sg153
g346
sg154
I1627751
ssI202347
(dp503
g81
VWashington
p504
sg83
V225
p505
sg85
V2017
p506
sg87
F29.0
sg88
VMAR 10, 1988
p507
sg90
V6-7
p508
sg92
VQuincy Pondexter
p509
sg94
I1610612741
sg95
V20
p510
sg97
g109
sg98
V00
p511
sg100
g47
sg101
I202347
ssI1626220
(dp512
g219
VBaylor
p513
sg221
V226
p514
sg223
V2017
p515
sg225
F24.0
sg226
VJUN 05, 1993
p516
sg228
V6-6
p517
sg230
VRoyce O'Neale
p518
sg232
I1610612762
sg233
V23
p519
sg235
g43
sg237
V00
p520
sg239
g23
sg240
I1626220
ssI1627762
(dp521
g285
VWeber State
p522
sg287
V235
p523
sg289
V2017
p524
sg291
F23.0
sg292
VJAN 28, 1994
p525
sg294
V6-9
p526
sg296
VJoel Bolomboy
p527
sg298
I1610612749
sg299
V24
p528
sg301
g41
sg302
V00
p529
sg304
VF-C
p530
sg305
I1627762
ssI202355
(dp531
g165
VMarshall
p532
sg167
V265
p533
sg169
V2017
p534
sg171
F28.0
sg172
VJUN 13, 1989
p535
sg174
V7-0
p536
sg176
VHassan Whiteside
p537
sg178
I1610612748
sg179
V21
p538
sg181
g109
sg182
V00
p539
sg184
g346
sg185
I202355
ssI1627767
(dp540
g2
VKansas
p541
sg4
V220
p542
sg6
V2017
p543
sg8
F21.0
sg9
VSEP 13, 1996
p544
sg11
V6-9
p545
sg13
VCheick Diallo
p546
sg15
I1610612740
sg16
V13
p547
sg18
g41
sg20
V00
p548
sg22
g23
sg24
I1627767
ssI203897
(dp549
g81
VUCLA
p550
sg83
V185
p551
sg85
V2017
p552
sg87
F22.0
sg88
VMAR 10, 1995
p553
sg90
V6-5
p554
sg92
VZach LaVine
p555
sg94
I1610612741
sg95
g194
sg97
V3
p556
sg98
V00
p557
sg100
g47
sg101
I203897
ssI200826
(dp558
g197
VNortheastern
p559
sg199
V185
p560
sg201
V2017
p561
sg203
F33.0
sg204
VJUN 26, 1984
p562
sg206
V6-0
p563
sg208
VJ.J. Barea
p564
sg210
I1610612742
sg211
g109
sg213
V11
p565
sg214
V00
p566
sg216
g47
sg217
I200826
ssI1627772
(dp567
g326
VConnecticut
p568
sg328
V195
p569
sg330
V2017
p570
sg332
F22.0
sg333
VAUG 08, 1995
p571
sg335
V6-7
p572
sg337
VDaniel Hamilton
p573
sg339
I1610612760
sg340
V25
p574
sg342
g43
sg343
V00
p575
sg345
g47
sg347
I1627772
ssI1627773
(dp576
g165
VPurdue
p577
sg167
V260
p578
sg169
V2017
p579
sg171
F25.0
sg172
VAUG 27, 1992
p580
sg174
V7-0
p581
sg176
VAJ Hammons
p582
sg178
I1610612748
sg179
g19
sg181
g41
sg182
V00
p583
sg184
g346
sg185
I1627773
ssI1627780
(dp584
g285
VOregon State
p585
sg287
V190
p586
sg289
V2017
p587
sg291
F24.0
sg292
VDEC 01, 1992
p588
sg294
V6-3
p589
sg296
VGary Payton II
p590
sg298
I1610612749
sg299
g77
sg301
g41
sg302
V00
p591
sg304
g47
sg305
I1627780
ssI203500
(dp592
g326
VPittsburgh
p593
sg328
V255
p594
sg330
V2017
p595
sg332
F24.0
sg333
VJUL 20, 1993
p596
sg335
V7-0
p597
sg337
VSteven Adams
p598
sg339
I1610612760
sg340
V12
p599
sg342
g19
sg343
V00
p600
sg345
g346
sg347
I203500
ssI1627782
(dp601
g113
VKansas
p602
sg115
V230
p603
sg117
V2017
p604
sg119
F23.0
sg120
VSEP 30, 1994
p605
sg122
V6-5
p606
sg124
VWayne Selden
p607
sg126
I1610612763
sg127
g162
sg128
g41
sg129
V00
p608
sg131
VG-F
p609
sg132
I1627782
ssI1627783
(dp610
g134
VNew Mexico State
p611
sg136
V230
p612
sg138
V2017
p613
sg140
F23.0
sg141
VAPR 02, 1994
p614
sg143
V6-9
p615
sg145
VPascal Siakam
p616
sg147
I1610612761
sg148
V43
p617
sg150
g41
sg151
V00
p618
sg153
g23
sg154
I1627783
ssI1627756
(dp619
g81
VMichigan State
p620
sg83
V214
p621
sg85
V2017
p622
sg87
F23.0
sg88
VNOV 16, 1993
p623
sg90
V6-6
p624
sg92
VDenzel Valentine
p625
sg94
I1610612741
sg95
V45
p626
sg97
g41
sg98
V00
p627
sg100
g23
sg101
I1627756
ssI203914
(dp628
g50
VMichigan State
p629
sg52
V210
p630
sg54
V2017
p631
sg56
F23.0
sg57
VSEP 14, 1994
p632
sg59
V6-4
p633
sg61
VGary Harris
p634
sg63
I1610612743
sg64
V14
p635
sg65
g556
sg67
V00
p636
sg69
g47
sg70
I203914
ssI203918
(dp637
g219
VDuke
p638
sg221
V206
p639
sg223
V2017
p640
sg225
F25.0
sg226
VOCT 20, 1992
p641
sg228
V6-8
p642
sg230
VRodney Hood
p643
sg232
I1610612762
sg233
g109
sg235
g556
sg237
V00
p644
sg239
g47
sg240
I203918
ssI1626257
(dp645
g197
Nsg199
V235
p646
sg201
V2017
p647
sg203
F31.0
sg204
VJUN 15, 1986
p648
sg206
V7-2
p649
sg208
VSalah Mejri
p650
sg210
I1610612742
sg211
V50
p651
sg213
g78
sg214
V00
p652
sg216
g346
sg217
I1626257
ssI1626259
(dp653
g134
VHoly Cross
p654
sg136
V210
p655
sg138
V2017
p656
sg140
F24.0
sg141
VMAR 06, 1993
p657
sg143
V6-7
p658
sg145
VMalcolm Miller
p659
sg147
I1610612761
sg148
V13
p660
sg150
g43
sg151
V00
p661
sg153
g23
sg154
I1626259
ssI203924
(dp662
g326
VSyracuse
p663
sg328
V220
p664
sg330
V2017
p665
sg332
F23.0
sg333
VMAR 12, 1994
p666
sg335
V6-9
p667
sg337
VJerami Grant
p668
sg339
I1610612760
sg340
V9
p669
sg342
g556
sg343
V00
p670
sg345
g23
sg347
I203924
ssI2207
(dp671
g219
VArkansas
p672
sg221
V240
p673
sg223
V2017
p674
sg225
F36.0
sg226
VJUN 29, 1981
p675
sg228
V6-7
p676
sg230
VJoe Johnson
p677
sg232
I1610612762
sg233
g475
sg235
V16
p678
sg237
V00
p679
sg239
VG-F
p680
sg240
I2207
ssI2210
(dp681
g50
VArizona
p682
sg52
V233
p683
sg54
V2017
p684
sg56
F37.0
sg57
VJUN 21, 1980
p685
sg59
V6-7
p686
sg61
VRichard Jefferson
p687
sg63
I1610612743
sg64
V22
p688
sg65
V16
p689
sg67
V00
p690
sg69
g23
sg70
I2210
ssI203939
(dp691
g197
VStanford
p692
sg199
V240
p693
sg201
V2017
p694
sg203
F26.0
sg204
VJUL 20, 1991
p695
sg206
V6-11
p696
sg208
VDwight Powell
p697
sg210
I1610612742
sg211
g162
sg213
g556
sg214
V00
p698
sg216
VF-C
p699
sg217
I203939
ssI1627812
(dp700
g197
VIndiana
p701
sg199
V180
p702
sg201
V2017
p703
sg203
F24.0
sg204
VMAY 09, 1993
p704
sg206
V6-0
p705
sg208
VYogi Ferrell
p706
sg210
I1610612742
sg211
V11
p707
sg213
g41
sg214
V00
p708
sg216
g47
sg217
I1627812
ssI203121
(dp709
g2
VKentucky
p710
sg4
V225
p711
sg6
V2017
p712
sg8
F27.0
sg9
VMAR 21, 1990
p713
sg11
V6-8
p714
sg13
VDarius Miller
p715
sg15
I1610612740
sg16
V21
p716
sg18
g556
sg20
V00
p717
sg22
g23
sg24
I203121
ssI2734
(dp718
g197
VWisconsin
p719
sg199
V185
p720
sg201
V2017
p721
sg203
F34.0
sg204
VFEB 27, 1983
p722
sg206
V6-3
p723
sg208
VDevin Harris
p724
sg210
I1610612742
sg211
V34
p725
sg213
V13
p726
sg214
V00
p727
sg216
g47
sg217
I2734
ssI1627823
(dp728
g50
Nsg52
V230
p729
sg54
V2017
p730
sg56
F22.0
sg57
VSEP 28, 1995
p731
sg59
V6-9
p732
sg61
VJuan Hernangomez
p733
sg63
I1610612743
sg64
V41
p734
sg65
g41
sg67
V00
p735
sg69
g23
sg70
I1627823
ssI201950
(dp736
g2
VUCLA
p737
sg4
V205
p738
sg6
V2017
p739
sg8
F27.0
sg9
VJUN 12, 1990
p740
sg11
V6-4
p741
sg13
VJrue Holiday
p742
sg15
I1610612740
sg16
V11
p743
sg18
g194
sg20
V00
p744
sg22
g47
sg24
I201950
ssI203953
(dp745
g285
VDuke
p746
sg287
V250
p747
sg289
V2017
p748
sg291
F22.0
sg292
VMAR 15, 1995
p749
sg294
V6-8
p750
sg296
VJabari Parker
p751
sg298
I1610612749
sg299
V12
p752
sg301
g556
sg302
V00
p753
sg304
g23
sg305
I203953
ssI201933
(dp754
g26
VOklahoma
p755
sg28
V251
p756
sg30
V2017
p757
sg32
F28.0
sg33
VMAR 16, 1989
p758
sg35
V6-10
p759
sg37
VBlake Griffin
p760
sg39
I1610612746
sg40
V32
p761
sg42
g162
sg44
V00
p762
sg46
g23
sg48
I201933
ssI1627763
(dp763
g285
VVirginia
p764
sg287
V215
p765
sg289
V2017
p766
sg291
F24.0
sg292
VDEC 11, 1992
p767
sg294
V6-5
p768
sg296
VMalcolm Brogdon
p769
sg298
I1610612749
sg299
V13
p770
sg301
g41
sg302
V00
p771
sg304
g47
sg305
I1627763
ssI203957
(dp772
g219
Nsg221
V190
p773
sg223
V2017
p774
sg225
F22.0
sg226
VJUL 13, 1995
p775
sg228
V6-6
p776
sg230
VDante Exum
p777
sg232
I1610612762
sg233
V11
p778
sg235
g78
sg237
V00
p779
sg239
g47
sg240
I203957
ssI1627832
(dp780
g134
VWichita State
p781
sg136
V195
p782
sg138
V2017
p783
sg140
F23.0
sg141
VFEB 25, 1994
p784
sg143
V6-0
p785
sg145
VFred VanVleet
p786
sg147
I1610612761
sg148
V23
p787
sg150
g41
sg151
V00
p788
sg153
g47
sg154
I1627832
ssI203962
(dp789
g326
VStanford
p790
sg328
V230
p791
sg330
V2017
p792
sg332
F25.0
sg333
VDEC 19, 1991
p793
sg335
V6-7
p794
sg337
VJosh Huestis
p795
sg339
I1610612760
sg340
V34
p796
sg342
g78
sg343
V00
p797
sg345
g23
sg347
I203962
ssI1627835
(dp798
g81
Nsg83
V226
p799
sg85
V2017
p800
sg87
F23.0
sg88
VFEB 18, 1994
p801
sg90
V6-8
p802
sg92
VPaul Zipser
p803
sg94
I1610612741
sg95
V16
p804
sg97
g41
sg98
V00
p805
sg100
g23
sg101
I1627835
ssI2749
(dp806
g2
VSaint Joseph's
p807
sg4
V190
p808
sg6
V2017
p809
sg8
F35.0
sg9
VFEB 09, 1982
p810
sg11
V6-0
p811
sg13
VJameer Nelson
p812
sg15
I1610612740
sg16
V14
p813
sg18
V13
p814
sg20
V00
p815
sg22
g47
sg24
I2749
ssI203966
(dp816
g26
VMarquette
p817
sg28
V229
p818
sg30
V2017
p819
sg32
F26.0
sg33
VNOV 21, 1990
p820
sg35
V6-7
p821
sg37
VJamil Wilson
p822
sg39
I1610612746
sg40
V13
p823
sg42
g43
sg44
V00
p824
sg46
g23
sg48
I203966
ssI1628021
(dp825
g81
VCal Poly-S.L.O.
p826
sg83
V209
p827
sg85
V2017
p828
sg87
F24.0
sg88
VJAN 14, 1993
p829
sg90
V6-4
p830
sg92
VDavid Nwaba
p831
sg94
I1610612741
sg95
V11
p832
sg97
g41
sg98
V00
p833
sg100
g47
sg101
I1628021
ssI203457
(dp834
g197
VKentucky
p835
sg199
V220
p836
sg201
V2017
p837
sg203
F23.0
sg204
VAPR 10, 1994
p838
sg206
V6-11
p839
sg208
VNerlens Noel
p840
sg210
I1610612742
sg211
g556
sg213
g556
sg214
V00
p841
sg216
g346
sg217
I203457
ssI2754
(dp842
g2
VOklahoma State
p843
sg4
V213
p844
sg6
V2017
p845
sg8
F35.0
sg9
VJAN 11, 1982
p846
sg11
V6-4
p847
sg13
VTony Allen
p848
sg15
I1610612740
sg16
V24
p849
sg18
V13
p850
sg20
V00
p851
sg22
VG-F
p852
sg24
I2754
ssI203460
(dp853
g326
VColorado
p854
sg328
V210
p855
sg330
V2017
p856
sg332
F25.0
sg333
VDEC 04, 1991
p857
sg335
V6-7
p858
sg337
VAndre Roberson
p859
sg339
I1610612760
sg340
V21
p860
sg342
g19
sg343
V00
p861
sg345
g47
sg347
I203460
ssI203463
(dp862
g113
VKansas
p863
sg115
V195
p864
sg117
V2017
p865
sg119
F24.0
sg120
VFEB 11, 1993
p866
sg122
V6-5
p867
sg124
VBen McLemore
p868
sg126
I1610612763
sg127
V23
p869
sg128
g19
sg129
V00
p870
sg131
g47
sg132
I203463
ssI1627853
(dp871
g81
VVillanova
p872
sg83
V195
p873
sg85
V2017
p874
sg87
F23.0
sg88
VMAR 26, 1994
p875
sg90
V6-3
p876
sg92
VRyan Arcidiacono
p877
sg94
I1610612741
sg95
V15
p878
sg97
g43
sg98
V00
p879
sg100
g47
sg101
I1627853
ssI1627855
(dp880
g165
VFlorida State
p881
sg167
V215
p882
sg169
V2017
p883
sg171
F25.0
sg172
VAUG 13, 1992
p884
sg174
V6-8
p885
sg176
VOkaro White
p886
sg178
I1610612748
sg179
V15
p887
sg181
g41
sg182
V00
p888
sg184
g23
sg185
I1627855
ssI201936
(dp889
g113
VMemphis
p890
sg115
V220
p891
sg117
V2017
p892
sg119
F28.0
sg120
VSEP 19, 1989
p893
sg122
V6-6
p894
sg124
VTyreke Evans
p895
sg126
I1610612763
sg127
V12
p896
sg128
g194
sg129
V00
p897
sg131
VG-F
p898
sg132
I201936
ssI201937
(dp899
g219
VEl Masnou, Spain
p900
sg221
V190
p901
sg223
V2017
p902
sg225
F27.0
sg226
VOCT 21, 1990
p903
sg228
V6-4
p904
sg230
VRicky Rubio
p905
sg232
I1610612762
sg233
g556
sg235
g475
sg237
V00
p906
sg239
g47
sg240
I201937
ssI1628372
(dp907
g197
VNorth Carolina State
p908
sg199
V195
p909
sg201
V2017
p910
sg203
F19.0
sg204
VNOV 25, 1997
p911
sg206
V6-3
p912
sg208
VDennis Smith Jr.
p913
sg210
I1610612742
sg211
g41
sg213
g43
sg214
V00
p914
sg216
g47
sg217
I1628372
ssI201942
(dp915
g134
VSouthern California
p916
sg136
V220
p917
sg138
V2017
p918
sg140
F28.0
sg141
VAUG 07, 1989
p919
sg143
V6-7
p920
sg145
VDeMar DeRozan
p921
sg147
I1610612761
sg148
V10
p922
sg150
g194
sg151
V00
p923
sg153
g47
sg154
I201942
ssI203481
(dp924
g197
VKansas
p925
sg199
V230
p926
sg201
V2017
p927
sg203
F27.0
sg204
VMAR 07, 1990
p928
sg206
V7-0
p929
sg208
VJeff Withey
p930
sg210
I1610612742
sg211
V17
p931
sg213
g19
sg214
V00
p932
sg216
g346
sg217
I203481
ssI1628378
(dp933
g219
VLouisville
p934
sg221
V215
p935
sg223
V2017
p936
sg225
F21.0
sg226
VSEP 07, 1996
p937
sg228
V6-3
p938
sg230
VDonovan Mitchell
p939
sg232
I1610612762
sg233
V45
p940
sg235
g43
sg237
V00
p941
sg239
g47
sg240
I1628378
ssI201949
(dp942
g165
VWake Forest
p943
sg167
V240
p944
sg169
V2017
p945
sg171
F30.0
sg172
VFEB 20, 1987
p946
sg174
V6-8
p947
sg176
VJames Johnson
p948
sg178
I1610612748
sg179
V16
p949
sg181
g194
sg182
V00
p950
sg184
g23
sg185
I201949
ssI203998
(dp951
g134
Nsg136
V205
p952
sg138
V2017
p953
sg140
F22.0
sg141
VSEP 21, 1995
p954
sg143
V6-9
p955
sg145
VBruno Caboclo
p956
sg147
I1610612761
sg148
g109
sg150
g556
sg151
V00
p957
sg153
g23
sg154
I203998
ssI203999
(dp958
g50
Nsg52
V250
p959
sg54
V2017
p960
sg56
F22.0
sg57
VFEB 19, 1995
p961
sg59
V6-10
p962
sg61
VNikola Jokic
p963
sg63
I1610612743
sg64
V15
p964
sg65
g78
sg67
V00
p965
sg69
g346
sg70
I203999
ssI1628384
(dp966
g134
VIndiana
p967
sg136
V235
p968
sg138
V2017
p969
sg140
F20.0
sg141
VJUL 17, 1997
p970
sg143
V6-8
p971
sg145
VOG Anunoby
p972
sg147
I1610612761
sg148
g556
sg150
g43
sg151
V00
p973
sg153
g23
sg154
I1628384
ssI203489
(dp974
g219
VSouth Dakota State
p975
sg221
V190
p976
sg223
V2017
p977
sg225
F26.0
sg226
VMAY 15, 1991
p978
sg228
V6-4
p979
sg230
VNate Wolters
p980
sg232
I1610612762
sg233
V16
p981
sg235
g78
sg237
V00
p982
sg239
g47
sg240
I203489
ssI1628389
(dp983
g165
VKentucky
p984
sg167
V255
p985
sg169
V2017
p986
sg171
F20.0
sg172
VJUL 18, 1997
p987
sg174
V6-10
p988
sg176
VBam Adebayo
p989
sg178
I1610612748
sg179
V13
p990
sg181
g43
sg182
V00
p991
sg184
VC-F
p992
sg185
I1628389
ssI1628390
(dp993
g326
Nsg328
V184
p994
sg330
V2017
p995
sg332
F19.0
sg333
VMAY 17, 1998
p996
sg335
V6-7
p997
sg337
VTerrance Ferguson
p998
sg339
I1610612760
sg340
V23
p999
sg342
g43
sg343
V00
p1000
sg345
g47
sg347
I1628390
ssI1628391
(dp1001
g285
VMichigan
p1002
sg287
V236
p1003
sg289
V2017
p1004
sg291
F21.0
sg292
VFEB 19, 1996
p1005
sg294
V6-10
p1006
sg296
VD.J. Wilson
p1007
sg298
I1610612749
sg299
g109
sg301
g43
sg302
V00
p1008
sg304
g23
sg305
I1628391
ssI203497
(dp1009
g219
VFrance
p1010
sg221
V245
p1011
sg223
V2017
p1012
sg225
F25.0
sg226
VJUN 26, 1992
p1013
sg228
V7-1
p1014
sg230
VRudy Gobert
p1015
sg232
I1610612762
sg233
V27
p1016
sg235
g19
sg237
V00
p1017
sg239
g346
sg240
I203497
ssI1627883
(dp1018
g2
VTexas A&M
p1019
sg4
V220
p1020
sg6
V2017
p1021
sg8
F24.0
sg9
VMAY 27, 1993
p1022
sg11
V6-7
p1023
sg13
VJalen Jones
p1024
sg15
I1610612740
sg16
V12
p1025
sg18
g43
sg20
V00
p1026
sg22
g23
sg24
I1627883
ssI1628396
(dp1027
g219
VNorth Carolina
p1028
sg221
V248
p1029
sg223
V2017
p1030
sg225
F19.0
sg226
VJAN 08, 1998
p1031
sg228
V6-10
p1032
sg230
VTony Bradley
p1033
sg232
I1610612762
sg233
V13
p1034
sg235
g43
sg237
V00
p1035
sg239
g346
sg240
I1628396
ssI1628397
(dp1036
g113
VCalifornia
p1037
sg115
V220
p1038
sg117
V2017
p1039
sg119
F20.0
sg120
VFEB 04, 1997
p1040
sg122
V6-10
p1041
sg124
VIvan Rabb
p1042
sg126
I1610612763
sg127
V10
p1043
sg128
g43
sg129
V00
p1044
sg131
g23
sg132
I1628397
ssI203503
(dp1045
g285
VNew Mexico
p1046
sg287
V221
p1047
sg289
V2017
p1048
sg291
F26.0
sg292
VNOV 10, 1991
p1049
sg294
V6-7
p1050
sg296
VTony Snell
p1051
sg298
I1610612749
sg299
V21
p1052
sg301
g19
sg302
V00
p1053
sg304
g47
sg305
I203503
ssI1628402
(dp1054
g2
VDuke
p1055
sg4
V205
p1056
sg6
V2017
p1057
sg8
F19.0
sg9
VMAY 04, 1998
p1058
sg11
V6-3
p1059
sg13
VFrank Jackson
p1060
sg15
I1610612740
sg16
V15
p1061
sg18
g43
sg20
V00
p1062
sg22
g47
sg24
I1628402
ssI203507
(dp1063
g285
VGreece
p1064
sg287
V222
p1065
sg289
V2017
p1066
sg291
F22.0
sg292
VDEC 06, 1994
p1067
sg294
V6-11
p1068
sg296
VGiannis Antetokounmpo
p1069
sg298
I1610612749
sg299
V34
p1070
sg301
g19
sg302
V00
p1071
sg304
g23
sg305
I203507
ssI204020
(dp1072
g165
VFresno State
p1073
sg167
V190
p1074
sg169
V2017
p1075
sg171
F25.0
sg172
VMAY 07, 1992
p1076
sg174
V6-4
p1077
sg176
VTyler Johnson
p1078
sg178
I1610612748
sg179
g194
sg181
g556
sg182
V00
p1079
sg184
g47
sg185
I204020
ssI201973
(dp1080
g219
VKinna, Sweden
p1081
sg221
V231
p1082
sg223
V2017
p1083
sg225
F30.0
sg226
VMAR 02, 1987
p1084
sg228
V6-10
p1085
sg230
VJonas Jerebko
p1086
sg232
I1610612762
sg233
g194
sg235
g162
sg237
V00
p1087
sg239
g23
sg240
I201973
ssI203512
(dp1088
g134
Nsg136
V220
p1089
sg138
V2017
p1090
sg140
F25.0
sg141
VJUL 26, 1992
p1091
sg143
V7-0
p1092
sg145
VLucas Nogueira
p1093
sg147
I1610612761
sg148
V92
p1094
sg150
g556
sg151
V00
p1095
sg153
g346
sg154
I203512
ssI203516
(dp1096
g113
VLong Beach State
p1097
sg115
V210
p1098
sg117
V2017
p1099
sg119
F27.0
sg120
VJUL 01, 1990
p1100
sg122
V6-7
p1101
sg124
VJames Ennis III
p1102
sg126
I1610612763
sg127
g194
sg128
g556
sg129
V00
p1103
sg131
g23
sg132
I203516
ssI203518
(dp1104
g326
Nsg328
V190
p1105
sg330
V2017
p1106
sg332
F24.0
sg333
VAUG 01, 1993
p1107
sg335
V6-6
p1108
sg337
VAlex Abrines
p1109
sg339
I1610612760
sg340
g194
sg342
g41
sg343
V00
p1110
sg345
g47
sg347
I203518
ssI1628415
(dp1111
g113
VOregon
p1112
sg115
V220
p1113
sg117
V2017
p1114
sg119
F21.0
sg120
VJAN 22, 1996
p1115
sg122
V6-6
p1116
sg124
VDillon Brooks
p1117
sg126
I1610612763
sg127
V24
p1118
sg128
g43
sg129
V00
p1119
sg131
VF-G
p1120
sg132
I1628415
ssI203521
(dp1121
g285
VSaint Mary's (CA)
p1122
sg287
V198
p1123
sg289
V2017
p1124
sg291
F27.0
sg292
VSEP 08, 1990
p1125
sg294
V6-4
p1126
sg296
VMatthew Dellavedova
p1127
sg298
I1610612749
sg299
g194
sg301
g19
sg302
V00
p1128
sg304
g47
sg305
I203521
ssI1628420
(dp1129
g50
VIowa State
p1130
sg52
V175
p1131
sg54
V2017
p1132
sg56
F22.0
sg57
VJUN 27, 1995
p1133
sg59
V6-3
p1134
sg61
VMonte Morris
p1135
sg63
I1610612743
sg64
V11
p1136
sg65
g43
sg67
V00
p1137
sg69
g47
sg70
I1628420
ssI1627770
(dp1138
g81
VOakland
p1139
sg83
V176
p1140
sg85
V2017
p1141
sg87
F22.0
sg88
VMAR 29, 1995
p1142
sg90
V5-9
p1143
sg92
VKay Felder
p1144
sg94
I1610612741
sg95
g556
sg97
g41
sg98
V00
p1145
sg100
g47
sg101
I1627770
ssI203526
(dp1146
g219
Nsg221
V179
p1147
sg223
V2017
p1148
sg225
F25.0
sg226
VMAY 19, 1992
p1149
sg228
V6-1
p1150
sg230
VRaul Neto
p1151
sg232
I1610612762
sg233
V25
p1152
sg235
g78
sg237
V00
p1153
sg239
g47
sg240
I203526
ssI1628424
(dp1154
g113
VArizona
p1155
sg115
V170
p1156
sg117
V2017
p1157
sg119
F20.0
sg120
VJUL 04, 1997
p1158
sg122
V6-4
p1159
sg124
VKobi Simmons
p1160
sg126
I1610612763
sg127
g78
sg128
g43
sg129
V00
p1161
sg131
g47
sg132
I1628424
ssI1628425
(dp1162
g285
VSouthern Methodist
p1163
sg287
V230
p1164
sg289
V2017
p1165
sg291
F22.0
sg292
VFEB 10, 1995
p1166
sg294
V6-6
p1167
sg296
VSterling Brown
p1168
sg298
I1610612749
sg299
V23
p1169
sg301
g43
sg302
V00
p1170
sg304
g47
sg305
I1628425
ssI1628429
(dp1171
g2
VDayton
p1172
sg4
V196
p1173
sg6
V2017
p1174
sg8
F23.0
sg9
VJUL 01, 1994
p1175
sg11
V6-5
p1176
sg13
VCharles Cooke
p1177
sg15
I1610612740
sg16
g19
sg18
g43
sg20
V00
p1178
sg22
g47
sg24
I1628429
ssI101139
(dp1179
g134
VSkyline HS (TX)
p1180
sg136
V225
p1181
sg138
V2017
p1182
sg140
F30.0
sg141
VMAR 18, 1987
p1183
sg143
V6-6
p1184
sg145
VCJ Miles
p1185
sg147
I1610612761
sg148
g77
sg150
V12
p1186
sg151
V00
p1187
sg153
VF-G
p1188
sg154
I101139
ssI201177
(dp1189
g197
VDuke
p1190
sg199
V240
p1191
sg201
V2017
p1192
sg203
F30.0
sg204
VFEB 28, 1987
p1193
sg206
V6-10
p1194
sg208
VJosh McRoberts
p1195
sg210
I1610612742
sg211
V13
p1196
sg213
V10
p1197
sg214
V00
p1198
sg216
VF-C
p1199
sg217
I201177
ssI203546
(dp1200
g2
VBelmont
p1201
sg4
V175
p1202
sg6
V2017
p1203
sg8
F26.0
sg9
VMAR 07, 1991
p1204
sg11
V6-3
p1205
sg13
VIan Clark
p1206
sg15
I1610612740
sg16
g78
sg18
g19
sg20
V00
p1207
sg22
g47
sg24
I203546
ssI203547
(dp1208
g219
VCampbell
p1209
sg221
V205
p1210
sg223
V2017
p1211
sg225
F27.0
sg226
VMAY 26, 1990
p1212
sg228
V6-8
p1213
sg230
VEric Griffin
p1214
sg232
I1610612762
sg233
V17
p1215
sg235
g43
sg237
V00
p1216
sg239
VC-F
p1217
sg240
I203547
ssI204060
(dp1218
g219
Nsg221
V226
p1219
sg223
V2017
p1220
sg225
F30.0
sg226
VOCT 02, 1987
p1221
sg228
V6-8
p1222
sg230
VJoe Ingles
p1223
sg232
I1610612762
sg233
g78
sg235
g556
sg237
V00
p1224
sg239
g23
sg240
I204060
ssI203482
(dp1225
g165
VGonzaga
p1226
sg167
V245
p1227
sg169
V2017
p1228
sg171
F26.0
sg172
VAPR 19, 1991
p1229
sg174
V7-0
p1230
sg176
VKelly Olynyk
p1231
sg178
I1610612748
sg179
g669
sg181
g19
sg182
V00
p1232
sg184
VC-F
p1233
sg185
I203482
ssI101150
(dp1234
g26
VSouth Gwinnett HS (GA)
p1235
sg28
V175
p1236
sg30
V2017
p1237
sg32
F31.0
sg33
VOCT 27, 1986
p1238
sg35
V6-1
p1239
sg37
VLou Williams
p1240
sg39
I1610612746
sg40
V23
p1241
sg42
V12
p1242
sg44
V00
p1243
sg46
g47
sg48
I101150
ssI1626245
(dp1244
g81
Nsg83
V280
p1245
sg85
V2017
p1246
sg87
F25.0
sg88
VJUL 07, 1992
p1247
sg90
V6-9
p1248
sg92
VCristiano Felicio
p1249
sg94
I1610612741
sg95
g475
sg97
g78
sg98
V00
p1250
sg100
VC-F
p1251
sg101
I1626245
ssI203552
(dp1252
g197
VDuke
p1253
sg199
V185
p1254
sg201
V2017
p1255
sg203
F27.0
sg204
VAUG 23, 1990
p1256
sg206
V6-2
p1257
sg208
VSeth Curry
p1258
sg210
I1610612742
sg211
V30
p1259
sg213
g19
sg214
V00
p1260
sg216
g47
sg217
I203552
ssI1628462
(dp1261
g26
Nsg28
V196
p1262
sg30
V2017
p1263
sg32
F30.0
sg33
VMAR 19, 1987
p1264
sg35
V6-5
p1265
sg37
VMilos Teodosic
p1266
sg39
I1610612746
sg40
g19
sg42
g43
sg44
V00
p1267
sg46
g47
sg48
I1628462
ssI203485
(dp1268
g134
VNorth Carolina State
p1269
sg136
V189
p1270
sg138
V2017
p1271
sg140
F27.0
sg141
VAUG 26, 1990
p1272
sg143
V6-5
p1273
sg145
VLorenzo Brown
p1274
sg147
I1610612761
sg148
g19
sg150
g556
sg151
V00
p1275
sg153
g47
sg154
I203485
ssI1628467
(dp1276
g197
Nsg199
V220
p1277
sg201
V2017
p1278
sg203
F25.0
sg204
VJAN 29, 1992
p1279
sg206
V6-11
p1280
sg208
VMaxi Kleber
p1281
sg210
I1610612742
sg211
V42
p1282
sg213
g43
sg214
V00
p1283
sg216
g23
sg217
I1628467
ssI203486
(dp1284
g50
VDuke
p1285
sg52
V255
p1286
sg54
V2017
p1287
sg56
F27.0
sg57
VMAR 05, 1990
p1288
sg59
V6-11
p1289
sg61
VMason Plumlee
p1290
sg63
I1610612743
sg64
V24
p1291
sg65
g19
sg67
V00
p1292
sg69
VC-F
p1293
sg70
I203486
ssI1628470
(dp1294
g50
VSouth Carolina Upstate
p1295
sg52
V215
p1296
sg54
V2017
p1297
sg56
F26.0
sg57
VDEC 19, 1990
p1298
sg59
V6-6
p1299
sg61
VTorrey Craig
p1300
sg63
I1610612743
sg64
g556
sg65
g43
sg67
V00
p1301
sg69
VG-F
p1302
sg70
I1628470
ssI1628475
(dp1303
g165
VCentral Florida
p1304
sg167
V210
p1305
sg169
V2017
p1306
sg171
F24.0
sg172
VOCT 14, 1993
p1307
sg174
V6-5
p1308
sg176
VMatt Williams Jr.
p1309
sg178
I1610612748
sg179
V12
p1310
sg181
g43
sg182
V00
p1311
sg184
g47
sg185
I1628475
ssI1628476
(dp1312
g165
VMichigan
p1313
sg167
V185
p1314
sg169
V2017
p1315
sg171
F22.0
sg172
VAPR 03, 1995
p1316
sg174
V6-1
p1317
sg176
VDerrick Walton Jr.
p1318
sg178
I1610612748
sg179
V14
p1319
sg181
g43
sg182
V00
p1320
sg184
g47
sg185
I1628476
ssI1628469
(dp1321
g81
VLouisiana State
p1322
sg83
V197
p1323
sg85
V2017
p1324
sg87
F21.0
sg88
VOCT 04, 1996
p1325
sg90
V6-4
p1326
sg92
VAntonio Blakeney
p1327
sg94
I1610612741
sg95
g669
sg97
g43
sg98
V00
p1328
sg100
g47
sg101
I1628469
ssI203585
(dp1329
g165
VKansas State
p1330
sg167
V200
p1331
sg169
V2017
p1332
sg171
F26.0
sg172
VJUL 29, 1991
p1333
sg174
V6-4
p1334
sg176
VRodney McGruder
p1335
sg178
I1610612748
sg179
V17
p1336
sg181
g41
sg182
V00
p1337
sg184
VG-F
p1338
sg185
I203585
ssI203076
(dp1339
g2
VKentucky
p1340
sg4
V253
p1341
sg6
V2017
p1342
sg8
F24.0
sg9
VMAR 11, 1993
p1343
sg11
V6-10
p1344
sg13
VAnthony Davis
p1345
sg15
I1610612740
sg16
V23
p1346
sg18
g109
sg20
V00
p1347
sg22
VF-C
p1348
sg24
I203076
ssI203079
(dp1349
g165
VSyracuse
p1350
sg167
V215
p1351
sg169
V2017
p1352
sg171
F25.0
sg172
VDEC 10, 1991
p1353
sg174
V6-4
p1354
sg176
VDion Waiters
p1355
sg178
I1610612748
sg179
V11
p1356
sg181
g109
sg182
V00
p1357
sg184
g47
sg185
I203079
ssI1628492
(dp1358
g197
VColorado State
p1359
sg199
V185
p1360
sg201
V2017
p1361
sg203
F23.0
sg204
VNOV 26, 1993
p1362
sg206
V6-4
p1363
sg208
VGian Clavell
p1364
sg210
I1610612742
sg211
g194
sg213
g43
sg214
V00
p1365
sg216
g47
sg217
I1628492
ssI203085
(dp1366
g26
VDuke
p1367
sg28
V200
p1368
sg30
V2017
p1369
sg32
F25.0
sg33
VAUG 01, 1992
p1370
sg35
V6-4
p1371
sg37
VAustin Rivers
p1372
sg39
I1610612746
sg40
V25
p1373
sg42
g109
sg44
V00
p1374
sg46
g47
sg48
I203085
ssI203089
(dp1375
g285
VNorth Carolina
p1376
sg287
V229
p1377
sg289
V2017
p1378
sg291
F26.0
sg292
VDEC 28, 1990
p1379
sg294
V6-11
p1380
sg296
VJohn Henson
p1381
sg298
I1610612749
sg299
V31
p1382
sg301
g109
sg302
V00
p1383
sg304
VF-C
p1384
sg305
I203089
ssI201976
(dp1385
g26
VArkansas
p1386
sg28
V185
p1387
sg30
V2017
p1388
sg32
F29.0
sg33
VJUL 12, 1988
p1389
sg35
V6-1
p1390
sg37
VPatrick Beverley
p1391
sg39
I1610612746
sg40
V21
p1392
sg42
g109
sg44
V00
p1393
sg46
g47
sg48
I201976
ssI201566
(dp1394
g326
VUCLA
p1395
sg328
V200
p1396
sg330
V2017
p1397
sg332
F28.0
sg333
VNOV 12, 1988
p1398
sg335
V6-3
p1399
sg337
VRussell Westbrook
p1400
sg339
I1610612760
sg340
g77
sg342
g669
sg343
V00
p1401
sg345
g47
sg347
I201566
ssI201568
(dp1402
g26
VSant'Angelo Lodigiano, Italy
p1403
sg28
V225
p1404
sg30
V2017
p1405
sg32
F29.0
sg33
VAUG 08, 1988
p1406
sg35
V6-10
p1407
sg37
VDanilo Gallinari
p1408
sg39
I1610612746
sg40
g194
sg42
g194
sg44
V00
p1409
sg46
g23
sg48
I201568
ssI1891
(dp1410
g285
VArizona
p1411
sg287
V185
p1412
sg289
V2017
p1413
sg291
F40.0
sg292
VSEP 15, 1977
p1414
sg294
V6-2
p1415
sg296
VJason Terry
p1416
sg298
I1610612749
sg299
g556
sg301
V18
p1417
sg302
V00
p1418
sg304
g47
sg305
I1891
ssI201577
(dp1419
g81
VStanford
p1420
sg83
V277
p1421
sg85
V2017
p1422
sg87
F29.0
sg88
VAPR 01, 1988
p1423
sg90
V7-0
p1424
sg92
VRobin Lopez
p1425
sg94
I1610612741
sg95
V42
p1426
sg97
g669
sg98
V00
p1427
sg100
g346
sg101
I201577
ssI203114
(dp1428
g285
VTexas A&M
p1429
sg287
V234
p1430
sg289
V2017
p1431
sg291
F26.0
sg292
VAUG 12, 1991
p1432
sg294
V6-8
p1433
sg296
VKhris Middleton
p1434
sg298
I1610612749
sg299
V22
p1435
sg301
g109
sg302
V00
p1436
sg304
g23
sg305
I203114
ssI203115
(dp1437
g50
VMemphis
p1438
sg52
V190
p1439
sg54
V2017
p1440
sg56
F26.0
sg57
VJAN 06, 1991
p1441
sg59
V6-6
p1442
sg61
VWill Barton
p1443
sg63
I1610612743
sg64
g109
sg65
g109
sg67
V00
p1444
sg69
VG-F
p1445
sg70
I203115
ssI201582
(dp1446
g2
VSaint Etienne, France
p1447
sg4
V248
p1448
sg6
V2017
p1449
sg8
F29.0
sg9
VMAY 06, 1988
p1450
sg11
V7-2
p1451
sg13
VAlexis Ajinca
p1452
sg15
I1610612740
sg16
V42
p1453
sg18
g162
sg20
V00
p1454
sg22
g346
sg24
I201582
ssI200765
(dp1455
g2
VKentucky
p1456
sg4
V186
p1457
sg6
V2017
p1458
sg8
F31.0
sg9
VFEB 22, 1986
p1459
sg11
V6-1
p1460
sg13
VRajon Rondo
p1461
sg15
I1610612740
sg16
g669
sg18
V11
p1462
sg20
V00
p1463
sg22
g47
sg24
I200765
ssI1717
(dp1464
g197
VWurzburg, Germany
p1465
sg199
V245
p1466
sg201
V2017
p1467
sg203
F39.0
sg204
VJUN 19, 1978
p1468
sg206
V7-0
p1469
sg208
VDirk Nowitzki
p1470
sg210
I1610612742
sg211
V41
p1471
sg213
V19
p1472
sg214
V00
p1473
sg216
VF-C
p1474
sg217
I1717
ssI201586
(dp1475
g134
VBrazzaville, Rep. of Congo
p1476
sg136
V235
p1477
sg138
V2017
p1478
sg140
F28.0
sg141
VSEP 18, 1989
p1479
sg143
V6-10
p1480
sg145
VSerge Ibaka
p1481
sg147
I1610612761
sg148
g669
sg150
g194
sg151
V00
p1482
sg153
g23
sg154
I201586
ssI201589
(dp1483
g50
VKansas
p1484
sg52
V235
p1485
sg54
V2017
p1486
sg56
F29.0
sg57
VMAR 25, 1988
p1487
sg59
V6-9
p1488
sg61
VDarrell Arthur
p1489
sg63
I1610612743
sg64
V00
p1490
sg65
g194
sg67
V00
p1491
sg69
g23
sg70
I201589
ssI201961
(dp1492
g165
VNorth Carolina
p1493
sg167
V200
p1494
sg169
V2017
p1495
sg171
F29.0
sg172
VNOV 29, 1987
p1496
sg174
V6-5
p1497
sg176
VWayne Ellington
p1498
sg178
I1610612748
sg179
g78
sg181
g194
sg182
V00
p1499
sg184
g47
sg185
I201961
ssI201596
(dp1500
g113
VKansas
p1501
sg115
V190
p1502
sg117
V2017
p1503
sg119
F31.0
sg120
VMAY 19, 1986
p1504
sg122
V6-2
p1505
sg124
VMario Chalmers
p1506
sg126
I1610612763
sg127
g475
sg128
g194
sg129
V00
p1507
sg131
g47
sg132
I201596
ssI201599
(dp1508
g26
VTexas A&M
p1509
sg28
V265
p1510
sg30
V2017
p1511
sg32
F29.0
sg33
VJUL 21, 1988
p1512
sg35
V6-11
p1513
sg37
VDeAndre Jordan
p1514
sg39
I1610612746
sg40
g475
sg42
g669
sg44
V00
p1515
sg46
g346
sg48
I201599
ssI201600
(dp1516
g2
VTurkey
p1517
sg4
V255
p1518
sg6
V2017
p1519
sg8
F31.0
sg9
VJUL 04, 1986
p1520
sg11
V7-0
p1521
sg13
VOmer Asik
p1522
sg15
I1610612740
sg16
g556
sg18
g162
sg20
V00
p1523
sg22
g346
sg24
I201600
ssI1628035
(dp1524
g134
VWisc.-Green Bay
p1525
sg136
V215
p1526
sg138
V2017
p1527
sg140
F25.0
sg141
VSEP 17, 1992
p1528
sg143
V6-8
p1529
sg145
VAlfonzo McKinnie
p1530
sg147
I1610612761
sg148
V34
p1531
sg150
g43
sg151
V00
p1532
sg153
g23
sg154
I1628035
ssI203141
(dp1533
g285
VBosnia
p1534
sg287
V242
p1535
sg289
V2017
p1536
sg291
F32.0
sg292
VSEP 17, 1985
p1537
sg294
V6-9
p1538
sg296
VMirza Teletovic
p1539
sg298
I1610612749
sg299
V35
p1540
sg301
g109
sg302
V00
p1541
sg304
g23
sg305
I203141
ssI201609
(dp1542
g165
VLjubljana, Slovenia
p1543
sg167
V190
p1544
sg169
V2017
p1545
sg171
F31.0
sg172
VMAY 06, 1986
p1546
sg174
V6-3
p1547
sg176
VGoran Dragic
p1548
sg178
I1610612748
sg179
g162
sg181
g669
sg182
V00
p1549
sg184
g47
sg185
I201609
ssI1628399
(dp1550
g50
VSyracuse
p1551
sg52
V220
p1552
sg54
V2017
p1553
sg56
F21.0
sg57
VAPR 09, 1996
p1554
sg59
V6-9
p1555
sg61
VTyler Lydon
p1556
sg63
I1610612743
sg64
V20
p1557
sg65
g43
sg67
V00
p1558
sg69
g23
sg70
I1628399
ssI203186
(dp1559
g26
VSaint Louis
p1560
sg28
V245
p1561
sg30
V2017
p1562
sg32
F27.0
sg33
VMAY 16, 1990
p1563
sg35
V6-11
p1564
sg37
VWillie Reed
p1565
sg39
I1610612746
sg40
V35
p1566
sg42
g78
sg44
V00
p1567
sg46
g346
sg48
I203186
ssI201144
(dp1568
g113
VOhio State
p1569
sg115
V175
p1570
sg117
V2017
p1571
sg119
F30.0
sg120
VOCT 11, 1987
p1572
sg122
V6-1
p1573
sg124
VMike Conley
p1574
sg126
I1610612763
sg127
V11
p1575
sg128
V10
p1576
sg129
V00
p1577
sg131
g47
sg132
I201144
ssI201148
(dp1578
g113
VNorth Carolina
p1579
sg115
V235
p1580
sg117
V2017
p1581
sg119
F30.0
sg120
VOCT 05, 1987
p1582
sg122
V6-10
p1583
sg124
VBrandan Wright
p1584
sg126
I1610612763
sg127
V34
p1585
sg128
g669
sg129
V00
p1586
sg131
VF-C
p1587
sg132
I201148
ssI202685
(dp1588
g134
VUtena, Lithuania
p1589
sg136
V255
p1590
sg138
V2017
p1591
sg140
F25.0
sg141
VMAY 06, 1992
p1592
sg143
V7-0
p1593
sg145
VJonas Valanciunas
p1594
sg147
I1610612761
sg148
V17
p1595
sg150
g109
sg151
V00
p1596
sg153
g346
sg154
I202685
ssI203710
(dp1597
g26
VNorth Carolina State
p1598
sg28
V230
p1599
sg30
V2017
p1600
sg32
F27.0
sg33
VFEB 06, 1990
p1601
sg35
V6-5
p1602
sg37
VC.J. Williams
p1603
sg39
I1610612746
sg40
g669
sg42
g43
sg44
V00
p1604
sg46
g47
sg48
I203710
ssI101109
(dp1605
g326
VNorth Carolina
p1606
sg328
V205
p1607
sg330
V2017
p1608
sg332
F33.0
sg333
VJUN 26, 1984
p1609
sg335
V6-1
p1610
sg337
VRaymond Felton
p1611
sg339
I1610612760
sg340
g78
sg342
V12
p1612
sg343
V00
p1613
sg345
g47
sg347
I101109
ssI203200
(dp1614
g81
VWashington
p1615
sg83
V185
p1616
sg85
V2017
p1617
sg87
F28.0
sg88
VAPR 05, 1989
p1618
sg90
V6-6
p1619
sg92
VJustin Holiday
p1620
sg94
I1610612741
sg95
g162
sg97
g19
sg98
V00
p1621
sg100
g47
sg101
I203200
ssI202692
(dp1622
g219
VColorado
p1623
sg221
V214
p1624
sg223
V2017
p1625
sg225
F26.0
sg226
VJUL 20, 1991
p1626
sg228
V6-6
p1627
sg230
VAlec Burks
p1628
sg232
I1610612762
sg233
V10
p1629
sg235
g475
sg237
V00
p1630
sg239
g47
sg240
I202692
ssI1628405
(dp1631
g197
VBaylor
p1632
sg199
V230
p1633
sg201
V2017
p1634
sg203
F22.0
sg204
VMAY 04, 1995
p1635
sg206
V6-10
p1636
sg208
VJohnathan Motley
p1637
sg210
I1610612742
sg211
g475
sg213
g43
sg214
V00
p1638
sg216
g23
sg217
I1628405
ssI203084
(dp1639
g197
VNorth Carolina
p1640
sg199
V225
p1641
sg201
V2017
p1642
sg203
F25.0
sg204
VMAY 30, 1992
p1643
sg206
V6-8
p1644
sg208
VHarrison Barnes
p1645
sg210
I1610612742
sg211
V40
p1646
sg213
g109
sg214
V00
p1647
sg216
g23
sg217
I203084
ssI203210
(dp1648
g113
VAlabama
p1649
sg115
V227
p1650
sg117
V2017
p1651
sg119
F27.0
sg120
VJUN 21, 1990
p1652
sg122
V6-9
p1653
sg124
VJaMychal Green
p1654
sg126
I1610612763
sg127
g77
sg128
g556
sg129
V00
p1655
sg131
g23
sg132
I203210
ssI201163
(dp1656
g50
VDePaul
p1657
sg52
V225
p1658
sg54
V2017
p1659
sg56
F30.0
sg57
VMAY 10, 1987
p1660
sg59
V6-9
p1661
sg61
VWilson Chandler
p1662
sg63
I1610612743
sg64
V21
p1663
sg65
g669
sg67
V00
p1664
sg69
g23
sg70
I201163
ssI202702
(dp1665
g50
VMorehead State
p1666
sg52
V228
p1667
sg54
V2017
p1668
sg56
F27.0
sg57
VNOV 19, 1989
p1669
sg59
V6-8
p1670
sg61
VKenneth Faried
p1671
sg63
I1610612743
sg64
V35
p1672
sg65
g475
sg67
V00
p1673
sg69
g23
sg70
I202702
ssI202703
(dp1674
g81
Nsg83
V238
p1675
sg85
V2017
p1676
sg87
F26.0
sg88
VFEB 11, 1991
p1677
sg90
V6-10
p1678
sg92
VNikola Mirotic
p1679
sg94
I1610612741
sg95
V44
p1680
sg97
g556
sg98
V00
p1681
sg100
g23
sg101
I202703
ssI1628408
(dp1682
g326
VSouth Carolina
p1683
sg328
V205
p1684
sg330
V2017
p1685
sg332
F21.0
sg333
VOCT 25, 1996
p1686
sg335
V6-6
p1687
sg337
VPJ Dozier
p1688
sg339
I1610612760
sg340
V35
p1689
sg342
g43
sg343
V00
p1690
sg345
g47
sg347
I1628408
ssI202713
(dp1691
g326
VDuke
p1692
sg328
V228
p1693
sg330
V2017
p1694
sg332
F29.0
sg333
VMAY 04, 1988
p1695
sg335
V6-8
p1696
sg337
VKyle Singler
p1697
sg339
I1610612760
sg340
V15
p1698
sg342
g109
sg343
V00
p1699
sg345
g23
sg347
I202713
ssI202718
(dp1700
g113
VFlorida
p1701
sg115
V230
p1702
sg117
V2017
p1703
sg119
F29.0
sg120
VOCT 25, 1988
p1704
sg122
V6-10
p1705
sg124
VChandler Parsons
p1706
sg126
I1610612763
sg127
V25
p1707
sg128
g475
sg129
V00
p1708
sg131
g23
sg132
I202718
ssI1628374
(dp1709
g81
VArizona
p1710
sg83
V230
p1711
sg85
V2017
p1712
sg87
F20.0
sg88
VMAY 22, 1997
p1713
sg90
V7-0
p1714
sg92
VLauri Markkanen
p1715
sg94
I1610612741
sg95
V24
p1716
sg97
g43
sg98
V00
p1717
sg100
g23
sg101
I1628374
ssI201188
(dp1718
g113
VBarcelona, Spain
p1719
sg115
V255
p1720
sg117
V2017
p1721
sg119
F32.0
sg120
VJAN 29, 1985
p1722
sg122
V7-1
p1723
sg124
VMarc Gasol
p1724
sg126
I1610612763
sg127
V33
p1725
sg128
g669
sg129
V00
p1726
sg131
g346
sg132
I201188
ssI202732
(dp1727
g285
VKentucky
p1728
sg287
V209
p1729
sg289
V2017
p1730
sg291
F29.0
sg292
VMAR 31, 1988
p1731
sg294
V6-6
p1732
sg296
VDeAndre Liggins
p1733
sg298
I1610612749
sg299
V25
p1734
sg301
g19
sg302
V00
p1735
sg304
g47
sg305
I202732
ssI202734
(dp1736
g2
VPurdue
p1737
sg4
V191
p1738
sg6
V2017
p1739
sg8
F28.0
sg9
VFEB 25, 1989
p1740
sg11
V6-4
p1741
sg13
VE'Twaun Moore
p1742
sg15
I1610612740
sg16
V55
p1743
sg18
g475
sg20
V00
p1744
sg22
g47
sg24
I202734
ssI2546
(dp1745
g326
VSyracuse
p1746
sg328
V240
p1747
sg330
V2017
p1748
sg332
F33.0
sg333
VMAY 29, 1984
p1749
sg335
V6-8
p1750
sg337
VCarmelo Anthony
p1751
sg339
I1610612760
sg340
g162
sg342
V14
p1752
sg343
V00
p1753
sg345
g23
sg347
I2546
ssI1628414
(dp1754
g26
VSouth Carolina
p1755
sg28
V215
p1756
sg30
V2017
p1757
sg32
F22.0
sg33
VNOV 15, 1994
p1758
sg35
V6-5
p1759
sg37
VSindarius Thornwell
p1760
sg39
I1610612746
sg40
g77
sg42
g43
sg44
V00
p1761
sg46
g47
sg48
I1628414
ssI1626196
(dp1762
g165
VTennessee
p1763
sg167
V200
p1764
sg169
V2017
p1765
sg171
F24.0
sg172
VSEP 15, 1993
p1766
sg174
V6-6
p1767
sg176
VJosh Richardson
p1768
sg178
I1610612748
sg179
g77
sg181
g78
sg182
V00
p1769
sg184
g23
sg185
I1626196
ssI2555
(dp1770
g326
VKansas
p1771
sg328
V255
p1772
sg330
V2017
p1773
sg332
F37.0
sg333
VOCT 26, 1980
p1774
sg335
V6-10
p1775
sg337
VNick Collison
p1776
sg339
I1610612760
sg340
g19
sg342
V13
p1777
sg343
V00
p1778
sg345
g23
sg347
I2555
ss.