(dp0
I203095
(dp1
VSCHOOL
p2
VFrance
p3
sVWEIGHT
p4
V205
p5
sVSEASON
p6
V2017
p7
sVAGE
p8
F25.0
sVBIRTH_DATE
p9
VOCT 29, 1992
p10
sVHEIGHT
p11
V6-7
p12
sVPLAYER
p13
VEvan Fournier
p14
sVTeamID
p15
I1610612753
sVNUM
p16
V10
p17
sVEXP
p18
V5
p19
sVLeagueID
p20
V00
p21
sVPOSITION
p22
VF-G
p23
sVPLAYER_ID
p24
I203095
ssI202779
(dp25
VSCHOOL
p26
VMarquette
p27
sVWEIGHT
p28
V190
p29
sVSEASON
p30
V2017
p31
sVAGE
p32
F28.0
sVBIRTH_DATE
p33
VMAR 06, 1989
p34
sVHEIGHT
p35
V6-3
p36
sVPLAYER
p37
VDwight Buycks
p38
sVTeamID
p39
I1610612765
sVNUM
p40
V20
p41
sVEXP
p42
V2
p43
sVLeagueID
p44
V00
p45
sVPOSITION
p46
VG
p47
sVPLAYER_ID
p48
I202779
ssI1626143
(dp49
VSCHOOL
p50
VDuke
p51
sVWEIGHT
p52
V260
p53
sVSEASON
p54
V2017
p55
sVAGE
p56
F21.0
sVBIRTH_DATE
p57
VDEC 15, 1995
p58
sVHEIGHT
p59
V6-11
p60
sVPLAYER
p61
VJahlil Okafor
p62
sVTeamID
p63
I1610612755
sVNUM
p64
V8
p65
sVEXP
p66
g43
sVLeagueID
p67
V00
p68
sVPOSITION
p69
VC
p70
sVPLAYER_ID
p71
I1626143
ssI1626144
(dp72
VSCHOOL
p73
NsVWEIGHT
p74
V200
p75
sVSEASON
p76
V2017
p77
sVAGE
p78
F21.0
sVBIRTH_DATE
p79
VMAR 05, 1996
p80
sVHEIGHT
p81
V6-5
p82
sVPLAYER
p83
VEmmanuel Mudiay
p84
sVTeamID
p85
I1610612743
sVNUM
p86
V0
p87
sVEXP
p88
g43
sVLeagueID
p89
V00
p90
sVPOSITION
p91
g47
sVPLAYER_ID
p92
I1626144
ssI1626145
(dp93
VSCHOOL
p94
VDuke
p95
sVWEIGHT
p96
V184
p97
sVSEASON
p98
V2017
p99
sVAGE
p100
F21.0
sVBIRTH_DATE
p101
VMAY 10, 1996
p102
sVHEIGHT
p103
V6-2
p104
sVPLAYER
p105
VTyus Jones
p106
sVTeamID
p107
I1610612750
sVNUM
p108
V1
p109
sVEXP
p110
g43
sVLeagueID
p111
V00
p112
sVPOSITION
p113
g47
sVPLAYER_ID
p114
I1626145
ssI1626147
(dp115
g50
VVirginia
p116
sg52
V230
p117
sg54
V2017
p118
sg56
F23.0
sg57
VNOV 19, 1993
p119
sg59
V6-6
p120
sg61
VJustin Anderson
p121
sg63
I1610612755
sg64
g109
sg66
g43
sg67
V00
p122
sg69
VG-F
p123
sg71
I1626147
ssI1626148
(dp124
g94
VStanford
p125
sg96
V224
p126
sg98
V2017
p127
sg100
F25.0
sg101
VOCT 10, 1992
p128
sg103
V6-7
p129
sg105
VAnthony Brown
p130
sg107
I1610612750
sg108
V3
p131
sg110
g43
sg111
V00
p132
sg113
VF
p133
sg114
I1626148
ssI1626149
(dp134
VSCHOOL
p135
VLouisville
p136
sVWEIGHT
p137
V240
p138
sVSEASON
p139
V2017
p140
sVAGE
p141
F23.0
sVBIRTH_DATE
p142
VJAN 26, 1994
p143
sVHEIGHT
p144
V6-8
p145
sVPLAYER
p146
VMontrezl Harrell
p147
sVTeamID
p148
I1610612746
sVNUM
p149
g19
sVEXP
p150
g43
sVLeagueID
p151
V00
p152
sVPOSITION
p153
VF-C
p154
sVPLAYER_ID
p155
I1626149
ssI1626150
(dp156
VSCHOOL
p157
VKentucky
p158
sVWEIGHT
p159
V213
p160
sVSEASON
p161
V2017
p162
sVAGE
p163
F23.0
sVBIRTH_DATE
p164
VOCT 28, 1994
p165
sVHEIGHT
p166
V6-6
p167
sVPLAYER
p168
VAndrew Harrison
p169
sVTeamID
p170
I1610612763
sVNUM
p171
g19
sVEXP
p172
g109
sVLeagueID
p173
V00
p174
sVPOSITION
p175
g47
sVPLAYER_ID
p176
I1626150
ssI1626153
(dp177
VSCHOOL
p178
VUtah
p179
sVWEIGHT
p180
V190
p181
sVSEASON
p182
V2017
p183
sVAGE
p184
F25.0
sVBIRTH_DATE
p185
VAPR 26, 1992
p186
sVHEIGHT
p187
V6-5
p188
sVPLAYER
p189
VDelon Wright
p190
sVTeamID
p191
I1610612761
sVNUM
p192
V55
p193
sVEXP
p194
g43
sVLeagueID
p195
V00
p196
sVPOSITION
p197
g47
sVPLAYER_ID
p198
I1626153
ssI200746
(dp199
VSCHOOL
p200
VTexas
p201
sVWEIGHT
p202
V260
p203
sVSEASON
p204
V2017
p205
sVAGE
p206
F32.0
sVBIRTH_DATE
p207
VJUL 19, 1985
p208
sVHEIGHT
p209
V6-11
p210
sVPLAYER
p211
VLaMarcus Aldridge
p212
sVTeamID
p213
I1610612759
sVNUM
p214
V12
p215
sVEXP
p216
V11
p217
sVLeagueID
p218
V00
p219
sVPOSITION
p220
g133
sVPLAYER_ID
p221
I200746
ssI1626155
(dp222
g135
VWisconsin
p223
sg137
V230
p224
sg139
V2017
p225
sg141
F23.0
sg142
VMAY 08, 1994
p226
sg144
V6-9
p227
sg146
VSam Dekker
p228
sg148
I1610612746
sg149
V7
p229
sg150
g43
sg151
V00
p230
sg153
g133
sg155
I1626155
ssI1626156
(dp231
VSCHOOL
p232
VOhio State
p233
sVWEIGHT
p234
V195
p235
sVSEASON
p236
V2017
p237
sVAGE
p238
F21.0
sVBIRTH_DATE
p239
VFEB 23, 1996
p240
sVHEIGHT
p241
V6-5
p242
sVPLAYER
p243
VD'Angelo Russell
p244
sVTeamID
p245
I1610612751
sVNUM
p246
g109
sVEXP
p247
g43
sVLeagueID
p248
V00
p249
sVPOSITION
p250
g47
sVPLAYER_ID
p251
I1626156
ssI1626157
(dp252
g94
VKentucky
p253
sg96
V248
p254
sg98
V2017
p255
sg100
F21.0
sg101
VNOV 15, 1995
p256
sg103
V7-0
p257
sg105
VKarl-Anthony Towns
p258
sg107
I1610612750
sg108
V32
p259
sg110
g43
sg111
V00
p260
sg113
g70
sg114
I1626157
ssI1626158
(dp261
g50
VBowling Green
p262
sg52
V235
p263
sg54
V2017
p264
sg56
F24.0
sg57
VOCT 15, 1993
p265
sg59
V6-10
p266
sg61
VRichaun Holmes
p267
sg63
I1610612755
sg64
V22
p268
sg66
g43
sg67
V00
p269
sg69
VF-C
p270
sg71
I1626158
ssI1626159
(dp271
VSCHOOL
p272
VDuke
p273
sVWEIGHT
p274
V225
p275
sVSEASON
p276
V2017
p277
sVAGE
p278
F21.0
sVBIRTH_DATE
p279
VMAR 26, 1996
p280
sVHEIGHT
p281
V6-7
p282
sVPLAYER
p283
VJustise Winslow
p284
sVTeamID
p285
I1610612748
sVNUM
p286
V20
p287
sVEXP
p288
g43
sVLeagueID
p289
V00
p290
sVPOSITION
p291
g133
sVPLAYER_ID
p292
I1626159
ssI200752
(dp293
g200
VConnecticut
p294
sg202
V230
p295
sg204
V2017
p296
sg206
F31.0
sg207
VAUG 17, 1986
p297
sg209
V6-8
p298
sg211
VRudy Gay
p299
sg213
I1610612759
sg214
V22
p300
sg216
V11
p301
sg218
V00
p302
sg220
g133
sg221
I200752
ssI1626161
(dp303
VSCHOOL
p304
VKentucky
p305
sVWEIGHT
p306
V240
p307
sVSEASON
p308
V2017
p309
sVAGE
p310
F24.0
sVBIRTH_DATE
p311
VAUG 18, 1993
p312
sVHEIGHT
p313
V7-0
p314
sVPLAYER
p315
VWillie Cauley-Stein
p316
sVTeamID
p317
I1610612758
sVNUM
p318
V00
p319
sVEXP
p320
g43
sVLeagueID
p321
V00
p322
sVPOSITION
p323
g70
sVPLAYER_ID
p324
I1626161
ssI1626162
(dp325
VSCHOOL
p326
VKansas
p327
sVWEIGHT
p328
V205
p329
sVSEASON
p330
V2017
p331
sVAGE
p332
F21.0
sVBIRTH_DATE
p333
VDEC 09, 1995
p334
sVHEIGHT
p335
V6-7
p336
sVPLAYER
p337
VKelly Oubre Jr.
p338
sVTeamID
p339
I1610612764
sVNUM
p340
V12
p341
sVEXP
p342
g43
sVLeagueID
p343
V00
p344
sVPOSITION
p345
g133
sVPLAYER_ID
p346
I1626162
ssI1627763
(dp347
VSCHOOL
p348
VVirginia
p349
sVWEIGHT
p350
V215
p351
sVSEASON
p352
V2017
p353
sVAGE
p354
F24.0
sVBIRTH_DATE
p355
VDEC 11, 1992
p356
sVHEIGHT
p357
V6-5
p358
sVPLAYER
p359
VMalcolm Brogdon
p360
sVTeamID
p361
I1610612749
sVNUM
p362
V13
p363
sVEXP
p364
g109
sVLeagueID
p365
V00
p366
sVPOSITION
p367
g47
sVPLAYER_ID
p368
I1627763
ssI1626164
(dp369
VSCHOOL
p370
VKentucky
p371
sVWEIGHT
p372
V210
p373
sVSEASON
p374
V2017
p375
sVAGE
p376
F21.0
sVBIRTH_DATE
p377
VOCT 30, 1996
p378
sVHEIGHT
p379
V6-6
p380
sVPLAYER
p381
VDevin Booker
p382
sVTeamID
p383
I1610612756
sVNUM
p384
g109
sVEXP
p385
g43
sVLeagueID
p386
V00
p387
sVPOSITION
p388
g47
sVPLAYER_ID
p389
I1626164
ssI200757
(dp390
VSCHOOL
p391
VVevey, Switzerland
p392
sVWEIGHT
p393
V220
p394
sVSEASON
p395
V2017
p396
sVAGE
p397
F33.0
sVBIRTH_DATE
p398
VMAY 02, 1984
p399
sVHEIGHT
p400
V6-7
p401
sVPLAYER
p402
VThabo Sefolosha
p403
sVTeamID
p404
I1610612762
sVNUM
p405
V22
p406
sVEXP
p407
V11
p408
sVLeagueID
p409
V00
p410
sVPOSITION
p411
g133
sVPLAYER_ID
p412
I200757
ssI1626166
(dp413
VSCHOOL
p414
VMurray State
p415
sVWEIGHT
p416
V185
p417
sVSEASON
p418
V2017
p419
sVAGE
p420
F23.0
sVBIRTH_DATE
p421
VAUG 08, 1994
p422
sVHEIGHT
p423
V6-3
p424
sVPLAYER
p425
VCameron Payne
p426
sVTeamID
p427
I1610612741
sVNUM
p428
V22
p429
sVEXP
p430
g43
sVLeagueID
p431
V00
p432
sVPOSITION
p433
g47
sVPLAYER_ID
p434
I1626166
ssI1626167
(dp435
VSCHOOL
p436
VTexas
p437
sVWEIGHT
p438
V255
p439
sVSEASON
p440
V2017
p441
sVAGE
p442
F21.0
sVBIRTH_DATE
p443
VMAR 24, 1996
p444
sVHEIGHT
p445
V6-11
p446
sVPLAYER
p447
VMyles Turner
p448
sVTeamID
p449
I1610612754
sVNUM
p450
V33
p451
sVEXP
p452
g43
sVLeagueID
p453
V00
p454
sVPOSITION
p455
g70
sVPLAYER_ID
p456
I1626167
ssI1626168
(dp457
g73
VKentucky
p458
sg74
V234
p459
sg76
V2017
p460
sg78
F22.0
sg79
VNOV 05, 1995
p461
sg81
V6-10
p462
sg83
VTrey Lyles
p463
sg85
I1610612743
sg86
g229
sg88
g43
sg89
V00
p464
sg91
g133
sg92
I1626168
ssI1626169
(dp465
g26
VArizona
p466
sg28
V245
p467
sg30
V2017
p468
sg32
F21.0
sg33
VMAY 29, 1996
p469
sg35
V6-7
p470
sg37
VStanley Johnson
p471
sg39
I1610612765
sg40
g229
sg42
g43
sg44
V00
p472
sg46
g133
sg48
I1626169
ssI1626170
(dp473
g414
VNotre Dame
p474
sg416
V198
p475
sg418
V2017
p476
sg420
F25.0
sg421
VOCT 09, 1992
p477
sg423
V6-4
p478
sg425
VJerian Grant
p479
sg427
I1610612741
sg428
g43
sg430
g43
sg431
V00
p480
sg433
g47
sg434
I1626170
ssI1626171
(dp481
g414
VArkansas
p482
sg416
V248
p483
sg418
V2017
p484
sg420
F22.0
sg421
VFEB 10, 1995
p485
sg423
V6-11
p486
sg425
VBobby Portis
p487
sg427
I1610612741
sg428
g19
sg430
g43
sg431
V00
p488
sg433
g133
sg434
I1626171
ssI1626172
(dp489
VSCHOOL
p490
VUCLA
p491
sVWEIGHT
p492
V220
p493
sVSEASON
p494
V2017
p495
sVAGE
p496
F21.0
sVBIRTH_DATE
p497
VFEB 06, 1996
p498
sVHEIGHT
p499
V6-9
p500
sVPLAYER
p501
VKevon Looney
p502
sVTeamID
p503
I1610612744
sVNUM
p504
g19
sVEXP
p505
g43
sVLeagueID
p506
V00
p507
sVPOSITION
p508
g133
sVPLAYER_ID
p509
I1626172
ssI1626173
(dp510
g348
VUNLV
p511
sg350
V202
p512
sg352
V2017
p513
sg354
F21.0
sg355
VAUG 16, 1996
p514
sg357
V6-6
p515
sg359
VRashad Vaughn
p516
sg361
I1610612749
sg362
V20
p517
sg364
g43
sg365
V00
p518
sg367
g47
sg368
I1626173
ssI1626175
(dp519
g272
VLouisiana State
p520
sg274
V235
p521
sg276
V2017
p522
sg278
F23.0
sg279
VJUL 09, 1994
p523
sg281
V6-8
p524
sg283
VJordan Mickey
p525
sg285
I1610612748
sg286
V25
p526
sg288
g43
sg289
V00
p527
sg291
VC-F
p528
sg292
I1626175
ssI200768
(dp529
g178
VVillanova
p530
sg180
V205
p531
sg182
V2017
p532
sg184
F31.0
sg185
VMAR 25, 1986
p533
sg187
V6-0
p534
sg189
VKyle Lowry
p535
sg191
I1610612761
sg192
g229
sg194
V11
p536
sg195
V00
p537
sg197
g47
sg198
I200768
ssI1626177
(dp538
VSCHOOL
p539
VKentucky
p540
sVWEIGHT
p541
V255
p542
sVSEASON
p543
V2017
p544
sVAGE
p545
F22.0
sVBIRTH_DATE
p546
VSEP 22, 1995
p547
sVHEIGHT
p548
V7-0
p549
sVPLAYER
p550
VDakari Johnson
p551
sVTeamID
p552
I1610612760
sVNUM
p553
V44
p554
sVEXP
p555
VR
p556
sVLeagueID
p557
V00
p558
sVPOSITION
p559
g70
sVPLAYER_ID
p560
I1626177
ssI1626178
(dp561
g232
VArizona
p562
sg234
V214
p563
sg236
V2017
p564
sg238
F22.0
sg239
VJAN 03, 1995
p565
sg241
V6-7
p566
sg243
VRondae Hollis-Jefferson
p567
sg245
I1610612751
sg246
V24
p568
sg247
g43
sg248
V00
p569
sg250
g133
sg251
I1626178
ssI1626179
(dp570
VSCHOOL
p571
VLouisville
p572
sVWEIGHT
p573
V190
p574
sVSEASON
p575
V2017
p576
sVAGE
p577
F23.0
sVBIRTH_DATE
p578
VMAR 17, 1994
p579
sVHEIGHT
p580
V6-2
p581
sVPLAYER
p582
VTerry Rozier
p583
sVTeamID
p584
I1610612738
sVNUM
p585
V12
p586
sVEXP
p587
g43
sVLeagueID
p588
V00
p589
sVPOSITION
p590
g47
sVPLAYER_ID
p591
I1626179
ssI1626181
(dp592
g178
VUCLA
p593
sg180
V215
p594
sg182
V2017
p595
sg184
F24.0
sg185
VMAY 25, 1993
p596
sg187
V6-4
p597
sg189
VNorman Powell
p598
sg191
I1610612761
sg192
V24
p599
sg194
g43
sg195
V00
p600
sg197
VF-G
p601
sg198
I1626181
ssI1626185
(dp602
g157
VLouisiana State
p603
sg159
V239
p604
sg161
V2017
p605
sg163
F23.0
sg164
VMAY 24, 1994
p606
sg166
V6-10
p607
sg168
VJarell Martin
p608
sg170
I1610612763
sg171
g109
sg172
g43
sg173
V00
p609
sg175
g133
sg176
I1626185
ssI1626188
(dp610
g490
VDuke
p611
sg492
V179
p612
sg494
V2017
p613
sg496
F24.0
sg497
VMAR 23, 1993
p614
sg499
V6-2
p615
sg501
VQuinn Cook
p616
sg503
I1610612744
sg504
V4
p617
sg505
g109
sg506
V00
p618
sg508
g47
sg509
I1626188
ssI200782
(dp619
VSCHOOL
p620
VTexas
p621
sVWEIGHT
p622
V245
p623
sVSEASON
p624
V2017
p625
sVAGE
p626
F32.0
sVBIRTH_DATE
p627
VMAY 05, 1985
p628
sVHEIGHT
p629
V6-6
p630
sVPLAYER
p631
VPJ Tucker
p632
sVTeamID
p633
I1610612745
sVNUM
p634
g617
sVEXP
p635
V6
p636
sVLeagueID
p637
V00
p638
sVPOSITION
p639
g133
sVPLAYER_ID
p640
I200782
ssI1626191
(dp641
g326
VSyracuse
p642
sg328
V215
p643
sg330
V2017
p644
sg332
F22.0
sg333
VFEB 05, 1995
p645
sg335
V6-9
p646
sg337
VChris McCullough
p647
sg339
I1610612764
sg340
g109
sg342
g43
sg343
V00
p648
sg345
g133
sg346
I1626191
ssI1626192
(dp649
VSCHOOL
p650
VNotre Dame
p651
sVWEIGHT
p652
V210
p653
sVSEASON
p654
V2017
p655
sVAGE
p656
F24.0
sVBIRTH_DATE
p657
VJAN 06, 1993
p658
sVHEIGHT
p659
V6-5
p660
sVPLAYER
p661
VPat Connaughton
p662
sVTeamID
p663
I1610612757
sVNUM
p664
g19
sVEXP
p665
g43
sVLeagueID
p666
V00
p667
sVPOSITION
p668
VG-F
p669
sVPLAYER_ID
p670
I1626192
ssI1626195
(dp671
VSCHOOL
p672
VSpain
p673
sVWEIGHT
p674
V240
p675
sVSEASON
p676
V2017
p677
sVAGE
p678
F23.0
sVBIRTH_DATE
p679
VMAY 27, 1994
p680
sVHEIGHT
p681
V6-11
p682
sVPLAYER
p683
VWilly Hernangomez
p684
sVTeamID
p685
I1610612752
sVNUM
p686
V14
p687
sVEXP
p688
g109
sVLeagueID
p689
V00
p690
sVPOSITION
p691
g70
sVPLAYER_ID
p692
I1626195
ssI1626196
(dp693
g272
VTennessee
p694
sg274
V200
p695
sg276
V2017
p696
sg278
F24.0
sg279
VSEP 15, 1993
p697
sg281
V6-6
p698
sg283
VJosh Richardson
p699
sg285
I1610612748
sg286
g87
sg288
g43
sg289
V00
p700
sg291
g133
sg292
I1626196
ssI1626199
(dp701
g200
VVillanova
p702
sg202
V220
p703
sg204
V2017
p704
sg206
F24.0
sg207
VAPR 13, 1993
p705
sg209
V6-6
p706
sg211
VDarrun Hilliard
p707
sg213
I1610612759
sg214
V24
p708
sg216
g43
sg218
V00
p709
sg220
g47
sg221
I1626199
ssI200794
(dp710
g73
VLouisiana Tech
p711
sg74
V246
p712
sg76
V2017
p713
sg78
F32.0
sg79
VFEB 10, 1985
p714
sg81
V6-8
p715
sg83
VPaul Millsap
p716
sg85
I1610612743
sg86
g617
sg88
V11
p717
sg89
V00
p718
sg91
g133
sg92
I200794
ssI1626203
(dp719
VSCHOOL
p720
VVirginia Commonwealth
p721
sVWEIGHT
p722
V219
p723
sVSEASON
p724
V2017
p725
sVAGE
p726
F24.0
sVBIRTH_DATE
p727
VOCT 28, 1993
p728
sVHEIGHT
p729
V6-5
p730
sVPLAYER
p731
VTreveon Graham
p732
sVTeamID
p733
I1610612766
sVNUM
p734
V21
p735
sVEXP
p736
g109
sVLeagueID
p737
V00
p738
sVPOSITION
p739
VG-F
p740
sVPLAYER_ID
p741
I1626203
ssI1626204
(dp742
VSCHOOL
p743
VWyoming
p744
sVWEIGHT
p745
V230
p746
sVSEASON
p747
V2017
p748
sVAGE
p749
F24.0
sVBIRTH_DATE
p750
VJAN 01, 1993
p751
sVHEIGHT
p752
V6-9
p753
sVPLAYER
p754
VLarry Nance Jr.
p755
sVTeamID
p756
I1610612747
sVNUM
p757
g229
sVEXP
p758
g43
sVLeagueID
p759
V00
p760
sVPOSITION
p761
g133
sVPLAYER_ID
p762
I1626204
ssI1626205
(dp763
g157
VTexas-El Paso
p764
sg159
V208
p765
sg161
V2017
p766
sg163
F23.0
sg164
VAUG 05, 1994
p767
sg166
V6-8
p768
sg168
VVincent Hunter
p769
sg170
I1610612763
sg171
V32
p770
sg172
g556
sg173
V00
p771
sg175
g133
sg176
I1626205
ssI1626209
(dp772
g2
VCroatia
p773
sg4
V218
p774
sg6
V2017
p775
sg8
F22.0
sg9
VFEB 25, 1995
p776
sg11
V6-8
p777
sg13
VMario Hezonja
p778
sg15
I1610612753
sg16
g65
sg18
g43
sg20
V00
p779
sg22
VG-F
p780
sg24
I1626209
ssI1626210
(dp781
g370
VCalifornia-Santa Barbara
p782
sg372
V265
p783
sg374
V2017
p784
sg376
F24.0
sg377
VJAN 28, 1993
p785
sg379
V6-8
p786
sg381
VAlan Williams
p787
sg383
I1610612756
sg384
V15
p788
sg385
g43
sg386
V00
p789
sg388
VF-C
p790
sg389
I1626210
ssI1626220
(dp791
g391
VBaylor
p792
sg393
V226
p793
sg395
V2017
p794
sg397
F24.0
sg398
VJUN 05, 1993
p795
sg400
V6-6
p796
sg402
VRoyce O'Neale
p797
sg404
I1610612762
sg405
V23
p798
sg407
g556
sg409
V00
p799
sg411
g133
sg412
I1626220
ssI1626224
(dp800
VSCHOOL
p801
VAnadolu Efes
p802
sVWEIGHT
p803
V215
p804
sVSEASON
p805
V2017
p806
sVAGE
p807
F22.0
sVBIRTH_DATE
p808
VAPR 08, 1995
p809
sVHEIGHT
p810
V6-8
p811
sVPLAYER
p812
VCedi Osman
p813
sVTeamID
p814
I1610612739
sVNUM
p815
V16
p816
sVEXP
p817
g556
sVLeagueID
p818
V00
p819
sVPOSITION
p820
g133
sVPLAYER_ID
p821
I1626224
ssI202340
(dp822
g26
VTexas
p823
sg28
V180
p824
sg30
V2017
p825
sg32
F26.0
sg33
VNOV 26, 1990
p826
sg35
V6-2
p827
sg37
VAvery Bradley
p828
sg39
I1610612765
sg40
V22
p829
sg42
g229
sg44
V00
p830
sg46
g47
sg48
I202340
ssI200826
(dp831
VSCHOOL
p832
VNortheastern
p833
sVWEIGHT
p834
V185
p835
sVSEASON
p836
V2017
p837
sVAGE
p838
F33.0
sVBIRTH_DATE
p839
VJUN 26, 1984
p840
sVHEIGHT
p841
V6-0
p842
sVPLAYER
p843
VJ.J. Barea
p844
sVTeamID
p845
I1610612742
sVNUM
p846
g19
sVEXP
p847
V11
p848
sVLeagueID
p849
V00
p850
sVPOSITION
p851
g47
sVPLAYER_ID
p852
I200826
ssI1626242
(dp853
g26
VWestchester CC NY
p854
sg28
V200
p855
sg30
V2017
p856
sg32
F24.0
sg33
VAPR 06, 1993
p857
sg35
V6-7
p858
sg37
VLuis Montero
p859
sg39
I1610612765
sg40
V44
p860
sg42
g109
sg44
V00
p861
sg46
g47
sg48
I1626242
ssI1626245
(dp862
g414
Nsg416
V280
p863
sg418
V2017
p864
sg420
F25.0
sg421
VJUL 07, 1992
p865
sg423
V6-9
p866
sg425
VCristiano Felicio
p867
sg427
I1610612741
sg428
g636
sg430
g43
sg431
V00
p868
sg433
VC-F
p869
sg434
I1626245
ssI1626246
(dp870
g26
Nsg28
V290
p871
sg30
V2017
p872
sg32
F29.0
sg33
VAUG 15, 1988
p873
sg35
V7-3
p874
sg37
VBoban Marjanovic
p875
sg39
I1610612765
sg40
V51
p876
sg42
g43
sg44
V00
p877
sg46
g70
sg48
I1626246
ssI203458
(dp878
g370
VMaryland
p879
sg372
V250
p880
sg374
V2017
p881
sg376
F24.0
sg377
VJUN 16, 1993
p882
sg379
V7-1
p883
sg381
VAlex Len
p884
sg383
I1610612756
sg384
V21
p885
sg385
g617
sg386
V00
p886
sg388
g70
sg389
I203458
ssI1626257
(dp887
g832
Nsg834
V235
p888
sg836
V2017
p889
sg838
F31.0
sg839
VJUN 15, 1986
p890
sg841
V7-2
p891
sg843
VSalah Mejri
p892
sg845
I1610612742
sg846
V50
p893
sg847
g43
sg849
V00
p894
sg851
g70
sg852
I1626257
ssI1626259
(dp895
g178
VHoly Cross
p896
sg180
V210
p897
sg182
V2017
p898
sg184
F24.0
sg185
VMAR 06, 1993
p899
sg187
V6-7
p900
sg189
VMalcolm Miller
p901
sg191
I1610612761
sg192
V13
p902
sg194
g556
sg195
V00
p903
sg197
g133
sg198
I1626259
ssI2199
(dp904
g370
VDominquez H.S
p905
sg372
V240
p906
sg374
V2017
p907
sg376
F35.0
sg377
VOCT 02, 1982
p908
sg379
V7-1
p909
sg381
VTyson Chandler
p910
sg383
I1610612756
sg384
g617
sg385
V16
p911
sg386
V00
p912
sg388
g70
sg389
I2199
ssI2200
(dp913
g200
VBarcelona, Spain
p914
sg202
V250
p915
sg204
V2017
p916
sg206
F37.0
sg207
VJUL 06, 1980
p917
sg209
V7-0
p918
sg211
VPau Gasol
p919
sg213
I1610612759
sg214
V16
p920
sg216
V16
p921
sg218
V00
p922
sg220
g70
sg221
I2200
ssI2207
(dp923
g391
VArkansas
p924
sg393
V240
p925
sg395
V2017
p926
sg397
F36.0
sg398
VJUN 29, 1981
p927
sg400
V6-7
p928
sg402
VJoe Johnson
p929
sg404
I1610612762
sg405
g636
sg407
V16
p930
sg409
V00
p931
sg411
VG-F
p932
sg412
I2207
ssI2210
(dp933
g73
VArizona
p934
sg74
V233
p935
sg76
V2017
p936
sg78
F37.0
sg79
VJUN 21, 1980
p937
sg81
V6-7
p938
sg83
VRichard Jefferson
p939
sg85
I1610612743
sg86
V22
p940
sg88
V16
p941
sg89
V00
p942
sg91
g133
sg92
I2210
ssI2216
(dp943
g304
VMichigan State
p944
sg306
V250
p945
sg308
V2017
p946
sg310
F36.0
sg311
VJUL 16, 1981
p947
sg313
V6-9
p948
sg315
VZach Randolph
p949
sg317
I1610612758
sg318
V50
p950
sg320
V16
p951
sg321
V00
p952
sg323
g133
sg324
I2216
ssI2225
(dp953
g200
VParis, France
p954
sg202
V185
p955
sg204
V2017
p956
sg206
F35.0
sg207
VMAY 17, 1982
p957
sg209
V6-2
p958
sg211
VTony Parker
p959
sg213
I1610612759
sg214
V9
p960
sg216
V16
p961
sg218
V00
p962
sg220
g47
sg221
I2225
ssI202933
(dp963
g720
VTexas-El Paso
p964
sg722
V200
p965
sg724
V2017
p966
sg726
F28.0
sg727
VDEC 07, 1988
p967
sg729
V6-6
p968
sg731
VJulyan Stone
p969
sg733
I1610612766
sg734
V32
p970
sg736
g131
sg737
V00
p971
sg739
g47
sg741
I202933
ssI1628365
(dp972
g50
VWashington
p973
sg52
V200
p974
sg54
V2017
p975
sg56
F19.0
sg57
VMAY 29, 1998
p976
sg59
V6-4
p977
sg61
VMarkelle Fultz
p978
sg63
I1610612755
sg64
V20
p979
sg66
g556
sg67
V00
p980
sg69
g47
sg71
I1628365
ssI1628366
(dp981
g743
VCalifornia-Los Angeles
p982
sg745
V190
p983
sg747
V2017
p984
sg749
F20.0
sg750
VOCT 27, 1997
p985
sg752
V6-6
p986
sg754
VLonzo Ball
p987
sg756
I1610612747
sg757
g43
sg758
g556
sg759
V00
p988
sg761
g47
sg762
I1628366
ssI1628367
(dp989
g370
VKansas
p990
sg372
V200
p991
sg374
V2017
p992
sg376
F20.0
sg377
VFEB 10, 1997
p993
sg379
V6-8
p994
sg381
VJosh Jackson
p995
sg383
I1610612756
sg384
V20
p996
sg385
g556
sg386
V00
p997
sg388
g133
sg389
I1628367
ssI1628368
(dp998
g304
VKentucky
p999
sg306
V175
p1000
sg308
V2017
p1001
sg310
F19.0
sg311
VDEC 20, 1997
p1002
sg313
V6-3
p1003
sg315
VDe'Aaron Fox
p1004
sg317
I1610612758
sg318
g19
sg320
g556
sg321
V00
p1005
sg323
g47
sg324
I1628368
ssI1628369
(dp1006
g571
VDuke
p1007
sg573
V205
p1008
sg575
V2017
p1009
sg577
F19.0
sg578
VMAR 03, 1998
p1010
sg580
V6-8
p1011
sg582
VJayson Tatum
p1012
sg584
I1610612738
sg585
g87
sg587
g556
sg588
V00
p1013
sg590
g133
sg591
I1628369
ssI1628370
(dp1014
g720
VKentucky
p1015
sg722
V200
p1016
sg724
V2017
p1017
sg726
F19.0
sg727
VFEB 04, 1998
p1018
sg729
V6-3
p1019
sg731
VMalik Monk
p1020
sg733
I1610612766
sg734
g109
sg736
g556
sg737
V00
p1021
sg739
g47
sg741
I1628370
ssI1628371
(dp1022
g2
VFlorida State
p1023
sg4
V210
p1024
sg6
V2017
p1025
sg8
F20.0
sg9
VOCT 03, 1997
p1026
sg11
V6-10
p1027
sg13
VJonathan Isaac
p1028
sg15
I1610612753
sg16
g109
sg18
g556
sg20
V00
p1029
sg22
g133
sg24
I1628371
ssI1628372
(dp1030
g832
VNorth Carolina State
p1031
sg834
V195
p1032
sg836
V2017
p1033
sg838
F19.0
sg839
VNOV 25, 1997
p1034
sg841
V6-3
p1035
sg843
VDennis Smith Jr.
p1036
sg845
I1610612742
sg846
g109
sg847
g556
sg849
V00
p1037
sg851
g47
sg852
I1628372
ssI1628373
(dp1038
g672
Nsg674
V190
p1039
sg676
V2017
p1040
sg678
F19.0
sg679
VJUL 28, 1998
p1041
sg681
V6-5
p1042
sg683
VFrank Ntilikina
p1043
sg685
I1610612752
sg686
V11
p1044
sg688
g556
sg689
V00
p1045
sg691
g47
sg692
I1628373
ssI1628374
(dp1046
g414
VArizona
p1047
sg416
V230
p1048
sg418
V2017
p1049
sg420
F20.0
sg421
VMAY 22, 1997
p1050
sg423
V7-0
p1051
sg425
VLauri Markkanen
p1052
sg427
I1610612741
sg428
V24
p1053
sg430
g556
sg431
V00
p1054
sg433
g133
sg434
I1628374
ssI1628378
(dp1055
g391
VLouisville
p1056
sg393
V215
p1057
sg395
V2017
p1058
sg397
F21.0
sg398
VSEP 07, 1996
p1059
sg400
V6-3
p1060
sg402
VDonovan Mitchell
p1061
sg404
I1610612762
sg405
V45
p1062
sg407
g556
sg409
V00
p1063
sg411
g47
sg412
I1628378
ssI1628379
(dp1064
g26
VDuke
p1065
sg28
V200
p1066
sg30
V2017
p1067
sg32
F21.0
sg33
VJUN 24, 1996
p1068
sg35
V6-5
p1069
sg37
VLuke Kennard
p1070
sg39
I1610612765
sg40
g19
sg42
g556
sg44
V00
p1071
sg46
g47
sg48
I1628379
ssI1628380
(dp1072
g650
VGonzaga
p1073
sg652
V230
p1074
sg654
V2017
p1075
sg656
F19.0
sg657
VNOV 19, 1997
p1076
sg659
V7-0
p1077
sg661
VZach Collins
p1078
sg663
I1610612757
sg664
V33
p1079
sg665
g556
sg666
V00
p1080
sg668
VC-F
p1081
sg670
I1628380
ssI1628381
(dp1082
VSCHOOL
p1083
VWake Forest
p1084
sVWEIGHT
p1085
V235
p1086
sVSEASON
p1087
V2017
p1088
sVAGE
p1089
F20.0
sVBIRTH_DATE
p1090
VSEP 23, 1997
p1091
sVHEIGHT
p1092
V6-10
p1093
sVPLAYER
p1094
VJohn Collins
p1095
sVTeamID
p1096
I1610612737
sVNUM
p1097
V20
p1098
sVEXP
p1099
g556
sVLeagueID
p1100
V00
p1101
sVPOSITION
p1102
VF-C
p1103
sVPLAYER_ID
p1104
I1628381
ssI1628382
(dp1105
g304
VNorth Carolina
p1106
sg306
V210
p1107
sg308
V2017
p1108
sg310
F22.0
sg311
VMAR 28, 1995
p1109
sg313
V6-8
p1110
sg315
VJustin Jackson
p1111
sg317
I1610612758
sg318
V25
p1112
sg320
g556
sg321
V00
p1113
sg323
g133
sg324
I1628382
ssI1628383
(dp1114
g94
VCreighton
p1115
sg96
V236
p1116
sg98
V2017
p1117
sg100
F20.0
sg101
VJUN 14, 1997
p1118
sg103
V7-0
p1119
sg105
VJustin Patton
p1120
sg107
I1610612750
sg108
V24
p1121
sg110
g556
sg111
V00
p1122
sg113
g70
sg114
I1628383
ssI1628384
(dp1123
g178
VIndiana
p1124
sg180
V235
p1125
sg182
V2017
p1126
sg184
F20.0
sg185
VJUL 17, 1997
p1127
sg187
V6-8
p1128
sg189
VOG Anunoby
p1129
sg191
I1610612761
sg192
g131
sg194
g556
sg195
V00
p1130
sg197
g133
sg198
I1628384
ssI1628385
(dp1131
g304
VDuke
p1132
sg306
V240
p1133
sg308
V2017
p1134
sg310
F19.0
sg311
VAPR 22, 1998
p1135
sg313
V6-10
p1136
sg315
VHarry Giles
p1137
sg317
I1610612758
sg318
V20
p1138
sg320
g556
sg321
V00
p1139
sg323
VF-C
p1140
sg324
I1628385
ssI1628386
(dp1141
g232
VTexas
p1142
sg234
V234
p1143
sg236
V2017
p1144
sg238
F19.0
sg239
VAPR 21, 1998
p1145
sg241
V6-11
p1146
sg243
VJarrett Allen
p1147
sg245
I1610612751
sg246
V31
p1148
sg247
g556
sg248
V00
p1149
sg250
g70
sg251
I1628386
ssI1628387
(dp1150
g436
VCalifornia-Los Angeles
p1151
sg438
V262
p1152
sg440
V2017
p1153
sg442
F19.0
sg443
VOCT 16, 1998
p1154
sg445
V6-10
p1155
sg447
VIke Anigbogu
p1156
sg449
I1610612754
sg450
V13
p1157
sg452
g556
sg453
V00
p1158
sg455
g70
sg456
I1628387
ssI1628388
(dp1159
g436
VCalifornia-Los Angeles
p1160
sg438
V230
p1161
sg440
V2017
p1162
sg442
F20.0
sg443
VAPR 30, 1997
p1163
sg445
V6-10
p1164
sg447
VTJ Leaf
p1165
sg449
I1610612754
sg450
V22
p1166
sg452
g556
sg453
V00
p1167
sg455
g133
sg456
I1628388
ssI1628389
(dp1168
g272
VKentucky
p1169
sg274
V255
p1170
sg276
V2017
p1171
sg278
F20.0
sg279
VJUL 18, 1997
p1172
sg281
V6-10
p1173
sg283
VBam Adebayo
p1174
sg285
I1610612748
sg286
V13
p1175
sg288
g556
sg289
V00
p1176
sg291
VC-F
p1177
sg292
I1628389
ssI1628390
(dp1178
g539
Nsg541
V184
p1179
sg543
V2017
p1180
sg545
F19.0
sg546
VMAY 17, 1998
p1181
sg548
V6-7
p1182
sg550
VTerrance Ferguson
p1183
sg552
I1610612760
sg553
V23
p1184
sg555
g556
sg557
V00
p1185
sg559
g47
sg560
I1628390
ssI1628391
(dp1186
g348
VMichigan
p1187
sg350
V236
p1188
sg352
V2017
p1189
sg354
F21.0
sg355
VFEB 19, 1996
p1190
sg357
V6-10
p1191
sg359
VD.J. Wilson
p1192
sg361
I1610612749
sg362
g19
sg364
g556
sg365
V00
p1193
sg367
g133
sg368
I1628391
ssI1628393
(dp1194
g135
VOklahoma State
p1195
sg137
V190
p1196
sg139
V2017
p1197
sg141
F21.0
sg142
VJUL 26, 1996
p1198
sg144
V6-0
p1199
sg146
VJawun Evans
p1200
sg148
I1610612746
sg149
g109
sg150
g556
sg151
V00
p1201
sg153
g47
sg155
I1628393
ssI1628395
(dp1202
g490
VOregon
p1203
sg492
V224
p1204
sg494
V2017
p1205
sg496
F22.0
sg497
VJAN 07, 1995
p1206
sg499
V6-9
p1207
sg501
VJordan Bell
p1208
sg503
I1610612744
sg504
g43
sg505
g556
sg506
V00
p1209
sg508
g133
sg509
I1628395
ssI1628396
(dp1210
g391
VNorth Carolina
p1211
sg393
V248
p1212
sg395
V2017
p1213
sg397
F19.0
sg398
VJAN 08, 1998
p1214
sg400
V6-10
p1215
sg402
VTony Bradley
p1216
sg404
I1610612762
sg405
V13
p1217
sg407
g556
sg409
V00
p1218
sg411
g70
sg412
I1628396
ssI1628397
(dp1219
g157
VCalifornia
p1220
sg159
V220
p1221
sg161
V2017
p1222
sg163
F20.0
sg164
VFEB 04, 1997
p1223
sg166
V6-10
p1224
sg168
VIvan Rabb
p1225
sg170
I1610612763
sg171
V10
p1226
sg172
g556
sg173
V00
p1227
sg175
g133
sg176
I1628397
ssI1628398
(dp1228
g743
VUtah
p1229
sg745
V220
p1230
sg747
V2017
p1231
sg749
F22.0
sg750
VJUL 24, 1995
p1232
sg752
V6-9
p1233
sg754
VKyle Kuzma
p1234
sg756
I1610612747
sg757
g87
sg758
g556
sg759
V00
p1235
sg761
g133
sg762
I1628398
ssI1628399
(dp1236
g73
VSyracuse
p1237
sg74
V220
p1238
sg76
V2017
p1239
sg78
F21.0
sg79
VAPR 09, 1996
p1240
sg81
V6-9
p1241
sg83
VTyler Lydon
p1242
sg85
I1610612743
sg86
V20
p1243
sg88
g556
sg89
V00
p1244
sg91
g133
sg92
I1628399
ssI1628400
(dp1245
g571
VSouthern Methodist
p1246
sg573
V235
p1247
sg575
V2017
p1248
sg577
F22.0
sg578
VDEC 05, 1994
p1249
sg580
V6-7
p1250
sg582
VSemi Ojeleye
p1251
sg584
I1610612738
sg585
V37
p1252
sg587
g556
sg588
V00
p1253
sg590
g133
sg591
I1628400
ssI1628401
(dp1254
g200
VColorado
p1255
sg202
V190
p1256
sg204
V2017
p1257
sg206
F23.0
sg207
VJUL 02, 1994
p1258
sg209
V6-4
p1259
sg211
VDerrick White
p1260
sg213
I1610612759
sg214
g617
sg216
g556
sg218
V00
p1261
sg220
g47
sg221
I1628401
ssI1628402
(dp1262
VSCHOOL
p1263
VDuke
p1264
sVWEIGHT
p1265
V205
p1266
sVSEASON
p1267
V2017
p1268
sVAGE
p1269
F19.0
sVBIRTH_DATE
p1270
VMAY 04, 1998
p1271
sVHEIGHT
p1272
V6-3
p1273
sVPLAYER
p1274
VFrank Jackson
p1275
sVTeamID
p1276
I1610612740
sVNUM
p1277
V15
p1278
sVEXP
p1279
g556
sVLeagueID
p1280
V00
p1281
sVPOSITION
p1282
g47
sVPLAYER_ID
p1283
I1628402
ssI1628403
(dp1284
g650
VPurdue
p1285
sg652
V250
p1286
sg654
V2017
p1287
sg656
F20.0
sg657
VAPR 18, 1997
p1288
sg659
V6-8
p1289
sg661
VCaleb Swanigan
p1290
sg663
I1610612757
sg664
V50
p1291
sg665
g556
sg666
V00
p1292
sg668
VF-C
p1293
sg670
I1628403
ssI1628404
(dp1294
g743
VVillanova
p1295
sg745
V215
p1296
sg747
V2017
p1297
sg749
F22.0
sg750
VMAR 06, 1995
p1298
sg752
V6-5
p1299
sg754
VJosh Hart
p1300
sg756
I1610612747
sg757
g19
sg758
g556
sg759
V00
p1301
sg761
g47
sg762
I1628404
ssI1628405
(dp1302
g832
VBaylor
p1303
sg834
V230
p1304
sg836
V2017
p1305
sg838
F22.0
sg839
VMAY 04, 1995
p1306
sg841
V6-10
p1307
sg843
VJohnathan Motley
p1308
sg845
I1610612742
sg846
g636
sg847
g556
sg849
V00
p1309
sg851
g133
sg852
I1628405
ssI1628407
(dp1310
g720
VFlorida State
p1311
sg722
V221
p1312
sg724
V2017
p1313
sg726
F22.0
sg727
VAUG 30, 1995
p1314
sg729
V6-7
p1315
sg731
VDwayne Bacon
p1316
sg733
I1610612766
sg734
g229
sg736
g556
sg737
V00
p1317
sg739
g133
sg741
I1628407
ssI1628408
(dp1318
g539
VSouth Carolina
p1319
sg541
V205
p1320
sg543
V2017
p1321
sg545
F21.0
sg546
VOCT 25, 1996
p1322
sg548
V6-6
p1323
sg550
VPJ Dozier
p1324
sg552
I1610612760
sg553
V35
p1325
sg555
g556
sg557
V00
p1326
sg559
g47
sg560
I1628408
ssI203476
(dp1327
g94
VLouisville
p1328
sg96
V251
p1329
sg98
V2017
p1330
sg100
F27.0
sg101
VJAN 18, 1990
p1331
sg103
V6-11
p1332
sg105
VGorgui Dieng
p1333
sg107
I1610612750
sg108
g19
sg110
g617
sg111
V00
p1334
sg113
g70
sg114
I203476
ssI1628410
(dp1335
g436
VXavier
p1336
sg438
V188
p1337
sg440
V2017
p1338
sg442
F21.0
sg443
VDEC 31, 1995
p1339
sg445
V6-5
p1340
sg447
VEdmond Sumner
p1341
sg449
I1610612754
sg450
g19
sg452
g556
sg453
V00
p1342
sg455
g47
sg456
I1628410
ssI1628411
(dp1343
g2
VKansas State
p1344
sg4
V195
p1345
sg6
V2017
p1346
sg8
F22.0
sg9
VDEC 20, 1994
p1347
sg11
V6-7
p1348
sg13
VWes Iwundu
p1349
sg15
I1610612753
sg16
V25
p1350
sg18
g556
sg20
V00
p1351
sg22
g133
sg24
I1628411
ssI1628412
(dp1352
g304
VKansas
p1353
sg306
V190
p1354
sg308
V2017
p1355
sg310
F23.0
sg311
VAPR 03, 1994
p1356
sg313
V5-11
p1357
sg315
VFrank Mason
p1358
sg317
I1610612758
sg318
V10
p1359
sg320
g556
sg321
V00
p1360
sg323
g47
sg324
I1628412
ssI1628414
(dp1361
g135
VSouth Carolina
p1362
sg137
V215
p1363
sg139
V2017
p1364
sg141
F22.0
sg142
VNOV 15, 1994
p1365
sg144
V6-5
p1366
sg146
VSindarius Thornwell
p1367
sg148
I1610612746
sg149
g87
sg150
g556
sg151
V00
p1368
sg153
g47
sg155
I1628414
ssI1628415
(dp1369
g157
VOregon
p1370
sg159
V220
p1371
sg161
V2017
p1372
sg163
F21.0
sg164
VJAN 22, 1996
p1373
sg166
V6-6
p1374
sg168
VDillon Brooks
p1375
sg170
I1610612763
sg171
V24
p1376
sg172
g556
sg173
V00
p1377
sg175
VF-G
p1378
sg176
I1628415
ssI1628416
(dp1379
g1083
VOregon
p1380
sg1085
V183
p1381
sg1087
V2017
p1382
sg1089
F21.0
sg1090
VFEB 18, 1996
p1383
sg1092
V6-4
p1384
sg1094
VTyler Dorsey
p1385
sg1096
I1610612737
sg1097
g43
sg1099
g556
sg1100
V00
p1386
sg1102
g47
sg1104
I1628416
ssI1628418
(dp1387
g743
VIndiana
p1388
sg745
V248
p1389
sg747
V2017
p1390
sg749
F20.0
sg750
VJUL 31, 1997
p1391
sg752
V6-10
p1392
sg754
VThomas Bryant
p1393
sg756
I1610612747
sg757
V31
p1394
sg758
g556
sg759
V00
p1395
sg761
g70
sg762
I1628418
ssI1628420
(dp1396
g73
VIowa State
p1397
sg74
V175
p1398
sg76
V2017
p1399
sg78
F22.0
sg79
VJUN 27, 1995
p1400
sg81
V6-3
p1401
sg83
VMonte Morris
p1402
sg85
I1610612743
sg86
V11
p1403
sg88
g556
sg89
V00
p1404
sg91
g47
sg92
I1628420
ssI1628421
(dp1405
g326
VFlorida
p1406
sg328
V200
p1407
sg330
V2017
p1408
sg332
F22.0
sg333
VMAR 07, 1995
p1409
sg335
V6-8
p1410
sg337
VDevin Robinson
p1411
sg339
I1610612764
sg340
g229
sg342
g556
sg343
V00
p1412
sg345
g133
sg346
I1628421
ssI1628422
(dp1413
g672
VHouston
p1414
sg674
V210
p1415
sg676
V2017
p1416
sg678
F23.0
sg679
VMAY 06, 1994
p1417
sg681
V6-5
p1418
sg683
VDamyean Dotson
p1419
sg685
I1610612752
sg686
V21
p1420
sg688
g556
sg689
V00
p1421
sg691
g47
sg692
I1628422
ssI1628424
(dp1422
g157
VArizona
p1423
sg159
V170
p1424
sg161
V2017
p1425
sg163
F20.0
sg164
VJUL 04, 1997
p1426
sg166
V6-4
p1427
sg168
VKobi Simmons
p1428
sg170
I1610612763
sg171
g43
sg172
g556
sg173
V00
p1429
sg175
g47
sg176
I1628424
ssI1628425
(dp1430
g348
VSouthern Methodist
p1431
sg350
V230
p1432
sg352
V2017
p1433
sg354
F22.0
sg355
VFEB 10, 1995
p1434
sg357
V6-6
p1435
sg359
VSterling Brown
p1436
sg361
I1610612749
sg362
V23
p1437
sg364
g556
sg365
V00
p1438
sg367
g47
sg368
I1628425
ssI1628429
(dp1439
g1263
VDayton
p1440
sg1265
V196
p1441
sg1267
V2017
p1442
sg1269
F23.0
sg1270
VJUL 01, 1994
p1443
sg1272
V6-5
p1444
sg1274
VCharles Cooke
p1445
sg1276
I1610612740
sg1277
g617
sg1279
g556
sg1280
V00
p1446
sg1282
g47
sg1283
I1628429
ssI1628432
(dp1447
g370
VMiami (FL)
p1448
sg372
V210
p1449
sg374
V2017
p1450
sg376
F22.0
sg377
VJUN 11, 1995
p1451
sg379
V6-6
p1452
sg381
VDavon Reed
p1453
sg383
I1610612756
sg384
V32
p1454
sg385
g556
sg386
V00
p1455
sg388
g47
sg389
I1628432
ssI1628436
(dp1456
g672
VVanderbilt
p1457
sg674
V250
p1458
sg676
V2017
p1459
sg678
F22.0
sg679
VJUL 15, 1995
p1460
sg681
V7-1
p1461
sg683
VLuke Kornet
p1462
sg685
I1610612752
sg686
g43
sg688
g556
sg689
V00
p1463
sg691
VF-C
p1464
sg692
I1628436
ssI1628439
(dp1465
g672
VNorth Carolina
p1466
sg674
V242
p1467
sg676
V2017
p1468
sg678
F23.0
sg679
VJUL 24, 1994
p1469
sg681
V6-9
p1470
sg683
VIsaiah Hicks
p1471
sg685
I1610612752
sg686
g617
sg688
g556
sg689
V00
p1472
sg691
g133
sg692
I1628439
ssI1628443
(dp1473
g571
VArizona
p1474
sg573
V200
p1475
sg575
V2017
p1476
sg577
F24.0
sg578
VJAN 15, 1993
p1477
sg580
V6-3
p1478
sg582
VKadeem Allen
p1479
sg584
I1610612738
sg585
V45
p1480
sg587
g556
sg588
V00
p1481
sg590
g47
sg591
I1628443
ssI1628444
(dp1482
g571
VCalifornia
p1483
sg573
V198
p1484
sg575
V2017
p1485
sg577
F23.0
sg578
VJUL 03, 1994
p1486
sg580
V6-6
p1487
sg582
VJabari Bird
p1488
sg584
I1610612738
sg585
V26
p1489
sg587
g556
sg588
V00
p1490
sg590
g47
sg591
I1628444
ssI1628449
(dp1491
g490
VOregon
p1492
sg492
V200
p1493
sg494
V2017
p1494
sg496
F24.0
sg497
VJAN 11, 1993
p1495
sg499
V6-10
p1496
sg501
VChris Boucher
p1497
sg503
I1610612744
sg504
V25
p1498
sg505
g556
sg506
V00
p1499
sg508
g133
sg509
I1628449
ssI1628451
(dp1500
g232
VEastern Washington
p1501
sg234
V223
p1502
sg236
V2017
p1503
sg238
F23.0
sg239
VSEP 04, 1994
p1504
sg241
V6-8
p1505
sg243
VJacob Wiley
p1506
sg245
I1610612751
sg246
V21
p1507
sg247
g556
sg248
V00
p1508
sg250
g133
sg251
I1628451
ssI1628454
(dp1509
g326
VPittsburgh
p1510
sg328
V235
p1511
sg330
V2017
p1512
sg332
F23.0
sg333
VSEP 05, 1994
p1513
sg335
V6-9
p1514
sg337
VMike Young
p1515
sg339
I1610612764
sg340
g617
sg342
g556
sg343
V00
p1516
sg345
g133
sg346
I1628454
ssI1628455
(dp1517
g370
VLamar
p1518
sg372
V195
p1519
sg374
V2017
p1520
sg376
F27.0
sg377
VAUG 18, 1990
p1521
sg379
V6-1
p1522
sg381
VMike James
p1523
sg383
I1610612756
sg384
V55
p1524
sg385
g556
sg386
V00
p1525
sg388
g47
sg389
I1628455
ssI1628462
(dp1526
g135
Nsg137
V196
p1527
sg139
V2017
p1528
sg141
F30.0
sg142
VMAR 19, 1987
p1529
sg144
V6-5
p1530
sg146
VMilos Teodosic
p1531
sg148
I1610612746
sg149
g617
sg150
g556
sg151
V00
p1532
sg153
g47
sg155
I1628462
ssI1628463
(dp1533
g1083
VGeorge Washington
p1534
sg1085
V238
p1535
sg1087
V2017
p1536
sg1089
F23.0
sg1090
VFEB 09, 1994
p1537
sg1092
V6-9
p1538
sg1094
VTyler Cavanaugh
p1539
sg1096
I1610612737
sg1097
V34
p1540
sg1099
g556
sg1100
V00
p1541
sg1102
g133
sg1104
I1628463
ssI1628464
(dp1542
g571
Nsg573
V243
p1543
sg575
V2017
p1544
sg577
F25.0
sg578
VAPR 04, 1992
p1545
sg580
V6-9
p1546
sg582
VDaniel Theis
p1547
sg584
I1610612738
sg585
V27
p1548
sg587
g556
sg588
V00
p1549
sg590
VF-C
p1550
sg591
I1628464
ssI1628467
(dp1551
g832
Nsg834
V220
p1552
sg836
V2017
p1553
sg838
F25.0
sg839
VJAN 29, 1992
p1554
sg841
V6-11
p1555
sg843
VMaxi Kleber
p1556
sg845
I1610612742
sg846
V42
p1557
sg847
g556
sg849
V00
p1558
sg851
g133
sg852
I1628467
ssI1628469
(dp1559
g414
VLouisiana State
p1560
sg416
V197
p1561
sg418
V2017
p1562
sg420
F21.0
sg421
VOCT 04, 1996
p1563
sg423
V6-4
p1564
sg425
VAntonio Blakeney
p1565
sg427
I1610612741
sg428
g960
sg430
g556
sg431
V00
p1566
sg433
g47
sg434
I1628469
ssI1628470
(dp1567
g73
VSouth Carolina Upstate
p1568
sg74
V215
p1569
sg76
V2017
p1570
sg78
F26.0
sg79
VDEC 19, 1990
p1571
sg81
V6-6
p1572
sg83
VTorrey Craig
p1573
sg85
I1610612743
sg86
g131
sg88
g556
sg89
V00
p1574
sg91
VG-F
p1575
sg92
I1628470
ssI1628473
(dp1576
g232
Nsg234
V220
p1577
sg236
V2017
p1578
sg238
F25.0
sg239
VJAN 24, 1992
p1579
sg241
V6-4
p1580
sg243
VYakuba Ouattara
p1581
sg245
I1610612751
sg246
V00
p1582
sg247
g556
sg248
V00
p1583
sg250
g47
sg251
I1628473
ssI1628475
(dp1584
g272
VCentral Florida
p1585
sg274
V210
p1586
sg276
V2017
p1587
sg278
F24.0
sg279
VOCT 14, 1993
p1588
sg281
V6-5
p1589
sg283
VMatt Williams Jr.
p1590
sg285
I1610612748
sg286
V12
p1591
sg288
g556
sg289
V00
p1592
sg291
g47
sg292
I1628475
ssI1628476
(dp1593
g272
VMichigan
p1594
sg274
V185
p1595
sg276
V2017
p1596
sg278
F22.0
sg279
VAPR 03, 1995
p1597
sg281
V6-1
p1598
sg283
VDerrick Walton Jr.
p1599
sg285
I1610612748
sg286
V14
p1600
sg288
g556
sg289
V00
p1601
sg291
g47
sg292
I1628476
ssI203076
(dp1602
g1263
VKentucky
p1603
sg1265
V253
p1604
sg1267
V2017
p1605
sg1269
F24.0
sg1270
VMAR 11, 1993
p1606
sg1272
V6-10
p1607
sg1274
VAnthony Davis
p1608
sg1276
I1610612740
sg1277
V23
p1609
sg1279
g19
sg1280
V00
p1610
sg1282
VF-C
p1611
sg1283
I203076
ssI203077
(dp1612
g720
VKentucky
p1613
sg722
V232
p1614
sg724
V2017
p1615
sg726
F24.0
sg727
VSEP 26, 1993
p1616
sg729
V6-7
p1617
sg731
VMichael Kidd-Gilchrist
p1618
sg733
I1610612766
sg734
V14
p1619
sg736
g19
sg737
V00
p1620
sg739
g133
sg741
I203077
ssI203078
(dp1621
g326
VFlorida
p1622
sg328
V207
p1623
sg330
V2017
p1624
sg332
F24.0
sg333
VJUN 28, 1993
p1625
sg335
V6-5
p1626
sg337
VBradley Beal
p1627
sg339
I1610612764
sg340
g131
sg342
g19
sg343
V00
p1628
sg345
g47
sg346
I203078
ssI203079
(dp1629
g272
VSyracuse
p1630
sg274
V215
p1631
sg276
V2017
p1632
sg278
F25.0
sg279
VDEC 10, 1991
p1633
sg281
V6-4
p1634
sg283
VDion Waiters
p1635
sg285
I1610612748
sg286
V11
p1636
sg288
g19
sg289
V00
p1637
sg291
g47
sg292
I203079
ssI203081
(dp1638
g650
VWeber State
p1639
sg652
V195
p1640
sg654
V2017
p1641
sg656
F27.0
sg657
VJUL 15, 1990
p1642
sg659
V6-3
p1643
sg661
VDamian Lillard
p1644
sg663
I1610612757
sg664
g87
sg665
g19
sg666
V00
p1645
sg668
g47
sg670
I203081
ssI203082
(dp1646
g2
VWashington
p1647
sg4
V206
p1648
sg6
V2017
p1649
sg8
F26.0
sg9
VFEB 05, 1991
p1650
sg11
V6-7
p1651
sg13
VTerrence Ross
p1652
sg15
I1610612753
sg16
V31
p1653
sg18
g19
sg20
V00
p1654
sg22
VG-F
p1655
sg24
I203082
ssI203083
(dp1656
g26
VConnecticut
p1657
sg28
V279
p1658
sg30
V2017
p1659
sg32
F24.0
sg33
VAUG 10, 1993
p1660
sg35
V6-11
p1661
sg37
VAndre Drummond
p1662
sg39
I1610612765
sg40
g87
sg42
g19
sg44
V00
p1663
sg46
g70
sg48
I203083
ssI1628492
(dp1664
g832
VColorado State
p1665
sg834
V185
p1666
sg836
V2017
p1667
sg838
F23.0
sg839
VNOV 26, 1993
p1668
sg841
V6-4
p1669
sg843
VGian Clavell
p1670
sg845
I1610612742
sg846
g65
sg847
g556
sg849
V00
p1671
sg851
g47
sg852
I1628492
ssI203085
(dp1672
g135
VDuke
p1673
sg137
V200
p1674
sg139
V2017
p1675
sg141
F25.0
sg142
VAUG 01, 1992
p1676
sg144
V6-4
p1677
sg146
VAustin Rivers
p1678
sg148
I1610612746
sg149
V25
p1679
sg150
g19
sg151
V00
p1680
sg153
g47
sg155
I203085
ssI203086
(dp1681
g650
VIllinois
p1682
sg652
V255
p1683
sg654
V2017
p1684
sg656
F25.0
sg657
VFEB 27, 1992
p1685
sg659
V7-1
p1686
sg661
VMeyers Leonard
p1687
sg663
I1610612757
sg664
V11
p1688
sg665
g19
sg666
V00
p1689
sg668
g70
sg670
I203086
ssI203087
(dp1690
g720
VConnecticut
p1691
sg722
V185
p1692
sg724
V2017
p1693
sg726
F25.0
sg727
VMAY 30, 1992
p1694
sg729
V6-5
p1695
sg731
VJeremy Lamb
p1696
sg733
I1610612766
sg734
g131
sg736
g19
sg737
V00
p1697
sg739
g47
sg741
I203087
ssI203089
(dp1698
g348
VNorth Carolina
p1699
sg350
V229
p1700
sg352
V2017
p1701
sg354
F26.0
sg355
VDEC 28, 1990
p1702
sg357
V6-11
p1703
sg359
VJohn Henson
p1704
sg361
I1610612749
sg362
V31
p1705
sg364
g19
sg365
V00
p1706
sg367
VF-C
p1707
sg368
I203089
ssI203090
(dp1708
g650
VSt. John's (NY)
p1709
sg652
V220
p1710
sg654
V2017
p1711
sg656
F24.0
sg657
VMAY 11, 1993
p1712
sg659
V6-9
p1713
sg661
VMaurice Harkless
p1714
sg663
I1610612757
sg664
g617
sg665
g19
sg666
V00
p1715
sg668
g133
sg670
I203090
ssI203092
(dp1716
g232
VNorth Carolina
p1717
sg234
V250
p1718
sg236
V2017
p1719
sg238
F27.0
sg239
VJAN 17, 1990
p1720
sg241
V7-0
p1721
sg243
VTyler Zeller
p1722
sg245
I1610612751
sg246
V44
p1723
sg247
g19
sg248
V00
p1724
sg250
g70
sg251
I203092
ssI1628503
(dp1725
g2
VPittsburgh
p1726
sg4
V213
p1727
sg6
V2017
p1728
sg8
F24.0
sg9
VJAN 12, 1993
p1729
sg11
V6-7
p1730
sg13
VJamel Artis
p1731
sg15
I1610612753
sg16
g87
sg18
g556
sg20
V00
p1732
sg22
g47
sg24
I1628503
ssI1628506
(dp1733
g801
VVirginia
p1734
sg803
V190
p1735
sg805
V2017
p1736
sg807
F23.0
sg808
VOCT 03, 1994
p1737
sg810
V6-2
p1738
sg812
VLondon Perrantes
p1739
sg814
I1610612739
sg815
V15
p1740
sg817
g556
sg818
V00
p1741
sg820
g47
sg821
I1628506
ssI203101
(dp1742
g1083
VDuke
p1743
sg1085
V249
p1744
sg1087
V2017
p1745
sg1089
F29.0
sg1090
VSEP 01, 1988
p1746
sg1092
V6-11
p1747
sg1094
VMiles Plumlee
p1748
sg1096
I1610612737
sg1097
V18
p1749
sg1099
g19
sg1100
V00
p1750
sg1102
g70
sg1104
I203101
ssI2403
(dp1751
g620
VSao Carlos, Brazil
p1752
sg622
V250
p1753
sg624
V2017
p1754
sg626
F35.0
sg627
VSEP 13, 1982
p1755
sg629
V6-11
p1756
sg631
VNene
p1757
sg633
I1610612745
sg634
V42
p1758
sg635
V15
p1759
sg637
V00
p1760
sg639
VC-F
p1761
sg640
I2403
ssI203109
(dp1762
g801
VMarquette
p1763
sg803
V235
p1764
sg805
V2017
p1765
sg807
F27.0
sg808
VJUL 06, 1990
p1766
sg810
V6-6
p1767
sg812
VJae Crowder
p1768
sg814
I1610612739
sg815
V99
p1769
sg817
g19
sg818
V00
p1770
sg820
g133
sg821
I203109
ssI203110
(dp1771
g490
VMichigan State
p1772
sg492
V230
p1773
sg494
V2017
p1774
sg496
F27.0
sg497
VMAR 04, 1990
p1775
sg499
V6-7
p1776
sg501
VDraymond Green
p1777
sg503
I1610612744
sg504
V23
p1778
sg505
g19
sg506
V00
p1779
sg508
g133
sg509
I203110
ssI203112
(dp1780
g232
VBaylor
p1781
sg234
V240
p1782
sg236
V2017
p1783
sg238
F27.0
sg239
VOCT 06, 1990
p1784
sg241
V6-7
p1785
sg243
VQuincy Acy
p1786
sg245
I1610612751
sg246
V13
p1787
sg247
g19
sg248
V00
p1788
sg250
g133
sg251
I203112
ssI203114
(dp1789
g348
VTexas A&M
p1790
sg350
V234
p1791
sg352
V2017
p1792
sg354
F26.0
sg355
VAUG 12, 1991
p1793
sg357
V6-8
p1794
sg359
VKhris Middleton
p1795
sg361
I1610612749
sg362
V22
p1796
sg364
g19
sg365
V00
p1797
sg367
g133
sg368
I203114
ssI203115
(dp1798
g73
VMemphis
p1799
sg74
V190
p1800
sg76
V2017
p1801
sg78
F26.0
sg79
VJAN 06, 1991
p1802
sg81
V6-6
p1803
sg83
VWill Barton
p1804
sg85
I1610612743
sg86
g19
sg88
g19
sg89
V00
p1805
sg91
VG-F
p1806
sg92
I203115
ssI203118
(dp1807
g326
VVirginia
p1808
sg328
V237
p1809
sg330
V2017
p1810
sg332
F29.0
sg333
VJUL 16, 1988
p1811
sg335
V6-8
p1812
sg337
VMike Scott
p1813
sg339
I1610612764
sg340
V30
p1814
sg342
g19
sg343
V00
p1815
sg345
g133
sg346
I203118
ssI200765
(dp1816
g1263
VKentucky
p1817
sg1265
V186
p1818
sg1267
V2017
p1819
sg1269
F31.0
sg1270
VFEB 22, 1986
p1820
sg1272
V6-1
p1821
sg1274
VRajon Rondo
p1822
sg1276
I1610612740
sg1277
g960
sg1279
V11
p1823
sg1280
V00
p1824
sg1282
g47
sg1283
I200765
ssI203121
(dp1825
g1263
VKentucky
p1826
sg1265
V225
p1827
sg1267
V2017
p1828
sg1269
F27.0
sg1270
VMAR 21, 1990
p1829
sg1272
V6-8
p1830
sg1274
VDarius Miller
p1831
sg1276
I1610612740
sg1277
V21
p1832
sg1279
g131
sg1280
V00
p1833
sg1282
g133
sg1283
I203121
ssI203124
(dp1834
g672
VNorfolk State
p1835
sg674
V250
p1836
sg676
V2017
p1837
sg678
F27.0
sg679
VMAR 26, 1990
p1838
sg681
V6-10
p1839
sg683
VKyle O'Quinn
p1840
sg685
I1610612752
sg686
g960
sg688
g19
sg689
V00
p1841
sg691
VC-F
p1842
sg692
I203124
ssI203141
(dp1843
g348
VBosnia
p1844
sg350
V242
p1845
sg352
V2017
p1846
sg354
F32.0
sg355
VSEP 17, 1985
p1847
sg357
V6-9
p1848
sg359
VMirza Teletovic
p1849
sg361
I1610612749
sg362
V35
p1850
sg364
g19
sg365
V00
p1851
sg367
g133
sg368
I203141
ssI203145
(dp1852
g1083
VOld Dominion
p1853
sg1085
V201
p1854
sg1087
V2017
p1855
sg1089
F28.0
sg1090
VJUL 01, 1989
p1856
sg1092
V6-5
p1857
sg1094
VKent Bazemore
p1858
sg1096
I1610612737
sg1097
V24
p1859
sg1099
g19
sg1100
V00
p1860
sg1102
g47
sg1104
I203145
ssI203506
(dp1861
g436
VIndiana
p1862
sg438
V210
p1863
sg440
V2017
p1864
sg442
F25.0
sg443
VMAY 04, 1992
p1865
sg445
V6-4
p1866
sg447
VVictor Oladipo
p1867
sg449
I1610612754
sg450
g617
sg452
g617
sg453
V00
p1868
sg455
g47
sg456
I203506
ssI203186
(dp1869
g135
VSaint Louis
p1870
sg137
V245
p1871
sg139
V2017
p1872
sg141
F27.0
sg142
VMAY 16, 1990
p1873
sg144
V6-11
p1874
sg146
VWillie Reed
p1875
sg148
I1610612746
sg149
V35
p1876
sg150
g43
sg151
V00
p1877
sg153
g70
sg155
I203186
ssI101107
(dp1878
g720
VNorth Carolina
p1879
sg722
V237
p1880
sg724
V2017
p1881
sg726
F31.0
sg727
VJUN 19, 1986
p1882
sg729
V6-9
p1883
sg731
VMarvin Williams
p1884
sg733
I1610612766
sg734
g43
sg736
V12
p1885
sg737
V00
p1886
sg739
g133
sg741
I101107
ssI201142
(dp1887
g490
VTexas
p1888
sg492
V240
p1889
sg494
V2017
p1890
sg496
F29.0
sg497
VSEP 29, 1988
p1891
sg499
V6-9
p1892
sg501
VKevin Durant
p1893
sg503
I1610612744
sg504
V35
p1894
sg505
V10
p1895
sg506
V00
p1896
sg508
g133
sg509
I201142
ssI201143
(dp1897
g571
VFlorida
p1898
sg573
V245
p1899
sg575
V2017
p1900
sg577
F31.0
sg578
VJUN 03, 1986
p1901
sg580
V6-10
p1902
sg582
VAl Horford
p1903
sg584
I1610612738
sg585
V42
p1904
sg587
V10
p1905
sg588
V00
p1906
sg590
VF-C
p1907
sg591
I201143
ssI201144
(dp1908
g157
VOhio State
p1909
sg159
V175
p1910
sg161
V2017
p1911
sg163
F30.0
sg164
VOCT 11, 1987
p1912
sg166
V6-1
p1913
sg168
VMike Conley
p1914
sg170
I1610612763
sg171
V11
p1915
sg172
V10
p1916
sg173
V00
p1917
sg175
g47
sg176
I201144
ssI201145
(dp1918
g801
VGeorgetown
p1919
sg803
V235
p1920
sg805
V2017
p1921
sg807
F31.0
sg808
VAUG 28, 1986
p1922
sg810
V6-9
p1923
sg812
VJeff Green
p1924
sg814
I1610612739
sg815
V32
p1925
sg817
g960
sg818
V00
p1926
sg820
g133
sg821
I201145
ssI201147
(dp1927
g743
VFlorida
p1928
sg745
V186
p1929
sg747
V2017
p1930
sg749
F31.0
sg750
VMAR 05, 1986
p1931
sg752
V6-9
p1932
sg754
VCorey Brewer
p1933
sg756
I1610612747
sg757
g131
sg758
V10
p1934
sg759
V00
p1935
sg761
g133
sg762
I201147
ssI201148
(dp1936
g157
VNorth Carolina
p1937
sg159
V235
p1938
sg161
V2017
p1939
sg163
F30.0
sg164
VOCT 05, 1987
p1940
sg166
V6-10
p1941
sg168
VBrandan Wright
p1942
sg170
I1610612763
sg171
V34
p1943
sg172
g960
sg173
V00
p1944
sg175
VF-C
p1945
sg176
I201148
ssI201149
(dp1946
g672
VFlorida
p1947
sg674
V230
p1948
sg676
V2017
p1949
sg678
F32.0
sg679
VFEB 25, 1985
p1950
sg681
V6-11
p1951
sg683
VJoakim Noah
p1952
sg685
I1610612752
sg686
V13
p1953
sg688
V10
p1954
sg689
V00
p1955
sg691
g70
sg692
I201149
ssI203200
(dp1956
g414
VWashington
p1957
sg416
V185
p1958
sg418
V2017
p1959
sg420
F28.0
sg421
VAPR 05, 1989
p1960
sg423
V6-6
p1961
sg425
VJustin Holiday
p1962
sg427
I1610612741
sg428
g229
sg430
g617
sg431
V00
p1963
sg433
g47
sg434
I203200
ssI201156
(dp1964
g490
VSouthern California
p1965
sg492
V210
p1966
sg494
V2017
p1967
sg496
F32.0
sg497
VJUN 01, 1985
p1968
sg499
V6-7
p1969
sg501
VNick Young
p1970
sg503
I1610612744
sg504
g636
sg505
V10
p1971
sg506
V00
p1972
sg508
VG-F
p1973
sg509
I201156
ssI201158
(dp1974
g1083
VBologna, Italy
p1975
sg1085
V210
p1976
sg1087
V2017
p1977
sg1089
F31.0
sg1090
VMAR 25, 1986
p1978
sg1092
V6-5
p1979
sg1094
VMarco Belinelli
p1980
sg1096
I1610612737
sg1097
g131
sg1099
V10
p1981
sg1100
V00
p1982
sg1102
VG-F
p1983
sg1104
I201158
ssI201160
(dp1984
g326
VColorado State
p1985
sg328
V240
p1986
sg330
V2017
p1987
sg332
F31.0
sg333
VMAR 02, 1986
p1988
sg335
V7-0
p1989
sg337
VJason Smith
p1990
sg339
I1610612764
sg340
V14
p1991
sg342
g960
sg343
V00
p1992
sg345
VF-C
p1993
sg346
I201160
ssI203210
(dp1994
g157
VAlabama
p1995
sg159
V227
p1996
sg161
V2017
p1997
sg163
F27.0
sg164
VJUN 21, 1990
p1998
sg166
V6-9
p1999
sg168
VJaMychal Green
p2000
sg170
I1610612763
sg171
g87
sg172
g131
sg173
V00
p2001
sg175
g133
sg176
I203210
ssI201163
(dp2002
g73
VDePaul
p2003
sg74
V225
p2004
sg76
V2017
p2005
sg78
F30.0
sg79
VMAY 10, 1987
p2006
sg81
V6-9
p2007
sg83
VWilson Chandler
p2008
sg85
I1610612743
sg86
V21
p2009
sg88
g960
sg89
V00
p2010
sg91
g133
sg92
I201163
ssI201166
(dp2011
g94
VOregon
p2012
sg96
V161
p2013
sg98
V2017
p2014
sg100
F32.0
sg101
VJAN 14, 1985
p2015
sg103
V6-0
p2016
sg105
VAaron Brooks
p2017
sg107
I1610612750
sg108
V30
p2018
sg110
g960
sg111
V00
p2019
sg113
g47
sg114
I201166
ssI201167
(dp2020
g2
VUCLA
p2021
sg4
V210
p2022
sg6
V2017
p2023
sg8
F32.0
sg9
VOCT 15, 1985
p2024
sg11
V6-5
p2025
sg13
VArron Afflalo
p2026
sg15
I1610612753
sg16
g617
sg18
V10
p2027
sg20
V00
p2028
sg22
g47
sg24
I201167
ssI101112
(dp2029
g801
VArizona
p2030
sg803
V255
p2031
sg805
V2017
p2032
sg807
F34.0
sg808
VMAY 17, 1983
p2033
sg810
V6-11
p2034
sg812
VChanning Frye
p2035
sg814
I1610612739
sg815
g65
sg817
V11
p2036
sg818
V00
p2037
sg820
g133
sg821
I101112
ssI201177
(dp2038
g832
VDuke
p2039
sg834
V240
p2040
sg836
V2017
p2041
sg838
F30.0
sg839
VFEB 28, 1987
p2042
sg841
V6-10
p2043
sg843
VJosh McRoberts
p2044
sg845
I1610612742
sg846
V13
p2045
sg847
V10
p2046
sg849
V00
p2047
sg851
VF-C
p2048
sg852
I201177
ssI201188
(dp2049
g157
VBarcelona, Spain
p2050
sg159
V255
p2051
sg161
V2017
p2052
sg163
F32.0
sg164
VJAN 29, 1985
p2053
sg166
V7-1
p2054
sg168
VMarc Gasol
p2055
sg170
I1610612763
sg171
V33
p2056
sg172
g960
sg173
V00
p2057
sg175
g70
sg176
I201188
ssI201196
(dp2058
g672
VNevada
p2059
sg674
V190
p2060
sg676
V2017
p2061
sg678
F31.0
sg679
VAPR 11, 1986
p2062
sg681
V6-3
p2063
sg683
VRamon Sessions
p2064
sg685
I1610612752
sg686
g109
sg688
V10
p2065
sg689
V00
p2066
sg691
g47
sg692
I201196
ssI2544
(dp2067
g801
VSt. Vincent-St. Mary HS (OH)
p2068
sg803
V250
p2069
sg805
V2017
p2070
sg807
F32.0
sg808
VDEC 30, 1984
p2071
sg810
V6-8
p2072
sg812
VLeBron James
p2073
sg814
I1610612739
sg815
V23
p2074
sg817
V14
p2075
sg818
V00
p2076
sg820
VF-G
p2077
sg821
I2544
ssI2546
(dp2078
g539
VSyracuse
p2079
sg541
V240
p2080
sg543
V2017
p2081
sg545
F33.0
sg546
VMAY 29, 1984
p2082
sg548
V6-8
p2083
sg550
VCarmelo Anthony
p2084
sg552
I1610612760
sg553
g229
sg555
V14
p2085
sg557
V00
p2086
sg559
g133
sg560
I2546
ssI2548
(dp2087
g801
VMarquette
p2088
sg803
V220
p2089
sg805
V2017
p2090
sg807
F35.0
sg808
VJAN 17, 1982
p2091
sg810
V6-4
p2092
sg812
VDwyane Wade
p2093
sg814
I1610612739
sg815
g960
sg817
V14
p2094
sg818
V00
p2095
sg820
g47
sg821
I2548
ssI2555
(dp2096
g539
VKansas
p2097
sg541
V255
p2098
sg543
V2017
p2099
sg545
F37.0
sg546
VOCT 26, 1980
p2100
sg548
V6-10
p2101
sg550
VNick Collison
p2102
sg552
I1610612760
sg553
g617
sg555
V13
p2103
sg557
V00
p2104
sg559
g133
sg560
I2555
ssI2561
(dp2105
g490
VXavier
p2106
sg492
V250
p2107
sg494
V2017
p2108
sg496
F37.0
sg497
VAUG 29, 1980
p2109
sg499
V6-9
p2110
sg501
VDavid West
p2111
sg503
I1610612744
sg504
g131
sg505
V14
p2112
sg506
V00
p2113
sg508
g133
sg509
I2561
ssI201229
(dp2114
g26
VCreighton
p2115
sg28
V240
p2116
sg30
V2017
p2117
sg32
F32.0
sg33
VJUN 01, 1985
p2118
sg35
V6-8
p2119
sg37
VAnthony Tolliver
p2120
sg39
I1610612765
sg40
V43
p2121
sg42
g960
sg44
V00
p2122
sg46
g133
sg48
I201229
ssI1626643
(dp2123
g50
VKansas State
p2124
sg52
V200
p2125
sg54
V2017
p2126
sg56
F28.0
sg57
VNOV 10, 1989
p2127
sg59
V6-1
p2128
sg61
VJacob Pullen
p2129
sg63
I1610612755
sg64
V00
p2130
sg66
g556
sg67
V00
p2131
sg69
g47
sg71
I1626643
ssI2585
(dp2132
g490
VTbilisi, Georgia
p2133
sg492
V270
p2134
sg494
V2017
p2135
sg496
F33.0
sg497
VFEB 10, 1984
p2136
sg499
V6-11
p2137
sg501
VZaza Pachulia
p2138
sg503
I1610612744
sg504
V27
p2139
sg505
V14
p2140
sg506
V00
p2141
sg508
g70
sg509
I2585
ssI1626202
(dp2142
g436
VOregon
p2143
sg438
V185
p2144
sg440
V2017
p2145
sg442
F25.0
sg443
VJUN 27, 1992
p2146
sg445
V6-2
p2147
sg447
VJoe Young
p2148
sg449
I1610612754
sg450
g131
sg452
g43
sg453
V00
p2149
sg455
g47
sg456
I1626202
ssI2594
(dp2150
g801
VCreighton
p2151
sg803
V212
p2152
sg805
V2017
p2153
sg807
F36.0
sg808
VMAR 17, 1981
p2154
sg810
V6-7
p2155
sg812
VKyle Korver
p2156
sg814
I1610612739
sg815
V26
p2157
sg817
V14
p2158
sg818
V00
p2159
sg820
g47
sg821
I2594
ssI2617
(dp2160
g272
VFlorida
p2161
sg274
V235
p2162
sg276
V2017
p2163
sg278
F37.0
sg279
VJUN 09, 1980
p2164
sg281
V6-8
p2165
sg283
VUdonis Haslem
p2166
sg285
I1610612748
sg286
V40
p2167
sg288
V14
p2168
sg289
V00
p2169
sg291
g133
sg292
I2617
ssI203107
(dp2170
g326
Nsg328
V210
p2171
sg330
V2017
p2172
sg332
F26.0
sg333
VOCT 30, 1991
p2173
sg335
V6-7
p2174
sg337
VTomas Satoransky
p2175
sg339
I1610612764
sg340
V31
p2176
sg342
g109
sg343
V00
p2177
sg345
VF-G
p2178
sg346
I203107
ssI203382
(dp2179
g571
VWashington State
p2180
sg573
V260
p2181
sg575
V2017
p2182
sg577
F30.0
sg578
VDEC 09, 1986
p2183
sg580
V6-10
p2184
sg582
VAron Baynes
p2185
sg584
I1610612738
sg585
V46
p2186
sg587
g19
sg588
V00
p2187
sg590
g70
sg591
I203382
ssI201152
(dp2188
g436
VGeorgia Tech
p2189
sg438
V230
p2190
sg440
V2017
p2191
sg442
F29.0
sg443
VJUN 21, 1988
p2192
sg445
V6-8
p2193
sg447
VThaddeus Young
p2194
sg449
I1610612754
sg450
V21
p2195
sg452
V10
p2196
sg453
V00
p2197
sg455
g133
sg456
I201152
ssI2730
(dp2198
g720
VSW Atlanta Christian Academy (GA)
p2199
sg722
V265
p2200
sg724
V2017
p2201
sg726
F31.0
sg727
VDEC 08, 1985
p2202
sg729
V6-11
p2203
sg731
VDwight Howard
p2204
sg733
I1610612766
sg734
V12
p2205
sg736
V13
p2206
sg737
V00
p2207
sg739
g70
sg741
I2730
ssI2733
(dp2208
g490
VPeoria Central HS (IL)
p2209
sg492
V192
p2210
sg494
V2017
p2211
sg496
F32.0
sg497
VSEP 11, 1985
p2212
sg499
V6-7
p2213
sg501
VShaun Livingston
p2214
sg503
I1610612744
sg504
V34
p2215
sg505
V12
p2216
sg506
V00
p2217
sg508
g47
sg509
I2733
ssI2734
(dp2218
g832
VWisconsin
p2219
sg834
V185
p2220
sg836
V2017
p2221
sg838
F34.0
sg839
VFEB 27, 1983
p2222
sg841
V6-3
p2223
sg843
VDevin Harris
p2224
sg845
I1610612742
sg846
V34
p2225
sg847
V13
p2226
sg849
V00
p2227
sg851
g47
sg852
I2734
ssI2736
(dp2228
g743
VDuke
p2229
sg745
V220
p2230
sg747
V2017
p2231
sg749
F32.0
sg750
VAPR 16, 1985
p2232
sg752
V6-9
p2233
sg754
VLuol Deng
p2234
sg756
I1610612747
sg757
g960
sg758
V13
p2235
sg759
V00
p2236
sg761
g133
sg762
I2736
ssI2738
(dp2237
g490
VArizona
p2238
sg492
V215
p2239
sg494
V2017
p2240
sg496
F33.0
sg497
VJAN 28, 1984
p2241
sg499
V6-6
p2242
sg501
VAndre Iguodala
p2243
sg503
I1610612744
sg504
g960
sg505
V13
p2244
sg506
V00
p2245
sg508
VG-F
p2246
sg509
I2738
ssI2744
(dp2247
g436
VPrentiss HS (MS)
p2248
sg438
V280
p2249
sg440
V2017
p2250
sg442
F32.0
sg443
VJAN 04, 1985
p2251
sg445
V6-10
p2252
sg447
VAl Jefferson
p2253
sg449
I1610612754
sg450
V25
p2254
sg452
V13
p2255
sg453
V00
p2256
sg455
g70
sg456
I2744
ssI2747
(dp2257
g801
VSt. Benedict's Prep (NJ)
p2258
sg803
V225
p2259
sg805
V2017
p2260
sg807
F32.0
sg808
VSEP 09, 1985
p2261
sg810
V6-6
p2262
sg812
VJR Smith
p2263
sg814
I1610612739
sg815
g19
sg817
V13
p2264
sg818
V00
p2265
sg820
VG-F
p2266
sg821
I2747
ssI2749
(dp2267
g1263
VSaint Joseph's
p2268
sg1265
V190
p2269
sg1267
V2017
p2270
sg1269
F35.0
sg1270
VFEB 09, 1982
p2271
sg1272
V6-0
p2272
sg1274
VJameer Nelson
p2273
sg1276
I1610612740
sg1277
V14
p2274
sg1279
V13
p2275
sg1280
V00
p2276
sg1282
g47
sg1283
I2749
ssI203457
(dp2277
g832
VKentucky
p2278
sg834
V220
p2279
sg836
V2017
p2280
sg838
F23.0
sg839
VAPR 10, 1994
p2281
sg841
V6-11
p2282
sg843
VNerlens Noel
p2283
sg845
I1610612742
sg846
g131
sg847
g131
sg849
V00
p2284
sg851
g70
sg852
I203457
ssI2754
(dp2285
g1263
VOklahoma State
p2286
sg1265
V213
p2287
sg1267
V2017
p2288
sg1269
F35.0
sg1270
VJAN 11, 1982
p2289
sg1272
V6-4
p2290
sg1274
VTony Allen
p2291
sg1276
I1610612740
sg1277
V24
p2292
sg1279
V13
p2293
sg1280
V00
p2294
sg1282
VG-F
p2295
sg1283
I2754
ssI203459
(dp2296
g232
VCalifornia
p2297
sg234
V215
p2298
sg236
V2017
p2299
sg238
F25.0
sg239
VAPR 09, 1992
p2300
sg241
V6-6
p2301
sg243
VAllen Crabbe
p2302
sg245
I1610612751
sg246
V33
p2303
sg247
g617
sg248
V00
p2304
sg250
VG-F
p2305
sg251
I203459
ssI203460
(dp2306
g539
VColorado
p2307
sg541
V210
p2308
sg543
V2017
p2309
sg545
F25.0
sg546
VDEC 04, 1991
p2310
sg548
V6-7
p2311
sg550
VAndre Roberson
p2312
sg552
I1610612760
sg553
V21
p2313
sg555
g617
sg557
V00
p2314
sg559
g47
sg560
I203460
ssI203463
(dp2315
g157
VKansas
p2316
sg159
V195
p2317
sg161
V2017
p2318
sg163
F24.0
sg164
VFEB 11, 1993
p2319
sg166
V6-5
p2320
sg168
VBen McLemore
p2321
sg170
I1610612763
sg171
V23
p2322
sg172
g617
sg173
V00
p2323
sg175
g47
sg176
I203463
ssI203464
(dp2324
g200
Nsg202
V200
p2325
sg204
V2017
p2326
sg206
F26.0
sg207
VAPR 30, 1991
p2327
sg209
V6-4
p2328
sg211
VBrandon Paul
p2329
sg213
I1610612759
sg214
g131
sg216
g556
sg218
V00
p2330
sg220
g47
sg221
I203464
ssI203468
(dp2331
g650
VLehigh
p2332
sg652
V190
p2333
sg654
V2017
p2334
sg656
F26.0
sg657
VSEP 19, 1991
p2335
sg659
V6-3
p2336
sg661
VCJ McCollum
p2337
sg663
I1610612757
sg664
g131
sg665
g617
sg666
V00
p2338
sg668
g47
sg670
I203468
ssI203469
(dp2339
g720
VIndiana
p2340
sg722
V240
p2341
sg724
V2017
p2342
sg726
F25.0
sg727
VOCT 05, 1992
p2343
sg729
V7-0
p2344
sg731
VCody Zeller
p2345
sg733
I1610612766
sg734
V40
p2346
sg736
g617
sg737
V00
p2347
sg739
VC-F
p2348
sg741
I203469
ssI203471
(dp2349
g1083
VGermany
p2350
sg1085
V172
p2351
sg1087
V2017
p2352
sg1089
F24.0
sg1090
VSEP 15, 1993
p2353
sg1092
V6-1
p2354
sg1094
VDennis Schroder
p2355
sg1096
I1610612737
sg1097
V17
p2356
sg1099
g617
sg1100
V00
p2357
sg1102
g47
sg1104
I203471
ssI203473
(dp2358
g1083
VSouthern California
p2359
sg1085
V245
p2360
sg1087
V2017
p2361
sg1089
F28.0
sg1090
VAUG 12, 1989
p2362
sg1092
V7-0
p2363
sg1094
VDewayne Dedmon
p2364
sg1096
I1610612737
sg1097
V14
p2365
sg1099
g617
sg1100
V00
p2366
sg1102
g70
sg1104
I203473
ssI2772
(dp2367
g620
VUCLA
p2368
sg622
V215
p2369
sg624
V2017
p2370
sg626
F32.0
sg627
VJUN 30, 1985
p2371
sg629
V6-8
p2372
sg631
VTrevor Ariza
p2373
sg633
I1610612745
sg634
g109
sg635
V13
p2374
sg637
V00
p2375
sg639
VF-G
p2376
sg640
I2772
ssI203481
(dp2377
g832
VKansas
p2378
sg834
V230
p2379
sg836
V2017
p2380
sg838
F27.0
sg839
VMAR 07, 1990
p2381
sg841
V7-0
p2382
sg843
VJeff Withey
p2383
sg845
I1610612742
sg846
V17
p2384
sg847
g617
sg849
V00
p2385
sg851
g70
sg852
I203481
ssI203482
(dp2386
g272
VGonzaga
p2387
sg274
V245
p2388
sg276
V2017
p2389
sg278
F26.0
sg279
VAPR 19, 1991
p2390
sg281
V7-0
p2391
sg283
VKelly Olynyk
p2392
sg285
I1610612748
sg286
g960
sg288
g617
sg289
V00
p2393
sg291
VC-F
p2394
sg292
I203482
ssI203484
(dp2395
g743
VGeorgia
p2396
sg745
V205
p2397
sg747
V2017
p2398
sg749
F24.0
sg750
VFEB 18, 1993
p2399
sg752
V6-5
p2400
sg754
VKentavious Caldwell-Pope
p2401
sg756
I1610612747
sg757
g109
sg758
g617
sg759
V00
p2402
sg761
g47
sg762
I203484
ssI203485
(dp2403
g178
VNorth Carolina State
p2404
sg180
V189
p2405
sg182
V2017
p2406
sg184
F27.0
sg185
VAUG 26, 1990
p2407
sg187
V6-5
p2408
sg189
VLorenzo Brown
p2409
sg191
I1610612761
sg192
g617
sg194
g131
sg195
V00
p2410
sg197
g47
sg198
I203485
ssI203486
(dp2411
g73
VDuke
p2412
sg74
V255
p2413
sg76
V2017
p2414
sg78
F27.0
sg79
VMAR 05, 1990
p2415
sg81
V6-11
p2416
sg83
VMason Plumlee
p2417
sg85
I1610612743
sg86
V24
p2418
sg88
g617
sg89
V00
p2419
sg91
VC-F
p2420
sg92
I203486
ssI203487
(dp2421
g720
VSyracuse
p2422
sg722
V190
p2423
sg724
V2017
p2424
sg726
F26.0
sg727
VOCT 10, 1991
p2425
sg729
V6-6
p2426
sg731
VMichael Carter-Williams
p2427
sg733
I1610612766
sg734
V10
p2428
sg736
g617
sg737
V00
p2429
sg739
g47
sg741
I203487
ssI203488
(dp2430
g1083
VBucknell
p2431
sg1085
V240
p2432
sg1087
V2017
p2433
sg1089
F26.0
sg1090
VJUL 01, 1991
p2434
sg1092
V6-11
p2435
sg1094
VMike Muscala
p2436
sg1096
I1610612737
sg1097
V31
p2437
sg1099
g617
sg1100
V00
p2438
sg1102
VF-C
p2439
sg1104
I203488
ssI203489
(dp2440
g391
VSouth Dakota State
p2441
sg393
V190
p2442
sg395
V2017
p2443
sg397
F26.0
sg398
VMAY 15, 1991
p2444
sg400
V6-4
p2445
sg402
VNate Wolters
p2446
sg404
I1610612762
sg405
V16
p2447
sg407
g43
sg409
V00
p2448
sg411
g47
sg412
I203489
ssI203490
(dp2449
g326
VGeorgetown
p2450
sg328
V198
p2451
sg330
V2017
p2452
sg332
F24.0
sg333
VJUN 03, 1993
p2453
sg335
V6-8
p2454
sg337
VOtto Porter Jr.
p2455
sg339
I1610612764
sg340
V22
p2456
sg342
g617
sg343
V00
p2457
sg345
g133
sg346
I203490
ssI203493
(dp2458
g26
VNorth Carolina
p2459
sg28
V205
p2460
sg30
V2017
p2461
sg32
F26.0
sg33
VMAR 16, 1991
p2462
sg35
V6-7
p2463
sg37
VReggie Bullock
p2464
sg39
I1610612765
sg40
V25
p2465
sg42
g617
sg44
V00
p2466
sg46
g133
sg48
I203493
ssI203496
(dp2467
g50
VTennessee State
p2468
sg52
V225
p2469
sg54
V2017
p2470
sg56
F26.0
sg57
VDEC 14, 1990
p2471
sg59
V6-9
p2472
sg61
VRobert Covington
p2473
sg63
I1610612755
sg64
V33
p2474
sg66
g617
sg67
V00
p2475
sg69
g133
sg71
I203496
ssI203497
(dp2476
g391
VFrance
p2477
sg393
V245
p2478
sg395
V2017
p2479
sg397
F25.0
sg398
VJUN 26, 1992
p2480
sg400
V7-1
p2481
sg402
VRudy Gobert
p2482
sg404
I1610612762
sg405
V27
p2483
sg407
g617
sg409
V00
p2484
sg411
g70
sg412
I203497
ssI203498
(dp2485
g94
VUCLA
p2486
sg96
V221
p2487
sg98
V2017
p2488
sg100
F24.0
sg101
VNOV 13, 1992
p2489
sg103
V6-6
p2490
sg105
VShabazz Muhammad
p2491
sg107
I1610612750
sg108
V15
p2492
sg110
g617
sg111
V00
p2493
sg113
VG-F
p2494
sg114
I203498
ssI203499
(dp2495
g571
VMiami (FL)
p2496
sg573
V175
p2497
sg575
V2017
p2498
sg577
F25.0
sg578
VOCT 02, 1992
p2499
sg580
V5-11
p2500
sg582
VShane Larkin
p2501
sg584
I1610612738
sg585
g65
sg587
g131
sg588
V00
p2502
sg590
g47
sg591
I203499
ssI203500
(dp2503
g539
VPittsburgh
p2504
sg541
V255
p2505
sg543
V2017
p2506
sg545
F24.0
sg546
VJUL 20, 1993
p2507
sg548
V7-0
p2508
sg550
VSteven Adams
p2509
sg552
I1610612760
sg553
V12
p2510
sg555
g617
sg557
V00
p2511
sg559
g70
sg560
I203500
ssI203501
(dp2512
g672
VMichigan
p2513
sg674
V205
p2514
sg676
V2017
p2515
sg678
F25.0
sg679
VMAR 16, 1992
p2516
sg681
V6-6
p2517
sg683
VTim Hardaway Jr.
p2518
sg685
I1610612752
sg686
g131
sg688
g617
sg689
V00
p2519
sg691
VF-G
p2520
sg692
I203501
ssI203503
(dp2521
g348
VNew Mexico
p2522
sg350
V221
p2523
sg352
V2017
p2524
sg354
F26.0
sg355
VNOV 10, 1991
p2525
sg357
V6-7
p2526
sg359
VTony Snell
p2527
sg361
I1610612749
sg362
V21
p2528
sg364
g617
sg365
V00
p2529
sg367
g47
sg368
I203503
ssI203505
(dp2530
g743
VMarquette
p2531
sg745
V200
p2532
sg747
V2017
p2533
sg749
F25.0
sg750
VJUL 17, 1992
p2534
sg752
V6-5
p2535
sg754
VVander Blue
p2536
sg756
I1610612747
sg757
V17
p2537
sg758
g43
sg759
V00
p2538
sg761
g47
sg762
I203505
ssI101106
(dp2539
g743
VUtah
p2540
sg745
V260
p2541
sg747
V2017
p2542
sg749
F32.0
sg750
VNOV 28, 1984
p2543
sg752
V7-0
p2544
sg754
VAndrew Bogut
p2545
sg756
I1610612747
sg757
V66
p2546
sg758
V12
p2547
sg759
V00
p2548
sg761
g70
sg762
I101106
ssI203507
(dp2549
g348
VGreece
p2550
sg350
V222
p2551
sg352
V2017
p2552
sg354
F22.0
sg355
VDEC 06, 1994
p2553
sg357
V6-11
p2554
sg359
VGiannis Antetokounmpo
p2555
sg361
I1610612749
sg362
V34
p2556
sg364
g617
sg365
V00
p2557
sg367
g133
sg368
I203507
ssI101108
(dp2558
g620
VWake Forest
p2559
sg622
V175
p2560
sg624
V2017
p2561
sg626
F32.0
sg627
VMAY 06, 1985
p2562
sg629
V6-0
p2563
sg631
VChris Paul
p2564
sg633
I1610612745
sg634
g131
sg635
V12
p2565
sg637
V00
p2566
sg639
g47
sg640
I101108
ssI101109
(dp2567
g539
VNorth Carolina
p2568
sg541
V205
p2569
sg543
V2017
p2570
sg545
F33.0
sg546
VJUN 26, 1984
p2571
sg548
V6-1
p2572
sg550
VRaymond Felton
p2573
sg552
I1610612760
sg553
g43
sg555
V12
p2574
sg557
V00
p2575
sg559
g47
sg560
I101109
ssI203512
(dp2576
g178
Nsg180
V220
p2577
sg182
V2017
p2578
sg184
F25.0
sg185
VJUL 26, 1992
p2579
sg187
V7-0
p2580
sg189
VLucas Nogueira
p2581
sg191
I1610612761
sg192
V92
p2582
sg194
g131
sg195
V00
p2583
sg197
g70
sg198
I203512
ssI203516
(dp2584
g157
VLong Beach State
p2585
sg159
V210
p2586
sg161
V2017
p2587
sg163
F27.0
sg164
VJUL 01, 1990
p2588
sg166
V6-7
p2589
sg168
VJames Ennis III
p2590
sg170
I1610612763
sg171
g65
sg172
g131
sg173
V00
p2591
sg175
g133
sg176
I203516
ssI203518
(dp2592
g539
Nsg541
V190
p2593
sg543
V2017
p2594
sg545
F24.0
sg546
VAUG 01, 1993
p2595
sg548
V6-6
p2596
sg550
VAlex Abrines
p2597
sg552
I1610612760
sg553
g65
sg555
g109
sg557
V00
p2598
sg559
g47
sg560
I203518
ssI203521
(dp2599
g348
VSaint Mary's (CA)
p2600
sg350
V198
p2601
sg352
V2017
p2602
sg354
F27.0
sg355
VSEP 08, 1990
p2603
sg357
V6-4
p2604
sg359
VMatthew Dellavedova
p2605
sg361
I1610612749
sg362
g65
sg364
g617
sg365
V00
p2606
sg367
g47
sg368
I203521
ssI203524
(dp2607
g1263
VArizona
p2608
sg1265
V225
p2609
sg1267
V2017
p2610
sg1269
F26.0
sg1270
VMAR 18, 1991
p2611
sg1272
V6-7
p2612
sg1274
VSolomon Hill
p2613
sg1276
I1610612740
sg1277
V44
p2614
sg1279
g617
sg1280
V00
p2615
sg1282
g133
sg1283
I203524
ssI203526
(dp2616
g391
Nsg393
V179
p2617
sg395
V2017
p2618
sg397
F25.0
sg398
VMAY 19, 1992
p2619
sg400
V6-1
p2620
sg402
VRaul Neto
p2621
sg404
I1610612762
sg405
V25
p2622
sg407
g43
sg409
V00
p2623
sg411
g47
sg412
I203526
ssI101127
(dp2624
g672
VGeorgia Tech
p2625
sg674
V200
p2626
sg676
V2017
p2627
sg678
F34.0
sg679
VOCT 28, 1983
p2628
sg681
V6-3
p2629
sg683
VJarrett Jack
p2630
sg685
I1610612752
sg686
V55
p2631
sg688
V12
p2632
sg689
V00
p2633
sg691
g47
sg692
I101127
ssI203530
(dp2634
g200
Nsg202
V260
p2635
sg204
V2017
p2636
sg206
F26.0
sg207
VSEP 30, 1991
p2637
sg209
V6-11
p2638
sg211
VJoffrey Lauvergne
p2639
sg213
I1610612759
sg214
V77
p2640
sg216
g131
sg218
V00
p2641
sg220
g70
sg221
I203530
ssI101133
(dp2642
g326
VRouen, France
p2643
sg328
V262
p2644
sg330
V2017
p2645
sg332
F31.0
sg333
VNOV 05, 1986
p2646
sg335
V6-11
p2647
sg337
VIan Mahinmi
p2648
sg339
I1610612764
sg340
V28
p2649
sg342
g960
sg343
V00
p2650
sg345
g70
sg346
I101133
ssI101139
(dp2651
g178
VSkyline HS (TX)
p2652
sg180
V225
p2653
sg182
V2017
p2654
sg184
F30.0
sg185
VMAR 18, 1987
p2655
sg187
V6-6
p2656
sg189
VCJ Miles
p2657
sg191
I1610612761
sg192
g87
sg194
V12
p2658
sg195
V00
p2659
sg197
VF-G
p2660
sg198
I101139
ssI101141
(dp2661
g1083
VEskisehir, Turkey
p2662
sg1085
V235
p2663
sg1087
V2017
p2664
sg1089
F30.0
sg1090
VMAY 15, 1987
p2665
sg1092
V6-10
p2666
sg1094
VErsan Ilyasova
p2667
sg1096
I1610612737
sg1097
g229
sg1099
g960
sg1100
V00
p2668
sg1102
g133
sg1104
I101141
ssI203546
(dp2669
g1263
VBelmont
p2670
sg1265
V175
p2671
sg1267
V2017
p2672
sg1269
F26.0
sg1270
VMAR 07, 1991
p2673
sg1272
V6-3
p2674
sg1274
VIan Clark
p2675
sg1276
I1610612740
sg1277
g43
sg1279
g617
sg1280
V00
p2676
sg1282
g47
sg1283
I203546
ssI203547
(dp2677
g391
VCampbell
p2678
sg393
V205
p2679
sg395
V2017
p2680
sg397
F27.0
sg398
VMAY 26, 1990
p2681
sg400
V6-8
p2682
sg402
VEric Griffin
p2683
sg404
I1610612762
sg405
V17
p2684
sg407
g556
sg409
V00
p2685
sg411
VC-F
p2686
sg412
I203547
ssI101150
(dp2687
g135
VSouth Gwinnett HS (GA)
p2688
sg137
V175
p2689
sg139
V2017
p2690
sg141
F31.0
sg142
VOCT 27, 1986
p2691
sg144
V6-1
p2692
sg146
VLou Williams
p2693
sg148
I1610612746
sg149
V23
p2694
sg150
V12
p2695
sg151
V00
p2696
sg153
g47
sg155
I101150
ssI203552
(dp2697
g832
VDuke
p2698
sg834
V185
p2699
sg836
V2017
p2700
sg838
F27.0
sg839
VAUG 23, 1990
p2701
sg841
V6-2
p2702
sg843
VSeth Curry
p2703
sg845
I1610612742
sg846
V30
p2704
sg847
g617
sg849
V00
p2705
sg851
g47
sg852
I203552
ssI101161
(dp2706
g50
VWestchester HS (Los Angeles)
p2707
sg52
V240
p2708
sg54
V2017
p2709
sg56
F30.0
sg57
VMAY 01, 1987
p2710
sg59
V6-9
p2711
sg61
VAmir Johnson
p2712
sg63
I1610612755
sg64
g19
sg66
V12
p2713
sg67
V00
p2714
sg69
VF-C
p2715
sg71
I101161
ssI101162
(dp2716
g326
VLodz, Poland
p2717
sg328
V240
p2718
sg330
V2017
p2719
sg332
F33.0
sg333
VFEB 17, 1984
p2720
sg335
V6-11
p2721
sg337
VMarcin Gortat
p2722
sg339
I1610612764
sg340
V13
p2723
sg342
V10
p2724
sg343
V00
p2725
sg345
g70
sg346
I101162
ssI2863
(dp2726
g436
VGeorgia
p2727
sg438
V217
p2728
sg440
V2017
p2729
sg442
F37.0
sg443
VJAN 11, 1980
p2730
sg445
V6-6
p2731
sg447
VDamien Wilkins
p2732
sg449
I1610612754
sg450
V12
p2733
sg452
g960
sg453
V00
p2734
sg455
VG-F
p2735
sg456
I2863
ssI101181
(dp2736
g801
VVillanueva de la Serena, Spain
p2737
sg803
V200
p2738
sg805
V2017
p2739
sg807
F36.0
sg808
VSEP 28, 1981
p2740
sg810
V6-3
p2741
sg812
VJose Calderon
p2742
sg814
I1610612739
sg815
V81
p2743
sg817
V12
p2744
sg818
V00
p2745
sg820
g47
sg821
I101181
ssI203584
(dp2746
g370
VVirginia Commonwealth
p2747
sg372
V205
p2748
sg374
V2017
p2749
sg376
F26.0
sg377
VJUL 15, 1991
p2750
sg379
V6-4
p2751
sg381
VTroy Daniels
p2752
sg383
I1610612756
sg384
V30
p2753
sg385
g617
sg386
V00
p2754
sg388
g47
sg389
I203584
ssI203585
(dp2755
g272
VKansas State
p2756
sg274
V200
p2757
sg276
V2017
p2758
sg278
F26.0
sg279
VJUL 29, 1991
p2759
sg281
V6-4
p2760
sg283
VRodney McGruder
p2761
sg285
I1610612748
sg286
V17
p2762
sg288
g109
sg289
V00
p2763
sg291
VG-F
p2764
sg292
I203585
ssI201563
(dp2765
g672
VKansas State
p2766
sg674
V235
p2767
sg676
V2017
p2768
sg678
F28.0
sg679
VJAN 09, 1989
p2769
sg681
V6-9
p2770
sg683
VMichael Beasley
p2771
sg685
I1610612752
sg686
g65
sg688
g960
sg689
V00
p2772
sg691
g133
sg692
I201563
ssI201565
(dp2773
g801
VMemphis
p2774
sg803
V190
p2775
sg805
V2017
p2776
sg807
F29.0
sg808
VOCT 04, 1988
p2777
sg810
V6-3
p2778
sg812
VDerrick Rose
p2779
sg814
I1610612739
sg815
g109
sg817
g65
sg818
V00
p2780
sg820
g47
sg821
I201565
ssI201566
(dp2781
g539
VUCLA
p2782
sg541
V200
p2783
sg543
V2017
p2784
sg545
F28.0
sg546
VNOV 12, 1988
p2785
sg548
V6-3
p2786
sg550
VRussell Westbrook
p2787
sg552
I1610612760
sg553
g87
sg555
g960
sg557
V00
p2788
sg559
g47
sg560
I201566
ssI201567
(dp2789
g801
VUCLA
p2790
sg803
V251
p2791
sg805
V2017
p2792
sg807
F29.0
sg808
VSEP 07, 1988
p2793
sg810
V6-10
p2794
sg812
VKevin Love
p2795
sg814
I1610612739
sg815
g87
sg817
g960
sg818
V00
p2796
sg820
VF-C
p2797
sg821
I201567
ssI201568
(dp2798
g135
VSant'Angelo Lodigiano, Italy
p2799
sg137
V225
p2800
sg139
V2017
p2801
sg141
F29.0
sg142
VAUG 08, 1988
p2802
sg144
V6-10
p2803
sg146
VDanilo Gallinari
p2804
sg148
I1610612746
sg149
g65
sg150
g65
sg151
V00
p2805
sg153
g133
sg155
I201568
ssI201569
(dp2806
g620
VIndiana
p2807
sg622
V215
p2808
sg624
V2017
p2809
sg626
F28.0
sg627
VDEC 25, 1988
p2810
sg629
V6-4
p2811
sg631
VEric Gordon
p2812
sg633
I1610612745
sg634
V10
p2813
sg635
g960
sg637
V00
p2814
sg639
g47
sg640
I201569
ssI201571
(dp2815
g2
VTexas
p2816
sg4
V183
p2817
sg6
V2017
p2818
sg8
F30.0
sg9
VNOV 10, 1987
p2819
sg11
V6-0
p2820
sg13
VD.J. Augustin
p2821
sg15
I1610612753
sg16
V14
p2822
sg18
g960
sg20
V00
p2823
sg22
g47
sg24
I201571
ssI201572
(dp2824
g743
VStanford
p2825
sg745
V268
p2826
sg747
V2017
p2827
sg749
F29.0
sg750
VAPR 01, 1988
p2828
sg752
V7-0
p2829
sg754
VBrook Lopez
p2830
sg756
I1610612747
sg757
V11
p2831
sg758
g960
sg759
V00
p2832
sg761
g70
sg762
I201572
ssI201573
(dp2833
g50
VArizona
p2834
sg52
V200
p2835
sg54
V2017
p2836
sg56
F29.0
sg57
VAUG 20, 1988
p2837
sg59
V6-3
p2838
sg61
VJerryd Bayless
p2839
sg63
I1610612755
sg64
g87
sg66
g960
sg67
V00
p2840
sg69
g47
sg71
I201573
ssI201577
(dp2841
g414
VStanford
p2842
sg416
V277
p2843
sg418
V2017
p2844
sg420
F29.0
sg421
VAPR 01, 1988
p2845
sg423
V7-0
p2846
sg425
VRobin Lopez
p2847
sg427
I1610612741
sg428
V42
p2848
sg430
g960
sg431
V00
p2849
sg433
g70
sg434
I201577
ssI201578
(dp2850
g2
VFlorida
p2851
sg4
V255
p2852
sg6
V2017
p2853
sg8
F30.0
sg9
VAUG 04, 1987
p2854
sg11
V6-10
p2855
sg13
VMarreese Speights
p2856
sg15
I1610612753
sg16
g19
sg18
g960
sg20
V00
p2857
sg22
VF-C
p2858
sg24
I201578
ssI201580
(dp2859
g490
VNevada
p2860
sg492
V270
p2861
sg494
V2017
p2862
sg496
F29.0
sg497
VJAN 19, 1988
p2863
sg499
V7-0
p2864
sg501
VJaVale McGee
p2865
sg503
I1610612744
sg504
g109
sg505
g960
sg506
V00
p2866
sg508
g70
sg509
I201580
ssI201582
(dp2867
g1263
VSaint Etienne, France
p2868
sg1265
V248
p2869
sg1267
V2017
p2870
sg1269
F29.0
sg1270
VMAY 06, 1988
p2871
sg1272
V7-2
p2872
sg1274
VAlexis Ajinca
p2873
sg1276
I1610612740
sg1277
V42
p2874
sg1279
g229
sg1280
V00
p2875
sg1282
g70
sg1283
I201582
ssI201583
(dp2876
g620
VCalifornia
p2877
sg622
V240
p2878
sg624
V2017
p2879
sg626
F29.0
sg627
VMAY 06, 1988
p2880
sg629
V6-10
p2881
sg631
VRyan Anderson
p2882
sg633
I1610612745
sg634
V33
p2883
sg635
g960
sg637
V00
p2884
sg639
g133
sg640
I201583
ssI201584
(dp2885
g672
VWestern Kentucky
p2886
sg674
V200
p2887
sg676
V2017
p2888
sg678
F32.0
sg679
VOCT 03, 1985
p2889
sg681
V6-5
p2890
sg683
VCourtney Lee
p2891
sg685
I1610612752
sg686
g19
sg688
g960
sg689
V00
p2892
sg691
g47
sg692
I201584
ssI201585
(dp2893
g304
VOhio State
p2894
sg306
V265
p2895
sg308
V2017
p2896
sg310
F28.0
sg311
VFEB 24, 1989
p2897
sg313
V7-0
p2898
sg315
VKosta Koufos
p2899
sg317
I1610612758
sg318
V41
p2900
sg320
g960
sg321
V00
p2901
sg323
g70
sg324
I201585
ssI201586
(dp2902
g178
VBrazzaville, Rep. of Congo
p2903
sg180
V235
p2904
sg182
V2017
p2905
sg184
F28.0
sg185
VSEP 18, 1989
p2906
sg187
V6-10
p2907
sg189
VSerge Ibaka
p2908
sg191
I1610612761
sg192
g960
sg194
g65
sg195
V00
p2909
sg197
g133
sg198
I201586
ssI201587
(dp2910
g720
VLisieux, France
p2911
sg722
V200
p2912
sg724
V2017
p2913
sg726
F28.0
sg727
VDEC 14, 1988
p2914
sg729
V6-8
p2915
sg731
VNicolas Batum
p2916
sg733
I1610612766
sg734
g19
sg736
g960
sg737
V00
p2917
sg739
VG-F
p2918
sg741
I201587
ssI201588
(dp2919
g304
VIndiana Purdue-Indianapolis
p2920
sg306
V188
p2921
sg308
V2017
p2922
sg310
F31.0
sg311
VMAY 04, 1986
p2923
sg313
V6-3
p2924
sg315
VGeorge Hill
p2925
sg317
I1610612758
sg318
g131
sg320
g960
sg321
V00
p2926
sg323
g47
sg324
I201588
ssI201589
(dp2927
g73
VKansas
p2928
sg74
V235
p2929
sg76
V2017
p2930
sg78
F29.0
sg79
VMAR 25, 1988
p2931
sg81
V6-9
p2932
sg83
VDarrell Arthur
p2933
sg85
I1610612743
sg86
V00
p2934
sg88
g65
sg89
V00
p2935
sg91
g133
sg92
I201589
ssI201596
(dp2936
g157
VKansas
p2937
sg159
V190
p2938
sg161
V2017
p2939
sg163
F31.0
sg164
VMAY 19, 1986
p2940
sg166
V6-2
p2941
sg168
VMario Chalmers
p2942
sg170
I1610612763
sg171
g636
sg172
g65
sg173
V00
p2943
sg175
g47
sg176
I201596
ssI201599
(dp2944
g135
VTexas A&M
p2945
sg137
V265
p2946
sg139
V2017
p2947
sg141
F29.0
sg142
VJUL 21, 1988
p2948
sg144
V6-11
p2949
sg146
VDeAndre Jordan
p2950
sg148
I1610612746
sg149
g636
sg150
g960
sg151
V00
p2951
sg153
g70
sg155
I201599
ssI201600
(dp2952
g1263
VTurkey
p2953
sg1265
V255
p2954
sg1267
V2017
p2955
sg1269
F31.0
sg1270
VJUL 04, 1986
p2956
sg1272
V7-0
p2957
sg1274
VOmer Asik
p2958
sg1276
I1610612740
sg1277
g131
sg1279
g229
sg1280
V00
p2959
sg1282
g70
sg1283
I201600
ssI201601
(dp2960
g620
VUCLA
p2961
sg622
V230
p2962
sg624
V2017
p2963
sg626
F31.0
sg627
VSEP 09, 1986
p2964
sg629
V6-8
p2965
sg631
VLuc Mbah a Moute
p2966
sg633
I1610612745
sg634
V12
p2967
sg635
g960
sg637
V00
p2968
sg639
g133
sg640
I201601
ssI201609
(dp2969
g272
VLjubljana, Slovenia
p2970
sg274
V190
p2971
sg276
V2017
p2972
sg278
F31.0
sg279
VMAY 06, 1986
p2973
sg281
V6-3
p2974
sg283
VGoran Dragic
p2975
sg285
I1610612748
sg286
g229
sg288
g960
sg289
V00
p2976
sg291
g47
sg292
I201609
ssI201628
(dp2977
g620
VCal State-Fullerton
p2978
sg622
V175
p2979
sg624
V2017
p2980
sg626
F33.0
sg627
VSEP 24, 1984
p2981
sg629
V6-2
p2982
sg631
VBobby Brown
p2983
sg633
I1610612745
sg634
g636
sg635
g131
sg637
V00
p2984
sg639
g47
sg640
I201628
ssI203705
(dp2985
g1083
VAlabama-Huntsville
p2986
sg1085
V160
p2987
sg1087
V2017
p2988
sg1089
F27.0
sg1090
VNOV 28, 1989
p2989
sg1092
V6-1
p2990
sg1094
VJosh Magette
p2991
sg1096
I1610612737
sg1097
V11
p2992
sg1099
g556
sg1100
V00
p2993
sg1102
g47
sg1104
I203705
ssI203710
(dp2994
g135
VNorth Carolina State
p2995
sg137
V230
p2996
sg139
V2017
p2997
sg141
F27.0
sg142
VFEB 06, 1990
p2998
sg144
V6-5
p2999
sg146
VC.J. Williams
p3000
sg148
I1610612746
sg149
g960
sg150
g556
sg151
V00
p3001
sg153
g47
sg155
I203710
ssI1627098
(dp3002
g1083
VVirginia Tech
p3003
sg1085
V190
p3004
sg1087
V2017
p3005
sg1089
F28.0
sg1090
VMAR 11, 1989
p3006
sg1092
V6-3
p3007
sg1094
VMalcolm Delaney
p3008
sg1096
I1610612737
sg1097
g19
sg1099
g109
sg1100
V00
p3009
sg1102
g47
sg1104
I1627098
ssI203613
(dp3010
g2
VHouston
p3011
sg4
V195
p3012
sg6
V2017
p3013
sg8
F28.0
sg9
VSEP 14, 1989
p3014
sg11
V6-6
p3015
sg13
VJonathon Simmons
p3016
sg15
I1610612753
sg16
V17
p3017
sg18
g43
sg20
V00
p3018
sg22
g133
sg24
I203613
ssI203894
(dp3019
g650
VConnecticut
p3020
sg652
V175
p3021
sg654
V2017
p3022
sg656
F26.0
sg657
VJUL 14, 1991
p3023
sg659
V6-1
p3024
sg661
VShabazz Napier
p3025
sg663
I1610612757
sg664
g636
sg665
g131
sg666
V00
p3026
sg668
g47
sg670
I203894
ssI203897
(dp3027
g414
VUCLA
p3028
sg416
V185
p3029
sg418
V2017
p3030
sg420
F22.0
sg421
VMAR 10, 1995
p3031
sg423
V6-5
p3032
sg425
VZach LaVine
p3033
sg427
I1610612741
sg428
g65
sg430
g131
sg431
V00
p3034
sg433
g47
sg434
I203897
ssI203898
(dp3035
g743
VSyracuse
p3036
sg745
V194
p3037
sg747
V2017
p3038
sg749
F23.0
sg750
VAUG 24, 1994
p3039
sg752
V6-3
p3040
sg754
VTyler Ennis
p3041
sg756
I1610612747
sg757
V10
p3042
sg758
g131
sg759
V00
p3043
sg761
g47
sg762
I203898
ssI203901
(dp3044
g2
VLouisiana-Lafayette
p3045
sg4
V185
p3046
sg6
V2017
p3047
sg8
F23.0
sg9
VFEB 22, 1994
p3048
sg11
V6-4
p3049
sg13
VElfrid Payton
p3050
sg15
I1610612753
sg16
g43
sg18
g131
sg20
V00
p3051
sg22
g47
sg24
I203901
ssI203903
(dp3052
g743
VMissouri
p3053
sg745
V194
p3054
sg747
V2017
p3055
sg749
F25.0
sg750
VJUN 07, 1992
p3056
sg752
V6-5
p3057
sg754
VJordan Clarkson
p3058
sg756
I1610612747
sg757
g636
sg758
g131
sg759
V00
p3059
sg761
g47
sg762
I203903
ssI1626163
(dp3060
g720
VWisconsin
p3061
sg722
V242
p3062
sg724
V2017
p3063
sg726
F24.0
sg727
VAPR 04, 1993
p3064
sg729
V7-0
p3065
sg731
VFrank Kaminsky
p3066
sg733
I1610612766
sg734
V44
p3067
sg736
g43
sg737
V00
p3068
sg739
VF-C
p3069
sg741
I1626163
ssI203912
(dp3070
g650
VWashington
p3071
sg652
V195
p3072
sg654
V2017
p3073
sg656
F26.0
sg657
VDEC 30, 1990
p3074
sg659
V6-5
p3075
sg661
VCJ Wilcox
p3076
sg663
I1610612757
sg664
V23
p3077
sg665
g131
sg666
V00
p3078
sg668
g47
sg670
I203912
ssI203914
(dp3079
g73
VMichigan State
p3080
sg74
V210
p3081
sg76
V2017
p3082
sg78
F23.0
sg79
VSEP 14, 1994
p3083
sg81
V6-4
p3084
sg83
VGary Harris
p3085
sg85
I1610612743
sg86
V14
p3086
sg88
g131
sg89
V00
p3087
sg91
g47
sg92
I203914
ssI203915
(dp3088
g232
VColorado
p3089
sg234
V200
p3090
sg236
V2017
p3091
sg238
F24.0
sg239
VAPR 06, 1993
p3092
sg241
V6-6
p3093
sg243
VSpencer Dinwiddie
p3094
sg245
I1610612751
sg246
g65
sg247
g131
sg248
V00
p3095
sg250
g47
sg251
I203915
ssI203917
(dp3096
g50
VMichigan
p3097
sg52
V205
p3098
sg54
V2017
p3099
sg56
F24.0
sg57
VOCT 07, 1993
p3100
sg59
V6-6
p3101
sg61
VNik Stauskas
p3102
sg63
I1610612755
sg64
V11
p3103
sg66
g131
sg67
V00
p3104
sg69
g47
sg71
I203917
ssI203918
(dp3105
g391
VDuke
p3106
sg393
V206
p3107
sg395
V2017
p3108
sg397
F25.0
sg398
VOCT 20, 1992
p3109
sg400
V6-8
p3110
sg402
VRodney Hood
p3111
sg404
I1610612762
sg405
g19
sg407
g131
sg409
V00
p3112
sg411
g47
sg412
I203918
ssI203920
(dp3113
g2
VNevada-Las Vegas
p3114
sg4
V220
p3115
sg6
V2017
p3116
sg8
F25.0
sg9
VSEP 28, 1992
p3117
sg11
V6-9
p3118
sg13
VKhem Birch
p3119
sg15
I1610612753
sg16
V24
p3120
sg18
g556
sg20
V00
p3121
sg22
g70
sg24
I203920
ssI203922
(dp3122
g436
VMichigan
p3123
sg438
V215
p3124
sg440
V2017
p3125
sg442
F23.0
sg443
VJAN 08, 1994
p3126
sg445
V6-7
p3127
sg447
VGlenn Robinson III
p3128
sg449
I1610612754
sg450
V40
p3129
sg452
g131
sg453
V00
p3130
sg455
VG-F
p3131
sg456
I203922
ssI203924
(dp3132
g539
VSyracuse
p3133
sg541
V220
p3134
sg543
V2017
p3135
sg545
F23.0
sg546
VMAR 12, 1994
p3136
sg548
V6-9
p3137
sg550
VJerami Grant
p3138
sg552
I1610612760
sg553
g960
sg555
g131
sg557
V00
p3139
sg559
g133
sg560
I203924
ssI203925
(dp3140
g232
VVirginia
p3141
sg234
V219
p3142
sg236
V2017
p3143
sg238
F26.0
sg239
VSEP 06, 1991
p3144
sg241
V6-6
p3145
sg243
VJoe Harris
p3146
sg245
I1610612751
sg246
V12
p3147
sg247
g131
sg248
V00
p3148
sg250
g47
sg251
I203925
ssI203926
(dp3149
g672
VCreighton
p3150
sg674
V219
p3151
sg676
V2017
p3152
sg678
F25.0
sg679
VJAN 03, 1992
p3153
sg681
V6-8
p3154
sg683
VDoug McDermott
p3155
sg685
I1610612752
sg686
V20
p3156
sg688
g131
sg689
V00
p3157
sg691
g133
sg692
I203926
ssI203930
(dp3158
g232
VCincinnati
p3159
sg234
V212
p3160
sg236
V2017
p3161
sg238
F27.0
sg239
VJAN 06, 1990
p3162
sg241
V6-4
p3163
sg243
VSean Kilpatrick
p3164
sg245
I1610612751
sg246
g636
sg247
g131
sg248
V00
p3165
sg250
g47
sg251
I203930
ssI203932
(dp3166
g2
VArizona
p3167
sg4
V220
p3168
sg6
V2017
p3169
sg8
F22.0
sg9
VSEP 16, 1995
p3170
sg11
V6-9
p3171
sg13
VAaron Gordon
p3172
sg15
I1610612753
sg16
V00
p3173
sg18
g131
sg20
V00
p3174
sg22
g133
sg24
I203932
ssI203933
(dp3175
g370
VNorth Carolina State
p3176
sg372
V215
p3177
sg374
V2017
p3178
sg376
F24.0
sg377
VSEP 05, 1993
p3179
sg379
V6-8
p3180
sg381
VTJ Warren
p3181
sg383
I1610612756
sg384
V12
p3182
sg385
g131
sg386
V00
p3183
sg388
g133
sg389
I203933
ssI203935
(dp3184
g571
VOklahoma State
p3185
sg573
V220
p3186
sg575
V2017
p3187
sg577
F23.0
sg578
VMAR 06, 1994
p3188
sg580
V6-4
p3189
sg582
VMarcus Smart
p3190
sg584
I1610612738
sg585
V36
p3191
sg587
g131
sg588
V00
p3192
sg590
g47
sg591
I203935
ssI203937
(dp3193
g200
VUCLA
p3194
sg202
V230
p3195
sg204
V2017
p3196
sg206
F24.0
sg207
VSEP 20, 1993
p3197
sg209
V6-9
p3198
sg211
VKyle Anderson
p3199
sg213
I1610612759
sg214
g109
sg216
g131
sg218
V00
p3200
sg220
g133
sg221
I203937
ssI203939
(dp3201
g832
VStanford
p3202
sg834
V240
p3203
sg836
V2017
p3204
sg838
F26.0
sg839
VJUL 20, 1991
p3205
sg841
V6-11
p3206
sg843
VDwight Powell
p3207
sg845
I1610612742
sg846
g229
sg847
g131
sg849
V00
p3208
sg851
VF-C
p3209
sg852
I203939
ssI203940
(dp3210
g2
VMichigan State
p3211
sg4
V237
p3212
sg6
V2017
p3213
sg8
F26.0
sg9
VFEB 19, 1991
p3214
sg11
V6-10
p3215
sg13
VAdreian Payne
p3216
sg15
I1610612753
sg16
V33
p3217
sg18
g131
sg20
V00
p3218
sg22
g133
sg24
I203940
ssI203943
(dp3219
g650
VIndiana
p3220
sg652
V245
p3221
sg654
V2017
p3222
sg656
F22.0
sg657
VAUG 24, 1995
p3223
sg659
V6-9
p3224
sg661
VNoah Vonleh
p3225
sg663
I1610612757
sg664
V21
p3226
sg665
g131
sg666
V00
p3227
sg668
g133
sg670
I203943
ssI203944
(dp3228
g743
VKentucky
p3229
sg745
V250
p3230
sg747
V2017
p3231
sg749
F22.0
sg750
VNOV 29, 1994
p3232
sg752
V6-9
p3233
sg754
VJulius Randle
p3234
sg756
I1610612747
sg757
V30
p3235
sg758
g131
sg759
V00
p3236
sg761
VF-C
p3237
sg762
I203944
ssI203948
(dp3238
g720
VLouisiana State
p3239
sg722
V257
p3240
sg724
V2017
p3241
sg726
F24.0
sg727
VJUN 01, 1993
p3242
sg729
V6-9
p3243
sg731
VJohnny O'Bryant III
p3244
sg733
I1610612766
sg734
g65
sg736
g131
sg737
V00
p3245
sg739
g133
sg741
I203948
ssI203949
(dp3246
g50
VNorth Carolina
p3247
sg52
V230
p3248
sg54
V2017
p3249
sg56
F24.0
sg57
VJAN 04, 1993
p3250
sg59
V6-9
p3251
sg61
VJames Michael McAdoo
p3252
sg63
I1610612755
sg64
V14
p3253
sg66
g131
sg67
V00
p3254
sg69
g133
sg71
I203949
ssI203952
(dp3255
g94
VKansas
p3256
sg96
V202
p3257
sg98
V2017
p3258
sg100
F22.0
sg101
VFEB 23, 1995
p3259
sg103
V6-8
p3260
sg105
VAndrew Wiggins
p3261
sg107
I1610612750
sg108
V22
p3262
sg110
g131
sg111
V00
p3263
sg113
g133
sg114
I203952
ssI203953
(dp3264
g348
VDuke
p3265
sg350
V250
p3266
sg352
V2017
p3267
sg354
F22.0
sg355
VMAR 15, 1995
p3268
sg357
V6-8
p3269
sg359
VJabari Parker
p3270
sg361
I1610612749
sg362
V12
p3271
sg364
g131
sg365
V00
p3272
sg367
g133
sg368
I203953
ssI203954
(dp3273
g50
VKansas
p3274
sg52
V250
p3275
sg54
V2017
p3276
sg56
F23.0
sg57
VMAR 16, 1994
p3277
sg59
V7-0
p3278
sg61
VJoel Embiid
p3279
sg63
I1610612755
sg64
V21
p3280
sg66
g109
sg67
V00
p3281
sg69
g70
sg71
I203954
ssI203957
(dp3282
g391
Nsg393
V190
p3283
sg395
V2017
p3284
sg397
F22.0
sg398
VJUL 13, 1995
p3285
sg400
V6-6
p3286
sg402
VDante Exum
p3287
sg404
I1610612762
sg405
V11
p3288
sg407
g43
sg409
V00
p3289
sg411
g47
sg412
I203957
ssI203960
(dp3290
g304
VSt. John's (NY)
p3291
sg306
V207
p3292
sg308
V2017
p3293
sg310
F24.0
sg311
VMAR 20, 1993
p3294
sg313
V6-9
p3295
sg315
VJaKarr Sampson
p3296
sg317
I1610612758
sg318
V29
p3297
sg320
g43
sg321
V00
p3298
sg323
g133
sg324
I203960
ssI203961
(dp3299
g26
VOregon State
p3300
sg28
V238
p3301
sg30
V2017
p3302
sg32
F25.0
sg33
VDEC 24, 1991
p3303
sg35
V6-10
p3304
sg37
VEric Moreland
p3305
sg39
I1610612765
sg40
V24
p3306
sg42
g43
sg44
V00
p3307
sg46
VF-C
p3308
sg48
I203961
ssI203962
(dp3309
g539
VStanford
p3310
sg541
V230
p3311
sg543
V2017
p3312
sg545
F25.0
sg546
VDEC 19, 1991
p3313
sg548
V6-7
p3314
sg550
VJosh Huestis
p3315
sg552
I1610612760
sg553
V34
p3316
sg555
g43
sg557
V00
p3317
sg559
g133
sg560
I203962
ssI203966
(dp3318
g135
VMarquette
p3319
sg137
V229
p3320
sg139
V2017
p3321
sg141
F26.0
sg142
VNOV 21, 1990
p3322
sg144
V6-7
p3323
sg146
VJamil Wilson
p3324
sg148
I1610612746
sg149
V13
p3325
sg150
g556
sg151
V00
p3326
sg153
g133
sg155
I203966
ssI203967
(dp3327
g50
Nsg52
V223
p3328
sg54
V2017
p3329
sg56
F23.0
sg57
VAPR 08, 1994
p3330
sg59
V6-10
p3331
sg61
VDario Saric
p3332
sg63
I1610612755
sg64
g960
sg66
g109
sg67
V00
p3333
sg69
g133
sg71
I203967
ssI201933
(dp3334
g135
VOklahoma
p3335
sg137
V251
p3336
sg139
V2017
p3337
sg141
F28.0
sg142
VMAR 16, 1989
p3338
sg144
V6-10
p3339
sg146
VBlake Griffin
p3340
sg148
I1610612746
sg149
V32
p3341
sg150
g229
sg151
V00
p3342
sg153
g133
sg155
I201933
ssI201935
(dp3343
g620
VArizona State
p3344
sg622
V220
p3345
sg624
V2017
p3346
sg626
F28.0
sg627
VAUG 26, 1989
p3347
sg629
V6-5
p3348
sg631
VJames Harden
p3349
sg633
I1610612745
sg634
V13
p3350
sg635
g65
sg637
V00
p3351
sg639
g47
sg640
I201935
ssI201936
(dp3352
g157
VMemphis
p3353
sg159
V220
p3354
sg161
V2017
p3355
sg163
F28.0
sg164
VSEP 19, 1989
p3356
sg166
V6-6
p3357
sg168
VTyreke Evans
p3358
sg170
I1610612763
sg171
V12
p3359
sg172
g65
sg173
V00
p3360
sg175
VG-F
p3361
sg176
I201936
ssI201937
(dp3362
g391
VEl Masnou, Spain
p3363
sg393
V190
p3364
sg395
V2017
p3365
sg397
F27.0
sg398
VOCT 21, 1990
p3366
sg400
V6-4
p3367
sg402
VRicky Rubio
p3368
sg404
I1610612762
sg405
g131
sg407
g636
sg409
V00
p3369
sg411
g47
sg412
I201937
ssI201939
(dp3370
g490
VDavidson
p3371
sg492
V190
p3372
sg494
V2017
p3373
sg496
F29.0
sg497
VMAR 14, 1988
p3374
sg499
V6-3
p3375
sg501
VStephen Curry
p3376
sg503
I1610612744
sg504
V30
p3377
sg505
g65
sg506
V00
p3378
sg508
g47
sg509
I201939
ssI201942
(dp3379
g178
VSouthern California
p3380
sg180
V220
p3381
sg182
V2017
p3382
sg184
F28.0
sg185
VAUG 07, 1989
p3383
sg187
V6-7
p3384
sg189
VDeMar DeRozan
p3385
sg191
I1610612761
sg192
V10
p3386
sg194
g65
sg195
V00
p3387
sg197
g47
sg198
I201942
ssI203991
(dp3388
g620
Nsg622
V240
p3389
sg624
V2017
p3390
sg626
F23.0
sg627
VMAY 18, 1994
p3391
sg629
V6-10
p3392
sg631
VClint Capela
p3393
sg633
I1610612745
sg634
V15
p3394
sg635
g131
sg637
V00
p3395
sg639
g70
sg640
I203991
ssI203992
(dp3396
g304
Nsg306
V205
p3397
sg308
V2017
p3398
sg310
F25.0
sg311
VAUG 18, 1992
p3399
sg313
V6-6
p3400
sg315
VBogdan Bogdanovic
p3401
sg317
I1610612758
sg318
g65
sg320
g556
sg321
V00
p3402
sg323
g47
sg324
I203992
ssI203994
(dp3403
g650
Nsg652
V280
p3404
sg654
V2017
p3405
sg656
F23.0
sg657
VAUG 23, 1994
p3406
sg659
V7-0
p3407
sg661
VJusuf Nurkic
p3408
sg663
I1610612757
sg664
V27
p3409
sg665
g131
sg666
V00
p3410
sg668
g70
sg670
I203994
ssI201949
(dp3411
g272
VWake Forest
p3412
sg274
V240
p3413
sg276
V2017
p3414
sg278
F30.0
sg279
VFEB 20, 1987
p3415
sg281
V6-8
p3416
sg283
VJames Johnson
p3417
sg285
I1610612748
sg286
V16
p3418
sg288
g65
sg289
V00
p3419
sg291
g133
sg292
I201949
ssI201950
(dp3420
g1263
VUCLA
p3421
sg1265
V205
p3422
sg1267
V2017
p3423
sg1269
F27.0
sg1270
VJUN 12, 1990
p3424
sg1272
V6-4
p3425
sg1274
VJrue Holiday
p3426
sg1276
I1610612740
sg1277
V11
p3427
sg1279
g65
sg1280
V00
p3428
sg1282
g47
sg1283
I201950
ssI203999
(dp3429
g73
Nsg74
V250
p3430
sg76
V2017
p3431
sg78
F22.0
sg79
VFEB 19, 1995
p3432
sg81
V6-10
p3433
sg83
VNikola Jokic
p3434
sg85
I1610612743
sg86
V15
p3435
sg88
g43
sg89
V00
p3436
sg91
g70
sg92
I203999
ssI201952
(dp3437
g94
VWake Forest
p3438
sg96
V189
p3439
sg98
V2017
p3440
sg100
F29.0
sg101
VJUN 10, 1988
p3441
sg103
V6-2
p3442
sg105
VJeff Teague
p3443
sg107
I1610612750
sg108
g87
sg110
g65
sg111
V00
p3444
sg113
g47
sg114
I201952
ssI204001
(dp3445
g672
Nsg674
V240
p3446
sg676
V2017
p3447
sg678
F22.0
sg679
VAUG 02, 1995
p3448
sg681
V7-3
p3449
sg683
VKristaps Porzingis
p3450
sg685
I1610612752
sg686
g636
sg688
g43
sg689
V00
p3451
sg691
VF-C
p3452
sg692
I204001
ssI1627362
(dp3453
g620
VVirginia Commonwealth
p3454
sg622
V165
p3455
sg624
V2017
p3456
sg626
F24.0
sg627
VDEC 29, 1992
p3457
sg629
V6-2
p3458
sg631
VBriante Weber
p3459
sg633
I1610612745
sg634
g87
sg635
g43
sg637
V00
p3460
sg639
g47
sg640
I1627362
ssI201956
(dp3461
g490
VYavne, Israel
p3462
sg492
V225
p3463
sg494
V2017
p3464
sg496
F29.0
sg497
VJUN 22, 1988
p3465
sg499
V6-9
p3466
sg501
VOmri Casspi
p3467
sg503
I1610612744
sg504
V18
p3468
sg505
g65
sg506
V00
p3469
sg508
g133
sg509
I201956
ssI201959
(dp3470
g94
VSouthern California
p3471
sg96
V235
p3472
sg98
V2017
p3473
sg100
F32.0
sg101
VJUN 24, 1985
p3474
sg103
V6-9
p3475
sg105
VTaj Gibson
p3476
sg107
I1610612750
sg108
V67
p3477
sg110
g65
sg111
V00
p3478
sg113
g133
sg114
I201959
ssI201960
(dp3479
g232
VMissouri
p3480
sg234
V215
p3481
sg236
V2017
p3482
sg238
F31.0
sg239
VJUL 27, 1986
p3483
sg241
V6-8
p3484
sg243
VDeMarre Carroll
p3485
sg245
I1610612751
sg246
g960
sg247
g65
sg248
V00
p3486
sg250
g133
sg251
I201960
ssI201961
(dp3487
g272
VNorth Carolina
p3488
sg274
V200
p3489
sg276
V2017
p3490
sg278
F29.0
sg279
VNOV 29, 1987
p3491
sg281
V6-5
p3492
sg283
VWayne Ellington
p3493
sg285
I1610612748
sg286
g43
sg288
g65
sg289
V00
p3494
sg291
g47
sg292
I201961
ssI201967
(dp3495
g1263
VVillanova
p3496
sg1265
V230
p3497
sg1267
V2017
p3498
sg1269
F30.0
sg1270
VAPR 22, 1987
p3499
sg1272
V6-8
p3500
sg1274
VDante Cunningham
p3501
sg1276
I1610612740
sg1277
V33
p3502
sg1279
g65
sg1280
V00
p3503
sg1282
g133
sg1283
I201967
ssI204020
(dp3504
g272
VFresno State
p3505
sg274
V190
p3506
sg276
V2017
p3507
sg278
F25.0
sg279
VMAY 07, 1992
p3508
sg281
V6-4
p3509
sg283
VTyler Johnson
p3510
sg285
I1610612748
sg286
g65
sg288
g131
sg289
V00
p3511
sg291
g47
sg292
I204020
ssI201973
(dp3512
g391
VKinna, Sweden
p3513
sg393
V231
p3514
sg395
V2017
p3515
sg397
F30.0
sg398
VMAR 02, 1987
p3516
sg400
V6-10
p3517
sg402
VJonas Jerebko
p3518
sg404
I1610612762
sg405
g65
sg407
g229
sg409
V00
p3519
sg411
g133
sg412
I201973
ssI204022
(dp3520
g304
VNotre Dame
p3521
sg306
V274
p3522
sg308
V2017
p3523
sg310
F26.0
sg311
VAPR 12, 1991
p3524
sg313
V6-10
p3525
sg315
VJack Cooley
p3526
sg317
I1610612758
sg318
V45
p3527
sg320
g109
sg321
V00
p3528
sg323
g70
sg324
I204022
ssI201975
(dp3529
g326
VKentucky
p3530
sg328
V210
p3531
sg330
V2017
p3532
sg332
F30.0
sg333
VAUG 21, 1987
p3533
sg335
V6-4
p3534
sg337
VJodie Meeks
p3535
sg339
I1610612764
sg340
V20
p3536
sg342
g65
sg343
V00
p3537
sg345
g47
sg346
I201975
ssI201976
(dp3538
g135
VArkansas
p3539
sg137
V185
p3540
sg139
V2017
p3541
sg141
F29.0
sg142
VJUL 12, 1988
p3542
sg144
V6-1
p3543
sg146
VPatrick Beverley
p3544
sg148
I1610612746
sg149
V21
p3545
sg150
g19
sg151
V00
p3546
sg153
g47
sg155
I201976
ssI204025
(dp3547
g326
Nsg328
V170
p3548
sg330
V2017
p3549
sg332
F27.0
sg333
VNOV 01, 1990
p3550
sg335
V6-1
p3551
sg337
VTim Frazier
p3552
sg339
I1610612764
sg340
g65
sg342
g131
sg343
V00
p3553
sg345
g47
sg346
I204025
ssI201980
(dp3554
g200
VNorth Carolina
p3555
sg202
V215
p3556
sg204
V2017
p3557
sg206
F30.0
sg207
VJUN 22, 1987
p3558
sg209
V6-6
p3559
sg211
VDanny Green
p3560
sg213
I1610612759
sg214
V14
p3561
sg216
g65
sg218
V00
p3562
sg220
VG-F
p3563
sg221
I201980
ssI201988
(dp3564
g200
VSaint Mary's (CA)
p3565
sg202
V185
p3566
sg204
V2017
p3567
sg206
F29.0
sg207
VAUG 11, 1988
p3568
sg209
V6-0
p3569
sg211
VPatty Mills
p3570
sg213
I1610612759
sg214
g65
sg216
g65
sg218
V00
p3571
sg220
g47
sg221
I201988
ssI204038
(dp3572
g26
VSaint Joseph's
p3573
sg28
V200
p3574
sg30
V2017
p3575
sg32
F25.0
sg33
VDEC 09, 1991
p3576
sg35
V6-2
p3577
sg37
VLangston Galloway
p3578
sg39
I1610612765
sg40
g960
sg42
g131
sg44
V00
p3579
sg46
g47
sg48
I204038
ssI204060
(dp3580
g391
Nsg393
V226
p3581
sg395
V2017
p3582
sg397
F30.0
sg398
VOCT 02, 1987
p3583
sg400
V6-8
p3584
sg402
VJoe Ingles
p3585
sg404
I1610612762
sg405
g43
sg407
g131
sg409
V00
p3586
sg411
g133
sg412
I204060
ssI204066
(dp3587
g801
VBoston U.
p3588
sg803
V205
p3589
sg805
V2017
p3590
sg807
F29.0
sg808
VNOV 06, 1988
p3591
sg810
V6-5
p3592
sg812
VJohn Holland
p3593
sg814
I1610612739
sg815
V10
p3594
sg817
g109
sg818
V00
p3595
sg820
VG-F
p3596
sg821
I204066
ssI203998
(dp3597
g178
Nsg180
V205
p3598
sg182
V2017
p3599
sg184
F22.0
sg185
VSEP 21, 1995
p3600
sg187
V6-9
p3601
sg189
VBruno Caboclo
p3602
sg191
I1610612761
sg192
g19
sg194
g131
sg195
V00
p3603
sg197
g133
sg198
I203998
ssI201954
(dp3604
g436
VUCLA
p3605
sg438
V185
p3606
sg440
V2017
p3607
sg442
F30.0
sg443
VAUG 23, 1987
p3608
sg445
V6-2
p3609
sg447
VDarren Collison
p3610
sg449
I1610612754
sg450
g43
sg452
g65
sg453
V00
p3611
sg455
g47
sg456
I201954
ssI202066
(dp3612
g304
VLouisiana State
p3613
sg306
V195
p3614
sg308
V2017
p3615
sg310
F31.0
sg311
VMAY 08, 1986
p3616
sg313
V6-6
p3617
sg315
VGarrett Temple
p3618
sg317
I1610612758
sg318
V17
p3619
sg320
g229
sg321
V00
p3620
sg323
g47
sg324
I202066
ssI202083
(dp3621
g832
VMarquette
p3622
sg834
V220
p3623
sg836
V2017
p3624
sg838
F31.0
sg839
VOCT 14, 1986
p3625
sg841
V6-5
p3626
sg843
VWesley Matthews
p3627
sg845
I1610612742
sg846
V23
p3628
sg847
g65
sg849
V00
p3629
sg851
VG-F
p3630
sg852
I202083
ssI1628493
(dp3631
g720
VLouisville
p3632
sg722
V230
p3633
sg724
V2017
p3634
sg726
F25.0
sg727
VOCT 08, 1992
p3635
sg729
V6-10
p3636
sg731
VMangok Mathiang
p3637
sg733
I1610612766
sg734
g960
sg736
g556
sg737
V00
p3638
sg739
VF-C
p3639
sg741
I1628493
ssI1628409
(dp3640
g370
VValparaiso
p3641
sg372
V235
p3642
sg374
V2017
p3643
sg376
F22.0
sg377
VAPR 13, 1995
p3644
sg379
V6-9
p3645
sg381
VAlec Peters
p3646
sg383
I1610612756
sg384
V25
p3647
sg385
g556
sg386
V00
p3648
sg388
g133
sg389
I1628409
ssI204028
(dp3649
g620
VKansas
p3650
sg622
V250
p3651
sg624
V2017
p3652
sg626
F25.0
sg627
VNOV 22, 1991
p3653
sg629
V6-9
p3654
sg631
VTarik Black
p3655
sg633
I1610612745
sg634
V28
p3656
sg635
g131
sg637
V00
p3657
sg639
VF-C
p3658
sg640
I204028
ssI202323
(dp3659
g650
VOhio State
p3660
sg652
V220
p3661
sg654
V2017
p3662
sg656
F29.0
sg657
VOCT 27, 1988
p3663
sg659
V6-7
p3664
sg661
VEvan Turner
p3665
sg663
I1610612757
sg664
g109
sg665
g229
sg666
V00
p3666
sg668
VG-F
p3667
sg670
I202323
ssI1627732
(dp3668
g50
VLouisiana State
p3669
sg52
V230
p3670
sg54
V2017
p3671
sg56
F21.0
sg57
VJUL 20, 1996
p3672
sg59
V6-10
p3673
sg61
VBen Simmons
p3674
sg63
I1610612755
sg64
V25
p3675
sg66
g556
sg67
V00
p3676
sg69
VG-F
p3677
sg71
I1627732
ssI1627733
(dp3678
g370
Nsg372
V225
p3679
sg374
V2017
p3680
sg376
F19.0
sg377
VNOV 17, 1997
p3681
sg379
V7-1
p3682
sg381
VDragan Bender
p3683
sg383
I1610612756
sg384
V35
p3684
sg385
g109
sg386
V00
p3685
sg388
g133
sg389
I1627733
ssI1627734
(dp3686
g436
VGonzaga
p3687
sg438
V252
p3688
sg440
V2017
p3689
sg442
F21.0
sg443
VMAY 03, 1996
p3690
sg445
V6-10
p3691
sg447
VDomantas Sabonis
p3692
sg449
I1610612754
sg450
V11
p3693
sg452
g109
sg453
V00
p3694
sg455
VC-F
p3695
sg456
I1627734
ssI1627735
(dp3696
g650
VVanderbilt
p3697
sg652
V202
p3698
sg654
V2017
p3699
sg656
F21.0
sg657
VMAR 29, 1996
p3700
sg659
V6-4
p3701
sg661
VWade Baldwin IV
p3702
sg663
I1610612757
sg664
g43
sg665
g109
sg666
V00
p3703
sg668
g47
sg670
I1627735
ssI202328
(dp3704
g370
VGeorgetown
p3705
sg372
V265
p3706
sg374
V2017
p3707
sg376
F27.0
sg377
VJUN 04, 1990
p3708
sg379
V6-11
p3709
sg381
VGreg Monroe
p3710
sg383
I1610612756
sg384
V14
p3711
sg385
g229
sg386
V00
p3712
sg388
VC-F
p3713
sg389
I202328
ssI1627737
(dp3714
g370
VWashington
p3715
sg372
V240
p3716
sg374
V2017
p3717
sg376
F20.0
sg377
VJUL 02, 1997
p3718
sg379
V6-10
p3719
sg381
VMarquese Chriss
p3720
sg383
I1610612756
sg384
g87
sg385
g109
sg386
V00
p3721
sg388
g133
sg389
I1627737
ssI202330
(dp3722
g571
VButler
p3723
sg573
V226
p3724
sg575
V2017
p3725
sg577
F27.0
sg578
VMAR 23, 1990
p3726
sg580
V6-8
p3727
sg582
VGordon Hayward
p3728
sg584
I1610612738
sg585
V20
p3729
sg587
g229
sg588
V00
p3730
sg590
g133
sg591
I202330
ssI202331
(dp3731
g539
VFresno State
p3732
sg541
V220
p3733
sg543
V2017
p3734
sg545
F27.0
sg546
VMAY 02, 1990
p3735
sg548
V6-9
p3736
sg550
VPaul George
p3737
sg552
I1610612760
sg553
V13
p3738
sg555
g229
sg557
V00
p3739
sg559
g133
sg560
I202331
ssI1627740
(dp3740
g26
VMarquette
p3741
sg28
V245
p3742
sg30
V2017
p3743
sg32
F20.0
sg33
VJAN 13, 1997
p3744
sg35
V6-11
p3745
sg37
VHenry Ellenson
p3746
sg39
I1610612765
sg40
g65
sg42
g109
sg44
V00
p3747
sg46
g133
sg48
I1627740
ssI202334
(dp3748
g650
VNorth Carolina
p3749
sg652
V245
p3750
sg654
V2017
p3751
sg656
F28.0
sg657
VJUN 05, 1989
p3752
sg659
V6-10
p3753
sg661
VEd Davis
p3754
sg663
I1610612757
sg664
V17
p3755
sg665
g229
sg666
V00
p3756
sg668
VF-C
p3757
sg670
I202334
ssI1627743
(dp3758
g620
VNotre Dame
p3759
sg622
V201
p3760
sg624
V2017
p3761
sg626
F23.0
sg627
VSEP 07, 1994
p3762
sg629
V6-1
p3763
sg631
VDemetrius Jackson
p3764
sg633
I1610612745
sg634
g43
sg635
g109
sg637
V00
p3765
sg639
g47
sg640
I1627743
ssI201162
(dp3766
g370
VBoston College
p3767
sg372
V240
p3768
sg374
V2017
p3769
sg376
F32.0
sg377
VJUL 10, 1985
p3770
sg379
V6-7
p3771
sg381
VJared Dudley
p3772
sg383
I1610612756
sg384
g131
sg385
V10
p3773
sg386
V00
p3774
sg388
g133
sg389
I201162
ssI1627745
(dp3775
g490
VVanderbilt
p3776
sg492
V245
p3777
sg494
V2017
p3778
sg496
F22.0
sg497
VJUN 30, 1995
p3779
sg499
V7-0
p3780
sg501
VDamian Jones
p3781
sg503
I1610612744
sg504
V15
p3782
sg505
g109
sg506
V00
p3783
sg508
g70
sg509
I1627745
ssI202322
(dp3784
g326
VKentucky
p3785
sg328
V210
p3786
sg330
V2017
p3787
sg332
F27.0
sg333
VSEP 06, 1990
p3788
sg335
V6-4
p3789
sg337
VJohn Wall
p3790
sg339
I1610612764
sg340
g43
sg342
g229
sg343
V00
p3791
sg345
g47
sg346
I202322
ssI1627747
(dp3792
g232
VMichigan
p3793
sg234
V203
p3794
sg236
V2017
p3795
sg238
F23.0
sg239
VAUG 25, 1994
p3796
sg241
V6-7
p3797
sg243
VCaris LeVert
p3798
sg245
I1610612751
sg246
V22
p3799
sg247
g109
sg248
V00
p3800
sg250
VG-F
p3801
sg251
I1627747
ssI202324
(dp3802
g391
VGeorgia Tech
p3803
sg393
V265
p3804
sg395
V2017
p3805
sg397
F26.0
sg398
VJUL 15, 1991
p3806
sg400
V6-10
p3807
sg402
VDerrick Favors
p3808
sg404
I1610612762
sg405
V15
p3809
sg407
g229
sg409
V00
p3810
sg411
VF-C
p3811
sg412
I202324
ssI202325
(dp3812
g135
VSyracuse
p3813
sg137
V215
p3814
sg139
V2017
p3815
sg141
F30.0
sg142
VJUL 11, 1987
p3816
sg144
V6-7
p3817
sg146
VWesley Johnson
p3818
sg148
I1610612746
sg149
V33
p3819
sg150
g229
sg151
V00
p3820
sg153
g133
sg155
I202325
ssI202326
(dp3821
g1263
VKentucky
p3822
sg1265
V270
p3823
sg1267
V2017
p3824
sg1269
F27.0
sg1270
VAUG 13, 1990
p3825
sg1272
V6-11
p3826
sg1274
VDeMarcus Cousins
p3827
sg1276
I1610612740
sg1277
g87
sg1279
g229
sg1280
V00
p3828
sg1282
g70
sg1283
I202326
ssI202327
(dp3829
g391
VBaylor
p3830
sg393
V245
p3831
sg395
V2017
p3832
sg397
F30.0
sg398
VMAY 20, 1987
p3833
sg400
V6-10
p3834
sg402
VEkpe Udoh
p3835
sg404
I1610612762
sg405
V33
p3836
sg407
g19
sg409
V00
p3837
sg411
VC-F
p3838
sg412
I202327
ssI1627736
(dp3839
g73
VFlorida State
p3840
sg74
V196
p3841
sg76
V2017
p3842
sg78
F20.0
sg79
VNOV 26, 1996
p3843
sg81
V6-5
p3844
sg83
VMalik Beasley
p3845
sg85
I1610612743
sg86
V25
p3846
sg88
g109
sg89
V00
p3847
sg91
g47
sg92
I1627736
ssI202329
(dp3848
g650
VWake Forest
p3849
sg652
V220
p3850
sg654
V2017
p3851
sg656
F27.0
sg657
VSEP 21, 1990
p3852
sg659
V6-9
p3853
sg661
VAl-Farouq Aminu
p3854
sg663
I1610612757
sg664
g65
sg665
g229
sg666
V00
p3855
sg668
g133
sg670
I202329
ssI1627738
(dp3856
g157
VMichigan State
p3857
sg159
V237
p3858
sg161
V2017
p3859
sg163
F20.0
sg164
VDEC 02, 1996
p3860
sg166
V6-11
p3861
sg168
VDeyonta Davis
p3862
sg170
I1610612763
sg171
V21
p3863
sg172
g109
sg173
V00
p3864
sg175
VC-F
p3865
sg176
I1627738
ssI1627739
(dp3866
g414
VProvidence
p3867
sg416
V210
p3868
sg418
V2017
p3869
sg420
F23.0
sg421
VMAR 18, 1994
p3870
sg423
V6-4
p3871
sg425
VKris Dunn
p3872
sg427
I1610612741
sg428
V32
p3873
sg430
g109
sg431
V00
p3874
sg433
g47
sg434
I1627739
ssI202332
(dp3875
g94
VKansas
p3876
sg96
V253
p3877
sg98
V2017
p3878
sg100
F29.0
sg101
VOCT 31, 1988
p3879
sg103
V6-11
p3880
sg105
VCole Aldrich
p3881
sg107
I1610612750
sg108
V45
p3882
sg110
g229
sg111
V00
p3883
sg113
g70
sg114
I202332
ssI1627741
(dp3884
g304
VOklahoma
p3885
sg306
V214
p3886
sg308
V2017
p3887
sg310
F23.0
sg311
VDEC 17, 1993
p3888
sg313
V6-4
p3889
sg315
VBuddy Hield
p3890
sg317
I1610612758
sg318
V24
p3891
sg320
g109
sg321
V00
p3892
sg323
g47
sg324
I1627741
ssI1627742
(dp3893
g743
VDuke
p3894
sg745
V190
p3895
sg747
V2017
p3896
sg749
F20.0
sg750
VSEP 02, 1997
p3897
sg752
V6-9
p3898
sg754
VBrandon Ingram
p3899
sg756
I1610612747
sg757
V14
p3900
sg758
g109
sg759
V00
p3901
sg761
VF-G
p3902
sg762
I1627742
ssI202335
(dp3903
g539
VKentucky
p3904
sg541
V230
p3905
sg543
V2017
p3906
sg545
F28.0
sg546
VMAR 14, 1989
p3907
sg548
V6-9
p3908
sg550
VPatrick Patterson
p3909
sg552
I1610612760
sg553
V54
p3910
sg555
g229
sg557
V00
p3911
sg559
g133
sg560
I202335
ssI1627744
(dp3912
g135
VNorth Carolina
p3913
sg137
V230
p3914
sg139
V2017
p3915
sg141
F23.0
sg142
VJUN 27, 1994
p3916
sg144
V6-10
p3917
sg146
VBrice Johnson
p3918
sg148
I1610612746
sg149
V11
p3919
sg150
g109
sg151
V00
p3920
sg153
g133
sg155
I1627744
ssI202337
(dp3921
g1083
VNevada
p3922
sg1085
V225
p3923
sg1087
V2017
p3924
sg1089
F28.0
sg1090
VJUN 20, 1989
p3925
sg1092
V6-9
p3926
sg1094
VLuke Babbitt
p3927
sg1096
I1610612737
sg1097
g65
sg1099
g229
sg1100
V00
p3928
sg1102
g133
sg1104
I202337
ssI1627746
(dp3929
g304
VKentucky
p3930
sg306
V225
p3931
sg308
V2017
p3932
sg310
F21.0
sg311
VMAR 18, 1996
p3933
sg313
V6-11
p3934
sg315
VSkal Labissiere
p3935
sg317
I1610612758
sg318
g229
sg320
g109
sg321
V00
p3936
sg323
VF-C
p3937
sg324
I1627746
ssI202339
(dp3938
g348
VKentucky
p3939
sg350
V205
p3940
sg352
V2017
p3941
sg354
F27.0
sg355
VDEC 09, 1989
p3942
sg357
V6-1
p3943
sg359
VEric Bledsoe
p3944
sg361
I1610612749
sg362
g636
sg364
g229
sg365
V00
p3945
sg367
g47
sg368
I202339
ssI1627748
(dp3946
g348
Nsg350
V223
p3947
sg352
V2017
p3948
sg354
F20.0
sg355
VFEB 25, 1997
p3949
sg357
V7-1
p3950
sg359
VThon Maker
p3951
sg361
I1610612749
sg362
g229
sg364
g109
sg365
V00
p3952
sg367
VC-F
p3953
sg368
I1627748
ssI1627749
(dp3954
g200
VWashington
p3955
sg202
V170
p3956
sg204
V2017
p3957
sg206
F21.0
sg207
VSEP 19, 1996
p3958
sg209
V6-5
p3959
sg211
VDejounte Murray
p3960
sg213
I1610612759
sg214
g19
sg216
g109
sg218
V00
p3961
sg220
g47
sg221
I1627749
ssI1627750
(dp3962
g73
VKentucky
p3963
sg74
V207
p3964
sg76
V2017
p3965
sg78
F20.0
sg79
VFEB 23, 1997
p3966
sg81
V6-4
p3967
sg83
VJamal Murray
p3968
sg85
I1610612743
sg86
V27
p3969
sg88
g109
sg89
V00
p3970
sg91
g47
sg92
I1627750
ssI1627751
(dp3971
g178
VUtah
p3972
sg180
V230
p3973
sg182
V2017
p3974
sg184
F22.0
sg185
VOCT 15, 1995
p3975
sg187
V7-0
p3976
sg189
VJakob Poeltl
p3977
sg191
I1610612761
sg192
V42
p3978
sg194
g109
sg195
V00
p3979
sg197
g70
sg198
I1627751
ssI1627752
(dp3980
g1083
VBaylor
p3981
sg1085
V220
p3982
sg1087
V2017
p3983
sg1089
F23.0
sg1090
VMAR 22, 1994
p3984
sg1092
V6-8
p3985
sg1094
VTaurean Prince
p3986
sg1096
I1610612737
sg1097
V12
p3987
sg1099
g109
sg1100
V00
p3988
sg1102
g133
sg1104
I1627752
ssI1627753
(dp3989
g620
Nsg622
V210
p3990
sg624
V2017
p3991
sg626
F21.0
sg627
VJAN 16, 1996
p3992
sg629
V7-1
p3993
sg631
VQi Qi
p3994
sg633
I1610612745
sg634
g960
sg635
g556
sg637
V00
p3995
sg639
VF-C
p3996
sg640
I1627753
ssI202347
(dp3997
g414
VWashington
p3998
sg416
V225
p3999
sg418
V2017
p4000
sg420
F29.0
sg421
VMAR 10, 1988
p4001
sg423
V6-7
p4002
sg425
VQuincy Pondexter
p4003
sg427
I1610612741
sg428
V20
p4004
sg430
g19
sg431
V00
p4005
sg433
g47
sg434
I202347
ssI1627756
(dp4006
g414
VMichigan State
p4007
sg416
V214
p4008
sg418
V2017
p4009
sg420
F23.0
sg421
VNOV 16, 1993
p4010
sg423
V6-6
p4011
sg425
VDenzel Valentine
p4012
sg427
I1610612741
sg428
V45
p4013
sg430
g109
sg431
V00
p4014
sg433
g133
sg434
I1627756
ssI1627758
(dp4015
g672
VWichita State
p4016
sg674
V220
p4017
sg676
V2017
p4018
sg678
F24.0
sg679
VMAR 30, 1993
p4019
sg681
V6-4
p4020
sg683
VRon Baker
p4021
sg685
I1610612752
sg686
V31
p4022
sg688
g109
sg689
V00
p4023
sg691
g47
sg692
I1627758
ssI1627759
(dp4024
g571
VCalifornia
p4025
sg573
V225
p4026
sg575
V2017
p4027
sg577
F21.0
sg578
VOCT 24, 1996
p4028
sg580
V6-7
p4029
sg582
VJaylen Brown
p4030
sg584
I1610612738
sg585
g229
sg587
g109
sg588
V00
p4031
sg590
VG-F
p4032
sg591
I1627759
ssI202344
(dp4033
g232
VClemson
p4034
sg234
V228
p4035
sg236
V2017
p4036
sg238
F29.0
sg239
VNOV 25, 1987
p4037
sg241
V6-8
p4038
sg243
VTrevor Booker
p4039
sg245
I1610612751
sg246
V35
p4040
sg247
g229
sg248
V00
p4041
sg250
g133
sg251
I202344
ssI1627762
(dp4042
g348
VWeber State
p4043
sg350
V235
p4044
sg352
V2017
p4045
sg354
F23.0
sg355
VJAN 28, 1994
p4046
sg357
V6-9
p4047
sg359
VJoel Bolomboy
p4048
sg361
I1610612749
sg362
V24
p4049
sg364
g109
sg365
V00
p4050
sg367
VF-C
p4051
sg368
I1627762
ssI202355
(dp4052
g272
VMarshall
p4053
sg274
V265
p4054
sg276
V2017
p4055
sg278
F28.0
sg279
VJUN 13, 1989
p4056
sg281
V7-0
p4057
sg283
VHassan Whiteside
p4058
sg285
I1610612748
sg286
V21
p4059
sg288
g19
sg289
V00
p4060
sg291
g70
sg292
I202355
ssI202357
(dp4061
g94
Nsg96
V230
p4062
sg98
V2017
p4063
sg100
F29.0
sg101
VMAY 09, 1988
p4064
sg103
V6-10
p4065
sg105
VNemanja Bjelica
p4066
sg107
I1610612750
sg108
g65
sg110
g43
sg111
V00
p4067
sg113
g133
sg114
I202357
ssI1627767
(dp4068
g1263
VKansas
p4069
sg1265
V220
p4070
sg1267
V2017
p4071
sg1269
F21.0
sg1270
VSEP 13, 1996
p4072
sg1272
V6-9
p4073
sg1274
VCheick Diallo
p4074
sg1276
I1610612740
sg1277
V13
p4075
sg1279
g109
sg1280
V00
p4076
sg1282
g133
sg1283
I1627767
ssI1627770
(dp4077
g414
VOakland
p4078
sg416
V176
p4079
sg418
V2017
p4080
sg420
F22.0
sg421
VMAR 29, 1995
p4081
sg423
V5-9
p4082
sg425
VKay Felder
p4083
sg427
I1610612741
sg428
g131
sg430
g109
sg431
V00
p4084
sg433
g47
sg434
I1627770
ssI1627772
(dp4085
g539
VConnecticut
p4086
sg541
V195
p4087
sg543
V2017
p4088
sg545
F22.0
sg546
VAUG 08, 1995
p4089
sg548
V6-7
p4090
sg550
VDaniel Hamilton
p4091
sg552
I1610612760
sg553
V25
p4092
sg555
g556
sg557
V00
p4093
sg559
g47
sg560
I1627772
ssI1627773
(dp4094
g272
VPurdue
p4095
sg274
V260
p4096
sg276
V2017
p4097
sg278
F25.0
sg279
VAUG 27, 1992
p4098
sg281
V7-0
p4099
sg283
VAJ Hammons
p4100
sg285
I1610612748
sg286
g617
sg288
g109
sg289
V00
p4101
sg291
g70
sg292
I1627773
ssI1627774
(dp4102
g650
VMaryland
p4103
sg652
V210
p4104
sg654
V2017
p4105
sg656
F23.0
sg657
VMAR 07, 1994
p4106
sg659
V6-9
p4107
sg661
VJake Layman
p4108
sg663
I1610612757
sg664
V10
p4109
sg665
g109
sg666
V00
p4110
sg668
g133
sg670
I1627774
ssI1627775
(dp4111
g490
VNevada-Las Vegas
p4112
sg492
V185
p4113
sg494
V2017
p4114
sg496
F22.0
sg497
VOCT 25, 1995
p4115
sg499
V6-7
p4116
sg501
VPatrick McCaw
p4117
sg503
I1610612744
sg504
g87
sg505
g109
sg506
V00
p4118
sg508
g47
sg509
I1627775
ssI200755
(dp4119
g50
VDuke
p4120
sg52
V200
p4121
sg54
V2017
p4122
sg56
F33.0
sg57
VJUN 24, 1984
p4123
sg59
V6-4
p4124
sg61
VJJ Redick
p4125
sg63
I1610612755
sg64
V17
p4126
sg66
V11
p4127
sg67
V00
p4128
sg69
VF-G
p4129
sg71
I200755
ssI1627778
(dp4130
g620
VLouisville
p4131
sg622
V245
p4132
sg624
V2017
p4133
sg626
F21.0
sg627
VNOV 01, 1996
p4134
sg629
V6-10
p4135
sg631
VChinanu Onuaku
p4136
sg633
I1610612745
sg634
V21
p4137
sg635
g109
sg637
V00
p4138
sg639
g70
sg640
I1627778
ssI1627755
(dp4139
g370
VKentucky
p4140
sg372
V160
p4141
sg374
V2017
p4142
sg376
F21.0
sg377
VJAN 05, 1996
p4143
sg379
V5-10
p4144
sg381
VTyler Ulis
p4145
sg383
I1610612756
sg384
g65
sg385
g109
sg386
V00
p4146
sg388
g47
sg389
I1627755
ssI1627780
(dp4147
g348
VOregon State
p4148
sg350
V190
p4149
sg352
V2017
p4150
sg354
F24.0
sg355
VDEC 01, 1992
p4151
sg357
V6-3
p4152
sg359
VGary Payton II
p4153
sg361
I1610612749
sg362
g87
sg364
g109
sg365
V00
p4154
sg367
g47
sg368
I1627780
ssI1627781
(dp4155
g304
VSyracuse
p4156
sg306
V205
p4157
sg308
V2017
p4158
sg310
F21.0
sg311
VJAN 05, 1996
p4159
sg313
V6-6
p4160
sg315
VMalachi Richardson
p4161
sg317
I1610612758
sg318
V23
p4162
sg320
g109
sg321
V00
p4163
sg323
g47
sg324
I1627781
ssI1627782
(dp4164
g157
VKansas
p4165
sg159
V230
p4166
sg161
V2017
p4167
sg163
F23.0
sg164
VSEP 30, 1994
p4168
sg166
V6-5
p4169
sg168
VWayne Selden
p4170
sg170
I1610612763
sg171
g229
sg172
g109
sg173
V00
p4171
sg175
VG-F
p4172
sg176
I1627782
ssI1627783
(dp4173
g178
VNew Mexico State
p4174
sg180
V230
p4175
sg182
V2017
p4176
sg184
F23.0
sg185
VAPR 02, 1994
p4177
sg187
V6-9
p4178
sg189
VPascal Siakam
p4179
sg191
I1610612761
sg192
V43
p4180
sg194
g109
sg195
V00
p4181
sg197
g133
sg198
I1627783
ssI1627785
(dp4182
g232
VSeton Hall
p4183
sg234
V213
p4184
sg236
V2017
p4185
sg238
F22.0
sg239
VMAR 08, 1995
p4186
sg241
V6-4
p4187
sg243
VIsaiah Whitehead
p4188
sg245
I1610612751
sg246
V15
p4189
sg247
g109
sg248
V00
p4190
sg250
g47
sg251
I1627785
ssI1627786
(dp4191
g620
VIndiana
p4192
sg622
V218
p4193
sg624
V2017
p4194
sg626
F22.0
sg627
VDEC 30, 1994
p4195
sg629
V6-7
p4196
sg631
VTroy Williams
p4197
sg633
I1610612745
sg634
g19
sg635
g109
sg637
V00
p4198
sg639
g133
sg640
I1627786
ssI1627788
(dp4199
g50
Nsg52
V190
p4200
sg54
V2017
p4201
sg56
F20.0
sg57
VJUL 24, 1997
p4202
sg59
V6-7
p4203
sg61
VFurkan Korkmaz
p4204
sg63
I1610612755
sg64
V30
p4205
sg66
g556
sg67
V00
p4206
sg69
VG-F
p4207
sg71
I1627788
ssI1627789
(dp4208
g50
Nsg52
V200
p4209
sg54
V2017
p4210
sg56
F22.0
sg57
VMAY 09, 1995
p4211
sg59
V6-6
p4212
sg61
VTimothe Luwawu-Cabarrot
p4213
sg63
I1610612755
sg64
g229
sg66
g109
sg67
V00
p4214
sg69
VG-F
p4215
sg71
I1627789
ssI1627790
(dp4216
g801
Nsg803
V250
p4217
sg805
V2017
p4218
sg807
F20.0
sg808
VJAN 04, 1997
p4219
sg810
V6-11
p4220
sg812
VAnte Zizic
p4221
sg814
I1610612739
sg815
V41
p4222
sg817
g556
sg818
V00
p4223
sg820
VF-C
p4224
sg821
I1627790
ssI202389
(dp4225
g232
VSt. Petersburg, Russia
p4226
sg234
V275
p4227
sg236
V2017
p4228
sg238
F31.0
sg239
VJUL 16, 1986
p4229
sg241
V7-1
p4230
sg243
VTimofey Mozgov
p4231
sg245
I1610612751
sg246
V20
p4232
sg247
g229
sg248
V00
p4233
sg250
g70
sg251
I202389
ssI202391
(dp4234
g232
VHarvard
p4235
sg234
V200
p4236
sg236
V2017
p4237
sg238
F29.0
sg239
VAUG 23, 1988
p4238
sg241
V6-3
p4239
sg243
VJeremy Lin
p4240
sg245
I1610612751
sg246
g229
sg247
g229
sg248
V00
p4241
sg250
g47
sg251
I202391
ssI202397
(dp4242
g26
VWake Forest
p4243
sg28
V175
p4244
sg30
V2017
p4245
sg32
F29.0
sg33
VJUL 05, 1988
p4246
sg35
V6-0
p4247
sg37
VIsh Smith
p4248
sg39
I1610612765
sg40
V14
p4249
sg42
g229
sg44
V00
p4250
sg46
g47
sg48
I202397
ssI1627812
(dp4251
g832
VIndiana
p4252
sg834
V180
p4253
sg836
V2017
p4254
sg838
F24.0
sg839
VMAY 09, 1993
p4255
sg841
V6-0
p4256
sg843
VYogi Ferrell
p4257
sg845
I1610612742
sg846
V11
p4258
sg847
g109
sg849
V00
p4259
sg851
g47
sg852
I1627812
ssI1627761
(dp4260
g1083
VSaint Joseph's
p4261
sg1085
V210
p4262
sg1087
V2017
p4263
sg1089
F23.0
sg1090
VJUL 04, 1994
p4264
sg1092
V6-6
p4265
sg1094
VDeAndre' Bembry
p4266
sg1096
I1610612737
sg1097
V95
p4267
sg1099
g109
sg1100
V00
p4268
sg1102
VF-G
p4269
sg1104
I1627761
ssI204456
(dp4270
g50
VArizona
p4271
sg52
V190
p4272
sg54
V2017
p4273
sg56
F25.0
sg57
VMAR 25, 1992
p4274
sg59
V6-2
p4275
sg61
VT.J. McConnell
p4276
sg63
I1610612755
sg64
V12
p4277
sg66
g43
sg67
V00
p4278
sg69
g47
sg71
I204456
ssI1627819
(dp4279
g1083
VTexas
p4280
sg1085
V170
p4281
sg1087
V2017
p4282
sg1089
F23.0
sg1090
VJUL 11, 1994
p4283
sg1092
V6-3
p4284
sg1094
VIsaiah Taylor
p4285
sg1096
I1610612737
sg1097
V22
p4286
sg1099
g109
sg1100
V00
p4287
sg1102
g47
sg1104
I1627819
ssI1627823
(dp4288
g73
Nsg74
V230
p4289
sg76
V2017
p4290
sg78
F22.0
sg79
VSEP 28, 1995
p4291
sg81
V6-9
p4292
sg83
VJuan Hernangomez
p4293
sg85
I1610612743
sg86
V41
p4294
sg88
g109
sg89
V00
p4295
sg91
g133
sg92
I1627823
ssI1627824
(dp4296
g571
Nsg573
V260
p4297
sg575
V2017
p4298
sg577
F21.0
sg578
VDEC 17, 1995
p4299
sg580
V6-8
p4300
sg582
VGuerschon Yabusele
p4301
sg584
I1610612738
sg585
V30
p4302
sg587
g556
sg588
V00
p4303
sg590
g133
sg591
I1627824
ssI1713
(dp4304
g304
VNorth Carolina
p4305
sg306
V220
p4306
sg308
V2017
p4307
sg310
F40.0
sg311
VJAN 26, 1977
p4308
sg313
V6-6
p4309
sg315
VVince Carter
p4310
sg317
I1610612758
sg318
V15
p4311
sg320
V19
p4312
sg321
V00
p4313
sg323
VG-F
p4314
sg324
I1713
ssI1627826
(dp4315
g743
Nsg745
V240
p4316
sg747
V2017
p4317
sg749
F20.0
sg750
VMAR 18, 1997
p4318
sg752
V7-1
p4319
sg754
VIvica Zubac
p4320
sg756
I1610612747
sg757
V40
p4321
sg758
g109
sg759
V00
p4322
sg761
g70
sg762
I1627826
ssI1627827
(dp4323
g832
VFlorida
p4324
sg834
V220
p4325
sg836
V2017
p4326
sg838
F24.0
sg839
VMAY 04, 1993
p4327
sg841
V6-8
p4328
sg843
VDorian Finney-Smith
p4329
sg845
I1610612742
sg846
V10
p4330
sg847
g109
sg849
V00
p4331
sg851
g133
sg852
I1627827
ssI1717
(dp4332
g832
VWurzburg, Germany
p4333
sg834
V245
p4334
sg836
V2017
p4335
sg838
F39.0
sg839
VJUN 19, 1978
p4336
sg841
V7-0
p4337
sg843
VDirk Nowitzki
p4338
sg845
I1610612742
sg846
V41
p4339
sg847
V19
p4340
sg849
V00
p4341
sg851
VF-C
p4342
sg852
I1717
ssI1627832
(dp4343
g178
VWichita State
p4344
sg180
V195
p4345
sg182
V2017
p4346
sg184
F23.0
sg185
VFEB 25, 1994
p4347
sg187
V6-0
p4348
sg189
VFred VanVleet
p4349
sg191
I1610612761
sg192
V23
p4350
sg194
g109
sg195
V00
p4351
sg197
g47
sg198
I1627832
ssI1627834
(dp4352
g304
Nsg306
V240
p4353
sg308
V2017
p4354
sg310
F20.0
sg311
VJUL 03, 1997
p4355
sg313
V7-1
p4356
sg315
VGeorgios Papagiannis
p4357
sg317
I1610612758
sg318
V13
p4358
sg320
g109
sg321
V00
p4359
sg323
g70
sg324
I1627834
ssI1627835
(dp4360
g414
Nsg416
V226
p4361
sg418
V2017
p4362
sg420
F23.0
sg421
VFEB 18, 1994
p4363
sg423
V6-8
p4364
sg425
VPaul Zipser
p4365
sg427
I1610612741
sg428
V16
p4366
sg430
g109
sg431
V00
p4367
sg433
g133
sg434
I1627835
ssI1627846
(dp4368
g571
VIowa State
p4369
sg573
V230
p4370
sg575
V2017
p4371
sg577
F24.0
sg578
VSEP 25, 1993
p4372
sg580
V6-6
p4373
sg582
VAbdel Nader
p4374
sg584
I1610612738
sg585
V28
p4375
sg587
g556
sg588
V00
p4376
sg590
g133
sg591
I1627846
ssI1627851
(dp4377
g672
Nsg674
V215
p4378
sg676
V2017
p4379
sg678
F28.0
sg679
VOCT 19, 1989
p4380
sg681
V6-9
p4381
sg683
VMindaugas Kuzminskas
p4382
sg685
I1610612752
sg686
V91
p4383
sg688
g109
sg689
V00
p4384
sg691
g133
sg692
I1627851
ssI1627852
(dp4385
g1083
Nsg1085
V195
p4386
sg1087
V2017
p4387
sg1089
F24.0
sg1090
VMAR 02, 1993
p4388
sg1092
V6-8
p4389
sg1094
VNicolas Brussino
p4390
sg1096
I1610612737
sg1097
V16
p4391
sg1099
g109
sg1100
V00
p4392
sg1102
g133
sg1104
I1627852
ssI1627853
(dp4393
g414
VVillanova
p4394
sg416
V195
p4395
sg418
V2017
p4396
sg420
F23.0
sg421
VMAR 26, 1994
p4397
sg423
V6-3
p4398
sg425
VRyan Arcidiacono
p4399
sg427
I1610612741
sg428
V15
p4400
sg430
g556
sg431
V00
p4401
sg433
g47
sg434
I1627853
ssI1627854
(dp4402
g200
VMichigan State
p4403
sg202
V190
p4404
sg204
V2017
p4405
sg206
F24.0
sg207
VJUL 23, 1993
p4406
sg209
V6-3
p4407
sg211
VBryn Forbes
p4408
sg213
I1610612759
sg214
V11
p4409
sg216
g109
sg218
V00
p4410
sg220
g47
sg221
I1627854
ssI1627855
(dp4411
g272
VFlorida State
p4412
sg274
V215
p4413
sg276
V2017
p4414
sg278
F25.0
sg279
VAUG 13, 1992
p4415
sg281
V6-8
p4416
sg283
VOkaro White
p4417
sg285
I1610612748
sg286
V15
p4418
sg288
g109
sg289
V00
p4419
sg291
g133
sg292
I1627855
ssI1627856
(dp4420
g200
VMichigan State
p4421
sg202
V240
p4422
sg204
V2017
p4423
sg206
F24.0
sg207
VAUG 05, 1993
p4424
sg209
V6-10
p4425
sg211
VMatt Costello
p4426
sg213
I1610612759
sg214
V10
p4427
sg216
g556
sg218
V00
p4428
sg220
VF-C
p4429
sg221
I1627856
ssI202362
(dp4430
g436
VCincinnati
p4431
sg438
V230
p4432
sg440
V2017
p4433
sg442
F27.0
sg443
VSEP 05, 1990
p4434
sg445
V6-6
p4435
sg447
VLance Stephenson
p4436
sg449
I1610612754
sg450
g109
sg452
g229
sg453
V00
p4437
sg455
g47
sg456
I202362
ssI1627875
(dp4438
g94
VGeorgia Tech
p4439
sg96
V226
p4440
sg98
V2017
p4441
sg100
F23.0
sg101
VMAR 28, 1994
p4442
sg103
V6-5
p4443
sg105
VMarcus Georges-Hunt
p4444
sg107
I1610612750
sg108
V13
p4445
sg110
g109
sg111
V00
p4446
sg113
g47
sg114
I1627875
ssI1627883
(dp4447
g1263
VTexas A&M
p4448
sg1265
V220
p4449
sg1267
V2017
p4450
sg1269
F24.0
sg1270
VMAY 27, 1993
p4451
sg1272
V6-7
p4452
sg1274
VJalen Jones
p4453
sg1276
I1610612740
sg1277
V12
p4454
sg1279
g556
sg1280
V00
p4455
sg1282
g133
sg1283
I1627883
ssI1627884
(dp4456
g370
VNevada-Las Vegas
p4457
sg372
V195
p4458
sg374
V2017
p4459
sg376
F20.0
sg377
VFEB 15, 1997
p4460
sg379
V6-7
p4461
sg381
VDerrick Jones Jr.
p4462
sg383
I1610612756
sg384
V10
p4463
sg385
g109
sg386
V00
p4464
sg388
VF-G
p4465
sg389
I1627884
ssI202498
(dp4466
g672
VDuke
p4467
sg674
V235
p4468
sg676
V2017
p4469
sg678
F29.0
sg679
VAPR 24, 1988
p4470
sg681
V6-8
p4471
sg683
VLance Thomas
p4472
sg685
I1610612752
sg686
V42
p4473
sg688
g636
sg689
V00
p4474
sg691
g133
sg692
I202498
ssI1627779
(dp4475
g720
VNorth Carolina
p4476
sg722
V164
p4477
sg724
V2017
p4478
sg726
F24.0
sg727
VSEP 11, 1993
p4479
sg729
V6-0
p4480
sg731
VMarcus Paige
p4481
sg733
I1610612766
sg734
g617
sg736
g556
sg737
V00
p4482
sg739
g47
sg741
I1627779
ssI1627936
(dp4483
g743
VTexas A&M
p4484
sg745
V186
p4485
sg747
V2017
p4486
sg749
F23.0
sg750
VFEB 28, 1994
p4487
sg752
V6-5
p4488
sg754
VAlex Caruso
p4489
sg756
I1610612747
sg757
g617
sg758
g556
sg759
V00
p4490
sg761
g47
sg762
I1627936
ssI1891
(dp4491
g348
VArizona
p4492
sg350
V185
p4493
sg352
V2017
p4494
sg354
F40.0
sg355
VSEP 15, 1977
p4495
sg357
V6-2
p4496
sg359
VJason Terry
p4497
sg361
I1610612749
sg362
g131
sg364
V18
p4498
sg365
V00
p4499
sg367
g47
sg368
I1891
ssI1628021
(dp4500
g414
VCal Poly-S.L.O.
p4501
sg416
V209
p4502
sg418
V2017
p4503
sg420
F24.0
sg421
VJAN 14, 1993
p4504
sg423
V6-4
p4505
sg425
VDavid Nwaba
p4506
sg427
I1610612741
sg428
V11
p4507
sg430
g109
sg431
V00
p4508
sg433
g47
sg434
I1628021
ssI1628035
(dp4509
g178
VWisc.-Green Bay
p4510
sg180
V215
p4511
sg182
V2017
p4512
sg184
F25.0
sg185
VSEP 17, 1992
p4513
sg187
V6-8
p4514
sg189
VAlfonzo McKinnie
p4515
sg191
I1610612761
sg192
V34
p4516
sg194
g556
sg195
V00
p4517
sg197
g133
sg198
I1628035
ssI1938
(dp4518
g200
VBahia Blanca, Argentina
p4519
sg202
V205
p4520
sg204
V2017
p4521
sg206
F40.0
sg207
VJUL 28, 1977
p4522
sg209
V6-6
p4523
sg211
VManu Ginobili
p4524
sg213
I1610612759
sg214
V20
p4525
sg216
V15
p4526
sg218
V00
p4527
sg220
g47
sg221
I1938
ssI203084
(dp4528
g832
VNorth Carolina
p4529
sg834
V225
p4530
sg836
V2017
p4531
sg838
F25.0
sg839
VMAY 30, 1992
p4532
sg841
V6-8
p4533
sg843
VHarrison Barnes
p4534
sg845
I1610612742
sg846
V40
p4535
sg847
g19
sg849
V00
p4536
sg851
g133
sg852
I203084
ssI202681
(dp4537
g571
VDuke
p4538
sg573
V193
p4539
sg575
V2017
p4540
sg577
F25.0
sg578
VMAR 23, 1992
p4541
sg580
V6-3
p4542
sg582
VKyrie Irving
p4543
sg584
I1610612738
sg585
V11
p4544
sg587
g636
sg588
V00
p4545
sg590
g47
sg591
I202681
ssI202683
(dp4546
g672
VKentucky
p4547
sg674
V245
p4548
sg676
V2017
p4549
sg678
F25.0
sg679
VMAY 20, 1992
p4550
sg681
V6-11
p4551
sg683
VEnes Kanter
p4552
sg685
I1610612752
sg686
V00
p4553
sg688
g636
sg689
V00
p4554
sg691
g70
sg692
I202683
ssI202684
(dp4555
g801
VTexas
p4556
sg803
V238
p4557
sg805
V2017
p4558
sg807
F26.0
sg808
VMAR 13, 1991
p4559
sg810
V6-9
p4560
sg812
VTristan Thompson
p4561
sg814
I1610612739
sg815
V13
p4562
sg817
g636
sg818
V00
p4563
sg820
VC-F
p4564
sg821
I202684
ssI202685
(dp4565
g178
VUtena, Lithuania
p4566
sg180
V255
p4567
sg182
V2017
p4568
sg184
F25.0
sg185
VMAY 06, 1992
p4569
sg187
V7-0
p4570
sg189
VJonas Valanciunas
p4571
sg191
I1610612761
sg192
V17
p4572
sg194
g19
sg195
V00
p4573
sg197
g70
sg198
I202685
ssI202687
(dp4574
g2
VLubumbashi, DR Congo
p4575
sg4
V255
p4576
sg6
V2017
p4577
sg8
F25.0
sg9
VAUG 28, 1992
p4578
sg11
V6-9
p4579
sg13
VBismack Biyombo
p4580
sg15
I1610612753
sg16
V11
p4581
sg18
g636
sg20
V00
p4582
sg22
g70
sg24
I202687
ssI202688
(dp4583
g370
VKentucky
p4584
sg372
V195
p4585
sg374
V2017
p4586
sg376
F25.0
sg377
VDEC 02, 1991
p4587
sg379
V6-3
p4588
sg381
VBrandon Knight
p4589
sg383
I1610612756
sg384
V11
p4590
sg385
g636
sg386
V00
p4591
sg388
g47
sg389
I202688
ssI202689
(dp4592
g720
VConnecticut
p4593
sg722
V184
p4594
sg724
V2017
p4595
sg726
F27.0
sg727
VMAY 08, 1990
p4596
sg729
V6-1
p4597
sg731
VKemba Walker
p4598
sg733
I1610612766
sg734
V15
p4599
sg736
g636
sg737
V00
p4600
sg739
g47
sg741
I202689
ssI202691
(dp4601
g490
VWashington State
p4602
sg492
V215
p4603
sg494
V2017
p4604
sg496
F27.0
sg497
VFEB 08, 1990
p4605
sg499
V6-7
p4606
sg501
VKlay Thompson
p4607
sg503
I1610612744
sg504
V11
p4608
sg505
g636
sg506
V00
p4609
sg508
g47
sg509
I202691
ssI202692
(dp4610
g391
VColorado
p4611
sg393
V214
p4612
sg395
V2017
p4613
sg397
F26.0
sg398
VJUL 20, 1991
p4614
sg400
V6-6
p4615
sg402
VAlec Burks
p4616
sg404
I1610612762
sg405
V10
p4617
sg407
g636
sg409
V00
p4618
sg411
g47
sg412
I202692
ssI202693
(dp4619
g326
VKansas
p4620
sg328
V245
p4621
sg330
V2017
p4622
sg332
F28.0
sg333
VSEP 02, 1989
p4623
sg335
V6-10
p4624
sg337
VMarkieff Morris
p4625
sg339
I1610612764
sg340
g19
sg342
g636
sg343
V00
p4626
sg345
g133
sg346
I202693
ssI202694
(dp4627
g571
VKansas
p4628
sg573
V235
p4629
sg575
V2017
p4630
sg577
F28.0
sg578
VSEP 02, 1989
p4631
sg580
V6-9
p4632
sg582
VMarcus Morris
p4633
sg584
I1610612738
sg585
V13
p4634
sg587
g636
sg588
V00
p4635
sg590
g133
sg591
I202694
ssI202695
(dp4636
g200
VSan Diego State
p4637
sg202
V230
p4638
sg204
V2017
p4639
sg206
F26.0
sg207
VJUN 29, 1991
p4640
sg209
V6-7
p4641
sg211
VKawhi Leonard
p4642
sg213
I1610612759
sg214
g43
sg216
g636
sg218
V00
p4643
sg220
g133
sg221
I202695
ssI202696
(dp4644
g2
VSouthern California
p4645
sg4
V260
p4646
sg6
V2017
p4647
sg8
F27.0
sg9
VOCT 24, 1990
p4648
sg11
V7-0
p4649
sg13
VNikola Vucevic
p4650
sg15
I1610612753
sg16
g960
sg18
g636
sg20
V00
p4651
sg22
g70
sg24
I202696
ssI202697
(dp4652
g801
VGeorgia Tech
p4653
sg803
V220
p4654
sg805
V2017
p4655
sg807
F27.0
sg808
VJUN 26, 1990
p4656
sg810
V6-5
p4657
sg812
VIman Shumpert
p4658
sg814
I1610612739
sg815
g617
sg817
g636
sg818
V00
p4659
sg820
g47
sg821
I202697
ssI202699
(dp4660
g26
VTennessee
p4661
sg28
V235
p4662
sg30
V2017
p4663
sg32
F25.0
sg33
VJUL 15, 1992
p4664
sg35
V6-9
p4665
sg37
VTobias Harris
p4666
sg39
I1610612765
sg40
V34
p4667
sg42
g636
sg44
V00
p4668
sg46
g133
sg48
I202699
ssI202702
(dp4669
g73
VMorehead State
p4670
sg74
V228
p4671
sg76
V2017
p4672
sg78
F27.0
sg79
VNOV 19, 1989
p4673
sg81
V6-8
p4674
sg83
VKenneth Faried
p4675
sg85
I1610612743
sg86
V35
p4676
sg88
g636
sg89
V00
p4677
sg91
g133
sg92
I202702
ssI202703
(dp4678
g414
Nsg416
V238
p4679
sg418
V2017
p4680
sg420
F26.0
sg421
VFEB 11, 1991
p4681
sg423
V6-10
p4682
sg425
VNikola Mirotic
p4683
sg427
I1610612741
sg428
V44
p4684
sg430
g131
sg431
V00
p4685
sg433
g133
sg434
I202703
ssI202704
(dp4686
g26
VBoston College
p4687
sg28
V208
p4688
sg30
V2017
p4689
sg32
F27.0
sg33
VAPR 16, 1990
p4690
sg35
V6-3
p4691
sg37
VReggie Jackson
p4692
sg39
I1610612765
sg40
g109
sg42
g636
sg44
V00
p4693
sg46
g47
sg48
I202704
ssI202709
(dp4694
g436
VTexas
p4695
sg438
V190
p4696
sg440
V2017
p4697
sg442
F26.0
sg443
VAUG 20, 1991
p4698
sg445
V6-3
p4699
sg447
VCory Joseph
p4700
sg449
I1610612754
sg450
g636
sg452
g636
sg453
V00
p4701
sg455
g47
sg456
I202709
ssI202710
(dp4702
g94
VMarquette
p4703
sg96
V236
p4704
sg98
V2017
p4705
sg100
F28.0
sg101
VSEP 14, 1989
p4706
sg103
V6-8
p4707
sg105
VJimmy Butler
p4708
sg107
I1610612750
sg108
V23
p4709
sg110
g636
sg111
V00
p4710
sg113
g47
sg114
I202710
ssI202711
(dp4711
g436
Nsg438
V230
p4712
sg440
V2017
p4713
sg442
F28.0
sg443
VAPR 18, 1989
p4714
sg445
V6-8
p4715
sg447
VBojan Bogdanovic
p4716
sg449
I1610612754
sg450
V44
p4717
sg452
g131
sg453
V00
p4718
sg455
g133
sg456
I202711
ssI202713
(dp4719
g539
VDuke
p4720
sg541
V228
p4721
sg543
V2017
p4722
sg545
F29.0
sg546
VMAY 04, 1988
p4723
sg548
V6-8
p4724
sg550
VKyle Singler
p4725
sg552
I1610612760
sg553
V15
p4726
sg555
g19
sg557
V00
p4727
sg559
g133
sg560
I202713
ssI202714
(dp4728
g2
VButler
p4729
sg4
V203
p4730
sg6
V2017
p4731
sg8
F27.0
sg9
VAPR 22, 1990
p4732
sg11
V6-3
p4733
sg13
VShelvin Mack
p4734
sg15
I1610612753
sg16
g229
sg18
g636
sg20
V00
p4735
sg22
g47
sg24
I202714
ssI202718
(dp4736
g157
VFlorida
p4737
sg159
V230
p4738
sg161
V2017
p4739
sg163
F29.0
sg164
VOCT 25, 1988
p4740
sg166
V6-10
p4741
sg168
VChandler Parsons
p4742
sg170
I1610612763
sg171
V25
p4743
sg172
g636
sg173
V00
p4744
sg175
g133
sg176
I202718
ssI202720
(dp4745
g26
VWisconsin
p4746
sg28
V228
p4747
sg30
V2017
p4748
sg32
F28.0
sg33
VMAY 14, 1989
p4749
sg35
V6-10
p4750
sg37
VJon Leuer
p4751
sg39
I1610612765
sg40
V30
p4752
sg42
g636
sg44
V00
p4753
sg46
VF-C
p4754
sg48
I202720
ssI202722
(dp4755
g200
Nsg202
V210
p4756
sg204
V2017
p4757
sg206
F24.0
sg207
VNOV 12, 1992
p4758
sg209
V6-10
p4759
sg211
VDavis Bertans
p4760
sg213
I1610612759
sg214
V42
p4761
sg216
g109
sg218
V00
p4762
sg220
g133
sg221
I202722
ssI1627815
(dp4763
g326
VMiami (Fla.)
p4764
sg328
V200
p4765
sg330
V2017
p4766
sg332
F24.0
sg333
VDEC 21, 1992
p4767
sg335
V6-6
p4768
sg337
VSheldon Mac
p4769
sg339
I1610612764
sg340
g960
sg342
g109
sg343
V00
p4770
sg345
VG-F
p4771
sg346
I1627815
ssI202732
(dp4772
g348
VKentucky
p4773
sg350
V209
p4774
sg352
V2017
p4775
sg354
F29.0
sg355
VMAR 31, 1988
p4776
sg357
V6-6
p4777
sg359
VDeAndre Liggins
p4778
sg361
I1610612749
sg362
V25
p4779
sg364
g617
sg365
V00
p4780
sg367
g47
sg368
I202732
ssI202734
(dp4781
g1263
VPurdue
p4782
sg1265
V191
p4783
sg1267
V2017
p4784
sg1269
F28.0
sg1270
VFEB 25, 1989
p4785
sg1272
V6-4
p4786
sg1274
VE'Twaun Moore
p4787
sg1276
I1610612740
sg1277
V55
p4788
sg1279
g636
sg1280
V00
p4789
sg1282
g47
sg1283
I202734
ssI1627816
(dp4790
g436
VKentucky
p4791
sg438
V235
p4792
sg440
V2017
p4793
sg442
F24.0
sg443
VSEP 06, 1993
p4794
sg445
V6-9
p4795
sg447
VAlex Poythress
p4796
sg449
I1610612754
sg450
g87
sg452
g109
sg453
V00
p4797
sg455
g133
sg456
I1627816
ssI202738
(dp4798
g801
VWashington
p4799
sg803
V185
p4800
sg805
V2017
p4801
sg807
F28.0
sg808
VFEB 07, 1989
p4802
sg810
V5-9
p4803
sg812
VIsaiah Thomas
p4804
sg814
I1610612739
sg815
g131
sg817
g636
sg818
V00
p4805
sg820
g47
sg821
I202738
ssI2037
(dp4806
g94
VMichigan
p4807
sg96
V185
p4808
sg98
V2017
p4809
sg100
F37.0
sg101
VMAR 20, 1980
p4810
sg103
V6-5
p4811
sg105
VJamal Crawford
p4812
sg107
I1610612750
sg108
V11
p4813
sg110
V17
p4814
sg111
V00
p4815
sg113
g47
sg114
I2037
ss.