(dp0
I203524
(dp1
VSCHOOL
p2
VArizona
p3
sVWEIGHT
p4
V225
p5
sVSEASON
p6
V2017
p7
sVAGE
p8
F26.0
sVBIRTH_DATE
p9
VMAR 18, 1991
p10
sVHEIGHT
p11
V6-7
p12
sVPLAYER
p13
VSolomon Hill
p14
sVTeamID
p15
I1610612740
sVNUM
p16
V44
p17
sVEXP
p18
V4
p19
sVLeagueID
p20
V00
p21
sVPOSITION
p22
VF
p23
sVPLAYER_ID
p24
I203524
ssI1628393
(dp25
VSCHOOL
p26
VOklahoma State
p27
sVWEIGHT
p28
V190
p29
sVSEASON
p30
V2017
p31
sVAGE
p32
F21.0
sVBIRTH_DATE
p33
VJUL 26, 1996
p34
sVHEIGHT
p35
V6-0
p36
sVPLAYER
p37
VJawun Evans
p38
sVTeamID
p39
I1610612746
sVNUM
p40
V1
p41
sVEXP
p42
VR
p43
sVLeagueID
p44
V00
p45
sVPOSITION
p46
VG
p47
sVPLAYER_ID
p48
I1628393
ssI203898
(dp49
VSCHOOL
p50
VSyracuse
p51
sVWEIGHT
p52
V194
p53
sVSEASON
p54
V2017
p55
sVAGE
p56
F23.0
sVBIRTH_DATE
p57
VAUG 24, 1994
p58
sVHEIGHT
p59
V6-3
p60
sVPLAYER
p61
VTyler Ennis
p62
sVTeamID
p63
I1610612747
sVNUM
p64
V10
p65
sVEXP
p66
V3
p67
sVLeagueID
p68
V00
p69
sVPOSITION
p70
g47
sVPLAYER_ID
p71
I203898
ssI200794
(dp72
VSCHOOL
p73
VLouisiana Tech
p74
sVWEIGHT
p75
V246
p76
sVSEASON
p77
V2017
p78
sVAGE
p79
F32.0
sVBIRTH_DATE
p80
VFEB 10, 1985
p81
sVHEIGHT
p82
V6-8
p83
sVPLAYER
p84
VPaul Millsap
p85
sVTeamID
p86
I1610612743
sVNUM
p87
g19
sVEXP
p88
V11
p89
sVLeagueID
p90
V00
p91
sVPOSITION
p92
g23
sVPLAYER_ID
p93
I200794
ssI1626144
(dp94
g73
Nsg75
V200
p95
sg77
V2017
p96
sg79
F21.0
sg80
VMAR 05, 1996
p97
sg82
V6-5
p98
sg84
VEmmanuel Mudiay
p99
sg86
I1610612743
sg87
V0
p100
sg88
V2
p101
sg90
V00
p102
sg92
g47
sg93
I1626144
ssI2736
(dp103
g50
VDuke
p104
sg52
V220
p105
sg54
V2017
p106
sg56
F32.0
sg57
VAPR 16, 1985
p107
sg59
V6-9
p108
sg61
VLuol Deng
p109
sg63
I1610612747
sg64
V9
p110
sg66
V13
p111
sg68
V00
p112
sg70
g23
sg71
I2736
ssI1627739
(dp113
VSCHOOL
p114
VProvidence
p115
sVWEIGHT
p116
V210
p117
sVSEASON
p118
V2017
p119
sVAGE
p120
F23.0
sVBIRTH_DATE
p121
VMAR 18, 1994
p122
sVHEIGHT
p123
V6-4
p124
sVPLAYER
p125
VKris Dunn
p126
sVTeamID
p127
I1610612741
sVNUM
p128
V32
p129
sVEXP
p130
g41
sVLeagueID
p131
V00
p132
sVPOSITION
p133
g47
sVPLAYER_ID
p134
I1627739
ssI1626149
(dp135
g26
VLouisville
p136
sg28
V240
p137
sg30
V2017
p138
sg32
F23.0
sg33
VJAN 26, 1994
p139
sg35
V6-8
p140
sg37
VMontrezl Harrell
p141
sg39
I1610612746
sg40
V5
p142
sg42
g101
sg44
V00
p143
sg46
VF-C
p144
sg48
I1626149
ssI1626150
(dp145
VSCHOOL
p146
VKentucky
p147
sVWEIGHT
p148
V213
p149
sVSEASON
p150
V2017
p151
sVAGE
p152
F23.0
sVBIRTH_DATE
p153
VOCT 28, 1994
p154
sVHEIGHT
p155
V6-6
p156
sVPLAYER
p157
VAndrew Harrison
p158
sVTeamID
p159
I1610612763
sVNUM
p160
g142
sVEXP
p161
g41
sVLeagueID
p162
V00
p163
sVPOSITION
p164
g47
sVPLAYER_ID
p165
I1626150
ssI1626153
(dp166
VSCHOOL
p167
VUtah
p168
sVWEIGHT
p169
V190
p170
sVSEASON
p171
V2017
p172
sVAGE
p173
F25.0
sVBIRTH_DATE
p174
VAPR 26, 1992
p175
sVHEIGHT
p176
V6-5
p177
sVPLAYER
p178
VDelon Wright
p179
sVTeamID
p180
I1610612761
sVNUM
p181
V55
p182
sVEXP
p183
g101
sVLeagueID
p184
V00
p185
sVPOSITION
p186
g47
sVPLAYER_ID
p187
I1626153
ssI1626155
(dp188
g26
VWisconsin
p189
sg28
V230
p190
sg30
V2017
p191
sg32
F23.0
sg33
VMAY 08, 1994
p192
sg35
V6-9
p193
sg37
VSam Dekker
p194
sg39
I1610612746
sg40
V7
p195
sg42
g101
sg44
V00
p196
sg46
g23
sg48
I1626155
ssI1627826
(dp197
g50
Nsg52
V240
p198
sg54
V2017
p199
sg56
F20.0
sg57
VMAR 18, 1997
p200
sg59
V7-1
p201
sg61
VIvica Zubac
p202
sg63
I1610612747
sg64
V40
p203
sg66
g41
sg68
V00
p204
sg70
VC
p205
sg71
I1627826
ssI1626159
(dp206
VSCHOOL
p207
VDuke
p208
sVWEIGHT
p209
V225
p210
sVSEASON
p211
V2017
p212
sVAGE
p213
F21.0
sVBIRTH_DATE
p214
VMAR 26, 1996
p215
sVHEIGHT
p216
V6-7
p217
sVPLAYER
p218
VJustise Winslow
p219
sVTeamID
p220
I1610612748
sVNUM
p221
V20
p222
sVEXP
p223
g101
sVLeagueID
p224
V00
p225
sVPOSITION
p226
g23
sVPLAYER_ID
p227
I1626159
ssI201967
(dp228
g2
VVillanova
p229
sg4
V230
p230
sg6
V2017
p231
sg8
F30.0
sg9
VAPR 22, 1987
p232
sg11
V6-8
p233
sg13
VDante Cunningham
p234
sg15
I1610612740
sg16
V33
p235
sg18
V8
p236
sg20
V00
p237
sg22
g23
sg24
I201967
ssI1627827
(dp238
VSCHOOL
p239
VFlorida
p240
sVWEIGHT
p241
V220
p242
sVSEASON
p243
V2017
p244
sVAGE
p245
F24.0
sVBIRTH_DATE
p246
VMAY 04, 1993
p247
sVHEIGHT
p248
V6-8
p249
sVPLAYER
p250
VDorian Finney-Smith
p251
sVTeamID
p252
I1610612742
sVNUM
p253
V10
p254
sVEXP
p255
g41
sVLeagueID
p256
V00
p257
sVPOSITION
p258
g23
sVPLAYER_ID
p259
I1627827
ssI200757
(dp260
VSCHOOL
p261
VVevey, Switzerland
p262
sVWEIGHT
p263
V220
p264
sVSEASON
p265
V2017
p266
sVAGE
p267
F33.0
sVBIRTH_DATE
p268
VMAY 02, 1984
p269
sVHEIGHT
p270
V6-7
p271
sVPLAYER
p272
VThabo Sefolosha
p273
sVTeamID
p274
I1610612762
sVNUM
p275
V22
p276
sVEXP
p277
V11
p278
sVLeagueID
p279
V00
p280
sVPOSITION
p281
g23
sVPLAYER_ID
p282
I200757
ssI1626166
(dp283
g114
VMurray State
p284
sg116
V185
p285
sg118
V2017
p286
sg120
F23.0
sg121
VAUG 08, 1994
p287
sg123
V6-3
p288
sg125
VCameron Payne
p289
sg127
I1610612741
sg128
V22
p290
sg130
g101
sg131
V00
p291
sg133
g47
sg134
I1626166
ssI1626168
(dp292
g73
VKentucky
p293
sg75
V234
p294
sg77
V2017
p295
sg79
F22.0
sg80
VNOV 05, 1995
p296
sg82
V6-10
p297
sg84
VTrey Lyles
p298
sg86
I1610612743
sg87
g195
sg88
g101
sg90
V00
p299
sg92
g23
sg93
I1626168
ssI2617
(dp300
g207
VFlorida
p301
sg209
V235
p302
sg211
V2017
p303
sg213
F37.0
sg214
VJUN 09, 1980
p304
sg216
V6-8
p305
sg218
VUdonis Haslem
p306
sg220
I1610612748
sg221
V40
p307
sg223
V14
p308
sg224
V00
p309
sg226
g23
sg227
I2617
ssI1626170
(dp310
g114
VNotre Dame
p311
sg116
V198
p312
sg118
V2017
p313
sg120
F25.0
sg121
VOCT 09, 1992
p314
sg123
V6-4
p315
sg125
VJerian Grant
p316
sg127
I1610612741
sg128
g101
sg130
g101
sg131
V00
p317
sg133
g47
sg134
I1626170
ssI1626171
(dp318
g114
VArkansas
p319
sg116
V248
p320
sg118
V2017
p321
sg120
F22.0
sg121
VFEB 10, 1995
p322
sg123
V6-11
p323
sg125
VBobby Portis
p324
sg127
I1610612741
sg128
g142
sg130
g101
sg131
V00
p325
sg133
g23
sg134
I1626171
ssI1626173
(dp326
VSCHOOL
p327
VUNLV
p328
sVWEIGHT
p329
V202
p330
sVSEASON
p331
V2017
p332
sVAGE
p333
F21.0
sVBIRTH_DATE
p334
VAUG 16, 1996
p335
sVHEIGHT
p336
V6-6
p337
sVPLAYER
p338
VRashad Vaughn
p339
sVTeamID
p340
I1610612749
sVNUM
p341
V20
p342
sVEXP
p343
g101
sVLeagueID
p344
V00
p345
sVPOSITION
p346
g47
sVPLAYER_ID
p347
I1626173
ssI1626175
(dp348
g207
VLouisiana State
p349
sg209
V235
p350
sg211
V2017
p351
sg213
F23.0
sg214
VJUL 09, 1994
p352
sg216
V6-8
p353
sg218
VJordan Mickey
p354
sg220
I1610612748
sg221
V25
p355
sg223
g101
sg224
V00
p356
sg226
VC-F
p357
sg227
I1626175
ssI200768
(dp358
g167
VVillanova
p359
sg169
V205
p360
sg171
V2017
p361
sg173
F31.0
sg174
VMAR 25, 1986
p362
sg176
V6-0
p363
sg178
VKyle Lowry
p364
sg180
I1610612761
sg181
g195
sg183
V11
p365
sg184
V00
p366
sg186
g47
sg187
I200768
ssI1626177
(dp367
VSCHOOL
p368
VKentucky
p369
sVWEIGHT
p370
V255
p371
sVSEASON
p372
V2017
p373
sVAGE
p374
F22.0
sVBIRTH_DATE
p375
VSEP 22, 1995
p376
sVHEIGHT
p377
V7-0
p378
sVPLAYER
p379
VDakari Johnson
p380
sVTeamID
p381
I1610612760
sVNUM
p382
V44
p383
sVEXP
p384
g43
sVLeagueID
p385
V00
p386
sVPOSITION
p387
g205
sVPLAYER_ID
p388
I1626177
ssI1626181
(dp389
g167
VUCLA
p390
sg169
V215
p391
sg171
V2017
p392
sg173
F24.0
sg174
VMAY 25, 1993
p393
sg176
V6-4
p394
sg178
VNorman Powell
p395
sg180
I1610612761
sg181
V24
p396
sg183
g101
sg184
V00
p397
sg186
VF-G
p398
sg187
I1626181
ssI1626185
(dp399
g146
VLouisiana State
p400
sg148
V239
p401
sg150
V2017
p402
sg152
F23.0
sg153
VMAY 24, 1994
p403
sg155
V6-10
p404
sg157
VJarell Martin
p405
sg159
I1610612763
sg160
g41
sg161
g101
sg162
V00
p406
sg164
g23
sg165
I1626185
ssI202083
(dp407
g239
VMarquette
p408
sg241
V220
p409
sg243
V2017
p410
sg245
F31.0
sg246
VOCT 14, 1986
p411
sg248
V6-5
p412
sg250
VWesley Matthews
p413
sg252
I1610612742
sg253
V23
p414
sg255
g236
sg256
V00
p415
sg258
VG-F
p416
sg259
I202083
ssI202324
(dp417
g261
VGeorgia Tech
p418
sg263
V265
p419
sg265
V2017
p420
sg267
F26.0
sg268
VJUL 15, 1991
p421
sg270
V6-10
p422
sg272
VDerrick Favors
p423
sg274
I1610612762
sg275
V15
p424
sg277
g195
sg279
V00
p425
sg281
VF-C
p426
sg282
I202324
ssI202325
(dp427
g26
VSyracuse
p428
sg28
V215
p429
sg30
V2017
p430
sg32
F30.0
sg33
VJUL 11, 1987
p431
sg35
V6-7
p432
sg37
VWesley Johnson
p433
sg39
I1610612746
sg40
V33
p434
sg42
g195
sg44
V00
p435
sg46
g23
sg48
I202325
ssI202326
(dp436
g2
VKentucky
p437
sg4
V270
p438
sg6
V2017
p439
sg8
F27.0
sg9
VAUG 13, 1990
p440
sg11
V6-11
p441
sg13
VDeMarcus Cousins
p442
sg15
I1610612740
sg16
g100
sg18
g195
sg20
V00
p443
sg22
g205
sg24
I202326
ssI202327
(dp444
g261
VBaylor
p445
sg263
V245
p446
sg265
V2017
p447
sg267
F30.0
sg268
VMAY 20, 1987
p448
sg270
V6-10
p449
sg272
VEkpe Udoh
p450
sg274
I1610612762
sg275
V33
p451
sg277
g142
sg279
V00
p452
sg281
VC-F
p453
sg282
I202327
ssI1627736
(dp454
g73
VFlorida State
p455
sg75
V196
p456
sg77
V2017
p457
sg79
F20.0
sg80
VNOV 26, 1996
p458
sg82
V6-5
p459
sg84
VMalik Beasley
p460
sg86
I1610612743
sg87
V25
p461
sg88
g41
sg90
V00
p462
sg92
g47
sg93
I1627736
ssI1627738
(dp463
g146
VMichigan State
p464
sg148
V237
p465
sg150
V2017
p466
sg152
F20.0
sg153
VDEC 02, 1996
p467
sg155
V6-11
p468
sg157
VDeyonta Davis
p469
sg159
I1610612763
sg160
V21
p470
sg161
g41
sg162
V00
p471
sg164
VC-F
p472
sg165
I1627738
ssI202331
(dp473
g368
VFresno State
p474
sg370
V220
p475
sg372
V2017
p476
sg374
F27.0
sg375
VMAY 02, 1990
p477
sg377
V6-9
p478
sg379
VPaul George
p479
sg381
I1610612760
sg382
V13
p480
sg384
g195
sg385
V00
p481
sg387
g23
sg388
I202331
ssI1626204
(dp482
g50
VWyoming
p483
sg52
V230
p484
sg54
V2017
p485
sg56
F24.0
sg57
VJAN 01, 1993
p486
sg59
V6-9
p487
sg61
VLarry Nance Jr.
p488
sg63
I1610612747
sg64
g195
sg66
g101
sg68
V00
p489
sg70
g23
sg71
I1626204
ssI1626205
(dp490
g146
VTexas-El Paso
p491
sg148
V208
p492
sg150
V2017
p493
sg152
F23.0
sg153
VAUG 05, 1994
p494
sg155
V6-8
p495
sg157
VVincent Hunter
p496
sg159
I1610612763
sg160
V32
p497
sg161
g43
sg162
V00
p498
sg164
g23
sg165
I1626205
ssI1627742
(dp499
g50
VDuke
p500
sg52
V190
p501
sg54
V2017
p502
sg56
F20.0
sg57
VSEP 02, 1997
p503
sg59
V6-9
p504
sg61
VBrandon Ingram
p505
sg63
I1610612747
sg64
V14
p506
sg66
g41
sg68
V00
p507
sg70
VF-G
p508
sg71
I1627742
ssI202335
(dp509
g368
VKentucky
p510
sg370
V230
p511
sg372
V2017
p512
sg374
F28.0
sg375
VMAR 14, 1989
p513
sg377
V6-9
p514
sg379
VPatrick Patterson
p515
sg381
I1610612760
sg382
V54
p516
sg384
g195
sg385
V00
p517
sg387
g23
sg388
I202335
ssI1627744
(dp518
g26
VNorth Carolina
p519
sg28
V230
p520
sg30
V2017
p521
sg32
F23.0
sg33
VJUN 27, 1994
p522
sg35
V6-10
p523
sg37
VBrice Johnson
p524
sg39
I1610612746
sg40
V11
p525
sg42
g41
sg44
V00
p526
sg46
g23
sg48
I1627744
ssI202339
(dp527
g327
VKentucky
p528
sg329
V205
p529
sg331
V2017
p530
sg333
F27.0
sg334
VDEC 09, 1989
p531
sg336
V6-1
p532
sg338
VEric Bledsoe
p533
sg340
I1610612749
sg341
V6
p534
sg343
g195
sg344
V00
p535
sg346
g47
sg347
I202339
ssI1627748
(dp536
g327
Nsg329
V223
p537
sg331
V2017
p538
sg333
F20.0
sg334
VFEB 25, 1997
p539
sg336
V7-1
p540
sg338
VThon Maker
p541
sg340
I1610612749
sg341
g195
sg343
g41
sg344
V00
p542
sg346
VC-F
p543
sg347
I1627748
ssI1627750
(dp544
g73
VKentucky
p545
sg75
V207
p546
sg77
V2017
p547
sg79
F20.0
sg80
VFEB 23, 1997
p548
sg82
V6-4
p549
sg84
VJamal Murray
p550
sg86
I1610612743
sg87
V27
p551
sg88
g41
sg90
V00
p552
sg92
g47
sg93
I1627750
ssI1627751
(dp553
g167
VUtah
p554
sg169
V230
p555
sg171
V2017
p556
sg173
F22.0
sg174
VOCT 15, 1995
p557
sg176
V7-0
p558
sg178
VJakob Poeltl
p559
sg180
I1610612761
sg181
V42
p560
sg183
g41
sg184
V00
p561
sg186
g205
sg187
I1627751
ssI202347
(dp562
g114
VWashington
p563
sg116
V225
p564
sg118
V2017
p565
sg120
F29.0
sg121
VMAR 10, 1988
p566
sg123
V6-7
p567
sg125
VQuincy Pondexter
p568
sg127
I1610612741
sg128
V20
p569
sg130
g142
sg131
V00
p570
sg133
g47
sg134
I202347
ssI1626220
(dp571
g261
VBaylor
p572
sg263
V226
p573
sg265
V2017
p574
sg267
F24.0
sg268
VJUN 05, 1993
p575
sg270
V6-6
p576
sg272
VRoyce O'Neale
p577
sg274
I1610612762
sg275
V23
p578
sg277
g43
sg279
V00
p579
sg281
g23
sg282
I1626220
ssI1627762
(dp580
g327
VWeber State
p581
sg329
V235
p582
sg331
V2017
p583
sg333
F23.0
sg334
VJAN 28, 1994
p584
sg336
V6-9
p585
sg338
VJoel Bolomboy
p586
sg340
I1610612749
sg341
V24
p587
sg343
g41
sg344
V00
p588
sg346
VF-C
p589
sg347
I1627762
ssI202355
(dp590
g207
VMarshall
p591
sg209
V265
p592
sg211
V2017
p593
sg213
F28.0
sg214
VJUN 13, 1989
p594
sg216
V7-0
p595
sg218
VHassan Whiteside
p596
sg220
I1610612748
sg221
V21
p597
sg223
g142
sg224
V00
p598
sg226
g205
sg227
I202355
ssI1627767
(dp599
g2
VKansas
p600
sg4
V220
p601
sg6
V2017
p602
sg8
F21.0
sg9
VSEP 13, 1996
p603
sg11
V6-9
p604
sg13
VCheick Diallo
p605
sg15
I1610612740
sg16
V13
p606
sg18
g41
sg20
V00
p607
sg22
g23
sg24
I1627767
ssI203897
(dp608
g114
VUCLA
p609
sg116
V185
p610
sg118
V2017
p611
sg120
F22.0
sg121
VMAR 10, 1995
p612
sg123
V6-5
p613
sg125
VZach LaVine
p614
sg127
I1610612741
sg128
g236
sg130
g67
sg131
V00
p615
sg133
g47
sg134
I203897
ssI200826
(dp616
g239
VNortheastern
p617
sg241
V185
p618
sg243
V2017
p619
sg245
F33.0
sg246
VJUN 26, 1984
p620
sg248
V6-0
p621
sg250
VJ.J. Barea
p622
sg252
I1610612742
sg253
g142
sg255
V11
p623
sg256
V00
p624
sg258
g47
sg259
I200826
ssI1627772
(dp625
g368
VConnecticut
p626
sg370
V195
p627
sg372
V2017
p628
sg374
F22.0
sg375
VAUG 08, 1995
p629
sg377
V6-7
p630
sg379
VDaniel Hamilton
p631
sg381
I1610612760
sg382
V25
p632
sg384
g43
sg385
V00
p633
sg387
g47
sg388
I1627772
ssI1627773
(dp634
g207
VPurdue
p635
sg209
V260
p636
sg211
V2017
p637
sg213
F25.0
sg214
VAUG 27, 1992
p638
sg216
V7-0
p639
sg218
VAJ Hammons
p640
sg220
I1610612748
sg221
g19
sg223
g41
sg224
V00
p641
sg226
g205
sg227
I1627773
ssI1627936
(dp642
g50
VTexas A&M
p643
sg52
V186
p644
sg54
V2017
p645
sg56
F23.0
sg57
VFEB 28, 1994
p646
sg59
V6-5
p647
sg61
VAlex Caruso
p648
sg63
I1610612747
sg64
g19
sg66
g43
sg68
V00
p649
sg70
g47
sg71
I1627936
ssI1627780
(dp650
g327
VOregon State
p651
sg329
V190
p652
sg331
V2017
p653
sg333
F24.0
sg334
VDEC 01, 1992
p654
sg336
V6-3
p655
sg338
VGary Payton II
p656
sg340
I1610612749
sg341
g100
sg343
g41
sg344
V00
p657
sg346
g47
sg347
I1627780
ssI203500
(dp658
g368
VPittsburgh
p659
sg370
V255
p660
sg372
V2017
p661
sg374
F24.0
sg375
VJUL 20, 1993
p662
sg377
V7-0
p663
sg379
VSteven Adams
p664
sg381
I1610612760
sg382
V12
p665
sg384
g19
sg385
V00
p666
sg387
g205
sg388
I203500
ssI1627782
(dp667
g146
VKansas
p668
sg148
V230
p669
sg150
V2017
p670
sg152
F23.0
sg153
VSEP 30, 1994
p671
sg155
V6-5
p672
sg157
VWayne Selden
p673
sg159
I1610612763
sg160
g195
sg161
g41
sg162
V00
p674
sg164
VG-F
p675
sg165
I1627782
ssI1627783
(dp676
g167
VNew Mexico State
p677
sg169
V230
p678
sg171
V2017
p679
sg173
F23.0
sg174
VAPR 02, 1994
p680
sg176
V6-9
p681
sg178
VPascal Siakam
p682
sg180
I1610612761
sg181
V43
p683
sg183
g41
sg184
V00
p684
sg186
g23
sg187
I1627783
ssI1627756
(dp685
g114
VMichigan State
p686
sg116
V214
p687
sg118
V2017
p688
sg120
F23.0
sg121
VNOV 16, 1993
p689
sg123
V6-6
p690
sg125
VDenzel Valentine
p691
sg127
I1610612741
sg128
V45
p692
sg130
g41
sg131
V00
p693
sg133
g23
sg134
I1627756
ssI203914
(dp694
g73
VMichigan State
p695
sg75
V210
p696
sg77
V2017
p697
sg79
F23.0
sg80
VSEP 14, 1994
p698
sg82
V6-4
p699
sg84
VGary Harris
p700
sg86
I1610612743
sg87
V14
p701
sg88
g67
sg90
V00
p702
sg92
g47
sg93
I203914
ssI203918
(dp703
g261
VDuke
p704
sg263
V206
p705
sg265
V2017
p706
sg267
F25.0
sg268
VOCT 20, 1992
p707
sg270
V6-8
p708
sg272
VRodney Hood
p709
sg274
I1610612762
sg275
g142
sg277
g67
sg279
V00
p710
sg281
g47
sg282
I203918
ssI1626257
(dp711
g239
Nsg241
V235
p712
sg243
V2017
p713
sg245
F31.0
sg246
VJUN 15, 1986
p714
sg248
V7-2
p715
sg250
VSalah Mejri
p716
sg252
I1610612742
sg253
V50
p717
sg255
g101
sg256
V00
p718
sg258
g205
sg259
I1626257
ssI1626259
(dp719
g167
VHoly Cross
p720
sg169
V210
p721
sg171
V2017
p722
sg173
F24.0
sg174
VMAR 06, 1993
p723
sg176
V6-7
p724
sg178
VMalcolm Miller
p725
sg180
I1610612761
sg181
V13
p726
sg183
g43
sg184
V00
p727
sg186
g23
sg187
I1626259
ssI203924
(dp728
g368
VSyracuse
p729
sg370
V220
p730
sg372
V2017
p731
sg374
F23.0
sg375
VMAR 12, 1994
p732
sg377
V6-9
p733
sg379
VJerami Grant
p734
sg381
I1610612760
sg382
g110
sg384
g67
sg385
V00
p735
sg387
g23
sg388
I203924
ssI2207
(dp736
g261
VArkansas
p737
sg263
V240
p738
sg265
V2017
p739
sg267
F36.0
sg268
VJUN 29, 1981
p740
sg270
V6-7
p741
sg272
VJoe Johnson
p742
sg274
I1610612762
sg275
g534
sg277
V16
p743
sg279
V00
p744
sg281
VG-F
p745
sg282
I2207
ssI2210
(dp746
g73
VArizona
p747
sg75
V233
p748
sg77
V2017
p749
sg79
F37.0
sg80
VJUN 21, 1980
p750
sg82
V6-7
p751
sg84
VRichard Jefferson
p752
sg86
I1610612743
sg87
V22
p753
sg88
V16
p754
sg90
V00
p755
sg92
g23
sg93
I2210
ssI203939
(dp756
g239
VStanford
p757
sg241
V240
p758
sg243
V2017
p759
sg245
F26.0
sg246
VJUL 20, 1991
p760
sg248
V6-11
p761
sg250
VDwight Powell
p762
sg252
I1610612742
sg253
g195
sg255
g67
sg256
V00
p763
sg258
VF-C
p764
sg259
I203939
ssI1627812
(dp765
g239
VIndiana
p766
sg241
V180
p767
sg243
V2017
p768
sg245
F24.0
sg246
VMAY 09, 1993
p769
sg248
V6-0
p770
sg250
VYogi Ferrell
p771
sg252
I1610612742
sg253
V11
p772
sg255
g41
sg256
V00
p773
sg258
g47
sg259
I1627812
ssI203121
(dp774
g2
VKentucky
p775
sg4
V225
p776
sg6
V2017
p777
sg8
F27.0
sg9
VMAR 21, 1990
p778
sg11
V6-8
p779
sg13
VDarius Miller
p780
sg15
I1610612740
sg16
V21
p781
sg18
g67
sg20
V00
p782
sg22
g23
sg24
I203121
ssI203944
(dp783
g50
VKentucky
p784
sg52
V250
p785
sg54
V2017
p786
sg56
F22.0
sg57
VNOV 29, 1994
p787
sg59
V6-9
p788
sg61
VJulius Randle
p789
sg63
I1610612747
sg64
V30
p790
sg66
g67
sg68
V00
p791
sg70
VF-C
p792
sg71
I203944
ssI2734
(dp793
g239
VWisconsin
p794
sg241
V185
p795
sg243
V2017
p796
sg245
F34.0
sg246
VFEB 27, 1983
p797
sg248
V6-3
p798
sg250
VDevin Harris
p799
sg252
I1610612742
sg253
V34
p800
sg255
V13
p801
sg256
V00
p802
sg258
g47
sg259
I2734
ssI1627823
(dp803
g73
Nsg75
V230
p804
sg77
V2017
p805
sg79
F22.0
sg80
VSEP 28, 1995
p806
sg82
V6-9
p807
sg84
VJuan Hernangomez
p808
sg86
I1610612743
sg87
V41
p809
sg88
g41
sg90
V00
p810
sg92
g23
sg93
I1627823
ssI201950
(dp811
g2
VUCLA
p812
sg4
V205
p813
sg6
V2017
p814
sg8
F27.0
sg9
VJUN 12, 1990
p815
sg11
V6-4
p816
sg13
VJrue Holiday
p817
sg15
I1610612740
sg16
V11
p818
sg18
g236
sg20
V00
p819
sg22
g47
sg24
I201950
ssI203953
(dp820
g327
VDuke
p821
sg329
V250
p822
sg331
V2017
p823
sg333
F22.0
sg334
VMAR 15, 1995
p824
sg336
V6-8
p825
sg338
VJabari Parker
p826
sg340
I1610612749
sg341
V12
p827
sg343
g67
sg344
V00
p828
sg346
g23
sg347
I203953
ssI201933
(dp829
g26
VOklahoma
p830
sg28
V251
p831
sg30
V2017
p832
sg32
F28.0
sg33
VMAR 16, 1989
p833
sg35
V6-10
p834
sg37
VBlake Griffin
p835
sg39
I1610612746
sg40
V32
p836
sg42
g195
sg44
V00
p837
sg46
g23
sg48
I201933
ssI1627763
(dp838
g327
VVirginia
p839
sg329
V215
p840
sg331
V2017
p841
sg333
F24.0
sg334
VDEC 11, 1992
p842
sg336
V6-5
p843
sg338
VMalcolm Brogdon
p844
sg340
I1610612749
sg341
V13
p845
sg343
g41
sg344
V00
p846
sg346
g47
sg347
I1627763
ssI203957
(dp847
g261
Nsg263
V190
p848
sg265
V2017
p849
sg267
F22.0
sg268
VJUL 13, 1995
p850
sg270
V6-6
p851
sg272
VDante Exum
p852
sg274
I1610612762
sg275
V11
p853
sg277
g101
sg279
V00
p854
sg281
g47
sg282
I203957
ssI1627832
(dp855
g167
VWichita State
p856
sg169
V195
p857
sg171
V2017
p858
sg173
F23.0
sg174
VFEB 25, 1994
p859
sg176
V6-0
p860
sg178
VFred VanVleet
p861
sg180
I1610612761
sg181
V23
p862
sg183
g41
sg184
V00
p863
sg186
g47
sg187
I1627832
ssI203962
(dp864
g368
VStanford
p865
sg370
V230
p866
sg372
V2017
p867
sg374
F25.0
sg375
VDEC 19, 1991
p868
sg377
V6-7
p869
sg379
VJosh Huestis
p870
sg381
I1610612760
sg382
V34
p871
sg384
g101
sg385
V00
p872
sg387
g23
sg388
I203962
ssI1627835
(dp873
g114
Nsg116
V226
p874
sg118
V2017
p875
sg120
F23.0
sg121
VFEB 18, 1994
p876
sg123
V6-8
p877
sg125
VPaul Zipser
p878
sg127
I1610612741
sg128
V16
p879
sg130
g41
sg131
V00
p880
sg133
g23
sg134
I1627835
ssI2749
(dp881
g2
VSaint Joseph's
p882
sg4
V190
p883
sg6
V2017
p884
sg8
F35.0
sg9
VFEB 09, 1982
p885
sg11
V6-0
p886
sg13
VJameer Nelson
p887
sg15
I1610612740
sg16
V14
p888
sg18
V13
p889
sg20
V00
p890
sg22
g47
sg24
I2749
ssI203966
(dp891
g26
VMarquette
p892
sg28
V229
p893
sg30
V2017
p894
sg32
F26.0
sg33
VNOV 21, 1990
p895
sg35
V6-7
p896
sg37
VJamil Wilson
p897
sg39
I1610612746
sg40
V13
p898
sg42
g43
sg44
V00
p899
sg46
g23
sg48
I203966
ssI1628021
(dp900
g114
VCal Poly-S.L.O.
p901
sg116
V209
p902
sg118
V2017
p903
sg120
F24.0
sg121
VJAN 14, 1993
p904
sg123
V6-4
p905
sg125
VDavid Nwaba
p906
sg127
I1610612741
sg128
V11
p907
sg130
g41
sg131
V00
p908
sg133
g47
sg134
I1628021
ssI203457
(dp909
g239
VKentucky
p910
sg241
V220
p911
sg243
V2017
p912
sg245
F23.0
sg246
VAPR 10, 1994
p913
sg248
V6-11
p914
sg250
VNerlens Noel
p915
sg252
I1610612742
sg253
g67
sg255
g67
sg256
V00
p916
sg258
g205
sg259
I203457
ssI2754
(dp917
g2
VOklahoma State
p918
sg4
V213
p919
sg6
V2017
p920
sg8
F35.0
sg9
VJAN 11, 1982
p921
sg11
V6-4
p922
sg13
VTony Allen
p923
sg15
I1610612740
sg16
V24
p924
sg18
V13
p925
sg20
V00
p926
sg22
VG-F
p927
sg24
I2754
ssI203460
(dp928
g368
VColorado
p929
sg370
V210
p930
sg372
V2017
p931
sg374
F25.0
sg375
VDEC 04, 1991
p932
sg377
V6-7
p933
sg379
VAndre Roberson
p934
sg381
I1610612760
sg382
V21
p935
sg384
g19
sg385
V00
p936
sg387
g47
sg388
I203460
ssI203463
(dp937
g146
VKansas
p938
sg148
V195
p939
sg150
V2017
p940
sg152
F24.0
sg153
VFEB 11, 1993
p941
sg155
V6-5
p942
sg157
VBen McLemore
p943
sg159
I1610612763
sg160
V23
p944
sg161
g19
sg162
V00
p945
sg164
g47
sg165
I203463
ssI1627853
(dp946
g114
VVillanova
p947
sg116
V195
p948
sg118
V2017
p949
sg120
F23.0
sg121
VMAR 26, 1994
p950
sg123
V6-3
p951
sg125
VRyan Arcidiacono
p952
sg127
I1610612741
sg128
V15
p953
sg130
g43
sg131
V00
p954
sg133
g47
sg134
I1627853
ssI1628366
(dp955
g50
VCalifornia-Los Angeles
p956
sg52
V190
p957
sg54
V2017
p958
sg56
F20.0
sg57
VOCT 27, 1997
p959
sg59
V6-6
p960
sg61
VLonzo Ball
p961
sg63
I1610612747
sg64
g101
sg66
g43
sg68
V00
p962
sg70
g47
sg71
I1628366
ssI1627855
(dp963
g207
VFlorida State
p964
sg209
V215
p965
sg211
V2017
p966
sg213
F25.0
sg214
VAUG 13, 1992
p967
sg216
V6-8
p968
sg218
VOkaro White
p969
sg220
I1610612748
sg221
V15
p970
sg223
g41
sg224
V00
p971
sg226
g23
sg227
I1627855
ssI201936
(dp972
g146
VMemphis
p973
sg148
V220
p974
sg150
V2017
p975
sg152
F28.0
sg153
VSEP 19, 1989
p976
sg155
V6-6
p977
sg157
VTyreke Evans
p978
sg159
I1610612763
sg160
V12
p979
sg161
g236
sg162
V00
p980
sg164
VG-F
p981
sg165
I201936
ssI201937
(dp982
g261
VEl Masnou, Spain
p983
sg263
V190
p984
sg265
V2017
p985
sg267
F27.0
sg268
VOCT 21, 1990
p986
sg270
V6-4
p987
sg272
VRicky Rubio
p988
sg274
I1610612762
sg275
g67
sg277
g534
sg279
V00
p989
sg281
g47
sg282
I201937
ssI1628372
(dp990
g239
VNorth Carolina State
p991
sg241
V195
p992
sg243
V2017
p993
sg245
F19.0
sg246
VNOV 25, 1997
p994
sg248
V6-3
p995
sg250
VDennis Smith Jr.
p996
sg252
I1610612742
sg253
g41
sg255
g43
sg256
V00
p997
sg258
g47
sg259
I1628372
ssI201942
(dp998
g167
VSouthern California
p999
sg169
V220
p1000
sg171
V2017
p1001
sg173
F28.0
sg174
VAUG 07, 1989
p1002
sg176
V6-7
p1003
sg178
VDeMar DeRozan
p1004
sg180
I1610612761
sg181
V10
p1005
sg183
g236
sg184
V00
p1006
sg186
g47
sg187
I201942
ssI203481
(dp1007
g239
VKansas
p1008
sg241
V230
p1009
sg243
V2017
p1010
sg245
F27.0
sg246
VMAR 07, 1990
p1011
sg248
V7-0
p1012
sg250
VJeff Withey
p1013
sg252
I1610612742
sg253
V17
p1014
sg255
g19
sg256
V00
p1015
sg258
g205
sg259
I203481
ssI1628378
(dp1016
g261
VLouisville
p1017
sg263
V215
p1018
sg265
V2017
p1019
sg267
F21.0
sg268
VSEP 07, 1996
p1020
sg270
V6-3
p1021
sg272
VDonovan Mitchell
p1022
sg274
I1610612762
sg275
V45
p1023
sg277
g43
sg279
V00
p1024
sg281
g47
sg282
I1628378
ssI203484
(dp1025
g50
VGeorgia
p1026
sg52
V205
p1027
sg54
V2017
p1028
sg56
F24.0
sg57
VFEB 18, 1993
p1029
sg59
V6-5
p1030
sg61
VKentavious Caldwell-Pope
p1031
sg63
I1610612747
sg64
g41
sg66
g19
sg68
V00
p1032
sg70
g47
sg71
I203484
ssI201949
(dp1033
g207
VWake Forest
p1034
sg209
V240
p1035
sg211
V2017
p1036
sg213
F30.0
sg214
VFEB 20, 1987
p1037
sg216
V6-8
p1038
sg218
VJames Johnson
p1039
sg220
I1610612748
sg221
V16
p1040
sg223
g236
sg224
V00
p1041
sg226
g23
sg227
I201949
ssI203998
(dp1042
g167
Nsg169
V205
p1043
sg171
V2017
p1044
sg173
F22.0
sg174
VSEP 21, 1995
p1045
sg176
V6-9
p1046
sg178
VBruno Caboclo
p1047
sg180
I1610612761
sg181
g142
sg183
g67
sg184
V00
p1048
sg186
g23
sg187
I203998
ssI203999
(dp1049
g73
Nsg75
V250
p1050
sg77
V2017
p1051
sg79
F22.0
sg80
VFEB 19, 1995
p1052
sg82
V6-10
p1053
sg84
VNikola Jokic
p1054
sg86
I1610612743
sg87
V15
p1055
sg88
g101
sg90
V00
p1056
sg92
g205
sg93
I203999
ssI1628384
(dp1057
g167
VIndiana
p1058
sg169
V235
p1059
sg171
V2017
p1060
sg173
F20.0
sg174
VJUL 17, 1997
p1061
sg176
V6-8
p1062
sg178
VOG Anunoby
p1063
sg180
I1610612761
sg181
g67
sg183
g43
sg184
V00
p1064
sg186
g23
sg187
I1628384
ssI203489
(dp1065
g261
VSouth Dakota State
p1066
sg263
V190
p1067
sg265
V2017
p1068
sg267
F26.0
sg268
VMAY 15, 1991
p1069
sg270
V6-4
p1070
sg272
VNate Wolters
p1071
sg274
I1610612762
sg275
V16
p1072
sg277
g101
sg279
V00
p1073
sg281
g47
sg282
I203489
ssI1628389
(dp1074
g207
VKentucky
p1075
sg209
V255
p1076
sg211
V2017
p1077
sg213
F20.0
sg214
VJUL 18, 1997
p1078
sg216
V6-10
p1079
sg218
VBam Adebayo
p1080
sg220
I1610612748
sg221
V13
p1081
sg223
g43
sg224
V00
p1082
sg226
VC-F
p1083
sg227
I1628389
ssI1628390
(dp1084
g368
Nsg370
V184
p1085
sg372
V2017
p1086
sg374
F19.0
sg375
VMAY 17, 1998
p1087
sg377
V6-7
p1088
sg379
VTerrance Ferguson
p1089
sg381
I1610612760
sg382
V23
p1090
sg384
g43
sg385
V00
p1091
sg387
g47
sg388
I1628390
ssI1628391
(dp1092
g327
VMichigan
p1093
sg329
V236
p1094
sg331
V2017
p1095
sg333
F21.0
sg334
VFEB 19, 1996
p1096
sg336
V6-10
p1097
sg338
VD.J. Wilson
p1098
sg340
I1610612749
sg341
g142
sg343
g43
sg344
V00
p1099
sg346
g23
sg347
I1628391
ssI203497
(dp1100
g261
VFrance
p1101
sg263
V245
p1102
sg265
V2017
p1103
sg267
F25.0
sg268
VJUN 26, 1992
p1104
sg270
V7-1
p1105
sg272
VRudy Gobert
p1106
sg274
I1610612762
sg275
V27
p1107
sg277
g19
sg279
V00
p1108
sg281
g205
sg282
I203497
ssI1627883
(dp1109
g2
VTexas A&M
p1110
sg4
V220
p1111
sg6
V2017
p1112
sg8
F24.0
sg9
VMAY 27, 1993
p1113
sg11
V6-7
p1114
sg13
VJalen Jones
p1115
sg15
I1610612740
sg16
V12
p1116
sg18
g43
sg20
V00
p1117
sg22
g23
sg24
I1627883
ssI1628396
(dp1118
g261
VNorth Carolina
p1119
sg263
V248
p1120
sg265
V2017
p1121
sg267
F19.0
sg268
VJAN 08, 1998
p1122
sg270
V6-10
p1123
sg272
VTony Bradley
p1124
sg274
I1610612762
sg275
V13
p1125
sg277
g43
sg279
V00
p1126
sg281
g205
sg282
I1628396
ssI1628397
(dp1127
g146
VCalifornia
p1128
sg148
V220
p1129
sg150
V2017
p1130
sg152
F20.0
sg153
VFEB 04, 1997
p1131
sg155
V6-10
p1132
sg157
VIvan Rabb
p1133
sg159
I1610612763
sg160
V10
p1134
sg161
g43
sg162
V00
p1135
sg164
g23
sg165
I1628397
ssI1628398
(dp1136
g50
VUtah
p1137
sg52
V220
p1138
sg54
V2017
p1139
sg56
F22.0
sg57
VJUL 24, 1995
p1140
sg59
V6-9
p1141
sg61
VKyle Kuzma
p1142
sg63
I1610612747
sg64
g100
sg66
g43
sg68
V00
p1143
sg70
g23
sg71
I1628398
ssI203503
(dp1144
g327
VNew Mexico
p1145
sg329
V221
p1146
sg331
V2017
p1147
sg333
F26.0
sg334
VNOV 10, 1991
p1148
sg336
V6-7
p1149
sg338
VTony Snell
p1150
sg340
I1610612749
sg341
V21
p1151
sg343
g19
sg344
V00
p1152
sg346
g47
sg347
I203503
ssI203505
(dp1153
g50
VMarquette
p1154
sg52
V200
p1155
sg54
V2017
p1156
sg56
F25.0
sg57
VJUL 17, 1992
p1157
sg59
V6-5
p1158
sg61
VVander Blue
p1159
sg63
I1610612747
sg64
V17
p1160
sg66
g101
sg68
V00
p1161
sg70
g47
sg71
I203505
ssI1628402
(dp1162
g2
VDuke
p1163
sg4
V205
p1164
sg6
V2017
p1165
sg8
F19.0
sg9
VMAY 04, 1998
p1166
sg11
V6-3
p1167
sg13
VFrank Jackson
p1168
sg15
I1610612740
sg16
V15
p1169
sg18
g43
sg20
V00
p1170
sg22
g47
sg24
I1628402
ssI203507
(dp1171
g327
VGreece
p1172
sg329
V222
p1173
sg331
V2017
p1174
sg333
F22.0
sg334
VDEC 06, 1994
p1175
sg336
V6-11
p1176
sg338
VGiannis Antetokounmpo
p1177
sg340
I1610612749
sg341
V34
p1178
sg343
g19
sg344
V00
p1179
sg346
g23
sg347
I203507
ssI204020
(dp1180
g207
VFresno State
p1181
sg209
V190
p1182
sg211
V2017
p1183
sg213
F25.0
sg214
VMAY 07, 1992
p1184
sg216
V6-4
p1185
sg218
VTyler Johnson
p1186
sg220
I1610612748
sg221
g236
sg223
g67
sg224
V00
p1187
sg226
g47
sg227
I204020
ssI201973
(dp1188
g261
VKinna, Sweden
p1189
sg263
V231
p1190
sg265
V2017
p1191
sg267
F30.0
sg268
VMAR 02, 1987
p1192
sg270
V6-10
p1193
sg272
VJonas Jerebko
p1194
sg274
I1610612762
sg275
g236
sg277
g195
sg279
V00
p1195
sg281
g23
sg282
I201973
ssI203512
(dp1196
g167
Nsg169
V220
p1197
sg171
V2017
p1198
sg173
F25.0
sg174
VJUL 26, 1992
p1199
sg176
V7-0
p1200
sg178
VLucas Nogueira
p1201
sg180
I1610612761
sg181
V92
p1202
sg183
g67
sg184
V00
p1203
sg186
g205
sg187
I203512
ssI203903
(dp1204
g50
VMissouri
p1205
sg52
V194
p1206
sg54
V2017
p1207
sg56
F25.0
sg57
VJUN 07, 1992
p1208
sg59
V6-5
p1209
sg61
VJordan Clarkson
p1210
sg63
I1610612747
sg64
g534
sg66
g67
sg68
V00
p1211
sg70
g47
sg71
I203903
ssI203516
(dp1212
g146
VLong Beach State
p1213
sg148
V210
p1214
sg150
V2017
p1215
sg152
F27.0
sg153
VJUL 01, 1990
p1216
sg155
V6-7
p1217
sg157
VJames Ennis III
p1218
sg159
I1610612763
sg160
g236
sg161
g67
sg162
V00
p1219
sg164
g23
sg165
I203516
ssI203518
(dp1220
g368
Nsg370
V190
p1221
sg372
V2017
p1222
sg374
F24.0
sg375
VAUG 01, 1993
p1223
sg377
V6-6
p1224
sg379
VAlex Abrines
p1225
sg381
I1610612760
sg382
g236
sg384
g41
sg385
V00
p1226
sg387
g47
sg388
I203518
ssI1628415
(dp1227
g146
VOregon
p1228
sg148
V220
p1229
sg150
V2017
p1230
sg152
F21.0
sg153
VJAN 22, 1996
p1231
sg155
V6-6
p1232
sg157
VDillon Brooks
p1233
sg159
I1610612763
sg160
V24
p1234
sg161
g43
sg162
V00
p1235
sg164
VF-G
p1236
sg165
I1628415
ssI203521
(dp1237
g327
VSaint Mary's (CA)
p1238
sg329
V198
p1239
sg331
V2017
p1240
sg333
F27.0
sg334
VSEP 08, 1990
p1241
sg336
V6-4
p1242
sg338
VMatthew Dellavedova
p1243
sg340
I1610612749
sg341
g236
sg343
g19
sg344
V00
p1244
sg346
g47
sg347
I203521
ssI1628418
(dp1245
g50
VIndiana
p1246
sg52
V248
p1247
sg54
V2017
p1248
sg56
F20.0
sg57
VJUL 31, 1997
p1249
sg59
V6-10
p1250
sg61
VThomas Bryant
p1251
sg63
I1610612747
sg64
V31
p1252
sg66
g43
sg68
V00
p1253
sg70
g205
sg71
I1628418
ssI1628420
(dp1254
g73
VIowa State
p1255
sg75
V175
p1256
sg77
V2017
p1257
sg79
F22.0
sg80
VJUN 27, 1995
p1258
sg82
V6-3
p1259
sg84
VMonte Morris
p1260
sg86
I1610612743
sg87
V11
p1261
sg88
g43
sg90
V00
p1262
sg92
g47
sg93
I1628420
ssI1627770
(dp1263
g114
VOakland
p1264
sg116
V176
p1265
sg118
V2017
p1266
sg120
F22.0
sg121
VMAR 29, 1995
p1267
sg123
V5-9
p1268
sg125
VKay Felder
p1269
sg127
I1610612741
sg128
g67
sg130
g41
sg131
V00
p1270
sg133
g47
sg134
I1627770
ssI203526
(dp1271
g261
Nsg263
V179
p1272
sg265
V2017
p1273
sg267
F25.0
sg268
VMAY 19, 1992
p1274
sg270
V6-1
p1275
sg272
VRaul Neto
p1276
sg274
I1610612762
sg275
V25
p1277
sg277
g101
sg279
V00
p1278
sg281
g47
sg282
I203526
ssI1628424
(dp1279
g146
VArizona
p1280
sg148
V170
p1281
sg150
V2017
p1282
sg152
F20.0
sg153
VJUL 04, 1997
p1283
sg155
V6-4
p1284
sg157
VKobi Simmons
p1285
sg159
I1610612763
sg160
g101
sg161
g43
sg162
V00
p1286
sg164
g47
sg165
I1628424
ssI1628425
(dp1287
g327
VSouthern Methodist
p1288
sg329
V230
p1289
sg331
V2017
p1290
sg333
F22.0
sg334
VFEB 10, 1995
p1291
sg336
V6-6
p1292
sg338
VSterling Brown
p1293
sg340
I1610612749
sg341
V23
p1294
sg343
g43
sg344
V00
p1295
sg346
g47
sg347
I1628425
ssI1628429
(dp1296
g2
VDayton
p1297
sg4
V196
p1298
sg6
V2017
p1299
sg8
F23.0
sg9
VJUL 01, 1994
p1300
sg11
V6-5
p1301
sg13
VCharles Cooke
p1302
sg15
I1610612740
sg16
g19
sg18
g43
sg20
V00
p1303
sg22
g47
sg24
I1628429
ssI101139
(dp1304
g167
VSkyline HS (TX)
p1305
sg169
V225
p1306
sg171
V2017
p1307
sg173
F30.0
sg174
VMAR 18, 1987
p1308
sg176
V6-6
p1309
sg178
VCJ Miles
p1310
sg180
I1610612761
sg181
g100
sg183
V12
p1311
sg184
V00
p1312
sg186
VF-G
p1313
sg187
I101139
ssI201177
(dp1314
g239
VDuke
p1315
sg241
V240
p1316
sg243
V2017
p1317
sg245
F30.0
sg246
VFEB 28, 1987
p1318
sg248
V6-10
p1319
sg250
VJosh McRoberts
p1320
sg252
I1610612742
sg253
V13
p1321
sg255
V10
p1322
sg256
V00
p1323
sg258
VF-C
p1324
sg259
I201177
ssI203546
(dp1325
g2
VBelmont
p1326
sg4
V175
p1327
sg6
V2017
p1328
sg8
F26.0
sg9
VMAR 07, 1991
p1329
sg11
V6-3
p1330
sg13
VIan Clark
p1331
sg15
I1610612740
sg16
g101
sg18
g19
sg20
V00
p1332
sg22
g47
sg24
I203546
ssI203547
(dp1333
g261
VCampbell
p1334
sg263
V205
p1335
sg265
V2017
p1336
sg267
F27.0
sg268
VMAY 26, 1990
p1337
sg270
V6-8
p1338
sg272
VEric Griffin
p1339
sg274
I1610612762
sg275
V17
p1340
sg277
g43
sg279
V00
p1341
sg281
VC-F
p1342
sg282
I203547
ssI204060
(dp1343
g261
Nsg263
V226
p1344
sg265
V2017
p1345
sg267
F30.0
sg268
VOCT 02, 1987
p1346
sg270
V6-8
p1347
sg272
VJoe Ingles
p1348
sg274
I1610612762
sg275
g101
sg277
g67
sg279
V00
p1349
sg281
g23
sg282
I204060
ssI203482
(dp1350
g207
VGonzaga
p1351
sg209
V245
p1352
sg211
V2017
p1353
sg213
F26.0
sg214
VAPR 19, 1991
p1354
sg216
V7-0
p1355
sg218
VKelly Olynyk
p1356
sg220
I1610612748
sg221
g110
sg223
g19
sg224
V00
p1357
sg226
VC-F
p1358
sg227
I203482
ssI101150
(dp1359
g26
VSouth Gwinnett HS (GA)
p1360
sg28
V175
p1361
sg30
V2017
p1362
sg32
F31.0
sg33
VOCT 27, 1986
p1363
sg35
V6-1
p1364
sg37
VLou Williams
p1365
sg39
I1610612746
sg40
V23
p1366
sg42
V12
p1367
sg44
V00
p1368
sg46
g47
sg48
I101150
ssI1626245
(dp1369
g114
Nsg116
V280
p1370
sg118
V2017
p1371
sg120
F25.0
sg121
VJUL 07, 1992
p1372
sg123
V6-9
p1373
sg125
VCristiano Felicio
p1374
sg127
I1610612741
sg128
g534
sg130
g101
sg131
V00
p1375
sg133
VC-F
p1376
sg134
I1626245
ssI203552
(dp1377
g239
VDuke
p1378
sg241
V185
p1379
sg243
V2017
p1380
sg245
F27.0
sg246
VAUG 23, 1990
p1381
sg248
V6-2
p1382
sg250
VSeth Curry
p1383
sg252
I1610612742
sg253
V30
p1384
sg255
g19
sg256
V00
p1385
sg258
g47
sg259
I203552
ssI1628462
(dp1386
g26
Nsg28
V196
p1387
sg30
V2017
p1388
sg32
F30.0
sg33
VMAR 19, 1987
p1389
sg35
V6-5
p1390
sg37
VMilos Teodosic
p1391
sg39
I1610612746
sg40
g19
sg42
g43
sg44
V00
p1392
sg46
g47
sg48
I1628462
ssI203485
(dp1393
g167
VNorth Carolina State
p1394
sg169
V189
p1395
sg171
V2017
p1396
sg173
F27.0
sg174
VAUG 26, 1990
p1397
sg176
V6-5
p1398
sg178
VLorenzo Brown
p1399
sg180
I1610612761
sg181
g19
sg183
g67
sg184
V00
p1400
sg186
g47
sg187
I203485
ssI1628467
(dp1401
g239
Nsg241
V220
p1402
sg243
V2017
p1403
sg245
F25.0
sg246
VJAN 29, 1992
p1404
sg248
V6-11
p1405
sg250
VMaxi Kleber
p1406
sg252
I1610612742
sg253
V42
p1407
sg255
g43
sg256
V00
p1408
sg258
g23
sg259
I1628467
ssI203486
(dp1409
g73
VDuke
p1410
sg75
V255
p1411
sg77
V2017
p1412
sg79
F27.0
sg80
VMAR 05, 1990
p1413
sg82
V6-11
p1414
sg84
VMason Plumlee
p1415
sg86
I1610612743
sg87
V24
p1416
sg88
g19
sg90
V00
p1417
sg92
VC-F
p1418
sg93
I203486
ssI1628470
(dp1419
g73
VSouth Carolina Upstate
p1420
sg75
V215
p1421
sg77
V2017
p1422
sg79
F26.0
sg80
VDEC 19, 1990
p1423
sg82
V6-6
p1424
sg84
VTorrey Craig
p1425
sg86
I1610612743
sg87
g67
sg88
g43
sg90
V00
p1426
sg92
VG-F
p1427
sg93
I1628470
ssI1628475
(dp1428
g207
VCentral Florida
p1429
sg209
V210
p1430
sg211
V2017
p1431
sg213
F24.0
sg214
VOCT 14, 1993
p1432
sg216
V6-5
p1433
sg218
VMatt Williams Jr.
p1434
sg220
I1610612748
sg221
V12
p1435
sg223
g43
sg224
V00
p1436
sg226
g47
sg227
I1628475
ssI1628476
(dp1437
g207
VMichigan
p1438
sg209
V185
p1439
sg211
V2017
p1440
sg213
F22.0
sg214
VAPR 03, 1995
p1441
sg216
V6-1
p1442
sg218
VDerrick Walton Jr.
p1443
sg220
I1610612748
sg221
V14
p1444
sg223
g43
sg224
V00
p1445
sg226
g47
sg227
I1628476
ssI1628469
(dp1446
g114
VLouisiana State
p1447
sg116
V197
p1448
sg118
V2017
p1449
sg120
F21.0
sg121
VOCT 04, 1996
p1450
sg123
V6-4
p1451
sg125
VAntonio Blakeney
p1452
sg127
I1610612741
sg128
g110
sg130
g43
sg131
V00
p1453
sg133
g47
sg134
I1628469
ssI203585
(dp1454
g207
VKansas State
p1455
sg209
V200
p1456
sg211
V2017
p1457
sg213
F26.0
sg214
VJUL 29, 1991
p1458
sg216
V6-4
p1459
sg218
VRodney McGruder
p1460
sg220
I1610612748
sg221
V17
p1461
sg223
g41
sg224
V00
p1462
sg226
VG-F
p1463
sg227
I203585
ssI203076
(dp1464
g2
VKentucky
p1465
sg4
V253
p1466
sg6
V2017
p1467
sg8
F24.0
sg9
VMAR 11, 1993
p1468
sg11
V6-10
p1469
sg13
VAnthony Davis
p1470
sg15
I1610612740
sg16
V23
p1471
sg18
g142
sg20
V00
p1472
sg22
VF-C
p1473
sg24
I203076
ssI203079
(dp1474
g207
VSyracuse
p1475
sg209
V215
p1476
sg211
V2017
p1477
sg213
F25.0
sg214
VDEC 10, 1991
p1478
sg216
V6-4
p1479
sg218
VDion Waiters
p1480
sg220
I1610612748
sg221
V11
p1481
sg223
g142
sg224
V00
p1482
sg226
g47
sg227
I203079
ssI1628492
(dp1483
g239
VColorado State
p1484
sg241
V185
p1485
sg243
V2017
p1486
sg245
F23.0
sg246
VNOV 26, 1993
p1487
sg248
V6-4
p1488
sg250
VGian Clavell
p1489
sg252
I1610612742
sg253
g236
sg255
g43
sg256
V00
p1490
sg258
g47
sg259
I1628492
ssI203085
(dp1491
g26
VDuke
p1492
sg28
V200
p1493
sg30
V2017
p1494
sg32
F25.0
sg33
VAUG 01, 1992
p1495
sg35
V6-4
p1496
sg37
VAustin Rivers
p1497
sg39
I1610612746
sg40
V25
p1498
sg42
g142
sg44
V00
p1499
sg46
g47
sg48
I203085
ssI203089
(dp1500
g327
VNorth Carolina
p1501
sg329
V229
p1502
sg331
V2017
p1503
sg333
F26.0
sg334
VDEC 28, 1990
p1504
sg336
V6-11
p1505
sg338
VJohn Henson
p1506
sg340
I1610612749
sg341
V31
p1507
sg343
g142
sg344
V00
p1508
sg346
VF-C
p1509
sg347
I203089
ssI201976
(dp1510
g26
VArkansas
p1511
sg28
V185
p1512
sg30
V2017
p1513
sg32
F29.0
sg33
VJUL 12, 1988
p1514
sg35
V6-1
p1515
sg37
VPatrick Beverley
p1516
sg39
I1610612746
sg40
V21
p1517
sg42
g142
sg44
V00
p1518
sg46
g47
sg48
I201976
ssI201566
(dp1519
g368
VUCLA
p1520
sg370
V200
p1521
sg372
V2017
p1522
sg374
F28.0
sg375
VNOV 12, 1988
p1523
sg377
V6-3
p1524
sg379
VRussell Westbrook
p1525
sg381
I1610612760
sg382
g100
sg384
g110
sg385
V00
p1526
sg387
g47
sg388
I201566
ssI201568
(dp1527
g26
VSant'Angelo Lodigiano, Italy
p1528
sg28
V225
p1529
sg30
V2017
p1530
sg32
F29.0
sg33
VAUG 08, 1988
p1531
sg35
V6-10
p1532
sg37
VDanilo Gallinari
p1533
sg39
I1610612746
sg40
g236
sg42
g236
sg44
V00
p1534
sg46
g23
sg48
I201568
ssI1891
(dp1535
g327
VArizona
p1536
sg329
V185
p1537
sg331
V2017
p1538
sg333
F40.0
sg334
VSEP 15, 1977
p1539
sg336
V6-2
p1540
sg338
VJason Terry
p1541
sg340
I1610612749
sg341
g67
sg343
V18
p1542
sg344
V00
p1543
sg346
g47
sg347
I1891
ssI201572
(dp1544
g50
VStanford
p1545
sg52
V268
p1546
sg54
V2017
p1547
sg56
F29.0
sg57
VAPR 01, 1988
p1548
sg59
V7-0
p1549
sg61
VBrook Lopez
p1550
sg63
I1610612747
sg64
V11
p1551
sg66
g110
sg68
V00
p1552
sg70
g205
sg71
I201572
ssI201577
(dp1553
g114
VStanford
p1554
sg116
V277
p1555
sg118
V2017
p1556
sg120
F29.0
sg121
VAPR 01, 1988
p1557
sg123
V7-0
p1558
sg125
VRobin Lopez
p1559
sg127
I1610612741
sg128
V42
p1560
sg130
g110
sg131
V00
p1561
sg133
g205
sg134
I201577
ssI203114
(dp1562
g327
VTexas A&M
p1563
sg329
V234
p1564
sg331
V2017
p1565
sg333
F26.0
sg334
VAUG 12, 1991
p1566
sg336
V6-8
p1567
sg338
VKhris Middleton
p1568
sg340
I1610612749
sg341
V22
p1569
sg343
g142
sg344
V00
p1570
sg346
g23
sg347
I203114
ssI203115
(dp1571
g73
VMemphis
p1572
sg75
V190
p1573
sg77
V2017
p1574
sg79
F26.0
sg80
VJAN 06, 1991
p1575
sg82
V6-6
p1576
sg84
VWill Barton
p1577
sg86
I1610612743
sg87
g142
sg88
g142
sg90
V00
p1578
sg92
VG-F
p1579
sg93
I203115
ssI201582
(dp1580
g2
VSaint Etienne, France
p1581
sg4
V248
p1582
sg6
V2017
p1583
sg8
F29.0
sg9
VMAY 06, 1988
p1584
sg11
V7-2
p1585
sg13
VAlexis Ajinca
p1586
sg15
I1610612740
sg16
V42
p1587
sg18
g195
sg20
V00
p1588
sg22
g205
sg24
I201582
ssI200765
(dp1589
g2
VKentucky
p1590
sg4
V186
p1591
sg6
V2017
p1592
sg8
F31.0
sg9
VFEB 22, 1986
p1593
sg11
V6-1
p1594
sg13
VRajon Rondo
p1595
sg15
I1610612740
sg16
g110
sg18
V11
p1596
sg20
V00
p1597
sg22
g47
sg24
I200765
ssI1717
(dp1598
g239
VWurzburg, Germany
p1599
sg241
V245
p1600
sg243
V2017
p1601
sg245
F39.0
sg246
VJUN 19, 1978
p1602
sg248
V7-0
p1603
sg250
VDirk Nowitzki
p1604
sg252
I1610612742
sg253
V41
p1605
sg255
V19
p1606
sg256
V00
p1607
sg258
VF-C
p1608
sg259
I1717
ssI201586
(dp1609
g167
VBrazzaville, Rep. of Congo
p1610
sg169
V235
p1611
sg171
V2017
p1612
sg173
F28.0
sg174
VSEP 18, 1989
p1613
sg176
V6-10
p1614
sg178
VSerge Ibaka
p1615
sg180
I1610612761
sg181
g110
sg183
g236
sg184
V00
p1616
sg186
g23
sg187
I201586
ssI201589
(dp1617
g73
VKansas
p1618
sg75
V235
p1619
sg77
V2017
p1620
sg79
F29.0
sg80
VMAR 25, 1988
p1621
sg82
V6-9
p1622
sg84
VDarrell Arthur
p1623
sg86
I1610612743
sg87
V00
p1624
sg88
g236
sg90
V00
p1625
sg92
g23
sg93
I201589
ssI201961
(dp1626
g207
VNorth Carolina
p1627
sg209
V200
p1628
sg211
V2017
p1629
sg213
F29.0
sg214
VNOV 29, 1987
p1630
sg216
V6-5
p1631
sg218
VWayne Ellington
p1632
sg220
I1610612748
sg221
g101
sg223
g236
sg224
V00
p1633
sg226
g47
sg227
I201961
ssI201596
(dp1634
g146
VKansas
p1635
sg148
V190
p1636
sg150
V2017
p1637
sg152
F31.0
sg153
VMAY 19, 1986
p1638
sg155
V6-2
p1639
sg157
VMario Chalmers
p1640
sg159
I1610612763
sg160
g534
sg161
g236
sg162
V00
p1641
sg164
g47
sg165
I201596
ssI201599
(dp1642
g26
VTexas A&M
p1643
sg28
V265
p1644
sg30
V2017
p1645
sg32
F29.0
sg33
VJUL 21, 1988
p1646
sg35
V6-11
p1647
sg37
VDeAndre Jordan
p1648
sg39
I1610612746
sg40
g534
sg42
g110
sg44
V00
p1649
sg46
g205
sg48
I201599
ssI201600
(dp1650
g2
VTurkey
p1651
sg4
V255
p1652
sg6
V2017
p1653
sg8
F31.0
sg9
VJUL 04, 1986
p1654
sg11
V7-0
p1655
sg13
VOmer Asik
p1656
sg15
I1610612740
sg16
g67
sg18
g195
sg20
V00
p1657
sg22
g205
sg24
I201600
ssI1628035
(dp1658
g167
VWisc.-Green Bay
p1659
sg169
V215
p1660
sg171
V2017
p1661
sg173
F25.0
sg174
VSEP 17, 1992
p1662
sg176
V6-8
p1663
sg178
VAlfonzo McKinnie
p1664
sg180
I1610612761
sg181
V34
p1665
sg183
g43
sg184
V00
p1666
sg186
g23
sg187
I1628035
ssI203141
(dp1667
g327
VBosnia
p1668
sg329
V242
p1669
sg331
V2017
p1670
sg333
F32.0
sg334
VSEP 17, 1985
p1671
sg336
V6-9
p1672
sg338
VMirza Teletovic
p1673
sg340
I1610612749
sg341
V35
p1674
sg343
g142
sg344
V00
p1675
sg346
g23
sg347
I203141
ssI201609
(dp1676
g207
VLjubljana, Slovenia
p1677
sg209
V190
p1678
sg211
V2017
p1679
sg213
F31.0
sg214
VMAY 06, 1986
p1680
sg216
V6-3
p1681
sg218
VGoran Dragic
p1682
sg220
I1610612748
sg221
g195
sg223
g110
sg224
V00
p1683
sg226
g47
sg227
I201609
ssI1628399
(dp1684
g73
VSyracuse
p1685
sg75
V220
p1686
sg77
V2017
p1687
sg79
F21.0
sg80
VAPR 09, 1996
p1688
sg82
V6-9
p1689
sg84
VTyler Lydon
p1690
sg86
I1610612743
sg87
V20
p1691
sg88
g43
sg90
V00
p1692
sg92
g23
sg93
I1628399
ssI101106
(dp1693
g50
VUtah
p1694
sg52
V260
p1695
sg54
V2017
p1696
sg56
F32.0
sg57
VNOV 28, 1984
p1697
sg59
V7-0
p1698
sg61
VAndrew Bogut
p1699
sg63
I1610612747
sg64
V66
p1700
sg66
V12
p1701
sg68
V00
p1702
sg70
g205
sg71
I101106
ssI203186
(dp1703
g26
VSaint Louis
p1704
sg28
V245
p1705
sg30
V2017
p1706
sg32
F27.0
sg33
VMAY 16, 1990
p1707
sg35
V6-11
p1708
sg37
VWillie Reed
p1709
sg39
I1610612746
sg40
V35
p1710
sg42
g101
sg44
V00
p1711
sg46
g205
sg48
I203186
ssI201144
(dp1712
g146
VOhio State
p1713
sg148
V175
p1714
sg150
V2017
p1715
sg152
F30.0
sg153
VOCT 11, 1987
p1716
sg155
V6-1
p1717
sg157
VMike Conley
p1718
sg159
I1610612763
sg160
V11
p1719
sg161
V10
p1720
sg162
V00
p1721
sg164
g47
sg165
I201144
ssI1628404
(dp1722
g50
VVillanova
p1723
sg52
V215
p1724
sg54
V2017
p1725
sg56
F22.0
sg57
VMAR 06, 1995
p1726
sg59
V6-5
p1727
sg61
VJosh Hart
p1728
sg63
I1610612747
sg64
g142
sg66
g43
sg68
V00
p1729
sg70
g47
sg71
I1628404
ssI201147
(dp1730
g50
VFlorida
p1731
sg52
V186
p1732
sg54
V2017
p1733
sg56
F31.0
sg57
VMAR 05, 1986
p1734
sg59
V6-9
p1735
sg61
VCorey Brewer
p1736
sg63
I1610612747
sg64
g67
sg66
V10
p1737
sg68
V00
p1738
sg70
g23
sg71
I201147
ssI201148
(dp1739
g146
VNorth Carolina
p1740
sg148
V235
p1741
sg150
V2017
p1742
sg152
F30.0
sg153
VOCT 05, 1987
p1743
sg155
V6-10
p1744
sg157
VBrandan Wright
p1745
sg159
I1610612763
sg160
V34
p1746
sg161
g110
sg162
V00
p1747
sg164
VF-C
p1748
sg165
I201148
ssI202685
(dp1749
g167
VUtena, Lithuania
p1750
sg169
V255
p1751
sg171
V2017
p1752
sg173
F25.0
sg174
VMAY 06, 1992
p1753
sg176
V7-0
p1754
sg178
VJonas Valanciunas
p1755
sg180
I1610612761
sg181
V17
p1756
sg183
g142
sg184
V00
p1757
sg186
g205
sg187
I202685
ssI203710
(dp1758
g26
VNorth Carolina State
p1759
sg28
V230
p1760
sg30
V2017
p1761
sg32
F27.0
sg33
VFEB 06, 1990
p1762
sg35
V6-5
p1763
sg37
VC.J. Williams
p1764
sg39
I1610612746
sg40
g110
sg42
g43
sg44
V00
p1765
sg46
g47
sg48
I203710
ssI101109
(dp1766
g368
VNorth Carolina
p1767
sg370
V205
p1768
sg372
V2017
p1769
sg374
F33.0
sg375
VJUN 26, 1984
p1770
sg377
V6-1
p1771
sg379
VRaymond Felton
p1772
sg381
I1610612760
sg382
g101
sg384
V12
p1773
sg385
V00
p1774
sg387
g47
sg388
I101109
ssI203200
(dp1775
g114
VWashington
p1776
sg116
V185
p1777
sg118
V2017
p1778
sg120
F28.0
sg121
VAPR 05, 1989
p1779
sg123
V6-6
p1780
sg125
VJustin Holiday
p1781
sg127
I1610612741
sg128
g195
sg130
g19
sg131
V00
p1782
sg133
g47
sg134
I203200
ssI202692
(dp1783
g261
VColorado
p1784
sg263
V214
p1785
sg265
V2017
p1786
sg267
F26.0
sg268
VJUL 20, 1991
p1787
sg270
V6-6
p1788
sg272
VAlec Burks
p1789
sg274
I1610612762
sg275
V10
p1790
sg277
g534
sg279
V00
p1791
sg281
g47
sg282
I202692
ssI1628405
(dp1792
g239
VBaylor
p1793
sg241
V230
p1794
sg243
V2017
p1795
sg245
F22.0
sg246
VMAY 04, 1995
p1796
sg248
V6-10
p1797
sg250
VJohnathan Motley
p1798
sg252
I1610612742
sg253
g534
sg255
g43
sg256
V00
p1799
sg258
g23
sg259
I1628405
ssI203084
(dp1800
g239
VNorth Carolina
p1801
sg241
V225
p1802
sg243
V2017
p1803
sg245
F25.0
sg246
VMAY 30, 1992
p1804
sg248
V6-8
p1805
sg250
VHarrison Barnes
p1806
sg252
I1610612742
sg253
V40
p1807
sg255
g142
sg256
V00
p1808
sg258
g23
sg259
I203084
ssI203210
(dp1809
g146
VAlabama
p1810
sg148
V227
p1811
sg150
V2017
p1812
sg152
F27.0
sg153
VJUN 21, 1990
p1813
sg155
V6-9
p1814
sg157
VJaMychal Green
p1815
sg159
I1610612763
sg160
g100
sg161
g67
sg162
V00
p1816
sg164
g23
sg165
I203210
ssI201163
(dp1817
g73
VDePaul
p1818
sg75
V225
p1819
sg77
V2017
p1820
sg79
F30.0
sg80
VMAY 10, 1987
p1821
sg82
V6-9
p1822
sg84
VWilson Chandler
p1823
sg86
I1610612743
sg87
V21
p1824
sg88
g110
sg90
V00
p1825
sg92
g23
sg93
I201163
ssI202702
(dp1826
g73
VMorehead State
p1827
sg75
V228
p1828
sg77
V2017
p1829
sg79
F27.0
sg80
VNOV 19, 1989
p1830
sg82
V6-8
p1831
sg84
VKenneth Faried
p1832
sg86
I1610612743
sg87
V35
p1833
sg88
g534
sg90
V00
p1834
sg92
g23
sg93
I202702
ssI202703
(dp1835
g114
Nsg116
V238
p1836
sg118
V2017
p1837
sg120
F26.0
sg121
VFEB 11, 1991
p1838
sg123
V6-10
p1839
sg125
VNikola Mirotic
p1840
sg127
I1610612741
sg128
V44
p1841
sg130
g67
sg131
V00
p1842
sg133
g23
sg134
I202703
ssI1628408
(dp1843
g368
VSouth Carolina
p1844
sg370
V205
p1845
sg372
V2017
p1846
sg374
F21.0
sg375
VOCT 25, 1996
p1847
sg377
V6-6
p1848
sg379
VPJ Dozier
p1849
sg381
I1610612760
sg382
V35
p1850
sg384
g43
sg385
V00
p1851
sg387
g47
sg388
I1628408
ssI202713
(dp1852
g368
VDuke
p1853
sg370
V228
p1854
sg372
V2017
p1855
sg374
F29.0
sg375
VMAY 04, 1988
p1856
sg377
V6-8
p1857
sg379
VKyle Singler
p1858
sg381
I1610612760
sg382
V15
p1859
sg384
g142
sg385
V00
p1860
sg387
g23
sg388
I202713
ssI202718
(dp1861
g146
VFlorida
p1862
sg148
V230
p1863
sg150
V2017
p1864
sg152
F29.0
sg153
VOCT 25, 1988
p1865
sg155
V6-10
p1866
sg157
VChandler Parsons
p1867
sg159
I1610612763
sg160
V25
p1868
sg161
g534
sg162
V00
p1869
sg164
g23
sg165
I202718
ssI1628374
(dp1870
g114
VArizona
p1871
sg116
V230
p1872
sg118
V2017
p1873
sg120
F20.0
sg121
VMAY 22, 1997
p1874
sg123
V7-0
p1875
sg125
VLauri Markkanen
p1876
sg127
I1610612741
sg128
V24
p1877
sg130
g43
sg131
V00
p1878
sg133
g23
sg134
I1628374
ssI201188
(dp1879
g146
VBarcelona, Spain
p1880
sg148
V255
p1881
sg150
V2017
p1882
sg152
F32.0
sg153
VJAN 29, 1985
p1883
sg155
V7-1
p1884
sg157
VMarc Gasol
p1885
sg159
I1610612763
sg160
V33
p1886
sg161
g110
sg162
V00
p1887
sg164
g205
sg165
I201188
ssI202732
(dp1888
g327
VKentucky
p1889
sg329
V209
p1890
sg331
V2017
p1891
sg333
F29.0
sg334
VMAR 31, 1988
p1892
sg336
V6-6
p1893
sg338
VDeAndre Liggins
p1894
sg340
I1610612749
sg341
V25
p1895
sg343
g19
sg344
V00
p1896
sg346
g47
sg347
I202732
ssI202734
(dp1897
g2
VPurdue
p1898
sg4
V191
p1899
sg6
V2017
p1900
sg8
F28.0
sg9
VFEB 25, 1989
p1901
sg11
V6-4
p1902
sg13
VE'Twaun Moore
p1903
sg15
I1610612740
sg16
V55
p1904
sg18
g534
sg20
V00
p1905
sg22
g47
sg24
I202734
ssI2546
(dp1906
g368
VSyracuse
p1907
sg370
V240
p1908
sg372
V2017
p1909
sg374
F33.0
sg375
VMAY 29, 1984
p1910
sg377
V6-8
p1911
sg379
VCarmelo Anthony
p1912
sg381
I1610612760
sg382
g195
sg384
V14
p1913
sg385
V00
p1914
sg387
g23
sg388
I2546
ssI1628414
(dp1915
g26
VSouth Carolina
p1916
sg28
V215
p1917
sg30
V2017
p1918
sg32
F22.0
sg33
VNOV 15, 1994
p1919
sg35
V6-5
p1920
sg37
VSindarius Thornwell
p1921
sg39
I1610612746
sg40
g100
sg42
g43
sg44
V00
p1922
sg46
g47
sg48
I1628414
ssI1626196
(dp1923
g207
VTennessee
p1924
sg209
V200
p1925
sg211
V2017
p1926
sg213
F24.0
sg214
VSEP 15, 1993
p1927
sg216
V6-6
p1928
sg218
VJosh Richardson
p1929
sg220
I1610612748
sg221
g100
sg223
g101
sg224
V00
p1930
sg226
g23
sg227
I1626196
ssI2555
(dp1931
g368
VKansas
p1932
sg370
V255
p1933
sg372
V2017
p1934
sg374
F37.0
sg375
VOCT 26, 1980
p1935
sg377
V6-10
p1936
sg379
VNick Collison
p1937
sg381
I1610612760
sg382
g19
sg384
V13
p1938
sg385
V00
p1939
sg387
g23
sg388
I2555
ss.