(dp0
I2561
(dp1
VSCHOOL
p2
VXavier
p3
sVWEIGHT
p4
V250
p5
sVSEASON
p6
V2017
p7
sVAGE
p8
F37.0
sVBIRTH_DATE
p9
VAUG 29, 1980
p10
sVHEIGHT
p11
V6-9
p12
sVPLAYER
p13
VDavid West
p14
sVTeamID
p15
I1610612744
sVNUM
p16
V3
p17
sVEXP
p18
V14
p19
sVLeagueID
p20
V00
p21
sVPOSITION
p22
VF
p23
sVPLAYER_ID
p24
I2561
ssI203524
(dp25
VSCHOOL
p26
VArizona
p27
sVWEIGHT
p28
V225
p29
sVSEASON
p30
V2017
p31
sVAGE
p32
F26.0
sVBIRTH_DATE
p33
VMAR 18, 1991
p34
sVHEIGHT
p35
V6-7
p36
sVPLAYER
p37
VSolomon Hill
p38
sVTeamID
p39
I1610612740
sVNUM
p40
V44
p41
sVEXP
p42
V4
p43
sVLeagueID
p44
V00
p45
sVPOSITION
p46
g23
sVPLAYER_ID
p47
I203524
ssI1628393
(dp48
VSCHOOL
p49
VOklahoma State
p50
sVWEIGHT
p51
V190
p52
sVSEASON
p53
V2017
p54
sVAGE
p55
F21.0
sVBIRTH_DATE
p56
VJUL 26, 1996
p57
sVHEIGHT
p58
V6-0
p59
sVPLAYER
p60
VJawun Evans
p61
sVTeamID
p62
I1610612746
sVNUM
p63
V1
p64
sVEXP
p65
VR
p66
sVLeagueID
p67
V00
p68
sVPOSITION
p69
VG
p70
sVPLAYER_ID
p71
I1628393
ssI203898
(dp72
VSCHOOL
p73
VSyracuse
p74
sVWEIGHT
p75
V194
p76
sVSEASON
p77
V2017
p78
sVAGE
p79
F23.0
sVBIRTH_DATE
p80
VAUG 24, 1994
p81
sVHEIGHT
p82
V6-3
p83
sVPLAYER
p84
VTyler Ennis
p85
sVTeamID
p86
I1610612747
sVNUM
p87
V10
p88
sVEXP
p89
g17
sVLeagueID
p90
V00
p91
sVPOSITION
p92
g70
sVPLAYER_ID
p93
I203898
ssI200794
(dp94
VSCHOOL
p95
VLouisiana Tech
p96
sVWEIGHT
p97
V246
p98
sVSEASON
p99
V2017
p100
sVAGE
p101
F32.0
sVBIRTH_DATE
p102
VFEB 10, 1985
p103
sVHEIGHT
p104
V6-8
p105
sVPLAYER
p106
VPaul Millsap
p107
sVTeamID
p108
I1610612743
sVNUM
p109
g43
sVEXP
p110
V11
p111
sVLeagueID
p112
V00
p113
sVPOSITION
p114
g23
sVPLAYER_ID
p115
I200794
ssI1626144
(dp116
g95
Nsg97
V200
p117
sg99
V2017
p118
sg101
F21.0
sg102
VMAR 05, 1996
p119
sg104
V6-5
p120
sg106
VEmmanuel Mudiay
p121
sg108
I1610612743
sg109
V0
p122
sg110
V2
p123
sg112
V00
p124
sg114
g70
sg115
I1626144
ssI2736
(dp125
g73
VDuke
p126
sg75
V220
p127
sg77
V2017
p128
sg79
F32.0
sg80
VAPR 16, 1985
p129
sg82
V6-9
p130
sg84
VLuol Deng
p131
sg86
I1610612747
sg87
V9
p132
sg89
V13
p133
sg90
V00
p134
sg92
g23
sg93
I2736
ssI1627739
(dp135
VSCHOOL
p136
VProvidence
p137
sVWEIGHT
p138
V210
p139
sVSEASON
p140
V2017
p141
sVAGE
p142
F23.0
sVBIRTH_DATE
p143
VMAR 18, 1994
p144
sVHEIGHT
p145
V6-4
p146
sVPLAYER
p147
VKris Dunn
p148
sVTeamID
p149
I1610612741
sVNUM
p150
V32
p151
sVEXP
p152
g64
sVLeagueID
p153
V00
p154
sVPOSITION
p155
g70
sVPLAYER_ID
p156
I1627739
ssI1626149
(dp157
g49
VLouisville
p158
sg51
V240
p159
sg53
V2017
p160
sg55
F23.0
sg56
VJAN 26, 1994
p161
sg58
V6-8
p162
sg60
VMontrezl Harrell
p163
sg62
I1610612746
sg63
V5
p164
sg65
g123
sg67
V00
p165
sg69
VF-C
p166
sg71
I1626149
ssI1626150
(dp167
VSCHOOL
p168
VKentucky
p169
sVWEIGHT
p170
V213
p171
sVSEASON
p172
V2017
p173
sVAGE
p174
F23.0
sVBIRTH_DATE
p175
VOCT 28, 1994
p176
sVHEIGHT
p177
V6-6
p178
sVPLAYER
p179
VAndrew Harrison
p180
sVTeamID
p181
I1610612763
sVNUM
p182
g164
sVEXP
p183
g64
sVLeagueID
p184
V00
p185
sVPOSITION
p186
g70
sVPLAYER_ID
p187
I1626150
ssI1626153
(dp188
VSCHOOL
p189
VUtah
p190
sVWEIGHT
p191
V190
p192
sVSEASON
p193
V2017
p194
sVAGE
p195
F25.0
sVBIRTH_DATE
p196
VAPR 26, 1992
p197
sVHEIGHT
p198
V6-5
p199
sVPLAYER
p200
VDelon Wright
p201
sVTeamID
p202
I1610612761
sVNUM
p203
V55
p204
sVEXP
p205
g123
sVLeagueID
p206
V00
p207
sVPOSITION
p208
g70
sVPLAYER_ID
p209
I1626153
ssI1626155
(dp210
g49
VWisconsin
p211
sg51
V230
p212
sg53
V2017
p213
sg55
F23.0
sg56
VMAY 08, 1994
p214
sg58
V6-9
p215
sg60
VSam Dekker
p216
sg62
I1610612746
sg63
V7
p217
sg65
g123
sg67
V00
p218
sg69
g23
sg71
I1626155
ssI1627826
(dp219
g73
Nsg75
V240
p220
sg77
V2017
p221
sg79
F20.0
sg80
VMAR 18, 1997
p222
sg82
V7-1
p223
sg84
VIvica Zubac
p224
sg86
I1610612747
sg87
V40
p225
sg89
g64
sg90
V00
p226
sg92
VC
p227
sg93
I1627826
ssI1626159
(dp228
VSCHOOL
p229
VDuke
p230
sVWEIGHT
p231
V225
p232
sVSEASON
p233
V2017
p234
sVAGE
p235
F21.0
sVBIRTH_DATE
p236
VMAR 26, 1996
p237
sVHEIGHT
p238
V6-7
p239
sVPLAYER
p240
VJustise Winslow
p241
sVTeamID
p242
I1610612748
sVNUM
p243
V20
p244
sVEXP
p245
g123
sVLeagueID
p246
V00
p247
sVPOSITION
p248
g23
sVPLAYER_ID
p249
I1626159
ssI201967
(dp250
g26
VVillanova
p251
sg28
V230
p252
sg30
V2017
p253
sg32
F30.0
sg33
VAPR 22, 1987
p254
sg35
V6-8
p255
sg37
VDante Cunningham
p256
sg39
I1610612740
sg40
V33
p257
sg42
V8
p258
sg44
V00
p259
sg46
g23
sg47
I201967
ssI1627827
(dp260
VSCHOOL
p261
VFlorida
p262
sVWEIGHT
p263
V220
p264
sVSEASON
p265
V2017
p266
sVAGE
p267
F24.0
sVBIRTH_DATE
p268
VMAY 04, 1993
p269
sVHEIGHT
p270
V6-8
p271
sVPLAYER
p272
VDorian Finney-Smith
p273
sVTeamID
p274
I1610612742
sVNUM
p275
V10
p276
sVEXP
p277
g64
sVLeagueID
p278
V00
p279
sVPOSITION
p280
g23
sVPLAYER_ID
p281
I1627827
ssI200757
(dp282
VSCHOOL
p283
VVevey, Switzerland
p284
sVWEIGHT
p285
V220
p286
sVSEASON
p287
V2017
p288
sVAGE
p289
F33.0
sVBIRTH_DATE
p290
VMAY 02, 1984
p291
sVHEIGHT
p292
V6-7
p293
sVPLAYER
p294
VThabo Sefolosha
p295
sVTeamID
p296
I1610612762
sVNUM
p297
V22
p298
sVEXP
p299
V11
p300
sVLeagueID
p301
V00
p302
sVPOSITION
p303
g23
sVPLAYER_ID
p304
I200757
ssI1626166
(dp305
g136
VMurray State
p306
sg138
V185
p307
sg140
V2017
p308
sg142
F23.0
sg143
VAUG 08, 1994
p309
sg145
V6-3
p310
sg147
VCameron Payne
p311
sg149
I1610612741
sg150
V22
p312
sg152
g123
sg153
V00
p313
sg155
g70
sg156
I1626166
ssI1626168
(dp314
g95
VKentucky
p315
sg97
V234
p316
sg99
V2017
p317
sg101
F22.0
sg102
VNOV 05, 1995
p318
sg104
V6-10
p319
sg106
VTrey Lyles
p320
sg108
I1610612743
sg109
g217
sg110
g123
sg112
V00
p321
sg114
g23
sg115
I1626168
ssI2617
(dp322
g229
VFlorida
p323
sg231
V235
p324
sg233
V2017
p325
sg235
F37.0
sg236
VJUN 09, 1980
p326
sg238
V6-8
p327
sg240
VUdonis Haslem
p328
sg242
I1610612748
sg243
V40
p329
sg245
V14
p330
sg246
V00
p331
sg248
g23
sg249
I2617
ssI1626170
(dp332
g136
VNotre Dame
p333
sg138
V198
p334
sg140
V2017
p335
sg142
F25.0
sg143
VOCT 09, 1992
p336
sg145
V6-4
p337
sg147
VJerian Grant
p338
sg149
I1610612741
sg150
g123
sg152
g123
sg153
V00
p339
sg155
g70
sg156
I1626170
ssI1626171
(dp340
g136
VArkansas
p341
sg138
V248
p342
sg140
V2017
p343
sg142
F22.0
sg143
VFEB 10, 1995
p344
sg145
V6-11
p345
sg147
VBobby Portis
p346
sg149
I1610612741
sg150
g164
sg152
g123
sg153
V00
p347
sg155
g23
sg156
I1626171
ssI1626172
(dp348
g2
VUCLA
p349
sg4
V220
p350
sg6
V2017
p351
sg8
F21.0
sg9
VFEB 06, 1996
p352
sg11
V6-9
p353
sg13
VKevon Looney
p354
sg15
I1610612744
sg16
g164
sg18
g123
sg20
V00
p355
sg22
g23
sg24
I1626172
ssI1626173
(dp356
VSCHOOL
p357
VUNLV
p358
sVWEIGHT
p359
V202
p360
sVSEASON
p361
V2017
p362
sVAGE
p363
F21.0
sVBIRTH_DATE
p364
VAUG 16, 1996
p365
sVHEIGHT
p366
V6-6
p367
sVPLAYER
p368
VRashad Vaughn
p369
sVTeamID
p370
I1610612749
sVNUM
p371
V20
p372
sVEXP
p373
g123
sVLeagueID
p374
V00
p375
sVPOSITION
p376
g70
sVPLAYER_ID
p377
I1626173
ssI1626175
(dp378
g229
VLouisiana State
p379
sg231
V235
p380
sg233
V2017
p381
sg235
F23.0
sg236
VJUL 09, 1994
p382
sg238
V6-8
p383
sg240
VJordan Mickey
p384
sg242
I1610612748
sg243
V25
p385
sg245
g123
sg246
V00
p386
sg248
VC-F
p387
sg249
I1626175
ssI200768
(dp388
g189
VVillanova
p389
sg191
V205
p390
sg193
V2017
p391
sg195
F31.0
sg196
VMAR 25, 1986
p392
sg198
V6-0
p393
sg200
VKyle Lowry
p394
sg202
I1610612761
sg203
g217
sg205
V11
p395
sg206
V00
p396
sg208
g70
sg209
I200768
ssI1626177
(dp397
VSCHOOL
p398
VKentucky
p399
sVWEIGHT
p400
V255
p401
sVSEASON
p402
V2017
p403
sVAGE
p404
F22.0
sVBIRTH_DATE
p405
VSEP 22, 1995
p406
sVHEIGHT
p407
V7-0
p408
sVPLAYER
p409
VDakari Johnson
p410
sVTeamID
p411
I1610612760
sVNUM
p412
V44
p413
sVEXP
p414
g66
sVLeagueID
p415
V00
p416
sVPOSITION
p417
g227
sVPLAYER_ID
p418
I1626177
ssI1626181
(dp419
g189
VUCLA
p420
sg191
V215
p421
sg193
V2017
p422
sg195
F24.0
sg196
VMAY 25, 1993
p423
sg198
V6-4
p424
sg200
VNorman Powell
p425
sg202
I1610612761
sg203
V24
p426
sg205
g123
sg206
V00
p427
sg208
VF-G
p428
sg209
I1626181
ssI1626185
(dp429
g168
VLouisiana State
p430
sg170
V239
p431
sg172
V2017
p432
sg174
F23.0
sg175
VMAY 24, 1994
p433
sg177
V6-10
p434
sg179
VJarell Martin
p435
sg181
I1610612763
sg182
g64
sg183
g123
sg184
V00
p436
sg186
g23
sg187
I1626185
ssI1626188
(dp437
g2
VDuke
p438
sg4
V179
p439
sg6
V2017
p440
sg8
F24.0
sg9
VMAR 23, 1993
p441
sg11
V6-2
p442
sg13
VQuinn Cook
p443
sg15
I1610612744
sg16
g43
sg18
g64
sg20
V00
p444
sg22
g70
sg24
I1626188
ssI200782
(dp445
VSCHOOL
p446
VTexas
p447
sVWEIGHT
p448
V245
p449
sVSEASON
p450
V2017
p451
sVAGE
p452
F32.0
sVBIRTH_DATE
p453
VMAY 05, 1985
p454
sVHEIGHT
p455
V6-6
p456
sVPLAYER
p457
VPJ Tucker
p458
sVTeamID
p459
I1610612745
sVNUM
p460
g43
sVEXP
p461
V6
p462
sVLeagueID
p463
V00
p464
sVPOSITION
p465
g23
sVPLAYER_ID
p466
I200782
ssI202083
(dp467
g261
VMarquette
p468
sg263
V220
p469
sg265
V2017
p470
sg267
F31.0
sg268
VOCT 14, 1986
p471
sg270
V6-5
p472
sg272
VWesley Matthews
p473
sg274
I1610612742
sg275
V23
p474
sg277
g258
sg278
V00
p475
sg280
VG-F
p476
sg281
I202083
ssI202324
(dp477
g283
VGeorgia Tech
p478
sg285
V265
p479
sg287
V2017
p480
sg289
F26.0
sg290
VJUL 15, 1991
p481
sg292
V6-10
p482
sg294
VDerrick Favors
p483
sg296
I1610612762
sg297
V15
p484
sg299
g217
sg301
V00
p485
sg303
VF-C
p486
sg304
I202324
ssI202325
(dp487
g49
VSyracuse
p488
sg51
V215
p489
sg53
V2017
p490
sg55
F30.0
sg56
VJUL 11, 1987
p491
sg58
V6-7
p492
sg60
VWesley Johnson
p493
sg62
I1610612746
sg63
V33
p494
sg65
g217
sg67
V00
p495
sg69
g23
sg71
I202325
ssI202326
(dp496
g26
VKentucky
p497
sg28
V270
p498
sg30
V2017
p499
sg32
F27.0
sg33
VAUG 13, 1990
p500
sg35
V6-11
p501
sg37
VDeMarcus Cousins
p502
sg39
I1610612740
sg40
g122
sg42
g217
sg44
V00
p503
sg46
g227
sg47
I202326
ssI202327
(dp504
g283
VBaylor
p505
sg285
V245
p506
sg287
V2017
p507
sg289
F30.0
sg290
VMAY 20, 1987
p508
sg292
V6-10
p509
sg294
VEkpe Udoh
p510
sg296
I1610612762
sg297
V33
p511
sg299
g164
sg301
V00
p512
sg303
VC-F
p513
sg304
I202327
ssI1627736
(dp514
g95
VFlorida State
p515
sg97
V196
p516
sg99
V2017
p517
sg101
F20.0
sg102
VNOV 26, 1996
p518
sg104
V6-5
p519
sg106
VMalik Beasley
p520
sg108
I1610612743
sg109
V25
p521
sg110
g64
sg112
V00
p522
sg114
g70
sg115
I1627736
ssI1627738
(dp523
g168
VMichigan State
p524
sg170
V237
p525
sg172
V2017
p526
sg174
F20.0
sg175
VDEC 02, 1996
p527
sg177
V6-11
p528
sg179
VDeyonta Davis
p529
sg181
I1610612763
sg182
V21
p530
sg183
g64
sg184
V00
p531
sg186
VC-F
p532
sg187
I1627738
ssI202331
(dp533
g398
VFresno State
p534
sg400
V220
p535
sg402
V2017
p536
sg404
F27.0
sg405
VMAY 02, 1990
p537
sg407
V6-9
p538
sg409
VPaul George
p539
sg411
I1610612760
sg412
V13
p540
sg414
g217
sg415
V00
p541
sg417
g23
sg418
I202331
ssI1626204
(dp542
g73
VWyoming
p543
sg75
V230
p544
sg77
V2017
p545
sg79
F24.0
sg80
VJAN 01, 1993
p546
sg82
V6-9
p547
sg84
VLarry Nance Jr.
p548
sg86
I1610612747
sg87
g217
sg89
g123
sg90
V00
p549
sg92
g23
sg93
I1626204
ssI1626205
(dp550
g168
VTexas-El Paso
p551
sg170
V208
p552
sg172
V2017
p553
sg174
F23.0
sg175
VAUG 05, 1994
p554
sg177
V6-8
p555
sg179
VVincent Hunter
p556
sg181
I1610612763
sg182
V32
p557
sg183
g66
sg184
V00
p558
sg186
g23
sg187
I1626205
ssI1627742
(dp559
g73
VDuke
p560
sg75
V190
p561
sg77
V2017
p562
sg79
F20.0
sg80
VSEP 02, 1997
p563
sg82
V6-9
p564
sg84
VBrandon Ingram
p565
sg86
I1610612747
sg87
V14
p566
sg89
g64
sg90
V00
p567
sg92
VF-G
p568
sg93
I1627742
ssI202335
(dp569
g398
VKentucky
p570
sg400
V230
p571
sg402
V2017
p572
sg404
F28.0
sg405
VMAR 14, 1989
p573
sg407
V6-9
p574
sg409
VPatrick Patterson
p575
sg411
I1610612760
sg412
V54
p576
sg414
g217
sg415
V00
p577
sg417
g23
sg418
I202335
ssI1627744
(dp578
g49
VNorth Carolina
p579
sg51
V230
p580
sg53
V2017
p581
sg55
F23.0
sg56
VJUN 27, 1994
p582
sg58
V6-10
p583
sg60
VBrice Johnson
p584
sg62
I1610612746
sg63
V11
p585
sg65
g64
sg67
V00
p586
sg69
g23
sg71
I1627744
ssI1627745
(dp587
g2
VVanderbilt
p588
sg4
V245
p589
sg6
V2017
p590
sg8
F22.0
sg9
VJUN 30, 1995
p591
sg11
V7-0
p592
sg13
VDamian Jones
p593
sg15
I1610612744
sg16
V15
p594
sg18
g64
sg20
V00
p595
sg22
g227
sg24
I1627745
ssI202339
(dp596
g357
VKentucky
p597
sg359
V205
p598
sg361
V2017
p599
sg363
F27.0
sg364
VDEC 09, 1989
p600
sg366
V6-1
p601
sg368
VEric Bledsoe
p602
sg370
I1610612749
sg371
g462
sg373
g217
sg374
V00
p603
sg376
g70
sg377
I202339
ssI1627748
(dp604
g357
Nsg359
V223
p605
sg361
V2017
p606
sg363
F20.0
sg364
VFEB 25, 1997
p607
sg366
V7-1
p608
sg368
VThon Maker
p609
sg370
I1610612749
sg371
g217
sg373
g64
sg374
V00
p610
sg376
VC-F
p611
sg377
I1627748
ssI1627750
(dp612
g95
VKentucky
p613
sg97
V207
p614
sg99
V2017
p615
sg101
F20.0
sg102
VFEB 23, 1997
p616
sg104
V6-4
p617
sg106
VJamal Murray
p618
sg108
I1610612743
sg109
V27
p619
sg110
g64
sg112
V00
p620
sg114
g70
sg115
I1627750
ssI1627751
(dp621
g189
VUtah
p622
sg191
V230
p623
sg193
V2017
p624
sg195
F22.0
sg196
VOCT 15, 1995
p625
sg198
V7-0
p626
sg200
VJakob Poeltl
p627
sg202
I1610612761
sg203
V42
p628
sg205
g64
sg206
V00
p629
sg208
g227
sg209
I1627751
ssI1627753
(dp630
g446
Nsg448
V210
p631
sg450
V2017
p632
sg452
F21.0
sg453
VJAN 16, 1996
p633
sg455
V7-1
p634
sg457
VQi Qi
p635
sg459
I1610612745
sg460
g132
sg461
g66
sg463
V00
p636
sg465
VF-C
p637
sg466
I1627753
ssI202347
(dp638
g136
VWashington
p639
sg138
V225
p640
sg140
V2017
p641
sg142
F29.0
sg143
VMAR 10, 1988
p642
sg145
V6-7
p643
sg147
VQuincy Pondexter
p644
sg149
I1610612741
sg150
V20
p645
sg152
g164
sg153
V00
p646
sg155
g70
sg156
I202347
ssI1626220
(dp647
g283
VBaylor
p648
sg285
V226
p649
sg287
V2017
p650
sg289
F24.0
sg290
VJUN 05, 1993
p651
sg292
V6-6
p652
sg294
VRoyce O'Neale
p653
sg296
I1610612762
sg297
V23
p654
sg299
g66
sg301
V00
p655
sg303
g23
sg304
I1626220
ssI1627762
(dp656
g357
VWeber State
p657
sg359
V235
p658
sg361
V2017
p659
sg363
F23.0
sg364
VJAN 28, 1994
p660
sg366
V6-9
p661
sg368
VJoel Bolomboy
p662
sg370
I1610612749
sg371
V24
p663
sg373
g64
sg374
V00
p664
sg376
VF-C
p665
sg377
I1627762
ssI202355
(dp666
g229
VMarshall
p667
sg231
V265
p668
sg233
V2017
p669
sg235
F28.0
sg236
VJUN 13, 1989
p670
sg238
V7-0
p671
sg240
VHassan Whiteside
p672
sg242
I1610612748
sg243
V21
p673
sg245
g164
sg246
V00
p674
sg248
g227
sg249
I202355
ssI1627767
(dp675
g26
VKansas
p676
sg28
V220
p677
sg30
V2017
p678
sg32
F21.0
sg33
VSEP 13, 1996
p679
sg35
V6-9
p680
sg37
VCheick Diallo
p681
sg39
I1610612740
sg40
V13
p682
sg42
g64
sg44
V00
p683
sg46
g23
sg47
I1627767
ssI203897
(dp684
g136
VUCLA
p685
sg138
V185
p686
sg140
V2017
p687
sg142
F22.0
sg143
VMAR 10, 1995
p688
sg145
V6-5
p689
sg147
VZach LaVine
p690
sg149
I1610612741
sg150
g258
sg152
g17
sg153
V00
p691
sg155
g70
sg156
I203897
ssI200826
(dp692
g261
VNortheastern
p693
sg263
V185
p694
sg265
V2017
p695
sg267
F33.0
sg268
VJUN 26, 1984
p696
sg270
V6-0
p697
sg272
VJ.J. Barea
p698
sg274
I1610612742
sg275
g164
sg277
V11
p699
sg278
V00
p700
sg280
g70
sg281
I200826
ssI1627772
(dp701
g398
VConnecticut
p702
sg400
V195
p703
sg402
V2017
p704
sg404
F22.0
sg405
VAUG 08, 1995
p705
sg407
V6-7
p706
sg409
VDaniel Hamilton
p707
sg411
I1610612760
sg412
V25
p708
sg414
g66
sg415
V00
p709
sg417
g70
sg418
I1627772
ssI1627773
(dp710
g229
VPurdue
p711
sg231
V260
p712
sg233
V2017
p713
sg235
F25.0
sg236
VAUG 27, 1992
p714
sg238
V7-0
p715
sg240
VAJ Hammons
p716
sg242
I1610612748
sg243
g43
sg245
g64
sg246
V00
p717
sg248
g227
sg249
I1627773
ssI1627936
(dp718
g73
VTexas A&M
p719
sg75
V186
p720
sg77
V2017
p721
sg79
F23.0
sg80
VFEB 28, 1994
p722
sg82
V6-5
p723
sg84
VAlex Caruso
p724
sg86
I1610612747
sg87
g43
sg89
g66
sg90
V00
p725
sg92
g70
sg93
I1627936
ssI1627778
(dp726
g446
VLouisville
p727
sg448
V245
p728
sg450
V2017
p729
sg452
F21.0
sg453
VNOV 01, 1996
p730
sg455
V6-10
p731
sg457
VChinanu Onuaku
p732
sg459
I1610612745
sg460
V21
p733
sg461
g64
sg463
V00
p734
sg465
g227
sg466
I1627778
ssI1627780
(dp735
g357
VOregon State
p736
sg359
V190
p737
sg361
V2017
p738
sg363
F24.0
sg364
VDEC 01, 1992
p739
sg366
V6-3
p740
sg368
VGary Payton II
p741
sg370
I1610612749
sg371
g122
sg373
g64
sg374
V00
p742
sg376
g70
sg377
I1627780
ssI203500
(dp743
g398
VPittsburgh
p744
sg400
V255
p745
sg402
V2017
p746
sg404
F24.0
sg405
VJUL 20, 1993
p747
sg407
V7-0
p748
sg409
VSteven Adams
p749
sg411
I1610612760
sg412
V12
p750
sg414
g43
sg415
V00
p751
sg417
g227
sg418
I203500
ssI1627782
(dp752
g168
VKansas
p753
sg170
V230
p754
sg172
V2017
p755
sg174
F23.0
sg175
VSEP 30, 1994
p756
sg177
V6-5
p757
sg179
VWayne Selden
p758
sg181
I1610612763
sg182
g217
sg183
g64
sg184
V00
p759
sg186
VG-F
p760
sg187
I1627782
ssI1627783
(dp761
g189
VNew Mexico State
p762
sg191
V230
p763
sg193
V2017
p764
sg195
F23.0
sg196
VAPR 02, 1994
p765
sg198
V6-9
p766
sg200
VPascal Siakam
p767
sg202
I1610612761
sg203
V43
p768
sg205
g64
sg206
V00
p769
sg208
g23
sg209
I1627783
ssI1627756
(dp770
g136
VMichigan State
p771
sg138
V214
p772
sg140
V2017
p773
sg142
F23.0
sg143
VNOV 16, 1993
p774
sg145
V6-6
p775
sg147
VDenzel Valentine
p776
sg149
I1610612741
sg150
V45
p777
sg152
g64
sg153
V00
p778
sg155
g23
sg156
I1627756
ssI203914
(dp779
g95
VMichigan State
p780
sg97
V210
p781
sg99
V2017
p782
sg101
F23.0
sg102
VSEP 14, 1994
p783
sg104
V6-4
p784
sg106
VGary Harris
p785
sg108
I1610612743
sg109
V14
p786
sg110
g17
sg112
V00
p787
sg114
g70
sg115
I203914
ssI203918
(dp788
g283
VDuke
p789
sg285
V206
p790
sg287
V2017
p791
sg289
F25.0
sg290
VOCT 20, 1992
p792
sg292
V6-8
p793
sg294
VRodney Hood
p794
sg296
I1610612762
sg297
g164
sg299
g17
sg301
V00
p795
sg303
g70
sg304
I203918
ssI1626257
(dp796
g261
Nsg263
V235
p797
sg265
V2017
p798
sg267
F31.0
sg268
VJUN 15, 1986
p799
sg270
V7-2
p800
sg272
VSalah Mejri
p801
sg274
I1610612742
sg275
V50
p802
sg277
g123
sg278
V00
p803
sg280
g227
sg281
I1626257
ssI1626259
(dp804
g189
VHoly Cross
p805
sg191
V210
p806
sg193
V2017
p807
sg195
F24.0
sg196
VMAR 06, 1993
p808
sg198
V6-7
p809
sg200
VMalcolm Miller
p810
sg202
I1610612761
sg203
V13
p811
sg205
g66
sg206
V00
p812
sg208
g23
sg209
I1626259
ssI203924
(dp813
g398
VSyracuse
p814
sg400
V220
p815
sg402
V2017
p816
sg404
F23.0
sg405
VMAR 12, 1994
p817
sg407
V6-9
p818
sg409
VJerami Grant
p819
sg411
I1610612760
sg412
g132
sg414
g17
sg415
V00
p820
sg417
g23
sg418
I203924
ssI2585
(dp821
g2
VTbilisi, Georgia
p822
sg4
V270
p823
sg6
V2017
p824
sg8
F33.0
sg9
VFEB 10, 1984
p825
sg11
V6-11
p826
sg13
VZaza Pachulia
p827
sg15
I1610612744
sg16
V27
p828
sg18
V14
p829
sg20
V00
p830
sg22
g227
sg24
I2585
ssI201156
(dp831
g2
VSouthern California
p832
sg4
V210
p833
sg6
V2017
p834
sg8
F32.0
sg9
VJUN 01, 1985
p835
sg11
V6-7
p836
sg13
VNick Young
p837
sg15
I1610612744
sg16
g462
sg18
V10
p838
sg20
V00
p839
sg22
VG-F
p840
sg24
I201156
ssI201583
(dp841
g446
VCalifornia
p842
sg448
V240
p843
sg450
V2017
p844
sg452
F29.0
sg453
VMAY 06, 1988
p845
sg455
V6-10
p846
sg457
VRyan Anderson
p847
sg459
I1610612745
sg460
V33
p848
sg461
g132
sg463
V00
p849
sg465
g23
sg466
I201583
ssI2207
(dp850
g283
VArkansas
p851
sg285
V240
p852
sg287
V2017
p853
sg289
F36.0
sg290
VJUN 29, 1981
p854
sg292
V6-7
p855
sg294
VJoe Johnson
p856
sg296
I1610612762
sg297
g462
sg299
V16
p857
sg301
V00
p858
sg303
VG-F
p859
sg304
I2207
ssI2210
(dp860
g95
VArizona
p861
sg97
V233
p862
sg99
V2017
p863
sg101
F37.0
sg102
VJUN 21, 1980
p864
sg104
V6-7
p865
sg106
VRichard Jefferson
p866
sg108
I1610612743
sg109
V22
p867
sg110
V16
p868
sg112
V00
p869
sg114
g23
sg115
I2210
ssI203939
(dp870
g261
VStanford
p871
sg263
V240
p872
sg265
V2017
p873
sg267
F26.0
sg268
VJUL 20, 1991
p874
sg270
V6-11
p875
sg272
VDwight Powell
p876
sg274
I1610612742
sg275
g217
sg277
g17
sg278
V00
p877
sg280
VF-C
p878
sg281
I203939
ssI1627812
(dp879
g261
VIndiana
p880
sg263
V180
p881
sg265
V2017
p882
sg267
F24.0
sg268
VMAY 09, 1993
p883
sg270
V6-0
p884
sg272
VYogi Ferrell
p885
sg274
I1610612742
sg275
V11
p886
sg277
g64
sg278
V00
p887
sg280
g70
sg281
I1627812
ssI203121
(dp888
g26
VKentucky
p889
sg28
V225
p890
sg30
V2017
p891
sg32
F27.0
sg33
VMAR 21, 1990
p892
sg35
V6-8
p893
sg37
VDarius Miller
p894
sg39
I1610612740
sg40
V21
p895
sg42
g17
sg44
V00
p896
sg46
g23
sg47
I203121
ssI203944
(dp897
g73
VKentucky
p898
sg75
V250
p899
sg77
V2017
p900
sg79
F22.0
sg80
VNOV 29, 1994
p901
sg82
V6-9
p902
sg84
VJulius Randle
p903
sg86
I1610612747
sg87
V30
p904
sg89
g17
sg90
V00
p905
sg92
VF-C
p906
sg93
I203944
ssI2733
(dp907
g2
VPeoria Central HS (IL)
p908
sg4
V192
p909
sg6
V2017
p910
sg8
F32.0
sg9
VSEP 11, 1985
p911
sg11
V6-7
p912
sg13
VShaun Livingston
p913
sg15
I1610612744
sg16
V34
p914
sg18
V12
p915
sg20
V00
p916
sg22
g70
sg24
I2733
ssI2734
(dp917
g261
VWisconsin
p918
sg263
V185
p919
sg265
V2017
p920
sg267
F34.0
sg268
VFEB 27, 1983
p921
sg270
V6-3
p922
sg272
VDevin Harris
p923
sg274
I1610612742
sg275
V34
p924
sg277
V13
p925
sg278
V00
p926
sg280
g70
sg281
I2734
ssI1627823
(dp927
g95
Nsg97
V230
p928
sg99
V2017
p929
sg101
F22.0
sg102
VSEP 28, 1995
p930
sg104
V6-9
p931
sg106
VJuan Hernangomez
p932
sg108
I1610612743
sg109
V41
p933
sg110
g64
sg112
V00
p934
sg114
g23
sg115
I1627823
ssI201950
(dp935
g26
VUCLA
p936
sg28
V205
p937
sg30
V2017
p938
sg32
F27.0
sg33
VJUN 12, 1990
p939
sg35
V6-4
p940
sg37
VJrue Holiday
p941
sg39
I1610612740
sg40
V11
p942
sg42
g258
sg44
V00
p943
sg46
g70
sg47
I201950
ssI203953
(dp944
g357
VDuke
p945
sg359
V250
p946
sg361
V2017
p947
sg363
F22.0
sg364
VMAR 15, 1995
p948
sg366
V6-8
p949
sg368
VJabari Parker
p950
sg370
I1610612749
sg371
V12
p951
sg373
g17
sg374
V00
p952
sg376
g23
sg377
I203953
ssI201933
(dp953
g49
VOklahoma
p954
sg51
V251
p955
sg53
V2017
p956
sg55
F28.0
sg56
VMAR 16, 1989
p957
sg58
V6-10
p958
sg60
VBlake Griffin
p959
sg62
I1610612746
sg63
V32
p960
sg65
g217
sg67
V00
p961
sg69
g23
sg71
I201933
ssI1627763
(dp962
g357
VVirginia
p963
sg359
V215
p964
sg361
V2017
p965
sg363
F24.0
sg364
VDEC 11, 1992
p966
sg366
V6-5
p967
sg368
VMalcolm Brogdon
p968
sg370
I1610612749
sg371
V13
p969
sg373
g64
sg374
V00
p970
sg376
g70
sg377
I1627763
ssI203957
(dp971
g283
Nsg285
V190
p972
sg287
V2017
p973
sg289
F22.0
sg290
VJUL 13, 1995
p974
sg292
V6-6
p975
sg294
VDante Exum
p976
sg296
I1610612762
sg297
V11
p977
sg299
g123
sg301
V00
p978
sg303
g70
sg304
I203957
ssI1627775
(dp979
g2
VNevada-Las Vegas
p980
sg4
V185
p981
sg6
V2017
p982
sg8
F22.0
sg9
VOCT 25, 1995
p983
sg11
V6-7
p984
sg13
VPatrick McCaw
p985
sg15
I1610612744
sg16
g122
sg18
g64
sg20
V00
p986
sg22
g70
sg24
I1627775
ssI1627832
(dp987
g189
VWichita State
p988
sg191
V195
p989
sg193
V2017
p990
sg195
F23.0
sg196
VFEB 25, 1994
p991
sg198
V6-0
p992
sg200
VFred VanVleet
p993
sg202
I1610612761
sg203
V23
p994
sg205
g64
sg206
V00
p995
sg208
g70
sg209
I1627832
ssI203962
(dp996
g398
VStanford
p997
sg400
V230
p998
sg402
V2017
p999
sg404
F25.0
sg405
VDEC 19, 1991
p1000
sg407
V6-7
p1001
sg409
VJosh Huestis
p1002
sg411
I1610612760
sg412
V34
p1003
sg414
g123
sg415
V00
p1004
sg417
g23
sg418
I203962
ssI1627835
(dp1005
g136
Nsg138
V226
p1006
sg140
V2017
p1007
sg142
F23.0
sg143
VFEB 18, 1994
p1008
sg145
V6-8
p1009
sg147
VPaul Zipser
p1010
sg149
I1610612741
sg150
V16
p1011
sg152
g64
sg153
V00
p1012
sg155
g23
sg156
I1627835
ssI2749
(dp1013
g26
VSaint Joseph's
p1014
sg28
V190
p1015
sg30
V2017
p1016
sg32
F35.0
sg33
VFEB 09, 1982
p1017
sg35
V6-0
p1018
sg37
VJameer Nelson
p1019
sg39
I1610612740
sg40
V14
p1020
sg42
V13
p1021
sg44
V00
p1022
sg46
g70
sg47
I2749
ssI203966
(dp1023
g49
VMarquette
p1024
sg51
V229
p1025
sg53
V2017
p1026
sg55
F26.0
sg56
VNOV 21, 1990
p1027
sg58
V6-7
p1028
sg60
VJamil Wilson
p1029
sg62
I1610612746
sg63
V13
p1030
sg65
g66
sg67
V00
p1031
sg69
g23
sg71
I203966
ssI1628021
(dp1032
g136
VCal Poly-S.L.O.
p1033
sg138
V209
p1034
sg140
V2017
p1035
sg142
F24.0
sg143
VJAN 14, 1993
p1036
sg145
V6-4
p1037
sg147
VDavid Nwaba
p1038
sg149
I1610612741
sg150
V11
p1039
sg152
g64
sg153
V00
p1040
sg155
g70
sg156
I1628021
ssI203457
(dp1041
g261
VKentucky
p1042
sg263
V220
p1043
sg265
V2017
p1044
sg267
F23.0
sg268
VAPR 10, 1994
p1045
sg270
V6-11
p1046
sg272
VNerlens Noel
p1047
sg274
I1610612742
sg275
g17
sg277
g17
sg278
V00
p1048
sg280
g227
sg281
I203457
ssI2754
(dp1049
g26
VOklahoma State
p1050
sg28
V213
p1051
sg30
V2017
p1052
sg32
F35.0
sg33
VJAN 11, 1982
p1053
sg35
V6-4
p1054
sg37
VTony Allen
p1055
sg39
I1610612740
sg40
V24
p1056
sg42
V13
p1057
sg44
V00
p1058
sg46
VG-F
p1059
sg47
I2754
ssI203460
(dp1060
g398
VColorado
p1061
sg400
V210
p1062
sg402
V2017
p1063
sg404
F25.0
sg405
VDEC 04, 1991
p1064
sg407
V6-7
p1065
sg409
VAndre Roberson
p1066
sg411
I1610612760
sg412
V21
p1067
sg414
g43
sg415
V00
p1068
sg417
g70
sg418
I203460
ssI203463
(dp1069
g168
VKansas
p1070
sg170
V195
p1071
sg172
V2017
p1072
sg174
F24.0
sg175
VFEB 11, 1993
p1073
sg177
V6-5
p1074
sg179
VBen McLemore
p1075
sg181
I1610612763
sg182
V23
p1076
sg183
g43
sg184
V00
p1077
sg186
g70
sg187
I203463
ssI1627853
(dp1078
g136
VVillanova
p1079
sg138
V195
p1080
sg140
V2017
p1081
sg142
F23.0
sg143
VMAR 26, 1994
p1082
sg145
V6-3
p1083
sg147
VRyan Arcidiacono
p1084
sg149
I1610612741
sg150
V15
p1085
sg152
g66
sg153
V00
p1086
sg155
g70
sg156
I1627853
ssI1628366
(dp1087
g73
VCalifornia-Los Angeles
p1088
sg75
V190
p1089
sg77
V2017
p1090
sg79
F20.0
sg80
VOCT 27, 1997
p1091
sg82
V6-6
p1092
sg84
VLonzo Ball
p1093
sg86
I1610612747
sg87
g123
sg89
g66
sg90
V00
p1094
sg92
g70
sg93
I1628366
ssI1627855
(dp1095
g229
VFlorida State
p1096
sg231
V215
p1097
sg233
V2017
p1098
sg235
F25.0
sg236
VAUG 13, 1992
p1099
sg238
V6-8
p1100
sg240
VOkaro White
p1101
sg242
I1610612748
sg243
V15
p1102
sg245
g64
sg246
V00
p1103
sg248
g23
sg249
I1627855
ssI201936
(dp1104
g168
VMemphis
p1105
sg170
V220
p1106
sg172
V2017
p1107
sg174
F28.0
sg175
VSEP 19, 1989
p1108
sg177
V6-6
p1109
sg179
VTyreke Evans
p1110
sg181
I1610612763
sg182
V12
p1111
sg183
g258
sg184
V00
p1112
sg186
VG-F
p1113
sg187
I201936
ssI201937
(dp1114
g283
VEl Masnou, Spain
p1115
sg285
V190
p1116
sg287
V2017
p1117
sg289
F27.0
sg290
VOCT 21, 1990
p1118
sg292
V6-4
p1119
sg294
VRicky Rubio
p1120
sg296
I1610612762
sg297
g17
sg299
g462
sg301
V00
p1121
sg303
g70
sg304
I201937
ssI201939
(dp1122
g2
VDavidson
p1123
sg4
V190
p1124
sg6
V2017
p1125
sg8
F29.0
sg9
VMAR 14, 1988
p1126
sg11
V6-3
p1127
sg13
VStephen Curry
p1128
sg15
I1610612744
sg16
V30
p1129
sg18
g258
sg20
V00
p1130
sg22
g70
sg24
I201939
ssI1628372
(dp1131
g261
VNorth Carolina State
p1132
sg263
V195
p1133
sg265
V2017
p1134
sg267
F19.0
sg268
VNOV 25, 1997
p1135
sg270
V6-3
p1136
sg272
VDennis Smith Jr.
p1137
sg274
I1610612742
sg275
g64
sg277
g66
sg278
V00
p1138
sg280
g70
sg281
I1628372
ssI201942
(dp1139
g189
VSouthern California
p1140
sg191
V220
p1141
sg193
V2017
p1142
sg195
F28.0
sg196
VAUG 07, 1989
p1143
sg198
V6-7
p1144
sg200
VDeMar DeRozan
p1145
sg202
I1610612761
sg203
V10
p1146
sg205
g258
sg206
V00
p1147
sg208
g70
sg209
I201942
ssI203991
(dp1148
g446
Nsg448
V240
p1149
sg450
V2017
p1150
sg452
F23.0
sg453
VMAY 18, 1994
p1151
sg455
V6-10
p1152
sg457
VClint Capela
p1153
sg459
I1610612745
sg460
V15
p1154
sg461
g17
sg463
V00
p1155
sg465
g227
sg466
I203991
ssI203481
(dp1156
g261
VKansas
p1157
sg263
V230
p1158
sg265
V2017
p1159
sg267
F27.0
sg268
VMAR 07, 1990
p1160
sg270
V7-0
p1161
sg272
VJeff Withey
p1162
sg274
I1610612742
sg275
V17
p1163
sg277
g43
sg278
V00
p1164
sg280
g227
sg281
I203481
ssI1628378
(dp1165
g283
VLouisville
p1166
sg285
V215
p1167
sg287
V2017
p1168
sg289
F21.0
sg290
VSEP 07, 1996
p1169
sg292
V6-3
p1170
sg294
VDonovan Mitchell
p1171
sg296
I1610612762
sg297
V45
p1172
sg299
g66
sg301
V00
p1173
sg303
g70
sg304
I1628378
ssI201935
(dp1174
g446
VArizona State
p1175
sg448
V220
p1176
sg450
V2017
p1177
sg452
F28.0
sg453
VAUG 26, 1989
p1178
sg455
V6-5
p1179
sg457
VJames Harden
p1180
sg459
I1610612745
sg460
V13
p1181
sg461
g258
sg463
V00
p1182
sg465
g70
sg466
I201935
ssI203484
(dp1183
g73
VGeorgia
p1184
sg75
V205
p1185
sg77
V2017
p1186
sg79
F24.0
sg80
VFEB 18, 1993
p1187
sg82
V6-5
p1188
sg84
VKentavious Caldwell-Pope
p1189
sg86
I1610612747
sg87
g64
sg89
g43
sg90
V00
p1190
sg92
g70
sg93
I203484
ssI201949
(dp1191
g229
VWake Forest
p1192
sg231
V240
p1193
sg233
V2017
p1194
sg235
F30.0
sg236
VFEB 20, 1987
p1195
sg238
V6-8
p1196
sg240
VJames Johnson
p1197
sg242
I1610612748
sg243
V16
p1198
sg245
g258
sg246
V00
p1199
sg248
g23
sg249
I201949
ssI203998
(dp1200
g189
Nsg191
V205
p1201
sg193
V2017
p1202
sg195
F22.0
sg196
VSEP 21, 1995
p1203
sg198
V6-9
p1204
sg200
VBruno Caboclo
p1205
sg202
I1610612761
sg203
g164
sg205
g17
sg206
V00
p1206
sg208
g23
sg209
I203998
ssI203999
(dp1207
g95
Nsg97
V250
p1208
sg99
V2017
p1209
sg101
F22.0
sg102
VFEB 19, 1995
p1210
sg104
V6-10
p1211
sg106
VNikola Jokic
p1212
sg108
I1610612743
sg109
V15
p1213
sg110
g123
sg112
V00
p1214
sg114
g227
sg115
I203999
ssI1628384
(dp1215
g189
VIndiana
p1216
sg191
V235
p1217
sg193
V2017
p1218
sg195
F20.0
sg196
VJUL 17, 1997
p1219
sg198
V6-8
p1220
sg200
VOG Anunoby
p1221
sg202
I1610612761
sg203
g17
sg205
g66
sg206
V00
p1222
sg208
g23
sg209
I1628384
ssI203489
(dp1223
g283
VSouth Dakota State
p1224
sg285
V190
p1225
sg287
V2017
p1226
sg289
F26.0
sg290
VMAY 15, 1991
p1227
sg292
V6-4
p1228
sg294
VNate Wolters
p1229
sg296
I1610612762
sg297
V16
p1230
sg299
g123
sg301
V00
p1231
sg303
g70
sg304
I203489
ssI1627362
(dp1232
g446
VVirginia Commonwealth
p1233
sg448
V165
p1234
sg450
V2017
p1235
sg452
F24.0
sg453
VDEC 29, 1992
p1236
sg455
V6-2
p1237
sg457
VBriante Weber
p1238
sg459
I1610612745
sg460
g122
sg461
g123
sg463
V00
p1239
sg465
g70
sg466
I1627362
ssI201956
(dp1240
g2
VYavne, Israel
p1241
sg4
V225
p1242
sg6
V2017
p1243
sg8
F29.0
sg9
VJUN 22, 1988
p1244
sg11
V6-9
p1245
sg13
VOmri Casspi
p1246
sg15
I1610612744
sg16
V18
p1247
sg18
g258
sg20
V00
p1248
sg22
g23
sg24
I201956
ssI1628389
(dp1249
g229
VKentucky
p1250
sg231
V255
p1251
sg233
V2017
p1252
sg235
F20.0
sg236
VJUL 18, 1997
p1253
sg238
V6-10
p1254
sg240
VBam Adebayo
p1255
sg242
I1610612748
sg243
V13
p1256
sg245
g66
sg246
V00
p1257
sg248
VC-F
p1258
sg249
I1628389
ssI1628390
(dp1259
g398
Nsg400
V184
p1260
sg402
V2017
p1261
sg404
F19.0
sg405
VMAY 17, 1998
p1262
sg407
V6-7
p1263
sg409
VTerrance Ferguson
p1264
sg411
I1610612760
sg412
V23
p1265
sg414
g66
sg415
V00
p1266
sg417
g70
sg418
I1628390
ssI1628391
(dp1267
g357
VMichigan
p1268
sg359
V236
p1269
sg361
V2017
p1270
sg363
F21.0
sg364
VFEB 19, 1996
p1271
sg366
V6-10
p1272
sg368
VD.J. Wilson
p1273
sg370
I1610612749
sg371
g164
sg373
g66
sg374
V00
p1274
sg376
g23
sg377
I1628391
ssI203497
(dp1275
g283
VFrance
p1276
sg285
V245
p1277
sg287
V2017
p1278
sg289
F25.0
sg290
VJUN 26, 1992
p1279
sg292
V7-1
p1280
sg294
VRudy Gobert
p1281
sg296
I1610612762
sg297
V27
p1282
sg299
g43
sg301
V00
p1283
sg303
g227
sg304
I203497
ssI1627883
(dp1284
g26
VTexas A&M
p1285
sg28
V220
p1286
sg30
V2017
p1287
sg32
F24.0
sg33
VMAY 27, 1993
p1288
sg35
V6-7
p1289
sg37
VJalen Jones
p1290
sg39
I1610612740
sg40
V12
p1291
sg42
g66
sg44
V00
p1292
sg46
g23
sg47
I1627883
ssI1628396
(dp1293
g283
VNorth Carolina
p1294
sg285
V248
p1295
sg287
V2017
p1296
sg289
F19.0
sg290
VJAN 08, 1998
p1297
sg292
V6-10
p1298
sg294
VTony Bradley
p1299
sg296
I1610612762
sg297
V13
p1300
sg299
g66
sg301
V00
p1301
sg303
g227
sg304
I1628396
ssI1628397
(dp1302
g168
VCalifornia
p1303
sg170
V220
p1304
sg172
V2017
p1305
sg174
F20.0
sg175
VFEB 04, 1997
p1306
sg177
V6-10
p1307
sg179
VIvan Rabb
p1308
sg181
I1610612763
sg182
V10
p1309
sg183
g66
sg184
V00
p1310
sg186
g23
sg187
I1628397
ssI1628398
(dp1311
g73
VUtah
p1312
sg75
V220
p1313
sg77
V2017
p1314
sg79
F22.0
sg80
VJUL 24, 1995
p1315
sg82
V6-9
p1316
sg84
VKyle Kuzma
p1317
sg86
I1610612747
sg87
g122
sg89
g66
sg90
V00
p1318
sg92
g23
sg93
I1628398
ssI203503
(dp1319
g357
VNew Mexico
p1320
sg359
V221
p1321
sg361
V2017
p1322
sg363
F26.0
sg364
VNOV 10, 1991
p1323
sg366
V6-7
p1324
sg368
VTony Snell
p1325
sg370
I1610612749
sg371
V21
p1326
sg373
g43
sg374
V00
p1327
sg376
g70
sg377
I203503
ssI203505
(dp1328
g73
VMarquette
p1329
sg75
V200
p1330
sg77
V2017
p1331
sg79
F25.0
sg80
VJUL 17, 1992
p1332
sg82
V6-5
p1333
sg84
VVander Blue
p1334
sg86
I1610612747
sg87
V17
p1335
sg89
g123
sg90
V00
p1336
sg92
g70
sg93
I203505
ssI1628402
(dp1337
g26
VDuke
p1338
sg28
V205
p1339
sg30
V2017
p1340
sg32
F19.0
sg33
VMAY 04, 1998
p1341
sg35
V6-3
p1342
sg37
VFrank Jackson
p1343
sg39
I1610612740
sg40
V15
p1344
sg42
g66
sg44
V00
p1345
sg46
g70
sg47
I1628402
ssI203507
(dp1346
g357
VGreece
p1347
sg359
V222
p1348
sg361
V2017
p1349
sg363
F22.0
sg364
VDEC 06, 1994
p1350
sg366
V6-11
p1351
sg368
VGiannis Antetokounmpo
p1352
sg370
I1610612749
sg371
V34
p1353
sg373
g43
sg374
V00
p1354
sg376
g23
sg377
I203507
ssI204020
(dp1355
g229
VFresno State
p1356
sg231
V190
p1357
sg233
V2017
p1358
sg235
F25.0
sg236
VMAY 07, 1992
p1359
sg238
V6-4
p1360
sg240
VTyler Johnson
p1361
sg242
I1610612748
sg243
g258
sg245
g17
sg246
V00
p1362
sg248
g70
sg249
I204020
ssI201973
(dp1363
g283
VKinna, Sweden
p1364
sg285
V231
p1365
sg287
V2017
p1366
sg289
F30.0
sg290
VMAR 02, 1987
p1367
sg292
V6-10
p1368
sg294
VJonas Jerebko
p1369
sg296
I1610612762
sg297
g258
sg299
g217
sg301
V00
p1370
sg303
g23
sg304
I201973
ssI203512
(dp1371
g189
Nsg191
V220
p1372
sg193
V2017
p1373
sg195
F25.0
sg196
VJUL 26, 1992
p1374
sg198
V7-0
p1375
sg200
VLucas Nogueira
p1376
sg202
I1610612761
sg203
V92
p1377
sg205
g17
sg206
V00
p1378
sg208
g227
sg209
I203512
ssI2772
(dp1379
g446
VUCLA
p1380
sg448
V215
p1381
sg450
V2017
p1382
sg452
F32.0
sg453
VJUN 30, 1985
p1383
sg455
V6-8
p1384
sg457
VTrevor Ariza
p1385
sg459
I1610612745
sg460
g64
sg461
V13
p1386
sg463
V00
p1387
sg465
VF-G
p1388
sg466
I2772
ssI203903
(dp1389
g73
VMissouri
p1390
sg75
V194
p1391
sg77
V2017
p1392
sg79
F25.0
sg80
VJUN 07, 1992
p1393
sg82
V6-5
p1394
sg84
VJordan Clarkson
p1395
sg86
I1610612747
sg87
g462
sg89
g17
sg90
V00
p1396
sg92
g70
sg93
I203903
ssI203516
(dp1397
g168
VLong Beach State
p1398
sg170
V210
p1399
sg172
V2017
p1400
sg174
F27.0
sg175
VJUL 01, 1990
p1401
sg177
V6-7
p1402
sg179
VJames Ennis III
p1403
sg181
I1610612763
sg182
g258
sg183
g17
sg184
V00
p1404
sg186
g23
sg187
I203516
ssI203518
(dp1405
g398
Nsg400
V190
p1406
sg402
V2017
p1407
sg404
F24.0
sg405
VAUG 01, 1993
p1408
sg407
V6-6
p1409
sg409
VAlex Abrines
p1410
sg411
I1610612760
sg412
g258
sg414
g64
sg415
V00
p1411
sg417
g70
sg418
I203518
ssI1628415
(dp1412
g168
VOregon
p1413
sg170
V220
p1414
sg172
V2017
p1415
sg174
F21.0
sg175
VJAN 22, 1996
p1416
sg177
V6-6
p1417
sg179
VDillon Brooks
p1418
sg181
I1610612763
sg182
V24
p1419
sg183
g66
sg184
V00
p1420
sg186
VF-G
p1421
sg187
I1628415
ssI203521
(dp1422
g357
VSaint Mary's (CA)
p1423
sg359
V198
p1424
sg361
V2017
p1425
sg363
F27.0
sg364
VSEP 08, 1990
p1426
sg366
V6-4
p1427
sg368
VMatthew Dellavedova
p1428
sg370
I1610612749
sg371
g258
sg373
g43
sg374
V00
p1429
sg376
g70
sg377
I203521
ssI1628418
(dp1430
g73
VIndiana
p1431
sg75
V248
p1432
sg77
V2017
p1433
sg79
F20.0
sg80
VJUL 31, 1997
p1434
sg82
V6-10
p1435
sg84
VThomas Bryant
p1436
sg86
I1610612747
sg87
V31
p1437
sg89
g66
sg90
V00
p1438
sg92
g227
sg93
I1628418
ssI1628420
(dp1439
g95
VIowa State
p1440
sg97
V175
p1441
sg99
V2017
p1442
sg101
F22.0
sg102
VJUN 27, 1995
p1443
sg104
V6-3
p1444
sg106
VMonte Morris
p1445
sg108
I1610612743
sg109
V11
p1446
sg110
g66
sg112
V00
p1447
sg114
g70
sg115
I1628420
ssI1627770
(dp1448
g136
VOakland
p1449
sg138
V176
p1450
sg140
V2017
p1451
sg142
F22.0
sg143
VMAR 29, 1995
p1452
sg145
V5-9
p1453
sg147
VKay Felder
p1454
sg149
I1610612741
sg150
g17
sg152
g64
sg153
V00
p1455
sg155
g70
sg156
I1627770
ssI203526
(dp1456
g283
Nsg285
V179
p1457
sg287
V2017
p1458
sg289
F25.0
sg290
VMAY 19, 1992
p1459
sg292
V6-1
p1460
sg294
VRaul Neto
p1461
sg296
I1610612762
sg297
V25
p1462
sg299
g123
sg301
V00
p1463
sg303
g70
sg304
I203526
ssI1628424
(dp1464
g168
VArizona
p1465
sg170
V170
p1466
sg172
V2017
p1467
sg174
F20.0
sg175
VJUL 04, 1997
p1468
sg177
V6-4
p1469
sg179
VKobi Simmons
p1470
sg181
I1610612763
sg182
g123
sg183
g66
sg184
V00
p1471
sg186
g70
sg187
I1628424
ssI1628425
(dp1472
g357
VSouthern Methodist
p1473
sg359
V230
p1474
sg361
V2017
p1475
sg363
F22.0
sg364
VFEB 10, 1995
p1476
sg366
V6-6
p1477
sg368
VSterling Brown
p1478
sg370
I1610612749
sg371
V23
p1479
sg373
g66
sg374
V00
p1480
sg376
g70
sg377
I1628425
ssI1628429
(dp1481
g26
VDayton
p1482
sg28
V196
p1483
sg30
V2017
p1484
sg32
F23.0
sg33
VJUL 01, 1994
p1485
sg35
V6-5
p1486
sg37
VCharles Cooke
p1487
sg39
I1610612740
sg40
g43
sg42
g66
sg44
V00
p1488
sg46
g70
sg47
I1628429
ssI101139
(dp1489
g189
VSkyline HS (TX)
p1490
sg191
V225
p1491
sg193
V2017
p1492
sg195
F30.0
sg196
VMAR 18, 1987
p1493
sg198
V6-6
p1494
sg200
VCJ Miles
p1495
sg202
I1610612761
sg203
g122
sg205
V12
p1496
sg206
V00
p1497
sg208
VF-G
p1498
sg209
I101139
ssI201177
(dp1499
g261
VDuke
p1500
sg263
V240
p1501
sg265
V2017
p1502
sg267
F30.0
sg268
VFEB 28, 1987
p1503
sg270
V6-10
p1504
sg272
VJosh McRoberts
p1505
sg274
I1610612742
sg275
V13
p1506
sg277
V10
p1507
sg278
V00
p1508
sg280
VF-C
p1509
sg281
I201177
ssI203546
(dp1510
g26
VBelmont
p1511
sg28
V175
p1512
sg30
V2017
p1513
sg32
F26.0
sg33
VMAR 07, 1991
p1514
sg35
V6-3
p1515
sg37
VIan Clark
p1516
sg39
I1610612740
sg40
g123
sg42
g43
sg44
V00
p1517
sg46
g70
sg47
I203546
ssI203547
(dp1518
g283
VCampbell
p1519
sg285
V205
p1520
sg287
V2017
p1521
sg289
F27.0
sg290
VMAY 26, 1990
p1522
sg292
V6-8
p1523
sg294
VEric Griffin
p1524
sg296
I1610612762
sg297
V17
p1525
sg299
g66
sg301
V00
p1526
sg303
VC-F
p1527
sg304
I203547
ssI204060
(dp1528
g283
Nsg285
V226
p1529
sg287
V2017
p1530
sg289
F30.0
sg290
VOCT 02, 1987
p1531
sg292
V6-8
p1532
sg294
VJoe Ingles
p1533
sg296
I1610612762
sg297
g123
sg299
g17
sg301
V00
p1534
sg303
g23
sg304
I204060
ssI203482
(dp1535
g229
VGonzaga
p1536
sg231
V245
p1537
sg233
V2017
p1538
sg235
F26.0
sg236
VAPR 19, 1991
p1539
sg238
V7-0
p1540
sg240
VKelly Olynyk
p1541
sg242
I1610612748
sg243
g132
sg245
g43
sg246
V00
p1542
sg248
VC-F
p1543
sg249
I203482
ssI101150
(dp1544
g49
VSouth Gwinnett HS (GA)
p1545
sg51
V175
p1546
sg53
V2017
p1547
sg55
F31.0
sg56
VOCT 27, 1986
p1548
sg58
V6-1
p1549
sg60
VLou Williams
p1550
sg62
I1610612746
sg63
V23
p1551
sg65
V12
p1552
sg67
V00
p1553
sg69
g70
sg71
I101150
ssI1626245
(dp1554
g136
Nsg138
V280
p1555
sg140
V2017
p1556
sg142
F25.0
sg143
VJUL 07, 1992
p1557
sg145
V6-9
p1558
sg147
VCristiano Felicio
p1559
sg149
I1610612741
sg150
g462
sg152
g123
sg153
V00
p1560
sg155
VC-F
p1561
sg156
I1626245
ssI203552
(dp1562
g261
VDuke
p1563
sg263
V185
p1564
sg265
V2017
p1565
sg267
F27.0
sg268
VAUG 23, 1990
p1566
sg270
V6-2
p1567
sg272
VSeth Curry
p1568
sg274
I1610612742
sg275
V30
p1569
sg277
g43
sg278
V00
p1570
sg280
g70
sg281
I203552
ssI1628449
(dp1571
g2
VOregon
p1572
sg4
V200
p1573
sg6
V2017
p1574
sg8
F24.0
sg9
VJAN 11, 1993
p1575
sg11
V6-10
p1576
sg13
VChris Boucher
p1577
sg15
I1610612744
sg16
V25
p1578
sg18
g66
sg20
V00
p1579
sg22
g23
sg24
I1628449
ssI101108
(dp1580
g446
VWake Forest
p1581
sg448
V175
p1582
sg450
V2017
p1583
sg452
F32.0
sg453
VMAY 06, 1985
p1584
sg455
V6-0
p1585
sg457
VChris Paul
p1586
sg459
I1610612745
sg460
g17
sg461
V12
p1587
sg463
V00
p1588
sg465
g70
sg466
I101108
ssI1628462
(dp1589
g49
Nsg51
V196
p1590
sg53
V2017
p1591
sg55
F30.0
sg56
VMAR 19, 1987
p1592
sg58
V6-5
p1593
sg60
VMilos Teodosic
p1594
sg62
I1610612746
sg63
g43
sg65
g66
sg67
V00
p1595
sg69
g70
sg71
I1628462
ssI203485
(dp1596
g189
VNorth Carolina State
p1597
sg191
V189
p1598
sg193
V2017
p1599
sg195
F27.0
sg196
VAUG 26, 1990
p1600
sg198
V6-5
p1601
sg200
VLorenzo Brown
p1602
sg202
I1610612761
sg203
g43
sg205
g17
sg206
V00
p1603
sg208
g70
sg209
I203485
ssI1628467
(dp1604
g261
Nsg263
V220
p1605
sg265
V2017
p1606
sg267
F25.0
sg268
VJAN 29, 1992
p1607
sg270
V6-11
p1608
sg272
VMaxi Kleber
p1609
sg274
I1610612742
sg275
V42
p1610
sg277
g66
sg278
V00
p1611
sg280
g23
sg281
I1628467
ssI203486
(dp1612
g95
VDuke
p1613
sg97
V255
p1614
sg99
V2017
p1615
sg101
F27.0
sg102
VMAR 05, 1990
p1616
sg104
V6-11
p1617
sg106
VMason Plumlee
p1618
sg108
I1610612743
sg109
V24
p1619
sg110
g43
sg112
V00
p1620
sg114
VC-F
p1621
sg115
I203486
ssI1628470
(dp1622
g95
VSouth Carolina Upstate
p1623
sg97
V215
p1624
sg99
V2017
p1625
sg101
F26.0
sg102
VDEC 19, 1990
p1626
sg104
V6-6
p1627
sg106
VTorrey Craig
p1628
sg108
I1610612743
sg109
g17
sg110
g66
sg112
V00
p1629
sg114
VG-F
p1630
sg115
I1628470
ssI2738
(dp1631
g2
VArizona
p1632
sg4
V215
p1633
sg6
V2017
p1634
sg8
F33.0
sg9
VJAN 28, 1984
p1635
sg11
V6-6
p1636
sg13
VAndre Iguodala
p1637
sg15
I1610612744
sg16
g132
sg18
V13
p1638
sg20
V00
p1639
sg22
VG-F
p1640
sg24
I2738
ssI1628475
(dp1641
g229
VCentral Florida
p1642
sg231
V210
p1643
sg233
V2017
p1644
sg235
F24.0
sg236
VOCT 14, 1993
p1645
sg238
V6-5
p1646
sg240
VMatt Williams Jr.
p1647
sg242
I1610612748
sg243
V12
p1648
sg245
g66
sg246
V00
p1649
sg248
g70
sg249
I1628475
ssI1628476
(dp1650
g229
VMichigan
p1651
sg231
V185
p1652
sg233
V2017
p1653
sg235
F22.0
sg236
VAPR 03, 1995
p1654
sg238
V6-1
p1655
sg240
VDerrick Walton Jr.
p1656
sg242
I1610612748
sg243
V14
p1657
sg245
g66
sg246
V00
p1658
sg248
g70
sg249
I1628476
ssI1627786
(dp1659
g446
VIndiana
p1660
sg448
V218
p1661
sg450
V2017
p1662
sg452
F22.0
sg453
VDEC 30, 1994
p1663
sg455
V6-7
p1664
sg457
VTroy Williams
p1665
sg459
I1610612745
sg460
g164
sg461
g64
sg463
V00
p1666
sg465
g23
sg466
I1627786
ssI1628469
(dp1667
g136
VLouisiana State
p1668
sg138
V197
p1669
sg140
V2017
p1670
sg142
F21.0
sg143
VOCT 04, 1996
p1671
sg145
V6-4
p1672
sg147
VAntonio Blakeney
p1673
sg149
I1610612741
sg150
g132
sg152
g66
sg153
V00
p1674
sg155
g70
sg156
I1628469
ssI203585
(dp1675
g229
VKansas State
p1676
sg231
V200
p1677
sg233
V2017
p1678
sg235
F26.0
sg236
VJUL 29, 1991
p1679
sg238
V6-4
p1680
sg240
VRodney McGruder
p1681
sg242
I1610612748
sg243
V17
p1682
sg245
g64
sg246
V00
p1683
sg248
VG-F
p1684
sg249
I203585
ssI203076
(dp1685
g26
VKentucky
p1686
sg28
V253
p1687
sg30
V2017
p1688
sg32
F24.0
sg33
VMAR 11, 1993
p1689
sg35
V6-10
p1690
sg37
VAnthony Davis
p1691
sg39
I1610612740
sg40
V23
p1692
sg42
g164
sg44
V00
p1693
sg46
VF-C
p1694
sg47
I203076
ssI203079
(dp1695
g229
VSyracuse
p1696
sg231
V215
p1697
sg233
V2017
p1698
sg235
F25.0
sg236
VDEC 10, 1991
p1699
sg238
V6-4
p1700
sg240
VDion Waiters
p1701
sg242
I1610612748
sg243
V11
p1702
sg245
g164
sg246
V00
p1703
sg248
g70
sg249
I203079
ssI1628492
(dp1704
g261
VColorado State
p1705
sg263
V185
p1706
sg265
V2017
p1707
sg267
F23.0
sg268
VNOV 26, 1993
p1708
sg270
V6-4
p1709
sg272
VGian Clavell
p1710
sg274
I1610612742
sg275
g258
sg277
g66
sg278
V00
p1711
sg280
g70
sg281
I1628492
ssI203085
(dp1712
g49
VDuke
p1713
sg51
V200
p1714
sg53
V2017
p1715
sg55
F25.0
sg56
VAUG 01, 1992
p1716
sg58
V6-4
p1717
sg60
VAustin Rivers
p1718
sg62
I1610612746
sg63
V25
p1719
sg65
g164
sg67
V00
p1720
sg69
g70
sg71
I203085
ssI203089
(dp1721
g357
VNorth Carolina
p1722
sg359
V229
p1723
sg361
V2017
p1724
sg363
F26.0
sg364
VDEC 28, 1990
p1725
sg366
V6-11
p1726
sg368
VJohn Henson
p1727
sg370
I1610612749
sg371
V31
p1728
sg373
g164
sg374
V00
p1729
sg376
VF-C
p1730
sg377
I203089
ssI201976
(dp1731
g49
VArkansas
p1732
sg51
V185
p1733
sg53
V2017
p1734
sg55
F29.0
sg56
VJUL 12, 1988
p1735
sg58
V6-1
p1736
sg60
VPatrick Beverley
p1737
sg62
I1610612746
sg63
V21
p1738
sg65
g164
sg67
V00
p1739
sg69
g70
sg71
I201976
ssI201566
(dp1740
g398
VUCLA
p1741
sg400
V200
p1742
sg402
V2017
p1743
sg404
F28.0
sg405
VNOV 12, 1988
p1744
sg407
V6-3
p1745
sg409
VRussell Westbrook
p1746
sg411
I1610612760
sg412
g122
sg414
g132
sg415
V00
p1747
sg417
g70
sg418
I201566
ssI201568
(dp1748
g49
VSant'Angelo Lodigiano, Italy
p1749
sg51
V225
p1750
sg53
V2017
p1751
sg55
F29.0
sg56
VAUG 08, 1988
p1752
sg58
V6-10
p1753
sg60
VDanilo Gallinari
p1754
sg62
I1610612746
sg63
g258
sg65
g258
sg67
V00
p1755
sg69
g23
sg71
I201568
ssI201569
(dp1756
g446
VIndiana
p1757
sg448
V215
p1758
sg450
V2017
p1759
sg452
F28.0
sg453
VDEC 25, 1988
p1760
sg455
V6-4
p1761
sg457
VEric Gordon
p1762
sg459
I1610612745
sg460
V10
p1763
sg461
g132
sg463
V00
p1764
sg465
g70
sg466
I201569
ssI1891
(dp1765
g357
VArizona
p1766
sg359
V185
p1767
sg361
V2017
p1768
sg363
F40.0
sg364
VSEP 15, 1977
p1769
sg366
V6-2
p1770
sg368
VJason Terry
p1771
sg370
I1610612749
sg371
g17
sg373
V18
p1772
sg374
V00
p1773
sg376
g70
sg377
I1891
ssI201572
(dp1774
g73
VStanford
p1775
sg75
V268
p1776
sg77
V2017
p1777
sg79
F29.0
sg80
VAPR 01, 1988
p1778
sg82
V7-0
p1779
sg84
VBrook Lopez
p1780
sg86
I1610612747
sg87
V11
p1781
sg89
g132
sg90
V00
p1782
sg92
g227
sg93
I201572
ssI203110
(dp1783
g2
VMichigan State
p1784
sg4
V230
p1785
sg6
V2017
p1786
sg8
F27.0
sg9
VMAR 04, 1990
p1787
sg11
V6-7
p1788
sg13
VDraymond Green
p1789
sg15
I1610612744
sg16
V23
p1790
sg18
g164
sg20
V00
p1791
sg22
g23
sg24
I203110
ssI201577
(dp1792
g136
VStanford
p1793
sg138
V277
p1794
sg140
V2017
p1795
sg142
F29.0
sg143
VAPR 01, 1988
p1796
sg145
V7-0
p1797
sg147
VRobin Lopez
p1798
sg149
I1610612741
sg150
V42
p1799
sg152
g132
sg153
V00
p1800
sg155
g227
sg156
I201577
ssI203114
(dp1801
g357
VTexas A&M
p1802
sg359
V234
p1803
sg361
V2017
p1804
sg363
F26.0
sg364
VAUG 12, 1991
p1805
sg366
V6-8
p1806
sg368
VKhris Middleton
p1807
sg370
I1610612749
sg371
V22
p1808
sg373
g164
sg374
V00
p1809
sg376
g23
sg377
I203114
ssI203115
(dp1810
g95
VMemphis
p1811
sg97
V190
p1812
sg99
V2017
p1813
sg101
F26.0
sg102
VJAN 06, 1991
p1814
sg104
V6-6
p1815
sg106
VWill Barton
p1816
sg108
I1610612743
sg109
g164
sg110
g164
sg112
V00
p1817
sg114
VG-F
p1818
sg115
I203115
ssI201580
(dp1819
g2
VNevada
p1820
sg4
V270
p1821
sg6
V2017
p1822
sg8
F29.0
sg9
VJAN 19, 1988
p1823
sg11
V7-0
p1824
sg13
VJaVale McGee
p1825
sg15
I1610612744
sg16
g64
sg18
g132
sg20
V00
p1826
sg22
g227
sg24
I201580
ssI201582
(dp1827
g26
VSaint Etienne, France
p1828
sg28
V248
p1829
sg30
V2017
p1830
sg32
F29.0
sg33
VMAY 06, 1988
p1831
sg35
V7-2
p1832
sg37
VAlexis Ajinca
p1833
sg39
I1610612740
sg40
V42
p1834
sg42
g217
sg44
V00
p1835
sg46
g227
sg47
I201582
ssI200765
(dp1836
g26
VKentucky
p1837
sg28
V186
p1838
sg30
V2017
p1839
sg32
F31.0
sg33
VFEB 22, 1986
p1840
sg35
V6-1
p1841
sg37
VRajon Rondo
p1842
sg39
I1610612740
sg40
g132
sg42
V11
p1843
sg44
V00
p1844
sg46
g70
sg47
I200765
ssI1717
(dp1845
g261
VWurzburg, Germany
p1846
sg263
V245
p1847
sg265
V2017
p1848
sg267
F39.0
sg268
VJUN 19, 1978
p1849
sg270
V7-0
p1850
sg272
VDirk Nowitzki
p1851
sg274
I1610612742
sg275
V41
p1852
sg277
V19
p1853
sg278
V00
p1854
sg280
VF-C
p1855
sg281
I1717
ssI201586
(dp1856
g189
VBrazzaville, Rep. of Congo
p1857
sg191
V235
p1858
sg193
V2017
p1859
sg195
F28.0
sg196
VSEP 18, 1989
p1860
sg198
V6-10
p1861
sg200
VSerge Ibaka
p1862
sg202
I1610612761
sg203
g132
sg205
g258
sg206
V00
p1863
sg208
g23
sg209
I201586
ssI201589
(dp1864
g95
VKansas
p1865
sg97
V235
p1866
sg99
V2017
p1867
sg101
F29.0
sg102
VMAR 25, 1988
p1868
sg104
V6-9
p1869
sg106
VDarrell Arthur
p1870
sg108
I1610612743
sg109
V00
p1871
sg110
g258
sg112
V00
p1872
sg114
g23
sg115
I201589
ssI201961
(dp1873
g229
VNorth Carolina
p1874
sg231
V200
p1875
sg233
V2017
p1876
sg235
F29.0
sg236
VNOV 29, 1987
p1877
sg238
V6-5
p1878
sg240
VWayne Ellington
p1879
sg242
I1610612748
sg243
g123
sg245
g258
sg246
V00
p1880
sg248
g70
sg249
I201961
ssI201596
(dp1881
g168
VKansas
p1882
sg170
V190
p1883
sg172
V2017
p1884
sg174
F31.0
sg175
VMAY 19, 1986
p1885
sg177
V6-2
p1886
sg179
VMario Chalmers
p1887
sg181
I1610612763
sg182
g462
sg183
g258
sg184
V00
p1888
sg186
g70
sg187
I201596
ssI201599
(dp1889
g49
VTexas A&M
p1890
sg51
V265
p1891
sg53
V2017
p1892
sg55
F29.0
sg56
VJUL 21, 1988
p1893
sg58
V6-11
p1894
sg60
VDeAndre Jordan
p1895
sg62
I1610612746
sg63
g462
sg65
g132
sg67
V00
p1896
sg69
g227
sg71
I201599
ssI201600
(dp1897
g26
VTurkey
p1898
sg28
V255
p1899
sg30
V2017
p1900
sg32
F31.0
sg33
VJUL 04, 1986
p1901
sg35
V7-0
p1902
sg37
VOmer Asik
p1903
sg39
I1610612740
sg40
g17
sg42
g217
sg44
V00
p1904
sg46
g227
sg47
I201600
ssI201601
(dp1905
g446
VUCLA
p1906
sg448
V230
p1907
sg450
V2017
p1908
sg452
F31.0
sg453
VSEP 09, 1986
p1909
sg455
V6-8
p1910
sg457
VLuc Mbah a Moute
p1911
sg459
I1610612745
sg460
V12
p1912
sg461
g132
sg463
V00
p1913
sg465
g23
sg466
I201601
ssI1628035
(dp1914
g189
VWisc.-Green Bay
p1915
sg191
V215
p1916
sg193
V2017
p1917
sg195
F25.0
sg196
VSEP 17, 1992
p1918
sg198
V6-8
p1919
sg200
VAlfonzo McKinnie
p1920
sg202
I1610612761
sg203
V34
p1921
sg205
g66
sg206
V00
p1922
sg208
g23
sg209
I1628035
ssI203141
(dp1923
g357
VBosnia
p1924
sg359
V242
p1925
sg361
V2017
p1926
sg363
F32.0
sg364
VSEP 17, 1985
p1927
sg366
V6-9
p1928
sg368
VMirza Teletovic
p1929
sg370
I1610612749
sg371
V35
p1930
sg373
g164
sg374
V00
p1931
sg376
g23
sg377
I203141
ssI201609
(dp1932
g229
VLjubljana, Slovenia
p1933
sg231
V190
p1934
sg233
V2017
p1935
sg235
F31.0
sg236
VMAY 06, 1986
p1936
sg238
V6-3
p1937
sg240
VGoran Dragic
p1938
sg242
I1610612748
sg243
g217
sg245
g132
sg246
V00
p1939
sg248
g70
sg249
I201609
ssI1628399
(dp1940
g95
VSyracuse
p1941
sg97
V220
p1942
sg99
V2017
p1943
sg101
F21.0
sg102
VAPR 09, 1996
p1944
sg104
V6-9
p1945
sg106
VTyler Lydon
p1946
sg108
I1610612743
sg109
V20
p1947
sg110
g66
sg112
V00
p1948
sg114
g23
sg115
I1628399
ssI201628
(dp1949
g446
VCal State-Fullerton
p1950
sg448
V175
p1951
sg450
V2017
p1952
sg452
F33.0
sg453
VSEP 24, 1984
p1953
sg455
V6-2
p1954
sg457
VBobby Brown
p1955
sg459
I1610612745
sg460
g462
sg461
g17
sg463
V00
p1956
sg465
g70
sg466
I201628
ssI101106
(dp1957
g73
VUtah
p1958
sg75
V260
p1959
sg77
V2017
p1960
sg79
F32.0
sg80
VNOV 28, 1984
p1961
sg82
V7-0
p1962
sg84
VAndrew Bogut
p1963
sg86
I1610612747
sg87
V66
p1964
sg89
V12
p1965
sg90
V00
p1966
sg92
g227
sg93
I101106
ssI203186
(dp1967
g49
VSaint Louis
p1968
sg51
V245
p1969
sg53
V2017
p1970
sg55
F27.0
sg56
VMAY 16, 1990
p1971
sg58
V6-11
p1972
sg60
VWillie Reed
p1973
sg62
I1610612746
sg63
V35
p1974
sg65
g123
sg67
V00
p1975
sg69
g227
sg71
I203186
ssI201142
(dp1976
g2
VTexas
p1977
sg4
V240
p1978
sg6
V2017
p1979
sg8
F29.0
sg9
VSEP 29, 1988
p1980
sg11
V6-9
p1981
sg13
VKevin Durant
p1982
sg15
I1610612744
sg16
V35
p1983
sg18
V10
p1984
sg20
V00
p1985
sg22
g23
sg24
I201142
ssI201144
(dp1986
g168
VOhio State
p1987
sg170
V175
p1988
sg172
V2017
p1989
sg174
F30.0
sg175
VOCT 11, 1987
p1990
sg177
V6-1
p1991
sg179
VMike Conley
p1992
sg181
I1610612763
sg182
V11
p1993
sg183
V10
p1994
sg184
V00
p1995
sg186
g70
sg187
I201144
ssI1628404
(dp1996
g73
VVillanova
p1997
sg75
V215
p1998
sg77
V2017
p1999
sg79
F22.0
sg80
VMAR 06, 1995
p2000
sg82
V6-5
p2001
sg84
VJosh Hart
p2002
sg86
I1610612747
sg87
g164
sg89
g66
sg90
V00
p2003
sg92
g70
sg93
I1628404
ssI201147
(dp2004
g73
VFlorida
p2005
sg75
V186
p2006
sg77
V2017
p2007
sg79
F31.0
sg80
VMAR 05, 1986
p2008
sg82
V6-9
p2009
sg84
VCorey Brewer
p2010
sg86
I1610612747
sg87
g17
sg89
V10
p2011
sg90
V00
p2012
sg92
g23
sg93
I201147
ssI201148
(dp2013
g168
VNorth Carolina
p2014
sg170
V235
p2015
sg172
V2017
p2016
sg174
F30.0
sg175
VOCT 05, 1987
p2017
sg177
V6-10
p2018
sg179
VBrandan Wright
p2019
sg181
I1610612763
sg182
V34
p2020
sg183
g132
sg184
V00
p2021
sg186
VF-C
p2022
sg187
I201148
ssI202685
(dp2023
g189
VUtena, Lithuania
p2024
sg191
V255
p2025
sg193
V2017
p2026
sg195
F25.0
sg196
VMAY 06, 1992
p2027
sg198
V7-0
p2028
sg200
VJonas Valanciunas
p2029
sg202
I1610612761
sg203
V17
p2030
sg205
g164
sg206
V00
p2031
sg208
g227
sg209
I202685
ssI203710
(dp2032
g49
VNorth Carolina State
p2033
sg51
V230
p2034
sg53
V2017
p2035
sg55
F27.0
sg56
VFEB 06, 1990
p2036
sg58
V6-5
p2037
sg60
VC.J. Williams
p2038
sg62
I1610612746
sg63
g132
sg65
g66
sg67
V00
p2039
sg69
g70
sg71
I203710
ssI101109
(dp2040
g398
VNorth Carolina
p2041
sg400
V205
p2042
sg402
V2017
p2043
sg404
F33.0
sg405
VJUN 26, 1984
p2044
sg407
V6-1
p2045
sg409
VRaymond Felton
p2046
sg411
I1610612760
sg412
g123
sg414
V12
p2047
sg415
V00
p2048
sg417
g70
sg418
I101109
ssI203200
(dp2049
g136
VWashington
p2050
sg138
V185
p2051
sg140
V2017
p2052
sg142
F28.0
sg143
VAPR 05, 1989
p2053
sg145
V6-6
p2054
sg147
VJustin Holiday
p2055
sg149
I1610612741
sg150
g217
sg152
g43
sg153
V00
p2056
sg155
g70
sg156
I203200
ssI202691
(dp2057
g2
VWashington State
p2058
sg4
V215
p2059
sg6
V2017
p2060
sg8
F27.0
sg9
VFEB 08, 1990
p2061
sg11
V6-7
p2062
sg13
VKlay Thompson
p2063
sg15
I1610612744
sg16
V11
p2064
sg18
g462
sg20
V00
p2065
sg22
g70
sg24
I202691
ssI202692
(dp2066
g283
VColorado
p2067
sg285
V214
p2068
sg287
V2017
p2069
sg289
F26.0
sg290
VJUL 20, 1991
p2070
sg292
V6-6
p2071
sg294
VAlec Burks
p2072
sg296
I1610612762
sg297
V10
p2073
sg299
g462
sg301
V00
p2074
sg303
g70
sg304
I202692
ssI1628405
(dp2075
g261
VBaylor
p2076
sg263
V230
p2077
sg265
V2017
p2078
sg267
F22.0
sg268
VMAY 04, 1995
p2079
sg270
V6-10
p2080
sg272
VJohnathan Motley
p2081
sg274
I1610612742
sg275
g462
sg277
g66
sg278
V00
p2082
sg280
g23
sg281
I1628405
ssI203084
(dp2083
g261
VNorth Carolina
p2084
sg263
V225
p2085
sg265
V2017
p2086
sg267
F25.0
sg268
VMAY 30, 1992
p2087
sg270
V6-8
p2088
sg272
VHarrison Barnes
p2089
sg274
I1610612742
sg275
V40
p2090
sg277
g164
sg278
V00
p2091
sg280
g23
sg281
I203084
ssI203210
(dp2092
g168
VAlabama
p2093
sg170
V227
p2094
sg172
V2017
p2095
sg174
F27.0
sg175
VJUN 21, 1990
p2096
sg177
V6-9
p2097
sg179
VJaMychal Green
p2098
sg181
I1610612763
sg182
g122
sg183
g17
sg184
V00
p2099
sg186
g23
sg187
I203210
ssI201163
(dp2100
g95
VDePaul
p2101
sg97
V225
p2102
sg99
V2017
p2103
sg101
F30.0
sg102
VMAY 10, 1987
p2104
sg104
V6-9
p2105
sg106
VWilson Chandler
p2106
sg108
I1610612743
sg109
V21
p2107
sg110
g132
sg112
V00
p2108
sg114
g23
sg115
I201163
ssI202702
(dp2109
g95
VMorehead State
p2110
sg97
V228
p2111
sg99
V2017
p2112
sg101
F27.0
sg102
VNOV 19, 1989
p2113
sg104
V6-8
p2114
sg106
VKenneth Faried
p2115
sg108
I1610612743
sg109
V35
p2116
sg110
g462
sg112
V00
p2117
sg114
g23
sg115
I202702
ssI202703
(dp2118
g136
Nsg138
V238
p2119
sg140
V2017
p2120
sg142
F26.0
sg143
VFEB 11, 1991
p2121
sg145
V6-10
p2122
sg147
VNikola Mirotic
p2123
sg149
I1610612741
sg150
V44
p2124
sg152
g17
sg153
V00
p2125
sg155
g23
sg156
I202703
ssI1628408
(dp2126
g398
VSouth Carolina
p2127
sg400
V205
p2128
sg402
V2017
p2129
sg404
F21.0
sg405
VOCT 25, 1996
p2130
sg407
V6-6
p2131
sg409
VPJ Dozier
p2132
sg411
I1610612760
sg412
V35
p2133
sg414
g66
sg415
V00
p2134
sg417
g70
sg418
I1628408
ssI202713
(dp2135
g398
VDuke
p2136
sg400
V228
p2137
sg402
V2017
p2138
sg404
F29.0
sg405
VMAY 04, 1988
p2139
sg407
V6-8
p2140
sg409
VKyle Singler
p2141
sg411
I1610612760
sg412
V15
p2142
sg414
g164
sg415
V00
p2143
sg417
g23
sg418
I202713
ssI1627743
(dp2144
g446
VNotre Dame
p2145
sg448
V201
p2146
sg450
V2017
p2147
sg452
F23.0
sg453
VSEP 07, 1994
p2148
sg455
V6-1
p2149
sg457
VDemetrius Jackson
p2150
sg459
I1610612745
sg460
g123
sg461
g64
sg463
V00
p2151
sg465
g70
sg466
I1627743
ssI202718
(dp2152
g168
VFlorida
p2153
sg170
V230
p2154
sg172
V2017
p2155
sg174
F29.0
sg175
VOCT 25, 1988
p2156
sg177
V6-10
p2157
sg179
VChandler Parsons
p2158
sg181
I1610612763
sg182
V25
p2159
sg183
g462
sg184
V00
p2160
sg186
g23
sg187
I202718
ssI1628374
(dp2161
g136
VArizona
p2162
sg138
V230
p2163
sg140
V2017
p2164
sg142
F20.0
sg143
VMAY 22, 1997
p2165
sg145
V7-0
p2166
sg147
VLauri Markkanen
p2167
sg149
I1610612741
sg150
V24
p2168
sg152
g66
sg153
V00
p2169
sg155
g23
sg156
I1628374
ssI201188
(dp2170
g168
VBarcelona, Spain
p2171
sg170
V255
p2172
sg172
V2017
p2173
sg174
F32.0
sg175
VJAN 29, 1985
p2174
sg177
V7-1
p2175
sg179
VMarc Gasol
p2176
sg181
I1610612763
sg182
V33
p2177
sg183
g132
sg184
V00
p2178
sg186
g227
sg187
I201188
ssI204028
(dp2179
g446
VKansas
p2180
sg448
V250
p2181
sg450
V2017
p2182
sg452
F25.0
sg453
VNOV 22, 1991
p2183
sg455
V6-9
p2184
sg457
VTarik Black
p2185
sg459
I1610612745
sg460
V28
p2186
sg461
g17
sg463
V00
p2187
sg465
VF-C
p2188
sg466
I204028
ssI1628395
(dp2189
g2
VOregon
p2190
sg4
V224
p2191
sg6
V2017
p2192
sg8
F22.0
sg9
VJAN 07, 1995
p2193
sg11
V6-9
p2194
sg13
VJordan Bell
p2195
sg15
I1610612744
sg16
g123
sg18
g66
sg20
V00
p2196
sg22
g23
sg24
I1628395
ssI2403
(dp2197
g446
VSao Carlos, Brazil
p2198
sg448
V250
p2199
sg450
V2017
p2200
sg452
F35.0
sg453
VSEP 13, 1982
p2201
sg455
V6-11
p2202
sg457
VNene
p2203
sg459
I1610612745
sg460
V42
p2204
sg461
V15
p2205
sg463
V00
p2206
sg465
VC-F
p2207
sg466
I2403
ssI202732
(dp2208
g357
VKentucky
p2209
sg359
V209
p2210
sg361
V2017
p2211
sg363
F29.0
sg364
VMAR 31, 1988
p2212
sg366
V6-6
p2213
sg368
VDeAndre Liggins
p2214
sg370
I1610612749
sg371
V25
p2215
sg373
g43
sg374
V00
p2216
sg376
g70
sg377
I202732
ssI202734
(dp2217
g26
VPurdue
p2218
sg28
V191
p2219
sg30
V2017
p2220
sg32
F28.0
sg33
VFEB 25, 1989
p2221
sg35
V6-4
p2222
sg37
VE'Twaun Moore
p2223
sg39
I1610612740
sg40
V55
p2224
sg42
g462
sg44
V00
p2225
sg46
g70
sg47
I202734
ssI2546
(dp2226
g398
VSyracuse
p2227
sg400
V240
p2228
sg402
V2017
p2229
sg404
F33.0
sg405
VMAY 29, 1984
p2230
sg407
V6-8
p2231
sg409
VCarmelo Anthony
p2232
sg411
I1610612760
sg412
g217
sg414
V14
p2233
sg415
V00
p2234
sg417
g23
sg418
I2546
ssI1628414
(dp2235
g49
VSouth Carolina
p2236
sg51
V215
p2237
sg53
V2017
p2238
sg55
F22.0
sg56
VNOV 15, 1994
p2239
sg58
V6-5
p2240
sg60
VSindarius Thornwell
p2241
sg62
I1610612746
sg63
g122
sg65
g66
sg67
V00
p2242
sg69
g70
sg71
I1628414
ssI1626196
(dp2243
g229
VTennessee
p2244
sg231
V200
p2245
sg233
V2017
p2246
sg235
F24.0
sg236
VSEP 15, 1993
p2247
sg238
V6-6
p2248
sg240
VJosh Richardson
p2249
sg242
I1610612748
sg243
g122
sg245
g123
sg246
V00
p2250
sg248
g23
sg249
I1626196
ssI2555
(dp2251
g398
VKansas
p2252
sg400
V255
p2253
sg402
V2017
p2254
sg404
F37.0
sg405
VOCT 26, 1980
p2255
sg407
V6-10
p2256
sg409
VNick Collison
p2257
sg411
I1610612760
sg412
g43
sg414
V13
p2258
sg415
V00
p2259
sg417
g23
sg418
I2555
ss.