(dp0
I1626150
(dp1
VSCHOOL
p2
VKentucky
p3
sVWEIGHT
p4
V213
p5
sVSEASON
p6
V2017
p7
sVAGE
p8
F23.0
sVBIRTH_DATE
p9
VOCT 28, 1994
p10
sVHEIGHT
p11
V6-6
p12
sVPLAYER
p13
VAndrew Harrison
p14
sVTeamID
p15
I1610612763
sVNUM
p16
V5
p17
sVEXP
p18
V1
p19
sVLeagueID
p20
V00
p21
sVPOSITION
p22
VG
p23
sVPLAYER_ID
p24
I1626150
ssI1626153
(dp25
VSCHOOL
p26
VUtah
p27
sVWEIGHT
p28
V190
p29
sVSEASON
p30
V2017
p31
sVAGE
p32
F25.0
sVBIRTH_DATE
p33
VAPR 26, 1992
p34
sVHEIGHT
p35
V6-5
p36
sVPLAYER
p37
VDelon Wright
p38
sVTeamID
p39
I1610612761
sVNUM
p40
V55
p41
sVEXP
p42
V2
p43
sVLeagueID
p44
V00
p45
sVPOSITION
p46
g23
sVPLAYER_ID
p47
I1626153
ssI1626159
(dp48
VSCHOOL
p49
VDuke
p50
sVWEIGHT
p51
V225
p52
sVSEASON
p53
V2017
p54
sVAGE
p55
F21.0
sVBIRTH_DATE
p56
VMAR 26, 1996
p57
sVHEIGHT
p58
V6-7
p59
sVPLAYER
p60
VJustise Winslow
p61
sVTeamID
p62
I1610612748
sVNUM
p63
V20
p64
sVEXP
p65
g43
sVLeagueID
p66
V00
p67
sVPOSITION
p68
VF
p69
sVPLAYER_ID
p70
I1626159
ssI1627827
(dp71
VSCHOOL
p72
VFlorida
p73
sVWEIGHT
p74
V220
p75
sVSEASON
p76
V2017
p77
sVAGE
p78
F24.0
sVBIRTH_DATE
p79
VMAY 04, 1993
p80
sVHEIGHT
p81
V6-8
p82
sVPLAYER
p83
VDorian Finney-Smith
p84
sVTeamID
p85
I1610612742
sVNUM
p86
V10
p87
sVEXP
p88
g19
sVLeagueID
p89
V00
p90
sVPOSITION
p91
g69
sVPLAYER_ID
p92
I1627827
ssI200757
(dp93
VSCHOOL
p94
VVevey, Switzerland
p95
sVWEIGHT
p96
V220
p97
sVSEASON
p98
V2017
p99
sVAGE
p100
F33.0
sVBIRTH_DATE
p101
VMAY 02, 1984
p102
sVHEIGHT
p103
V6-7
p104
sVPLAYER
p105
VThabo Sefolosha
p106
sVTeamID
p107
I1610612762
sVNUM
p108
V22
p109
sVEXP
p110
V11
p111
sVLeagueID
p112
V00
p113
sVPOSITION
p114
g69
sVPLAYER_ID
p115
I200757
ssI2617
(dp116
g49
VFlorida
p117
sg51
V235
p118
sg53
V2017
p119
sg55
F37.0
sg56
VJUN 09, 1980
p120
sg58
V6-8
p121
sg60
VUdonis Haslem
p122
sg62
I1610612748
sg63
V40
p123
sg65
V14
p124
sg66
V00
p125
sg68
g69
sg70
I2617
ssI1626173
(dp126
VSCHOOL
p127
VUNLV
p128
sVWEIGHT
p129
V202
p130
sVSEASON
p131
V2017
p132
sVAGE
p133
F21.0
sVBIRTH_DATE
p134
VAUG 16, 1996
p135
sVHEIGHT
p136
V6-6
p137
sVPLAYER
p138
VRashad Vaughn
p139
sVTeamID
p140
I1610612749
sVNUM
p141
V20
p142
sVEXP
p143
g43
sVLeagueID
p144
V00
p145
sVPOSITION
p146
g23
sVPLAYER_ID
p147
I1626173
ssI1626175
(dp148
g49
VLouisiana State
p149
sg51
V235
p150
sg53
V2017
p151
sg55
F23.0
sg56
VJUL 09, 1994
p152
sg58
V6-8
p153
sg60
VJordan Mickey
p154
sg62
I1610612748
sg63
V25
p155
sg65
g43
sg66
V00
p156
sg68
VC-F
p157
sg70
I1626175
ssI200768
(dp158
g26
VVillanova
p159
sg28
V205
p160
sg30
V2017
p161
sg32
F31.0
sg33
VMAR 25, 1986
p162
sg35
V6-0
p163
sg37
VKyle Lowry
p164
sg39
I1610612761
sg40
V7
p165
sg42
V11
p166
sg44
V00
p167
sg46
g23
sg47
I200768
ssI1626177
(dp168
VSCHOOL
p169
VKentucky
p170
sVWEIGHT
p171
V255
p172
sVSEASON
p173
V2017
p174
sVAGE
p175
F22.0
sVBIRTH_DATE
p176
VSEP 22, 1995
p177
sVHEIGHT
p178
V7-0
p179
sVPLAYER
p180
VDakari Johnson
p181
sVTeamID
p182
I1610612760
sVNUM
p183
V44
p184
sVEXP
p185
VR
p186
sVLeagueID
p187
V00
p188
sVPOSITION
p189
VC
p190
sVPLAYER_ID
p191
I1626177
ssI1626181
(dp192
g26
VUCLA
p193
sg28
V215
p194
sg30
V2017
p195
sg32
F24.0
sg33
VMAY 25, 1993
p196
sg35
V6-4
p197
sg37
VNorman Powell
p198
sg39
I1610612761
sg40
V24
p199
sg42
g43
sg44
V00
p200
sg46
VF-G
p201
sg47
I1626181
ssI1626185
(dp202
g2
VLouisiana State
p203
sg4
V239
p204
sg6
V2017
p205
sg8
F23.0
sg9
VMAY 24, 1994
p206
sg11
V6-10
p207
sg13
VJarell Martin
p208
sg15
I1610612763
sg16
g19
sg18
g43
sg20
V00
p209
sg22
g69
sg24
I1626185
ssI202083
(dp210
g72
VMarquette
p211
sg74
V220
p212
sg76
V2017
p213
sg78
F31.0
sg79
VOCT 14, 1986
p214
sg81
V6-5
p215
sg83
VWesley Matthews
p216
sg85
I1610612742
sg86
V23
p217
sg88
V8
p218
sg89
V00
p219
sg91
VG-F
p220
sg92
I202083
ssI202324
(dp221
g94
VGeorgia Tech
p222
sg96
V265
p223
sg98
V2017
p224
sg100
F26.0
sg101
VJUL 15, 1991
p225
sg103
V6-10
p226
sg105
VDerrick Favors
p227
sg107
I1610612762
sg108
V15
p228
sg110
g165
sg112
V00
p229
sg114
VF-C
p230
sg115
I202324
ssI202327
(dp231
g94
VBaylor
p232
sg96
V245
p233
sg98
V2017
p234
sg100
F30.0
sg101
VMAY 20, 1987
p235
sg103
V6-10
p236
sg105
VEkpe Udoh
p237
sg107
I1610612762
sg108
V33
p238
sg110
g17
sg112
V00
p239
sg114
VC-F
p240
sg115
I202327
ssI1627738
(dp241
g2
VMichigan State
p242
sg4
V237
p243
sg6
V2017
p244
sg8
F20.0
sg9
VDEC 02, 1996
p245
sg11
V6-11
p246
sg13
VDeyonta Davis
p247
sg15
I1610612763
sg16
V21
p248
sg18
g19
sg20
V00
p249
sg22
VC-F
p250
sg24
I1627738
ssI202331
(dp251
g169
VFresno State
p252
sg171
V220
p253
sg173
V2017
p254
sg175
F27.0
sg176
VMAY 02, 1990
p255
sg178
V6-9
p256
sg180
VPaul George
p257
sg182
I1610612760
sg183
V13
p258
sg185
g165
sg187
V00
p259
sg189
g69
sg191
I202331
ssI1626205
(dp260
g2
VTexas-El Paso
p261
sg4
V208
p262
sg6
V2017
p263
sg8
F23.0
sg9
VAUG 05, 1994
p264
sg11
V6-8
p265
sg13
VVincent Hunter
p266
sg15
I1610612763
sg16
V32
p267
sg18
g186
sg20
V00
p268
sg22
g69
sg24
I1626205
ssI202335
(dp269
g169
VKentucky
p270
sg171
V230
p271
sg173
V2017
p272
sg175
F28.0
sg176
VMAR 14, 1989
p273
sg178
V6-9
p274
sg180
VPatrick Patterson
p275
sg182
I1610612760
sg183
V54
p276
sg185
g165
sg187
V00
p277
sg189
g69
sg191
I202335
ssI202339
(dp278
g127
VKentucky
p279
sg129
V205
p280
sg131
V2017
p281
sg133
F27.0
sg134
VDEC 09, 1989
p282
sg136
V6-1
p283
sg138
VEric Bledsoe
p284
sg140
I1610612749
sg141
V6
p285
sg143
g165
sg144
V00
p286
sg146
g23
sg147
I202339
ssI1627748
(dp287
g127
Nsg129
V223
p288
sg131
V2017
p289
sg133
F20.0
sg134
VFEB 25, 1997
p290
sg136
V7-1
p291
sg138
VThon Maker
p292
sg140
I1610612749
sg141
g165
sg143
g19
sg144
V00
p293
sg146
VC-F
p294
sg147
I1627748
ssI1627751
(dp295
g26
VUtah
p296
sg28
V230
p297
sg30
V2017
p298
sg32
F22.0
sg33
VOCT 15, 1995
p299
sg35
V7-0
p300
sg37
VJakob Poeltl
p301
sg39
I1610612761
sg40
V42
p302
sg42
g19
sg44
V00
p303
sg46
g190
sg47
I1627751
ssI1626220
(dp304
g94
VBaylor
p305
sg96
V226
p306
sg98
V2017
p307
sg100
F24.0
sg101
VJUN 05, 1993
p308
sg103
V6-6
p309
sg105
VRoyce O'Neale
p310
sg107
I1610612762
sg108
V23
p311
sg110
g186
sg112
V00
p312
sg114
g69
sg115
I1626220
ssI1627762
(dp313
g127
VWeber State
p314
sg129
V235
p315
sg131
V2017
p316
sg133
F23.0
sg134
VJAN 28, 1994
p317
sg136
V6-9
p318
sg138
VJoel Bolomboy
p319
sg140
I1610612749
sg141
V24
p320
sg143
g19
sg144
V00
p321
sg146
VF-C
p322
sg147
I1627762
ssI202355
(dp323
g49
VMarshall
p324
sg51
V265
p325
sg53
V2017
p326
sg55
F28.0
sg56
VJUN 13, 1989
p327
sg58
V7-0
p328
sg60
VHassan Whiteside
p329
sg62
I1610612748
sg63
V21
p330
sg65
g17
sg66
V00
p331
sg68
g190
sg70
I202355
ssI200826
(dp332
g72
VNortheastern
p333
sg74
V185
p334
sg76
V2017
p335
sg78
F33.0
sg79
VJUN 26, 1984
p336
sg81
V6-0
p337
sg83
VJ.J. Barea
p338
sg85
I1610612742
sg86
g17
sg88
V11
p339
sg89
V00
p340
sg91
g23
sg92
I200826
ssI1627772
(dp341
g169
VConnecticut
p342
sg171
V195
p343
sg173
V2017
p344
sg175
F22.0
sg176
VAUG 08, 1995
p345
sg178
V6-7
p346
sg180
VDaniel Hamilton
p347
sg182
I1610612760
sg183
V25
p348
sg185
g186
sg187
V00
p349
sg189
g23
sg191
I1627772
ssI1627773
(dp350
g49
VPurdue
p351
sg51
V260
p352
sg53
V2017
p353
sg55
F25.0
sg56
VAUG 27, 1992
p354
sg58
V7-0
p355
sg60
VAJ Hammons
p356
sg62
I1610612748
sg63
V4
p357
sg65
g19
sg66
V00
p358
sg68
g190
sg70
I1627773
ssI1627780
(dp359
g127
VOregon State
p360
sg129
V190
p361
sg131
V2017
p362
sg133
F24.0
sg134
VDEC 01, 1992
p363
sg136
V6-3
p364
sg138
VGary Payton II
p365
sg140
I1610612749
sg141
V0
p366
sg143
g19
sg144
V00
p367
sg146
g23
sg147
I1627780
ssI203500
(dp368
g169
VPittsburgh
p369
sg171
V255
p370
sg173
V2017
p371
sg175
F24.0
sg176
VJUL 20, 1993
p372
sg178
V7-0
p373
sg180
VSteven Adams
p374
sg182
I1610612760
sg183
V12
p375
sg185
g357
sg187
V00
p376
sg189
g190
sg191
I203500
ssI1627782
(dp377
g2
VKansas
p378
sg4
V230
p379
sg6
V2017
p380
sg8
F23.0
sg9
VSEP 30, 1994
p381
sg11
V6-5
p382
sg13
VWayne Selden
p383
sg15
I1610612763
sg16
g165
sg18
g19
sg20
V00
p384
sg22
VG-F
p385
sg24
I1627782
ssI1627783
(dp386
g26
VNew Mexico State
p387
sg28
V230
p388
sg30
V2017
p389
sg32
F23.0
sg33
VAPR 02, 1994
p390
sg35
V6-9
p391
sg37
VPascal Siakam
p392
sg39
I1610612761
sg40
V43
p393
sg42
g19
sg44
V00
p394
sg46
g69
sg47
I1627783
ssI203918
(dp395
g94
VDuke
p396
sg96
V206
p397
sg98
V2017
p398
sg100
F25.0
sg101
VOCT 20, 1992
p399
sg103
V6-8
p400
sg105
VRodney Hood
p401
sg107
I1610612762
sg108
g17
sg110
V3
p402
sg112
V00
p403
sg114
g23
sg115
I203918
ssI1626257
(dp404
g72
Nsg74
V235
p405
sg76
V2017
p406
sg78
F31.0
sg79
VJUN 15, 1986
p407
sg81
V7-2
p408
sg83
VSalah Mejri
p409
sg85
I1610612742
sg86
V50
p410
sg88
g43
sg89
V00
p411
sg91
g190
sg92
I1626257
ssI1626259
(dp412
g26
VHoly Cross
p413
sg28
V210
p414
sg30
V2017
p415
sg32
F24.0
sg33
VMAR 06, 1993
p416
sg35
V6-7
p417
sg37
VMalcolm Miller
p418
sg39
I1610612761
sg40
V13
p419
sg42
g186
sg44
V00
p420
sg46
g69
sg47
I1626259
ssI203924
(dp421
g169
VSyracuse
p422
sg171
V220
p423
sg173
V2017
p424
sg175
F23.0
sg176
VMAR 12, 1994
p425
sg178
V6-9
p426
sg180
VJerami Grant
p427
sg182
I1610612760
sg183
V9
p428
sg185
g402
sg187
V00
p429
sg189
g69
sg191
I203924
ssI2207
(dp430
g94
VArkansas
p431
sg96
V240
p432
sg98
V2017
p433
sg100
F36.0
sg101
VJUN 29, 1981
p434
sg103
V6-7
p435
sg105
VJoe Johnson
p436
sg107
I1610612762
sg108
g285
sg110
V16
p437
sg112
V00
p438
sg114
VG-F
p439
sg115
I2207
ssI203939
(dp440
g72
VStanford
p441
sg74
V240
p442
sg76
V2017
p443
sg78
F26.0
sg79
VJUL 20, 1991
p444
sg81
V6-11
p445
sg83
VDwight Powell
p446
sg85
I1610612742
sg86
g165
sg88
g402
sg89
V00
p447
sg91
VF-C
p448
sg92
I203939
ssI1627812
(dp449
g72
VIndiana
p450
sg74
V180
p451
sg76
V2017
p452
sg78
F24.0
sg79
VMAY 09, 1993
p453
sg81
V6-0
p454
sg83
VYogi Ferrell
p455
sg85
I1610612742
sg86
V11
p456
sg88
g19
sg89
V00
p457
sg91
g23
sg92
I1627812
ssI2734
(dp458
g72
VWisconsin
p459
sg74
V185
p460
sg76
V2017
p461
sg78
F34.0
sg79
VFEB 27, 1983
p462
sg81
V6-3
p463
sg83
VDevin Harris
p464
sg85
I1610612742
sg86
V34
p465
sg88
V13
p466
sg89
V00
p467
sg91
g23
sg92
I2734
ssI203953
(dp468
g127
VDuke
p469
sg129
V250
p470
sg131
V2017
p471
sg133
F22.0
sg134
VMAR 15, 1995
p472
sg136
V6-8
p473
sg138
VJabari Parker
p474
sg140
I1610612749
sg141
V12
p475
sg143
g402
sg144
V00
p476
sg146
g69
sg147
I203953
ssI1627763
(dp477
g127
VVirginia
p478
sg129
V215
p479
sg131
V2017
p480
sg133
F24.0
sg134
VDEC 11, 1992
p481
sg136
V6-5
p482
sg138
VMalcolm Brogdon
p483
sg140
I1610612749
sg141
V13
p484
sg143
g19
sg144
V00
p485
sg146
g23
sg147
I1627763
ssI203957
(dp486
g94
Nsg96
V190
p487
sg98
V2017
p488
sg100
F22.0
sg101
VJUL 13, 1995
p489
sg103
V6-6
p490
sg105
VDante Exum
p491
sg107
I1610612762
sg108
V11
p492
sg110
g43
sg112
V00
p493
sg114
g23
sg115
I203957
ssI1627832
(dp494
g26
VWichita State
p495
sg28
V195
p496
sg30
V2017
p497
sg32
F23.0
sg33
VFEB 25, 1994
p498
sg35
V6-0
p499
sg37
VFred VanVleet
p500
sg39
I1610612761
sg40
V23
p501
sg42
g19
sg44
V00
p502
sg46
g23
sg47
I1627832
ssI203962
(dp503
g169
VStanford
p504
sg171
V230
p505
sg173
V2017
p506
sg175
F25.0
sg176
VDEC 19, 1991
p507
sg178
V6-7
p508
sg180
VJosh Huestis
p509
sg182
I1610612760
sg183
V34
p510
sg185
g43
sg187
V00
p511
sg189
g69
sg191
I203962
ssI203457
(dp512
g72
VKentucky
p513
sg74
V220
p514
sg76
V2017
p515
sg78
F23.0
sg79
VAPR 10, 1994
p516
sg81
V6-11
p517
sg83
VNerlens Noel
p518
sg85
I1610612742
sg86
g402
sg88
g402
sg89
V00
p519
sg91
g190
sg92
I203457
ssI203460
(dp520
g169
VColorado
p521
sg171
V210
p522
sg173
V2017
p523
sg175
F25.0
sg176
VDEC 04, 1991
p524
sg178
V6-7
p525
sg180
VAndre Roberson
p526
sg182
I1610612760
sg183
V21
p527
sg185
g357
sg187
V00
p528
sg189
g23
sg191
I203460
ssI203463
(dp529
g2
VKansas
p530
sg4
V195
p531
sg6
V2017
p532
sg8
F24.0
sg9
VFEB 11, 1993
p533
sg11
V6-5
p534
sg13
VBen McLemore
p535
sg15
I1610612763
sg16
V23
p536
sg18
g357
sg20
V00
p537
sg22
g23
sg24
I203463
ssI1627855
(dp538
g49
VFlorida State
p539
sg51
V215
p540
sg53
V2017
p541
sg55
F25.0
sg56
VAUG 13, 1992
p542
sg58
V6-8
p543
sg60
VOkaro White
p544
sg62
I1610612748
sg63
V15
p545
sg65
g19
sg66
V00
p546
sg68
g69
sg70
I1627855
ssI201936
(dp547
g2
VMemphis
p548
sg4
V220
p549
sg6
V2017
p550
sg8
F28.0
sg9
VSEP 19, 1989
p551
sg11
V6-6
p552
sg13
VTyreke Evans
p553
sg15
I1610612763
sg16
V12
p554
sg18
g218
sg20
V00
p555
sg22
VG-F
p556
sg24
I201936
ssI201937
(dp557
g94
VEl Masnou, Spain
p558
sg96
V190
p559
sg98
V2017
p560
sg100
F27.0
sg101
VOCT 21, 1990
p561
sg103
V6-4
p562
sg105
VRicky Rubio
p563
sg107
I1610612762
sg108
g402
sg110
g285
sg112
V00
p564
sg114
g23
sg115
I201937
ssI1628372
(dp565
g72
VNorth Carolina State
p566
sg74
V195
p567
sg76
V2017
p568
sg78
F19.0
sg79
VNOV 25, 1997
p569
sg81
V6-3
p570
sg83
VDennis Smith Jr.
p571
sg85
I1610612742
sg86
g19
sg88
g186
sg89
V00
p572
sg91
g23
sg92
I1628372
ssI201942
(dp573
g26
VSouthern California
p574
sg28
V220
p575
sg30
V2017
p576
sg32
F28.0
sg33
VAUG 07, 1989
p577
sg35
V6-7
p578
sg37
VDeMar DeRozan
p579
sg39
I1610612761
sg40
V10
p580
sg42
g218
sg44
V00
p581
sg46
g23
sg47
I201942
ssI203481
(dp582
g72
VKansas
p583
sg74
V230
p584
sg76
V2017
p585
sg78
F27.0
sg79
VMAR 07, 1990
p586
sg81
V7-0
p587
sg83
VJeff Withey
p588
sg85
I1610612742
sg86
V17
p589
sg88
g357
sg89
V00
p590
sg91
g190
sg92
I203481
ssI1628378
(dp591
g94
VLouisville
p592
sg96
V215
p593
sg98
V2017
p594
sg100
F21.0
sg101
VSEP 07, 1996
p595
sg103
V6-3
p596
sg105
VDonovan Mitchell
p597
sg107
I1610612762
sg108
V45
p598
sg110
g186
sg112
V00
p599
sg114
g23
sg115
I1628378
ssI201949
(dp600
g49
VWake Forest
p601
sg51
V240
p602
sg53
V2017
p603
sg55
F30.0
sg56
VFEB 20, 1987
p604
sg58
V6-8
p605
sg60
VJames Johnson
p606
sg62
I1610612748
sg63
V16
p607
sg65
g218
sg66
V00
p608
sg68
g69
sg70
I201949
ssI203998
(dp609
g26
Nsg28
V205
p610
sg30
V2017
p611
sg32
F22.0
sg33
VSEP 21, 1995
p612
sg35
V6-9
p613
sg37
VBruno Caboclo
p614
sg39
I1610612761
sg40
g17
sg42
g402
sg44
V00
p615
sg46
g69
sg47
I203998
ssI1628384
(dp616
g26
VIndiana
p617
sg28
V235
p618
sg30
V2017
p619
sg32
F20.0
sg33
VJUL 17, 1997
p620
sg35
V6-8
p621
sg37
VOG Anunoby
p622
sg39
I1610612761
sg40
g402
sg42
g186
sg44
V00
p623
sg46
g69
sg47
I1628384
ssI203489
(dp624
g94
VSouth Dakota State
p625
sg96
V190
p626
sg98
V2017
p627
sg100
F26.0
sg101
VMAY 15, 1991
p628
sg103
V6-4
p629
sg105
VNate Wolters
p630
sg107
I1610612762
sg108
V16
p631
sg110
g43
sg112
V00
p632
sg114
g23
sg115
I203489
ssI1628389
(dp633
g49
VKentucky
p634
sg51
V255
p635
sg53
V2017
p636
sg55
F20.0
sg56
VJUL 18, 1997
p637
sg58
V6-10
p638
sg60
VBam Adebayo
p639
sg62
I1610612748
sg63
V13
p640
sg65
g186
sg66
V00
p641
sg68
VC-F
p642
sg70
I1628389
ssI1628390
(dp643
g169
Nsg171
V184
p644
sg173
V2017
p645
sg175
F19.0
sg176
VMAY 17, 1998
p646
sg178
V6-7
p647
sg180
VTerrance Ferguson
p648
sg182
I1610612760
sg183
V23
p649
sg185
g186
sg187
V00
p650
sg189
g23
sg191
I1628390
ssI1628391
(dp651
g127
VMichigan
p652
sg129
V236
p653
sg131
V2017
p654
sg133
F21.0
sg134
VFEB 19, 1996
p655
sg136
V6-10
p656
sg138
VD.J. Wilson
p657
sg140
I1610612749
sg141
g17
sg143
g186
sg144
V00
p658
sg146
g69
sg147
I1628391
ssI203497
(dp659
g94
VFrance
p660
sg96
V245
p661
sg98
V2017
p662
sg100
F25.0
sg101
VJUN 26, 1992
p663
sg103
V7-1
p664
sg105
VRudy Gobert
p665
sg107
I1610612762
sg108
V27
p666
sg110
g357
sg112
V00
p667
sg114
g190
sg115
I203497
ssI1628396
(dp668
g94
VNorth Carolina
p669
sg96
V248
p670
sg98
V2017
p671
sg100
F19.0
sg101
VJAN 08, 1998
p672
sg103
V6-10
p673
sg105
VTony Bradley
p674
sg107
I1610612762
sg108
V13
p675
sg110
g186
sg112
V00
p676
sg114
g190
sg115
I1628396
ssI1628397
(dp677
g2
VCalifornia
p678
sg4
V220
p679
sg6
V2017
p680
sg8
F20.0
sg9
VFEB 04, 1997
p681
sg11
V6-10
p682
sg13
VIvan Rabb
p683
sg15
I1610612763
sg16
V10
p684
sg18
g186
sg20
V00
p685
sg22
g69
sg24
I1628397
ssI203503
(dp686
g127
VNew Mexico
p687
sg129
V221
p688
sg131
V2017
p689
sg133
F26.0
sg134
VNOV 10, 1991
p690
sg136
V6-7
p691
sg138
VTony Snell
p692
sg140
I1610612749
sg141
V21
p693
sg143
g357
sg144
V00
p694
sg146
g23
sg147
I203503
ssI203507
(dp695
g127
VGreece
p696
sg129
V222
p697
sg131
V2017
p698
sg133
F22.0
sg134
VDEC 06, 1994
p699
sg136
V6-11
p700
sg138
VGiannis Antetokounmpo
p701
sg140
I1610612749
sg141
V34
p702
sg143
g357
sg144
V00
p703
sg146
g69
sg147
I203507
ssI204020
(dp704
g49
VFresno State
p705
sg51
V190
p706
sg53
V2017
p707
sg55
F25.0
sg56
VMAY 07, 1992
p708
sg58
V6-4
p709
sg60
VTyler Johnson
p710
sg62
I1610612748
sg63
g218
sg65
g402
sg66
V00
p711
sg68
g23
sg70
I204020
ssI201973
(dp712
g94
VKinna, Sweden
p713
sg96
V231
p714
sg98
V2017
p715
sg100
F30.0
sg101
VMAR 02, 1987
p716
sg103
V6-10
p717
sg105
VJonas Jerebko
p718
sg107
I1610612762
sg108
g218
sg110
g165
sg112
V00
p719
sg114
g69
sg115
I201973
ssI203512
(dp720
g26
Nsg28
V220
p721
sg30
V2017
p722
sg32
F25.0
sg33
VJUL 26, 1992
p723
sg35
V7-0
p724
sg37
VLucas Nogueira
p725
sg39
I1610612761
sg40
V92
p726
sg42
g402
sg44
V00
p727
sg46
g190
sg47
I203512
ssI203516
(dp728
g2
VLong Beach State
p729
sg4
V210
p730
sg6
V2017
p731
sg8
F27.0
sg9
VJUL 01, 1990
p732
sg11
V6-7
p733
sg13
VJames Ennis III
p734
sg15
I1610612763
sg16
g218
sg18
g402
sg20
V00
p735
sg22
g69
sg24
I203516
ssI203518
(dp736
g169
Nsg171
V190
p737
sg173
V2017
p738
sg175
F24.0
sg176
VAUG 01, 1993
p739
sg178
V6-6
p740
sg180
VAlex Abrines
p741
sg182
I1610612760
sg183
g218
sg185
g19
sg187
V00
p742
sg189
g23
sg191
I203518
ssI1628415
(dp743
g2
VOregon
p744
sg4
V220
p745
sg6
V2017
p746
sg8
F21.0
sg9
VJAN 22, 1996
p747
sg11
V6-6
p748
sg13
VDillon Brooks
p749
sg15
I1610612763
sg16
V24
p750
sg18
g186
sg20
V00
p751
sg22
VF-G
p752
sg24
I1628415
ssI203521
(dp753
g127
VSaint Mary's (CA)
p754
sg129
V198
p755
sg131
V2017
p756
sg133
F27.0
sg134
VSEP 08, 1990
p757
sg136
V6-4
p758
sg138
VMatthew Dellavedova
p759
sg140
I1610612749
sg141
g218
sg143
g357
sg144
V00
p760
sg146
g23
sg147
I203521
ssI203526
(dp761
g94
Nsg96
V179
p762
sg98
V2017
p763
sg100
F25.0
sg101
VMAY 19, 1992
p764
sg103
V6-1
p765
sg105
VRaul Neto
p766
sg107
I1610612762
sg108
V25
p767
sg110
g43
sg112
V00
p768
sg114
g23
sg115
I203526
ssI1628424
(dp769
g2
VArizona
p770
sg4
V170
p771
sg6
V2017
p772
sg8
F20.0
sg9
VJUL 04, 1997
p773
sg11
V6-4
p774
sg13
VKobi Simmons
p775
sg15
I1610612763
sg16
g43
sg18
g186
sg20
V00
p776
sg22
g23
sg24
I1628424
ssI1628425
(dp777
g127
VSouthern Methodist
p778
sg129
V230
p779
sg131
V2017
p780
sg133
F22.0
sg134
VFEB 10, 1995
p781
sg136
V6-6
p782
sg138
VSterling Brown
p783
sg140
I1610612749
sg141
V23
p784
sg143
g186
sg144
V00
p785
sg146
g23
sg147
I1628425
ssI101139
(dp786
g26
VSkyline HS (TX)
p787
sg28
V225
p788
sg30
V2017
p789
sg32
F30.0
sg33
VMAR 18, 1987
p790
sg35
V6-6
p791
sg37
VCJ Miles
p792
sg39
I1610612761
sg40
g366
sg42
V12
p793
sg44
V00
p794
sg46
VF-G
p795
sg47
I101139
ssI201177
(dp796
g72
VDuke
p797
sg74
V240
p798
sg76
V2017
p799
sg78
F30.0
sg79
VFEB 28, 1987
p800
sg81
V6-10
p801
sg83
VJosh McRoberts
p802
sg85
I1610612742
sg86
V13
p803
sg88
V10
p804
sg89
V00
p805
sg91
VF-C
p806
sg92
I201177
ssI203547
(dp807
g94
VCampbell
p808
sg96
V205
p809
sg98
V2017
p810
sg100
F27.0
sg101
VMAY 26, 1990
p811
sg103
V6-8
p812
sg105
VEric Griffin
p813
sg107
I1610612762
sg108
V17
p814
sg110
g186
sg112
V00
p815
sg114
VC-F
p816
sg115
I203547
ssI204060
(dp817
g94
Nsg96
V226
p818
sg98
V2017
p819
sg100
F30.0
sg101
VOCT 02, 1987
p820
sg103
V6-8
p821
sg105
VJoe Ingles
p822
sg107
I1610612762
sg108
g43
sg110
g402
sg112
V00
p823
sg114
g69
sg115
I204060
ssI203482
(dp824
g49
VGonzaga
p825
sg51
V245
p826
sg53
V2017
p827
sg55
F26.0
sg56
VAPR 19, 1991
p828
sg58
V7-0
p829
sg60
VKelly Olynyk
p830
sg62
I1610612748
sg63
g428
sg65
g357
sg66
V00
p831
sg68
VC-F
p832
sg70
I203482
ssI203552
(dp833
g72
VDuke
p834
sg74
V185
p835
sg76
V2017
p836
sg78
F27.0
sg79
VAUG 23, 1990
p837
sg81
V6-2
p838
sg83
VSeth Curry
p839
sg85
I1610612742
sg86
V30
p840
sg88
g357
sg89
V00
p841
sg91
g23
sg92
I203552
ssI203485
(dp842
g26
VNorth Carolina State
p843
sg28
V189
p844
sg30
V2017
p845
sg32
F27.0
sg33
VAUG 26, 1990
p846
sg35
V6-5
p847
sg37
VLorenzo Brown
p848
sg39
I1610612761
sg40
g357
sg42
g402
sg44
V00
p849
sg46
g23
sg47
I203485
ssI1628467
(dp850
g72
Nsg74
V220
p851
sg76
V2017
p852
sg78
F25.0
sg79
VJAN 29, 1992
p853
sg81
V6-11
p854
sg83
VMaxi Kleber
p855
sg85
I1610612742
sg86
V42
p856
sg88
g186
sg89
V00
p857
sg91
g69
sg92
I1628467
ssI1628475
(dp858
g49
VCentral Florida
p859
sg51
V210
p860
sg53
V2017
p861
sg55
F24.0
sg56
VOCT 14, 1993
p862
sg58
V6-5
p863
sg60
VMatt Williams Jr.
p864
sg62
I1610612748
sg63
V12
p865
sg65
g186
sg66
V00
p866
sg68
g23
sg70
I1628475
ssI1628476
(dp867
g49
VMichigan
p868
sg51
V185
p869
sg53
V2017
p870
sg55
F22.0
sg56
VAPR 03, 1995
p871
sg58
V6-1
p872
sg60
VDerrick Walton Jr.
p873
sg62
I1610612748
sg63
V14
p874
sg65
g186
sg66
V00
p875
sg68
g23
sg70
I1628476
ssI203585
(dp876
g49
VKansas State
p877
sg51
V200
p878
sg53
V2017
p879
sg55
F26.0
sg56
VJUL 29, 1991
p880
sg58
V6-4
p881
sg60
VRodney McGruder
p882
sg62
I1610612748
sg63
V17
p883
sg65
g19
sg66
V00
p884
sg68
VG-F
p885
sg70
I203585
ssI203079
(dp886
g49
VSyracuse
p887
sg51
V215
p888
sg53
V2017
p889
sg55
F25.0
sg56
VDEC 10, 1991
p890
sg58
V6-4
p891
sg60
VDion Waiters
p892
sg62
I1610612748
sg63
V11
p893
sg65
g17
sg66
V00
p894
sg68
g23
sg70
I203079
ssI1628492
(dp895
g72
VColorado State
p896
sg74
V185
p897
sg76
V2017
p898
sg78
F23.0
sg79
VNOV 26, 1993
p899
sg81
V6-4
p900
sg83
VGian Clavell
p901
sg85
I1610612742
sg86
g218
sg88
g186
sg89
V00
p902
sg91
g23
sg92
I1628492
ssI203089
(dp903
g127
VNorth Carolina
p904
sg129
V229
p905
sg131
V2017
p906
sg133
F26.0
sg134
VDEC 28, 1990
p907
sg136
V6-11
p908
sg138
VJohn Henson
p909
sg140
I1610612749
sg141
V31
p910
sg143
g17
sg144
V00
p911
sg146
VF-C
p912
sg147
I203089
ssI201566
(dp913
g169
VUCLA
p914
sg171
V200
p915
sg173
V2017
p916
sg175
F28.0
sg176
VNOV 12, 1988
p917
sg178
V6-3
p918
sg180
VRussell Westbrook
p919
sg182
I1610612760
sg183
g366
sg185
g428
sg187
V00
p920
sg189
g23
sg191
I201566
ssI1891
(dp921
g127
VArizona
p922
sg129
V185
p923
sg131
V2017
p924
sg133
F40.0
sg134
VSEP 15, 1977
p925
sg136
V6-2
p926
sg138
VJason Terry
p927
sg140
I1610612749
sg141
g402
sg143
V18
p928
sg144
V00
p929
sg146
g23
sg147
I1891
ssI203114
(dp930
g127
VTexas A&M
p931
sg129
V234
p932
sg131
V2017
p933
sg133
F26.0
sg134
VAUG 12, 1991
p934
sg136
V6-8
p935
sg138
VKhris Middleton
p936
sg140
I1610612749
sg141
V22
p937
sg143
g17
sg144
V00
p938
sg146
g69
sg147
I203114
ssI1717
(dp939
g72
VWurzburg, Germany
p940
sg74
V245
p941
sg76
V2017
p942
sg78
F39.0
sg79
VJUN 19, 1978
p943
sg81
V7-0
p944
sg83
VDirk Nowitzki
p945
sg85
I1610612742
sg86
V41
p946
sg88
V19
p947
sg89
V00
p948
sg91
VF-C
p949
sg92
I1717
ssI201586
(dp950
g26
VBrazzaville, Rep. of Congo
p951
sg28
V235
p952
sg30
V2017
p953
sg32
F28.0
sg33
VSEP 18, 1989
p954
sg35
V6-10
p955
sg37
VSerge Ibaka
p956
sg39
I1610612761
sg40
g428
sg42
g218
sg44
V00
p957
sg46
g69
sg47
I201586
ssI201961
(dp958
g49
VNorth Carolina
p959
sg51
V200
p960
sg53
V2017
p961
sg55
F29.0
sg56
VNOV 29, 1987
p962
sg58
V6-5
p963
sg60
VWayne Ellington
p964
sg62
I1610612748
sg63
g43
sg65
g218
sg66
V00
p965
sg68
g23
sg70
I201961
ssI201596
(dp966
g2
VKansas
p967
sg4
V190
p968
sg6
V2017
p969
sg8
F31.0
sg9
VMAY 19, 1986
p970
sg11
V6-2
p971
sg13
VMario Chalmers
p972
sg15
I1610612763
sg16
g285
sg18
g218
sg20
V00
p973
sg22
g23
sg24
I201596
ssI1628035
(dp974
g26
VWisc.-Green Bay
p975
sg28
V215
p976
sg30
V2017
p977
sg32
F25.0
sg33
VSEP 17, 1992
p978
sg35
V6-8
p979
sg37
VAlfonzo McKinnie
p980
sg39
I1610612761
sg40
V34
p981
sg42
g186
sg44
V00
p982
sg46
g69
sg47
I1628035
ssI203141
(dp983
g127
VBosnia
p984
sg129
V242
p985
sg131
V2017
p986
sg133
F32.0
sg134
VSEP 17, 1985
p987
sg136
V6-9
p988
sg138
VMirza Teletovic
p989
sg140
I1610612749
sg141
V35
p990
sg143
g17
sg144
V00
p991
sg146
g69
sg147
I203141
ssI201609
(dp992
g49
VLjubljana, Slovenia
p993
sg51
V190
p994
sg53
V2017
p995
sg55
F31.0
sg56
VMAY 06, 1986
p996
sg58
V6-3
p997
sg60
VGoran Dragic
p998
sg62
I1610612748
sg63
g165
sg65
g428
sg66
V00
p999
sg68
g23
sg70
I201609
ssI201144
(dp1000
g2
VOhio State
p1001
sg4
V175
p1002
sg6
V2017
p1003
sg8
F30.0
sg9
VOCT 11, 1987
p1004
sg11
V6-1
p1005
sg13
VMike Conley
p1006
sg15
I1610612763
sg16
V11
p1007
sg18
V10
p1008
sg20
V00
p1009
sg22
g23
sg24
I201144
ssI201148
(dp1010
g2
VNorth Carolina
p1011
sg4
V235
p1012
sg6
V2017
p1013
sg8
F30.0
sg9
VOCT 05, 1987
p1014
sg11
V6-10
p1015
sg13
VBrandan Wright
p1016
sg15
I1610612763
sg16
V34
p1017
sg18
g428
sg20
V00
p1018
sg22
VF-C
p1019
sg24
I201148
ssI202685
(dp1020
g26
VUtena, Lithuania
p1021
sg28
V255
p1022
sg30
V2017
p1023
sg32
F25.0
sg33
VMAY 06, 1992
p1024
sg35
V7-0
p1025
sg37
VJonas Valanciunas
p1026
sg39
I1610612761
sg40
V17
p1027
sg42
g17
sg44
V00
p1028
sg46
g190
sg47
I202685
ssI101109
(dp1029
g169
VNorth Carolina
p1030
sg171
V205
p1031
sg173
V2017
p1032
sg175
F33.0
sg176
VJUN 26, 1984
p1033
sg178
V6-1
p1034
sg180
VRaymond Felton
p1035
sg182
I1610612760
sg183
g43
sg185
V12
p1036
sg187
V00
p1037
sg189
g23
sg191
I101109
ssI202692
(dp1038
g94
VColorado
p1039
sg96
V214
p1040
sg98
V2017
p1041
sg100
F26.0
sg101
VJUL 20, 1991
p1042
sg103
V6-6
p1043
sg105
VAlec Burks
p1044
sg107
I1610612762
sg108
V10
p1045
sg110
g285
sg112
V00
p1046
sg114
g23
sg115
I202692
ssI1628405
(dp1047
g72
VBaylor
p1048
sg74
V230
p1049
sg76
V2017
p1050
sg78
F22.0
sg79
VMAY 04, 1995
p1051
sg81
V6-10
p1052
sg83
VJohnathan Motley
p1053
sg85
I1610612742
sg86
g285
sg88
g186
sg89
V00
p1054
sg91
g69
sg92
I1628405
ssI203084
(dp1055
g72
VNorth Carolina
p1056
sg74
V225
p1057
sg76
V2017
p1058
sg78
F25.0
sg79
VMAY 30, 1992
p1059
sg81
V6-8
p1060
sg83
VHarrison Barnes
p1061
sg85
I1610612742
sg86
V40
p1062
sg88
g17
sg89
V00
p1063
sg91
g69
sg92
I203084
ssI203210
(dp1064
g2
VAlabama
p1065
sg4
V227
p1066
sg6
V2017
p1067
sg8
F27.0
sg9
VJUN 21, 1990
p1068
sg11
V6-9
p1069
sg13
VJaMychal Green
p1070
sg15
I1610612763
sg16
g366
sg18
g402
sg20
V00
p1071
sg22
g69
sg24
I203210
ssI1628408
(dp1072
g169
VSouth Carolina
p1073
sg171
V205
p1074
sg173
V2017
p1075
sg175
F21.0
sg176
VOCT 25, 1996
p1076
sg178
V6-6
p1077
sg180
VPJ Dozier
p1078
sg182
I1610612760
sg183
V35
p1079
sg185
g186
sg187
V00
p1080
sg189
g23
sg191
I1628408
ssI202713
(dp1081
g169
VDuke
p1082
sg171
V228
p1083
sg173
V2017
p1084
sg175
F29.0
sg176
VMAY 04, 1988
p1085
sg178
V6-8
p1086
sg180
VKyle Singler
p1087
sg182
I1610612760
sg183
V15
p1088
sg185
g17
sg187
V00
p1089
sg189
g69
sg191
I202713
ssI202718
(dp1090
g2
VFlorida
p1091
sg4
V230
p1092
sg6
V2017
p1093
sg8
F29.0
sg9
VOCT 25, 1988
p1094
sg11
V6-10
p1095
sg13
VChandler Parsons
p1096
sg15
I1610612763
sg16
V25
p1097
sg18
g285
sg20
V00
p1098
sg22
g69
sg24
I202718
ssI201188
(dp1099
g2
VBarcelona, Spain
p1100
sg4
V255
p1101
sg6
V2017
p1102
sg8
F32.0
sg9
VJAN 29, 1985
p1103
sg11
V7-1
p1104
sg13
VMarc Gasol
p1105
sg15
I1610612763
sg16
V33
p1106
sg18
g428
sg20
V00
p1107
sg22
g190
sg24
I201188
ssI202732
(dp1108
g127
VKentucky
p1109
sg129
V209
p1110
sg131
V2017
p1111
sg133
F29.0
sg134
VMAR 31, 1988
p1112
sg136
V6-6
p1113
sg138
VDeAndre Liggins
p1114
sg140
I1610612749
sg141
V25
p1115
sg143
g357
sg144
V00
p1116
sg146
g23
sg147
I202732
ssI2546
(dp1117
g169
VSyracuse
p1118
sg171
V240
p1119
sg173
V2017
p1120
sg175
F33.0
sg176
VMAY 29, 1984
p1121
sg178
V6-8
p1122
sg180
VCarmelo Anthony
p1123
sg182
I1610612760
sg183
g165
sg185
V14
p1124
sg187
V00
p1125
sg189
g69
sg191
I2546
ssI1626196
(dp1126
g49
VTennessee
p1127
sg51
V200
p1128
sg53
V2017
p1129
sg55
F24.0
sg56
VSEP 15, 1993
p1130
sg58
V6-6
p1131
sg60
VJosh Richardson
p1132
sg62
I1610612748
sg63
g366
sg65
g43
sg66
V00
p1133
sg68
g69
sg70
I1626196
ssI2555
(dp1134
g169
VKansas
p1135
sg171
V255
p1136
sg173
V2017
p1137
sg175
F37.0
sg176
VOCT 26, 1980
p1138
sg178
V6-10
p1139
sg180
VNick Collison
p1140
sg182
I1610612760
sg183
g357
sg185
V13
p1141
sg187
V00
p1142
sg189
g69
sg191
I2555
ss.