(dp0
I2561
(dp1
VSCHOOL
p2
VXavier
p3
sVWEIGHT
p4
V250
p5
sVSEASON
p6
V2017
p7
sVAGE
p8
F37.0
sVBIRTH_DATE
p9
VAUG 29, 1980
p10
sVHEIGHT
p11
V6-9
p12
sVPLAYER
p13
VDavid West
p14
sVTeamID
p15
I1610612744
sVNUM
p16
V3
p17
sVEXP
p18
V14
p19
sVLeagueID
p20
V00
p21
sVPOSITION
p22
VF
p23
sVPLAYER_ID
p24
I2561
ssI201145
(dp25
VSCHOOL
p26
VGeorgetown
p27
sVWEIGHT
p28
V235
p29
sVSEASON
p30
V2017
p31
sVAGE
p32
F31.0
sVBIRTH_DATE
p33
VAUG 28, 1986
p34
sVHEIGHT
p35
V6-9
p36
sVPLAYER
p37
VJeff Green
p38
sVTeamID
p39
I1610612739
sVNUM
p40
V32
p41
sVEXP
p42
V9
p43
sVLeagueID
p44
V00
p45
sVPOSITION
p46
g23
sVPLAYER_ID
p47
I201145
ssI1626199
(dp48
VSCHOOL
p49
VVillanova
p50
sVWEIGHT
p51
V220
p52
sVSEASON
p53
V2017
p54
sVAGE
p55
F24.0
sVBIRTH_DATE
p56
VAPR 13, 1993
p57
sVHEIGHT
p58
V6-6
p59
sVPLAYER
p60
VDarrun Hilliard
p61
sVTeamID
p62
I1610612759
sVNUM
p63
V24
p64
sVEXP
p65
V2
p66
sVLeagueID
p67
V00
p68
sVPOSITION
p69
VG
p70
sVPLAYER_ID
p71
I1626199
ssI203101
(dp72
VSCHOOL
p73
VDuke
p74
sVWEIGHT
p75
V249
p76
sVSEASON
p77
V2017
p78
sVAGE
p79
F29.0
sVBIRTH_DATE
p80
VSEP 01, 1988
p81
sVHEIGHT
p82
V6-11
p83
sVPLAYER
p84
VMiles Plumlee
p85
sVTeamID
p86
I1610612737
sVNUM
p87
V18
p88
sVEXP
p89
V5
p90
sVLeagueID
p91
V00
p92
sVPOSITION
p93
VC
p94
sVPLAYER_ID
p95
I203101
ssI203705
(dp96
g73
VAlabama-Huntsville
p97
sg75
V160
p98
sg77
V2017
p99
sg79
F27.0
sg80
VNOV 28, 1989
p100
sg82
V6-1
p101
sg84
VJosh Magette
p102
sg86
I1610612737
sg87
V11
p103
sg89
VR
p104
sg91
V00
p105
sg93
g70
sg95
I203705
ssI203524
(dp106
VSCHOOL
p107
VArizona
p108
sVWEIGHT
p109
V225
p110
sVSEASON
p111
V2017
p112
sVAGE
p113
F26.0
sVBIRTH_DATE
p114
VMAR 18, 1991
p115
sVHEIGHT
p116
V6-7
p117
sVPLAYER
p118
VSolomon Hill
p119
sVTeamID
p120
I1610612740
sVNUM
p121
V44
p122
sVEXP
p123
V4
p124
sVLeagueID
p125
V00
p126
sVPOSITION
p127
g23
sVPLAYER_ID
p128
I203524
ssI1628393
(dp129
VSCHOOL
p130
VOklahoma State
p131
sVWEIGHT
p132
V190
p133
sVSEASON
p134
V2017
p135
sVAGE
p136
F21.0
sVBIRTH_DATE
p137
VJUL 26, 1996
p138
sVHEIGHT
p139
V6-0
p140
sVPLAYER
p141
VJawun Evans
p142
sVTeamID
p143
I1610612746
sVNUM
p144
V1
p145
sVEXP
p146
g104
sVLeagueID
p147
V00
p148
sVPOSITION
p149
g70
sVPLAYER_ID
p150
I1628393
ssI203898
(dp151
VSCHOOL
p152
VSyracuse
p153
sVWEIGHT
p154
V194
p155
sVSEASON
p156
V2017
p157
sVAGE
p158
F23.0
sVBIRTH_DATE
p159
VAUG 24, 1994
p160
sVHEIGHT
p161
V6-3
p162
sVPLAYER
p163
VTyler Ennis
p164
sVTeamID
p165
I1610612747
sVNUM
p166
V10
p167
sVEXP
p168
g17
sVLeagueID
p169
V00
p170
sVPOSITION
p171
g70
sVPLAYER_ID
p172
I203898
ssI200794
(dp173
VSCHOOL
p174
VLouisiana Tech
p175
sVWEIGHT
p176
V246
p177
sVSEASON
p178
V2017
p179
sVAGE
p180
F32.0
sVBIRTH_DATE
p181
VFEB 10, 1985
p182
sVHEIGHT
p183
V6-8
p184
sVPLAYER
p185
VPaul Millsap
p186
sVTeamID
p187
I1610612743
sVNUM
p188
g124
sVEXP
p189
V11
p190
sVLeagueID
p191
V00
p192
sVPOSITION
p193
g23
sVPLAYER_ID
p194
I200794
ssI202738
(dp195
g26
VWashington
p196
sg28
V185
p197
sg30
V2017
p198
sg32
F28.0
sg33
VFEB 07, 1989
p199
sg35
V5-9
p200
sg37
VIsaiah Thomas
p201
sg39
I1610612739
sg40
g17
sg42
V6
p202
sg44
V00
p203
sg46
g70
sg47
I202738
ssI1626144
(dp204
g174
Nsg176
V200
p205
sg178
V2017
p206
sg180
F21.0
sg181
VMAR 05, 1996
p207
sg183
V6-5
p208
sg185
VEmmanuel Mudiay
p209
sg187
I1610612743
sg188
V0
p210
sg189
g66
sg191
V00
p211
sg193
g70
sg194
I1626144
ssI2736
(dp212
g152
VDuke
p213
sg154
V220
p214
sg156
V2017
p215
sg158
F32.0
sg159
VAPR 16, 1985
p216
sg161
V6-9
p217
sg163
VLuol Deng
p218
sg165
I1610612747
sg166
g43
sg168
V13
p219
sg169
V00
p220
sg171
g23
sg172
I2736
ssI2594
(dp221
g26
VCreighton
p222
sg28
V212
p223
sg30
V2017
p224
sg32
F36.0
sg33
VMAR 17, 1981
p225
sg35
V6-7
p226
sg37
VKyle Korver
p227
sg39
I1610612739
sg40
V26
p228
sg42
V14
p229
sg44
V00
p230
sg46
g70
sg47
I2594
ssI1627739
(dp231
VSCHOOL
p232
VProvidence
p233
sVWEIGHT
p234
V210
p235
sVSEASON
p236
V2017
p237
sVAGE
p238
F23.0
sVBIRTH_DATE
p239
VMAR 18, 1994
p240
sVHEIGHT
p241
V6-4
p242
sVPLAYER
p243
VKris Dunn
p244
sVTeamID
p245
I1610612741
sVNUM
p246
V32
p247
sVEXP
p248
g145
sVLeagueID
p249
V00
p250
sVPOSITION
p251
g70
sVPLAYER_ID
p252
I1627739
ssI1626149
(dp253
g130
VLouisville
p254
sg132
V240
p255
sg134
V2017
p256
sg136
F23.0
sg137
VJAN 26, 1994
p257
sg139
V6-8
p258
sg141
VMontrezl Harrell
p259
sg143
I1610612746
sg144
g90
sg146
g66
sg147
V00
p260
sg149
VF-C
p261
sg150
I1626149
ssI1626150
(dp262
VSCHOOL
p263
VKentucky
p264
sVWEIGHT
p265
V213
p266
sVSEASON
p267
V2017
p268
sVAGE
p269
F23.0
sVBIRTH_DATE
p270
VOCT 28, 1994
p271
sVHEIGHT
p272
V6-6
p273
sVPLAYER
p274
VAndrew Harrison
p275
sVTeamID
p276
I1610612763
sVNUM
p277
g90
sVEXP
p278
g145
sVLeagueID
p279
V00
p280
sVPOSITION
p281
g70
sVPLAYER_ID
p282
I1626150
ssI2225
(dp283
g49
VParis, France
p284
sg51
V185
p285
sg53
V2017
p286
sg55
F35.0
sg56
VMAY 17, 1982
p287
sg58
V6-2
p288
sg60
VTony Parker
p289
sg62
I1610612759
sg63
g43
sg65
V16
p290
sg67
V00
p291
sg69
g70
sg71
I2225
ssI1626153
(dp292
VSCHOOL
p293
VUtah
p294
sVWEIGHT
p295
V190
p296
sVSEASON
p297
V2017
p298
sVAGE
p299
F25.0
sVBIRTH_DATE
p300
VAPR 26, 1992
p301
sVHEIGHT
p302
V6-5
p303
sVPLAYER
p304
VDelon Wright
p305
sVTeamID
p306
I1610612761
sVNUM
p307
V55
p308
sVEXP
p309
g66
sVLeagueID
p310
V00
p311
sVPOSITION
p312
g70
sVPLAYER_ID
p313
I1626153
ssI200746
(dp314
g49
VTexas
p315
sg51
V260
p316
sg53
V2017
p317
sg55
F32.0
sg56
VJUL 19, 1985
p318
sg58
V6-11
p319
sg60
VLaMarcus Aldridge
p320
sg62
I1610612759
sg63
V12
p321
sg65
V11
p322
sg67
V00
p323
sg69
g23
sg71
I200746
ssI1626155
(dp324
g130
VWisconsin
p325
sg132
V230
p326
sg134
V2017
p327
sg136
F23.0
sg137
VMAY 08, 1994
p328
sg139
V6-9
p329
sg141
VSam Dekker
p330
sg143
I1610612746
sg144
V7
p331
sg146
g66
sg147
V00
p332
sg149
g23
sg150
I1626155
ssI1627826
(dp333
g152
Nsg154
V240
p334
sg156
V2017
p335
sg158
F20.0
sg159
VMAR 18, 1997
p336
sg161
V7-1
p337
sg163
VIvica Zubac
p338
sg165
I1610612747
sg166
V40
p339
sg168
g145
sg169
V00
p340
sg171
g94
sg172
I1627826
ssI1626159
(dp341
VSCHOOL
p342
VDuke
p343
sVWEIGHT
p344
V225
p345
sVSEASON
p346
V2017
p347
sVAGE
p348
F21.0
sVBIRTH_DATE
p349
VMAR 26, 1996
p350
sVHEIGHT
p351
V6-7
p352
sVPLAYER
p353
VJustise Winslow
p354
sVTeamID
p355
I1610612748
sVNUM
p356
V20
p357
sVEXP
p358
g66
sVLeagueID
p359
V00
p360
sVPOSITION
p361
g23
sVPLAYER_ID
p362
I1626159
ssI1627098
(dp363
g73
VVirginia Tech
p364
sg75
V190
p365
sg77
V2017
p366
sg79
F28.0
sg80
VMAR 11, 1989
p367
sg82
V6-3
p368
sg84
VMalcolm Delaney
p369
sg86
I1610612737
sg87
g90
sg89
g145
sg91
V00
p370
sg93
g70
sg95
I1627098
ssI201967
(dp371
g107
VVillanova
p372
sg109
V230
p373
sg111
V2017
p374
sg113
F30.0
sg114
VAPR 22, 1987
p375
sg116
V6-8
p376
sg118
VDante Cunningham
p377
sg120
I1610612740
sg121
V33
p378
sg123
V8
p379
sg125
V00
p380
sg127
g23
sg128
I201967
ssI1627827
(dp381
VSCHOOL
p382
VFlorida
p383
sVWEIGHT
p384
V220
p385
sVSEASON
p386
V2017
p387
sVAGE
p388
F24.0
sVBIRTH_DATE
p389
VMAY 04, 1993
p390
sVHEIGHT
p391
V6-8
p392
sVPLAYER
p393
VDorian Finney-Smith
p394
sVTeamID
p395
I1610612742
sVNUM
p396
V10
p397
sVEXP
p398
g145
sVLeagueID
p399
V00
p400
sVPOSITION
p401
g23
sVPLAYER_ID
p402
I1627827
ssI200757
(dp403
VSCHOOL
p404
VVevey, Switzerland
p405
sVWEIGHT
p406
V220
p407
sVSEASON
p408
V2017
p409
sVAGE
p410
F33.0
sVBIRTH_DATE
p411
VMAY 02, 1984
p412
sVHEIGHT
p413
V6-7
p414
sVPLAYER
p415
VThabo Sefolosha
p416
sVTeamID
p417
I1610612762
sVNUM
p418
V22
p419
sVEXP
p420
V11
p421
sVLeagueID
p422
V00
p423
sVPOSITION
p424
g23
sVPLAYER_ID
p425
I200757
ssI1626166
(dp426
g232
VMurray State
p427
sg234
V185
p428
sg236
V2017
p429
sg238
F23.0
sg239
VAUG 08, 1994
p430
sg241
V6-3
p431
sg243
VCameron Payne
p432
sg245
I1610612741
sg246
V22
p433
sg248
g66
sg249
V00
p434
sg251
g70
sg252
I1626166
ssI1626168
(dp435
g174
VKentucky
p436
sg176
V234
p437
sg178
V2017
p438
sg180
F22.0
sg181
VNOV 05, 1995
p439
sg183
V6-10
p440
sg185
VTrey Lyles
p441
sg187
I1610612743
sg188
g331
sg189
g66
sg191
V00
p442
sg193
g23
sg194
I1626168
ssI2617
(dp443
g342
VFlorida
p444
sg344
V235
p445
sg346
V2017
p446
sg348
F37.0
sg349
VJUN 09, 1980
p447
sg351
V6-8
p448
sg353
VUdonis Haslem
p449
sg355
I1610612748
sg356
V40
p450
sg358
V14
p451
sg359
V00
p452
sg361
g23
sg362
I2617
ssI1626170
(dp453
g232
VNotre Dame
p454
sg234
V198
p455
sg236
V2017
p456
sg238
F25.0
sg239
VOCT 09, 1992
p457
sg241
V6-4
p458
sg243
VJerian Grant
p459
sg245
I1610612741
sg246
g66
sg248
g66
sg249
V00
p460
sg251
g70
sg252
I1626170
ssI1626171
(dp461
g232
VArkansas
p462
sg234
V248
p463
sg236
V2017
p464
sg238
F22.0
sg239
VFEB 10, 1995
p465
sg241
V6-11
p466
sg243
VBobby Portis
p467
sg245
I1610612741
sg246
g90
sg248
g66
sg249
V00
p468
sg251
g23
sg252
I1626171
ssI1626172
(dp469
g2
VUCLA
p470
sg4
V220
p471
sg6
V2017
p472
sg8
F21.0
sg9
VFEB 06, 1996
p473
sg11
V6-9
p474
sg13
VKevon Looney
p475
sg15
I1610612744
sg16
g90
sg18
g66
sg20
V00
p476
sg22
g23
sg24
I1626172
ssI1626173
(dp477
VSCHOOL
p478
VUNLV
p479
sVWEIGHT
p480
V202
p481
sVSEASON
p482
V2017
p483
sVAGE
p484
F21.0
sVBIRTH_DATE
p485
VAUG 16, 1996
p486
sVHEIGHT
p487
V6-6
p488
sVPLAYER
p489
VRashad Vaughn
p490
sVTeamID
p491
I1610612749
sVNUM
p492
V20
p493
sVEXP
p494
g66
sVLeagueID
p495
V00
p496
sVPOSITION
p497
g70
sVPLAYER_ID
p498
I1626173
ssI1626175
(dp499
g342
VLouisiana State
p500
sg344
V235
p501
sg346
V2017
p502
sg348
F23.0
sg349
VJUL 09, 1994
p503
sg351
V6-8
p504
sg353
VJordan Mickey
p505
sg355
I1610612748
sg356
V25
p506
sg358
g66
sg359
V00
p507
sg361
VC-F
p508
sg362
I1626175
ssI200768
(dp509
g293
VVillanova
p510
sg295
V205
p511
sg297
V2017
p512
sg299
F31.0
sg300
VMAR 25, 1986
p513
sg302
V6-0
p514
sg304
VKyle Lowry
p515
sg306
I1610612761
sg307
g331
sg309
V11
p516
sg310
V00
p517
sg312
g70
sg313
I200768
ssI1626177
(dp518
VSCHOOL
p519
VKentucky
p520
sVWEIGHT
p521
V255
p522
sVSEASON
p523
V2017
p524
sVAGE
p525
F22.0
sVBIRTH_DATE
p526
VSEP 22, 1995
p527
sVHEIGHT
p528
V7-0
p529
sVPLAYER
p530
VDakari Johnson
p531
sVTeamID
p532
I1610612760
sVNUM
p533
V44
p534
sVEXP
p535
g104
sVLeagueID
p536
V00
p537
sVPOSITION
p538
g94
sVPLAYER_ID
p539
I1626177
ssI1626179
(dp540
VSCHOOL
p541
VLouisville
p542
sVWEIGHT
p543
V190
p544
sVSEASON
p545
V2017
p546
sVAGE
p547
F23.0
sVBIRTH_DATE
p548
VMAR 17, 1994
p549
sVHEIGHT
p550
V6-2
p551
sVPLAYER
p552
VTerry Rozier
p553
sVTeamID
p554
I1610612738
sVNUM
p555
V12
p556
sVEXP
p557
g66
sVLeagueID
p558
V00
p559
sVPOSITION
p560
g70
sVPLAYER_ID
p561
I1626179
ssI1626181
(dp562
g293
VUCLA
p563
sg295
V215
p564
sg297
V2017
p565
sg299
F24.0
sg300
VMAY 25, 1993
p566
sg302
V6-4
p567
sg304
VNorman Powell
p568
sg306
I1610612761
sg307
V24
p569
sg309
g66
sg310
V00
p570
sg312
VF-G
p571
sg313
I1626181
ssI202337
(dp572
g73
VNevada
p573
sg75
V225
p574
sg77
V2017
p575
sg79
F28.0
sg80
VJUN 20, 1989
p576
sg82
V6-9
p577
sg84
VLuke Babbitt
p578
sg86
I1610612737
sg87
g379
sg89
g331
sg91
V00
p579
sg93
g23
sg95
I202337
ssI1626185
(dp580
g263
VLouisiana State
p581
sg265
V239
p582
sg267
V2017
p583
sg269
F23.0
sg270
VMAY 24, 1994
p584
sg272
V6-10
p585
sg274
VJarell Martin
p586
sg276
I1610612763
sg277
g145
sg278
g66
sg279
V00
p587
sg281
g23
sg282
I1626185
ssI1626188
(dp588
g2
VDuke
p589
sg4
V179
p590
sg6
V2017
p591
sg8
F24.0
sg9
VMAR 23, 1993
p592
sg11
V6-2
p593
sg13
VQuinn Cook
p594
sg15
I1610612744
sg16
g124
sg18
g145
sg20
V00
p595
sg22
g70
sg24
I1626188
ssI200782
(dp596
VSCHOOL
p597
VTexas
p598
sVWEIGHT
p599
V245
p600
sVSEASON
p601
V2017
p602
sVAGE
p603
F32.0
sVBIRTH_DATE
p604
VMAY 05, 1985
p605
sVHEIGHT
p606
V6-6
p607
sVPLAYER
p608
VPJ Tucker
p609
sVTeamID
p610
I1610612745
sVNUM
p611
g124
sVEXP
p612
g202
sVLeagueID
p613
V00
p614
sVPOSITION
p615
g23
sVPLAYER_ID
p616
I200782
ssI1628463
(dp617
g73
VGeorge Washington
p618
sg75
V238
p619
sg77
V2017
p620
sg79
F23.0
sg80
VFEB 09, 1994
p621
sg82
V6-9
p622
sg84
VTyler Cavanaugh
p623
sg86
I1610612737
sg87
V34
p624
sg89
g104
sg91
V00
p625
sg93
g23
sg95
I1628463
ssI202083
(dp626
g382
VMarquette
p627
sg384
V220
p628
sg386
V2017
p629
sg388
F31.0
sg389
VOCT 14, 1986
p630
sg391
V6-5
p631
sg393
VWesley Matthews
p632
sg395
I1610612742
sg396
V23
p633
sg398
g379
sg399
V00
p634
sg401
VG-F
p635
sg402
I202083
ssI202324
(dp636
g404
VGeorgia Tech
p637
sg406
V265
p638
sg408
V2017
p639
sg410
F26.0
sg411
VJUL 15, 1991
p640
sg413
V6-10
p641
sg415
VDerrick Favors
p642
sg417
I1610612762
sg418
V15
p643
sg420
g331
sg422
V00
p644
sg424
VF-C
p645
sg425
I202324
ssI202325
(dp646
g130
VSyracuse
p647
sg132
V215
p648
sg134
V2017
p649
sg136
F30.0
sg137
VJUL 11, 1987
p650
sg139
V6-7
p651
sg141
VWesley Johnson
p652
sg143
I1610612746
sg144
V33
p653
sg146
g331
sg147
V00
p654
sg149
g23
sg150
I202325
ssI202326
(dp655
g107
VKentucky
p656
sg109
V270
p657
sg111
V2017
p658
sg113
F27.0
sg114
VAUG 13, 1990
p659
sg116
V6-11
p660
sg118
VDeMarcus Cousins
p661
sg120
I1610612740
sg121
g210
sg123
g331
sg125
V00
p662
sg127
g94
sg128
I202326
ssI202327
(dp663
g404
VBaylor
p664
sg406
V245
p665
sg408
V2017
p666
sg410
F30.0
sg411
VMAY 20, 1987
p667
sg413
V6-10
p668
sg415
VEkpe Udoh
p669
sg417
I1610612762
sg418
V33
p670
sg420
g90
sg422
V00
p671
sg424
VC-F
p672
sg425
I202327
ssI1627736
(dp673
g174
VFlorida State
p674
sg176
V196
p675
sg178
V2017
p676
sg180
F20.0
sg181
VNOV 26, 1996
p677
sg183
V6-5
p678
sg185
VMalik Beasley
p679
sg187
I1610612743
sg188
V25
p680
sg189
g145
sg191
V00
p681
sg193
g70
sg194
I1627736
ssI1627738
(dp682
g263
VMichigan State
p683
sg265
V237
p684
sg267
V2017
p685
sg269
F20.0
sg270
VDEC 02, 1996
p686
sg272
V6-11
p687
sg274
VDeyonta Davis
p688
sg276
I1610612763
sg277
V21
p689
sg278
g145
sg279
V00
p690
sg281
VC-F
p691
sg282
I1627738
ssI202331
(dp692
g519
VFresno State
p693
sg521
V220
p694
sg523
V2017
p695
sg525
F27.0
sg526
VMAY 02, 1990
p696
sg528
V6-9
p697
sg530
VPaul George
p698
sg532
I1610612760
sg533
V13
p699
sg535
g331
sg536
V00
p700
sg538
g23
sg539
I202331
ssI1626204
(dp701
g152
VWyoming
p702
sg154
V230
p703
sg156
V2017
p704
sg158
F24.0
sg159
VJAN 01, 1993
p705
sg161
V6-9
p706
sg163
VLarry Nance Jr.
p707
sg165
I1610612747
sg166
g331
sg168
g66
sg169
V00
p708
sg171
g23
sg172
I1626204
ssI1626205
(dp709
g263
VTexas-El Paso
p710
sg265
V208
p711
sg267
V2017
p712
sg269
F23.0
sg270
VAUG 05, 1994
p713
sg272
V6-8
p714
sg274
VVincent Hunter
p715
sg276
I1610612763
sg277
V32
p716
sg278
g104
sg279
V00
p717
sg281
g23
sg282
I1626205
ssI1627742
(dp718
g152
VDuke
p719
sg154
V190
p720
sg156
V2017
p721
sg158
F20.0
sg159
VSEP 02, 1997
p722
sg161
V6-9
p723
sg163
VBrandon Ingram
p724
sg165
I1610612747
sg166
V14
p725
sg168
g145
sg169
V00
p726
sg171
VF-G
p727
sg172
I1627742
ssI202335
(dp728
g519
VKentucky
p729
sg521
V230
p730
sg523
V2017
p731
sg525
F28.0
sg526
VMAR 14, 1989
p732
sg528
V6-9
p733
sg530
VPatrick Patterson
p734
sg532
I1610612760
sg533
V54
p735
sg535
g331
sg536
V00
p736
sg538
g23
sg539
I202335
ssI1627744
(dp737
g130
VNorth Carolina
p738
sg132
V230
p739
sg134
V2017
p740
sg136
F23.0
sg137
VJUN 27, 1994
p741
sg139
V6-10
p742
sg141
VBrice Johnson
p743
sg143
I1610612746
sg144
V11
p744
sg146
g145
sg147
V00
p745
sg149
g23
sg150
I1627744
ssI1627745
(dp746
g2
VVanderbilt
p747
sg4
V245
p748
sg6
V2017
p749
sg8
F22.0
sg9
VJUN 30, 1995
p750
sg11
V7-0
p751
sg13
VDamian Jones
p752
sg15
I1610612744
sg16
V15
p753
sg18
g145
sg20
V00
p754
sg22
g94
sg24
I1627745
ssI202339
(dp755
g478
VKentucky
p756
sg480
V205
p757
sg482
V2017
p758
sg484
F27.0
sg485
VDEC 09, 1989
p759
sg487
V6-1
p760
sg489
VEric Bledsoe
p761
sg491
I1610612749
sg492
g202
sg494
g331
sg495
V00
p762
sg497
g70
sg498
I202339
ssI1627748
(dp763
g478
Nsg480
V223
p764
sg482
V2017
p765
sg484
F20.0
sg485
VFEB 25, 1997
p766
sg487
V7-1
p767
sg489
VThon Maker
p768
sg491
I1610612749
sg492
g331
sg494
g145
sg495
V00
p769
sg497
VC-F
p770
sg498
I1627748
ssI1627749
(dp771
g49
VWashington
p772
sg51
V170
p773
sg53
V2017
p774
sg55
F21.0
sg56
VSEP 19, 1996
p775
sg58
V6-5
p776
sg60
VDejounte Murray
p777
sg62
I1610612759
sg63
g90
sg65
g145
sg67
V00
p778
sg69
g70
sg71
I1627749
ssI1627750
(dp779
g174
VKentucky
p780
sg176
V207
p781
sg178
V2017
p782
sg180
F20.0
sg181
VFEB 23, 1997
p783
sg183
V6-4
p784
sg185
VJamal Murray
p785
sg187
I1610612743
sg188
V27
p786
sg189
g145
sg191
V00
p787
sg193
g70
sg194
I1627750
ssI1627751
(dp788
g293
VUtah
p789
sg295
V230
p790
sg297
V2017
p791
sg299
F22.0
sg300
VOCT 15, 1995
p792
sg302
V7-0
p793
sg304
VJakob Poeltl
p794
sg306
I1610612761
sg307
V42
p795
sg309
g145
sg310
V00
p796
sg312
g94
sg313
I1627751
ssI1627752
(dp797
g73
VBaylor
p798
sg75
V220
p799
sg77
V2017
p800
sg79
F23.0
sg80
VMAR 22, 1994
p801
sg82
V6-8
p802
sg84
VTaurean Prince
p803
sg86
I1610612737
sg87
V12
p804
sg89
g145
sg91
V00
p805
sg93
g23
sg95
I1627752
ssI1627753
(dp806
g597
Nsg599
V210
p807
sg601
V2017
p808
sg603
F21.0
sg604
VJAN 16, 1996
p809
sg606
V7-1
p810
sg608
VQi Qi
p811
sg610
I1610612745
sg611
g43
sg612
g104
sg613
V00
p812
sg615
VF-C
p813
sg616
I1627753
ssI202347
(dp814
g232
VWashington
p815
sg234
V225
p816
sg236
V2017
p817
sg238
F29.0
sg239
VMAR 10, 1988
p818
sg241
V6-7
p819
sg243
VQuincy Pondexter
p820
sg245
I1610612741
sg246
V20
p821
sg248
g90
sg249
V00
p822
sg251
g70
sg252
I202347
ssI1626220
(dp823
g404
VBaylor
p824
sg406
V226
p825
sg408
V2017
p826
sg410
F24.0
sg411
VJUN 05, 1993
p827
sg413
V6-6
p828
sg415
VRoyce O'Neale
p829
sg417
I1610612762
sg418
V23
p830
sg420
g104
sg422
V00
p831
sg424
g23
sg425
I1626220
ssI1627759
(dp832
g541
VCalifornia
p833
sg543
V225
p834
sg545
V2017
p835
sg547
F21.0
sg548
VOCT 24, 1996
p836
sg550
V6-7
p837
sg552
VJaylen Brown
p838
sg554
I1610612738
sg555
g331
sg557
g145
sg558
V00
p839
sg560
VG-F
p840
sg561
I1627759
ssI1626224
(dp841
g26
VAnadolu Efes
p842
sg28
V215
p843
sg30
V2017
p844
sg32
F22.0
sg33
VAPR 08, 1995
p845
sg35
V6-8
p846
sg37
VCedi Osman
p847
sg39
I1610612739
sg40
V16
p848
sg42
g104
sg44
V00
p849
sg46
g23
sg47
I1626224
ssI202681
(dp850
g541
VDuke
p851
sg543
V193
p852
sg545
V2017
p853
sg547
F25.0
sg548
VMAR 23, 1992
p854
sg550
V6-3
p855
sg552
VKyrie Irving
p856
sg554
I1610612738
sg555
V11
p857
sg557
g202
sg558
V00
p858
sg560
g70
sg561
I202681
ssI1627762
(dp859
g478
VWeber State
p860
sg480
V235
p861
sg482
V2017
p862
sg484
F23.0
sg485
VJAN 28, 1994
p863
sg487
V6-9
p864
sg489
VJoel Bolomboy
p865
sg491
I1610612749
sg492
V24
p866
sg494
g145
sg495
V00
p867
sg497
VF-C
p868
sg498
I1627762
ssI202355
(dp869
g342
VMarshall
p870
sg344
V265
p871
sg346
V2017
p872
sg348
F28.0
sg349
VJUN 13, 1989
p873
sg351
V7-0
p874
sg353
VHassan Whiteside
p875
sg355
I1610612748
sg356
V21
p876
sg358
g90
sg359
V00
p877
sg361
g94
sg362
I202355
ssI203382
(dp878
g541
VWashington State
p879
sg543
V260
p880
sg545
V2017
p881
sg547
F30.0
sg548
VDEC 09, 1986
p882
sg550
V6-10
p883
sg552
VAron Baynes
p884
sg554
I1610612738
sg555
V46
p885
sg557
g90
sg558
V00
p886
sg560
g94
sg561
I203382
ssI1627767
(dp887
g107
VKansas
p888
sg109
V220
p889
sg111
V2017
p890
sg113
F21.0
sg114
VSEP 13, 1996
p891
sg116
V6-9
p892
sg118
VCheick Diallo
p893
sg120
I1610612740
sg121
V13
p894
sg123
g145
sg125
V00
p895
sg127
g23
sg128
I1627767
ssI203897
(dp896
g232
VUCLA
p897
sg234
V185
p898
sg236
V2017
p899
sg238
F22.0
sg239
VMAR 10, 1995
p900
sg241
V6-5
p901
sg243
VZach LaVine
p902
sg245
I1610612741
sg246
g379
sg248
g17
sg249
V00
p903
sg251
g70
sg252
I203897
ssI200826
(dp904
g382
VNortheastern
p905
sg384
V185
p906
sg386
V2017
p907
sg388
F33.0
sg389
VJUN 26, 1984
p908
sg391
V6-0
p909
sg393
VJ.J. Barea
p910
sg395
I1610612742
sg396
g90
sg398
V11
p911
sg399
V00
p912
sg401
g70
sg402
I200826
ssI1627772
(dp913
g519
VConnecticut
p914
sg521
V195
p915
sg523
V2017
p916
sg525
F22.0
sg526
VAUG 08, 1995
p917
sg528
V6-7
p918
sg530
VDaniel Hamilton
p919
sg532
I1610612760
sg533
V25
p920
sg535
g104
sg536
V00
p921
sg538
g70
sg539
I1627772
ssI1627773
(dp922
g342
VPurdue
p923
sg344
V260
p924
sg346
V2017
p925
sg348
F25.0
sg349
VAUG 27, 1992
p926
sg351
V7-0
p927
sg353
VAJ Hammons
p928
sg355
I1610612748
sg356
g124
sg358
g145
sg359
V00
p929
sg361
g94
sg362
I1627773
ssI1627936
(dp930
g152
VTexas A&M
p931
sg154
V186
p932
sg156
V2017
p933
sg158
F23.0
sg159
VFEB 28, 1994
p934
sg161
V6-5
p935
sg163
VAlex Caruso
p936
sg165
I1610612747
sg166
g124
sg168
g104
sg169
V00
p937
sg171
g70
sg172
I1627936
ssI1627778
(dp938
g597
VLouisville
p939
sg599
V245
p940
sg601
V2017
p941
sg603
F21.0
sg604
VNOV 01, 1996
p942
sg606
V6-10
p943
sg608
VChinanu Onuaku
p944
sg610
I1610612745
sg611
V21
p945
sg612
g145
sg613
V00
p946
sg615
g94
sg616
I1627778
ssI1627780
(dp947
g478
VOregon State
p948
sg480
V190
p949
sg482
V2017
p950
sg484
F24.0
sg485
VDEC 01, 1992
p951
sg487
V6-3
p952
sg489
VGary Payton II
p953
sg491
I1610612749
sg492
g210
sg494
g145
sg495
V00
p954
sg497
g70
sg498
I1627780
ssI203500
(dp955
g519
VPittsburgh
p956
sg521
V255
p957
sg523
V2017
p958
sg525
F24.0
sg526
VJUL 20, 1993
p959
sg528
V7-0
p960
sg530
VSteven Adams
p961
sg532
I1610612760
sg533
V12
p962
sg535
g124
sg536
V00
p963
sg538
g94
sg539
I203500
ssI1627782
(dp964
g263
VKansas
p965
sg265
V230
p966
sg267
V2017
p967
sg269
F23.0
sg270
VSEP 30, 1994
p968
sg272
V6-5
p969
sg274
VWayne Selden
p970
sg276
I1610612763
sg277
g331
sg278
g145
sg279
V00
p971
sg281
VG-F
p972
sg282
I1627782
ssI1627783
(dp973
g293
VNew Mexico State
p974
sg295
V230
p975
sg297
V2017
p976
sg299
F23.0
sg300
VAPR 02, 1994
p977
sg302
V6-9
p978
sg304
VPascal Siakam
p979
sg306
I1610612761
sg307
V43
p980
sg309
g145
sg310
V00
p981
sg312
g23
sg313
I1627783
ssI1627756
(dp982
g232
VMichigan State
p983
sg234
V214
p984
sg236
V2017
p985
sg238
F23.0
sg239
VNOV 16, 1993
p986
sg241
V6-6
p987
sg243
VDenzel Valentine
p988
sg245
I1610612741
sg246
V45
p989
sg248
g145
sg249
V00
p990
sg251
g23
sg252
I1627756
ssI203914
(dp991
g174
VMichigan State
p992
sg176
V210
p993
sg178
V2017
p994
sg180
F23.0
sg181
VSEP 14, 1994
p995
sg183
V6-4
p996
sg185
VGary Harris
p997
sg187
I1610612743
sg188
V14
p998
sg189
g17
sg191
V00
p999
sg193
g70
sg194
I203914
ssI203918
(dp1000
g404
VDuke
p1001
sg406
V206
p1002
sg408
V2017
p1003
sg410
F25.0
sg411
VOCT 20, 1992
p1004
sg413
V6-8
p1005
sg415
VRodney Hood
p1006
sg417
I1610612762
sg418
g90
sg420
g17
sg422
V00
p1007
sg424
g70
sg425
I203918
ssI1626257
(dp1008
g382
Nsg384
V235
p1009
sg386
V2017
p1010
sg388
F31.0
sg389
VJUN 15, 1986
p1011
sg391
V7-2
p1012
sg393
VSalah Mejri
p1013
sg395
I1610612742
sg396
V50
p1014
sg398
g66
sg399
V00
p1015
sg401
g94
sg402
I1626257
ssI1626259
(dp1016
g293
VHoly Cross
p1017
sg295
V210
p1018
sg297
V2017
p1019
sg299
F24.0
sg300
VMAR 06, 1993
p1020
sg302
V6-7
p1021
sg304
VMalcolm Miller
p1022
sg306
I1610612761
sg307
V13
p1023
sg309
g104
sg310
V00
p1024
sg312
g23
sg313
I1626259
ssI203924
(dp1025
g519
VSyracuse
p1026
sg521
V220
p1027
sg523
V2017
p1028
sg525
F23.0
sg526
VMAR 12, 1994
p1029
sg528
V6-9
p1030
sg530
VJerami Grant
p1031
sg532
I1610612760
sg533
g43
sg535
g17
sg536
V00
p1032
sg538
g23
sg539
I203924
ssI2585
(dp1033
g2
VTbilisi, Georgia
p1034
sg4
V270
p1035
sg6
V2017
p1036
sg8
F33.0
sg9
VFEB 10, 1984
p1037
sg11
V6-11
p1038
sg13
VZaza Pachulia
p1039
sg15
I1610612744
sg16
V27
p1040
sg18
V14
p1041
sg20
V00
p1042
sg22
g94
sg24
I2585
ssI2200
(dp1043
g49
VBarcelona, Spain
p1044
sg51
V250
p1045
sg53
V2017
p1046
sg55
F37.0
sg56
VJUL 06, 1980
p1047
sg58
V7-0
p1048
sg60
VPau Gasol
p1049
sg62
I1610612759
sg63
V16
p1050
sg65
V16
p1051
sg67
V00
p1052
sg69
g94
sg71
I2200
ssI201156
(dp1053
g2
VSouthern California
p1054
sg4
V210
p1055
sg6
V2017
p1056
sg8
F32.0
sg9
VJUN 01, 1985
p1057
sg11
V6-7
p1058
sg13
VNick Young
p1059
sg15
I1610612744
sg16
g202
sg18
V10
p1060
sg20
V00
p1061
sg22
VG-F
p1062
sg24
I201156
ssI201583
(dp1063
g597
VCalifornia
p1064
sg599
V240
p1065
sg601
V2017
p1066
sg603
F29.0
sg604
VMAY 06, 1988
p1067
sg606
V6-10
p1068
sg608
VRyan Anderson
p1069
sg610
I1610612745
sg611
V33
p1070
sg612
g43
sg613
V00
p1071
sg615
g23
sg616
I201583
ssI2207
(dp1072
g404
VArkansas
p1073
sg406
V240
p1074
sg408
V2017
p1075
sg410
F36.0
sg411
VJUN 29, 1981
p1076
sg413
V6-7
p1077
sg415
VJoe Johnson
p1078
sg417
I1610612762
sg418
g202
sg420
V16
p1079
sg422
V00
p1080
sg424
VG-F
p1081
sg425
I2207
ssI203937
(dp1082
g49
VUCLA
p1083
sg51
V230
p1084
sg53
V2017
p1085
sg55
F24.0
sg56
VSEP 20, 1993
p1086
sg58
V6-9
p1087
sg60
VKyle Anderson
p1088
sg62
I1610612759
sg63
g145
sg65
g17
sg67
V00
p1089
sg69
g23
sg71
I203937
ssI2210
(dp1090
g174
VArizona
p1091
sg176
V233
p1092
sg178
V2017
p1093
sg180
F37.0
sg181
VJUN 21, 1980
p1094
sg183
V6-7
p1095
sg185
VRichard Jefferson
p1096
sg187
I1610612743
sg188
V22
p1097
sg189
V16
p1098
sg191
V00
p1099
sg193
g23
sg194
I2210
ssI203939
(dp1100
g382
VStanford
p1101
sg384
V240
p1102
sg386
V2017
p1103
sg388
F26.0
sg389
VJUL 20, 1991
p1104
sg391
V6-11
p1105
sg393
VDwight Powell
p1106
sg395
I1610612742
sg396
g331
sg398
g17
sg399
V00
p1107
sg401
VF-C
p1108
sg402
I203939
ssI1627812
(dp1109
g382
VIndiana
p1110
sg384
V180
p1111
sg386
V2017
p1112
sg388
F24.0
sg389
VMAY 09, 1993
p1113
sg391
V6-0
p1114
sg393
VYogi Ferrell
p1115
sg395
I1610612742
sg396
V11
p1116
sg398
g145
sg399
V00
p1117
sg401
g70
sg402
I1627812
ssI202694
(dp1118
g541
VKansas
p1119
sg543
V235
p1120
sg545
V2017
p1121
sg547
F28.0
sg548
VSEP 02, 1989
p1122
sg550
V6-9
p1123
sg552
VMarcus Morris
p1124
sg554
I1610612738
sg555
V13
p1125
sg557
g202
sg558
V00
p1126
sg560
g23
sg561
I202694
ssI203121
(dp1127
g107
VKentucky
p1128
sg109
V225
p1129
sg111
V2017
p1130
sg113
F27.0
sg114
VMAR 21, 1990
p1131
sg116
V6-8
p1132
sg118
VDarius Miller
p1133
sg120
I1610612740
sg121
V21
p1134
sg123
g17
sg125
V00
p1135
sg127
g23
sg128
I203121
ssI203944
(dp1136
g152
VKentucky
p1137
sg154
V250
p1138
sg156
V2017
p1139
sg158
F22.0
sg159
VNOV 29, 1994
p1140
sg161
V6-9
p1141
sg163
VJulius Randle
p1142
sg165
I1610612747
sg166
V30
p1143
sg168
g17
sg169
V00
p1144
sg171
VF-C
p1145
sg172
I203944
ssI1628444
(dp1146
g541
VCalifornia
p1147
sg543
V198
p1148
sg545
V2017
p1149
sg547
F23.0
sg548
VJUL 03, 1994
p1150
sg550
V6-6
p1151
sg552
VJabari Bird
p1152
sg554
I1610612738
sg555
V26
p1153
sg557
g104
sg558
V00
p1154
sg560
g70
sg561
I1628444
ssI1627819
(dp1155
g73
VTexas
p1156
sg75
V170
p1157
sg77
V2017
p1158
sg79
F23.0
sg80
VJUL 11, 1994
p1159
sg82
V6-3
p1160
sg84
VIsaiah Taylor
p1161
sg86
I1610612737
sg87
V22
p1162
sg89
g145
sg91
V00
p1163
sg93
g70
sg95
I1627819
ssI2733
(dp1164
g2
VPeoria Central HS (IL)
p1165
sg4
V192
p1166
sg6
V2017
p1167
sg8
F32.0
sg9
VSEP 11, 1985
p1168
sg11
V6-7
p1169
sg13
VShaun Livingston
p1170
sg15
I1610612744
sg16
V34
p1171
sg18
V12
p1172
sg20
V00
p1173
sg22
g70
sg24
I2733
ssI2734
(dp1174
g382
VWisconsin
p1175
sg384
V185
p1176
sg386
V2017
p1177
sg388
F34.0
sg389
VFEB 27, 1983
p1178
sg391
V6-3
p1179
sg393
VDevin Harris
p1180
sg395
I1610612742
sg396
V34
p1181
sg398
V13
p1182
sg399
V00
p1183
sg401
g70
sg402
I2734
ssI1627823
(dp1184
g174
Nsg176
V230
p1185
sg178
V2017
p1186
sg180
F22.0
sg181
VSEP 28, 1995
p1187
sg183
V6-9
p1188
sg185
VJuan Hernangomez
p1189
sg187
I1610612743
sg188
V41
p1190
sg189
g145
sg191
V00
p1191
sg193
g23
sg194
I1627823
ssI201950
(dp1192
g107
VUCLA
p1193
sg109
V205
p1194
sg111
V2017
p1195
sg113
F27.0
sg114
VJUN 12, 1990
p1196
sg116
V6-4
p1197
sg118
VJrue Holiday
p1198
sg120
I1610612740
sg121
V11
p1199
sg123
g379
sg125
V00
p1200
sg127
g70
sg128
I201950
ssI203953
(dp1201
g478
VDuke
p1202
sg480
V250
p1203
sg482
V2017
p1204
sg484
F22.0
sg485
VMAR 15, 1995
p1205
sg487
V6-8
p1206
sg489
VJabari Parker
p1207
sg491
I1610612749
sg492
V12
p1208
sg494
g17
sg495
V00
p1209
sg497
g23
sg498
I203953
ssI201933
(dp1210
g130
VOklahoma
p1211
sg132
V251
p1212
sg134
V2017
p1213
sg136
F28.0
sg137
VMAR 16, 1989
p1214
sg139
V6-10
p1215
sg141
VBlake Griffin
p1216
sg143
I1610612746
sg144
V32
p1217
sg146
g331
sg147
V00
p1218
sg149
g23
sg150
I201933
ssI1627763
(dp1219
g478
VVirginia
p1220
sg480
V215
p1221
sg482
V2017
p1222
sg484
F24.0
sg485
VDEC 11, 1992
p1223
sg487
V6-5
p1224
sg489
VMalcolm Brogdon
p1225
sg491
I1610612749
sg492
V13
p1226
sg494
g145
sg495
V00
p1227
sg497
g70
sg498
I1627763
ssI203957
(dp1228
g404
Nsg406
V190
p1229
sg408
V2017
p1230
sg410
F22.0
sg411
VJUL 13, 1995
p1231
sg413
V6-6
p1232
sg415
VDante Exum
p1233
sg417
I1610612762
sg418
V11
p1234
sg420
g66
sg422
V00
p1235
sg424
g70
sg425
I203957
ssI1627775
(dp1236
g2
VNevada-Las Vegas
p1237
sg4
V185
p1238
sg6
V2017
p1239
sg8
F22.0
sg9
VOCT 25, 1995
p1240
sg11
V6-7
p1241
sg13
VPatrick McCaw
p1242
sg15
I1610612744
sg16
g210
sg18
g145
sg20
V00
p1243
sg22
g70
sg24
I1627775
ssI202697
(dp1244
g26
VGeorgia Tech
p1245
sg28
V220
p1246
sg30
V2017
p1247
sg32
F27.0
sg33
VJUN 26, 1990
p1248
sg35
V6-5
p1249
sg37
VIman Shumpert
p1250
sg39
I1610612739
sg40
g124
sg42
g202
sg44
V00
p1251
sg46
g70
sg47
I202697
ssI1627832
(dp1252
g293
VWichita State
p1253
sg295
V195
p1254
sg297
V2017
p1255
sg299
F23.0
sg300
VFEB 25, 1994
p1256
sg302
V6-0
p1257
sg304
VFred VanVleet
p1258
sg306
I1610612761
sg307
V23
p1259
sg309
g145
sg310
V00
p1260
sg312
g70
sg313
I1627832
ssI203962
(dp1261
g519
VStanford
p1262
sg521
V230
p1263
sg523
V2017
p1264
sg525
F25.0
sg526
VDEC 19, 1991
p1265
sg528
V6-7
p1266
sg530
VJosh Huestis
p1267
sg532
I1610612760
sg533
V34
p1268
sg535
g66
sg536
V00
p1269
sg538
g23
sg539
I203962
ssI1627835
(dp1270
g232
Nsg234
V226
p1271
sg236
V2017
p1272
sg238
F23.0
sg239
VFEB 18, 1994
p1273
sg241
V6-8
p1274
sg243
VPaul Zipser
p1275
sg245
I1610612741
sg246
V16
p1276
sg248
g145
sg249
V00
p1277
sg251
g23
sg252
I1627835
ssI203488
(dp1278
g73
VBucknell
p1279
sg75
V240
p1280
sg77
V2017
p1281
sg79
F26.0
sg80
VJUL 01, 1991
p1282
sg82
V6-11
p1283
sg84
VMike Muscala
p1284
sg86
I1610612737
sg87
V31
p1285
sg89
g124
sg91
V00
p1286
sg93
VF-C
p1287
sg95
I203488
ssI2749
(dp1288
g107
VSaint Joseph's
p1289
sg109
V190
p1290
sg111
V2017
p1291
sg113
F35.0
sg114
VFEB 09, 1982
p1292
sg116
V6-0
p1293
sg118
VJameer Nelson
p1294
sg120
I1610612740
sg121
V14
p1295
sg123
V13
p1296
sg125
V00
p1297
sg127
g70
sg128
I2749
ssI203966
(dp1298
g130
VMarquette
p1299
sg132
V229
p1300
sg134
V2017
p1301
sg136
F26.0
sg137
VNOV 21, 1990
p1302
sg139
V6-7
p1303
sg141
VJamil Wilson
p1304
sg143
I1610612746
sg144
V13
p1305
sg146
g104
sg147
V00
p1306
sg149
g23
sg150
I203966
ssI1628021
(dp1307
g232
VCal Poly-S.L.O.
p1308
sg234
V209
p1309
sg236
V2017
p1310
sg238
F24.0
sg239
VJAN 14, 1993
p1311
sg241
V6-4
p1312
sg243
VDavid Nwaba
p1313
sg245
I1610612741
sg246
V11
p1314
sg248
g145
sg249
V00
p1315
sg251
g70
sg252
I1628021
ssI203457
(dp1316
g382
VKentucky
p1317
sg384
V220
p1318
sg386
V2017
p1319
sg388
F23.0
sg389
VAPR 10, 1994
p1320
sg391
V6-11
p1321
sg393
VNerlens Noel
p1322
sg395
I1610612742
sg396
g17
sg398
g17
sg399
V00
p1323
sg401
g94
sg402
I203457
ssI2754
(dp1324
g107
VOklahoma State
p1325
sg109
V213
p1326
sg111
V2017
p1327
sg113
F35.0
sg114
VJAN 11, 1982
p1328
sg116
V6-4
p1329
sg118
VTony Allen
p1330
sg120
I1610612740
sg121
V24
p1331
sg123
V13
p1332
sg125
V00
p1333
sg127
VG-F
p1334
sg128
I2754
ssI203460
(dp1335
g519
VColorado
p1336
sg521
V210
p1337
sg523
V2017
p1338
sg525
F25.0
sg526
VDEC 04, 1991
p1339
sg528
V6-7
p1340
sg530
VAndre Roberson
p1341
sg532
I1610612760
sg533
V21
p1342
sg535
g124
sg536
V00
p1343
sg538
g70
sg539
I203460
ssI1627846
(dp1344
g541
VIowa State
p1345
sg543
V230
p1346
sg545
V2017
p1347
sg547
F24.0
sg548
VSEP 25, 1993
p1348
sg550
V6-6
p1349
sg552
VAbdel Nader
p1350
sg554
I1610612738
sg555
V28
p1351
sg557
g104
sg558
V00
p1352
sg560
g23
sg561
I1627846
ssI203463
(dp1353
g263
VKansas
p1354
sg265
V195
p1355
sg267
V2017
p1356
sg269
F24.0
sg270
VFEB 11, 1993
p1357
sg272
V6-5
p1358
sg274
VBen McLemore
p1359
sg276
I1610612763
sg277
V23
p1360
sg278
g124
sg279
V00
p1361
sg281
g70
sg282
I203463
ssI203464
(dp1362
g49
Nsg51
V200
p1363
sg53
V2017
p1364
sg55
F26.0
sg56
VAPR 30, 1991
p1365
sg58
V6-4
p1366
sg60
VBrandon Paul
p1367
sg62
I1610612759
sg63
g17
sg65
g104
sg67
V00
p1368
sg69
g70
sg71
I203464
ssI203499
(dp1369
g541
VMiami (FL)
p1370
sg543
V175
p1371
sg545
V2017
p1372
sg547
F25.0
sg548
VOCT 02, 1992
p1373
sg550
V5-11
p1374
sg552
VShane Larkin
p1375
sg554
I1610612738
sg555
g379
sg557
g17
sg558
V00
p1376
sg560
g70
sg561
I203499
ssI202684
(dp1377
g26
VTexas
p1378
sg28
V238
p1379
sg30
V2017
p1380
sg32
F26.0
sg33
VMAR 13, 1991
p1381
sg35
V6-9
p1382
sg37
VTristan Thompson
p1383
sg39
I1610612739
sg40
V13
p1384
sg42
g202
sg44
V00
p1385
sg46
VC-F
p1386
sg47
I202684
ssI1627852
(dp1387
g73
Nsg75
V195
p1388
sg77
V2017
p1389
sg79
F24.0
sg80
VMAR 02, 1993
p1390
sg82
V6-8
p1391
sg84
VNicolas Brussino
p1392
sg86
I1610612737
sg87
V16
p1393
sg89
g145
sg91
V00
p1394
sg93
g23
sg95
I1627852
ssI1627853
(dp1395
g232
VVillanova
p1396
sg234
V195
p1397
sg236
V2017
p1398
sg238
F23.0
sg239
VMAR 26, 1994
p1399
sg241
V6-3
p1400
sg243
VRyan Arcidiacono
p1401
sg245
I1610612741
sg246
V15
p1402
sg248
g104
sg249
V00
p1403
sg251
g70
sg252
I1627853
ssI1628366
(dp1404
g152
VCalifornia-Los Angeles
p1405
sg154
V190
p1406
sg156
V2017
p1407
sg158
F20.0
sg159
VOCT 27, 1997
p1408
sg161
V6-6
p1409
sg163
VLonzo Ball
p1410
sg165
I1610612747
sg166
g66
sg168
g104
sg169
V00
p1411
sg171
g70
sg172
I1628366
ssI1627855
(dp1412
g342
VFlorida State
p1413
sg344
V215
p1414
sg346
V2017
p1415
sg348
F25.0
sg349
VAUG 13, 1992
p1416
sg351
V6-8
p1417
sg353
VOkaro White
p1418
sg355
I1610612748
sg356
V15
p1419
sg358
g145
sg359
V00
p1420
sg361
g23
sg362
I1627855
ssI201936
(dp1421
g263
VMemphis
p1422
sg265
V220
p1423
sg267
V2017
p1424
sg269
F28.0
sg270
VSEP 19, 1989
p1425
sg272
V6-6
p1426
sg274
VTyreke Evans
p1427
sg276
I1610612763
sg277
V12
p1428
sg278
g379
sg279
V00
p1429
sg281
VG-F
p1430
sg282
I201936
ssI201937
(dp1431
g404
VEl Masnou, Spain
p1432
sg406
V190
p1433
sg408
V2017
p1434
sg410
F27.0
sg411
VOCT 21, 1990
p1435
sg413
V6-4
p1436
sg415
VRicky Rubio
p1437
sg417
I1610612762
sg418
g17
sg420
g202
sg422
V00
p1438
sg424
g70
sg425
I201937
ssI201939
(dp1439
g2
VDavidson
p1440
sg4
V190
p1441
sg6
V2017
p1442
sg8
F29.0
sg9
VMAR 14, 1988
p1443
sg11
V6-3
p1444
sg13
VStephen Curry
p1445
sg15
I1610612744
sg16
V30
p1446
sg18
g379
sg20
V00
p1447
sg22
g70
sg24
I201939
ssI1628372
(dp1448
g382
VNorth Carolina State
p1449
sg384
V195
p1450
sg386
V2017
p1451
sg388
F19.0
sg389
VNOV 25, 1997
p1452
sg391
V6-3
p1453
sg393
VDennis Smith Jr.
p1454
sg395
I1610612742
sg396
g145
sg398
g104
sg399
V00
p1455
sg401
g70
sg402
I1628372
ssI1627854
(dp1456
g49
VMichigan State
p1457
sg51
V190
p1458
sg53
V2017
p1459
sg55
F24.0
sg56
VJUL 23, 1993
p1460
sg58
V6-3
p1461
sg60
VBryn Forbes
p1462
sg62
I1610612759
sg63
V11
p1463
sg65
g145
sg67
V00
p1464
sg69
g70
sg71
I1627854
ssI201942
(dp1465
g293
VSouthern California
p1466
sg295
V220
p1467
sg297
V2017
p1468
sg299
F28.0
sg300
VAUG 07, 1989
p1469
sg302
V6-7
p1470
sg304
VDeMar DeRozan
p1471
sg306
I1610612761
sg307
V10
p1472
sg309
g379
sg310
V00
p1473
sg312
g70
sg313
I201942
ssI203991
(dp1474
g597
Nsg599
V240
p1475
sg601
V2017
p1476
sg603
F23.0
sg604
VMAY 18, 1994
p1477
sg606
V6-10
p1478
sg608
VClint Capela
p1479
sg610
I1610612745
sg611
V15
p1480
sg612
g17
sg613
V00
p1481
sg615
g94
sg616
I203991
ssI203481
(dp1482
g382
VKansas
p1483
sg384
V230
p1484
sg386
V2017
p1485
sg388
F27.0
sg389
VMAR 07, 1990
p1486
sg391
V7-0
p1487
sg393
VJeff Withey
p1488
sg395
I1610612742
sg396
V17
p1489
sg398
g124
sg399
V00
p1490
sg401
g94
sg402
I203481
ssI1628378
(dp1491
g404
VLouisville
p1492
sg406
V215
p1493
sg408
V2017
p1494
sg410
F21.0
sg411
VSEP 07, 1996
p1495
sg413
V6-3
p1496
sg415
VDonovan Mitchell
p1497
sg417
I1610612762
sg418
V45
p1498
sg420
g104
sg422
V00
p1499
sg424
g70
sg425
I1628378
ssI201935
(dp1500
g597
VArizona State
p1501
sg599
V220
p1502
sg601
V2017
p1503
sg603
F28.0
sg604
VAUG 26, 1989
p1504
sg606
V6-5
p1505
sg608
VJames Harden
p1506
sg610
I1610612745
sg611
V13
p1507
sg612
g379
sg613
V00
p1508
sg615
g70
sg616
I201935
ssI203484
(dp1509
g152
VGeorgia
p1510
sg154
V205
p1511
sg156
V2017
p1512
sg158
F24.0
sg159
VFEB 18, 1993
p1513
sg161
V6-5
p1514
sg163
VKentavious Caldwell-Pope
p1515
sg165
I1610612747
sg166
g145
sg168
g124
sg169
V00
p1516
sg171
g70
sg172
I203484
ssI201949
(dp1517
g342
VWake Forest
p1518
sg344
V240
p1519
sg346
V2017
p1520
sg348
F30.0
sg349
VFEB 20, 1987
p1521
sg351
V6-8
p1522
sg353
VJames Johnson
p1523
sg355
I1610612748
sg356
V16
p1524
sg358
g379
sg359
V00
p1525
sg361
g23
sg362
I201949
ssI203998
(dp1526
g293
Nsg295
V205
p1527
sg297
V2017
p1528
sg299
F22.0
sg300
VSEP 21, 1995
p1529
sg302
V6-9
p1530
sg304
VBruno Caboclo
p1531
sg306
I1610612761
sg307
g90
sg309
g17
sg310
V00
p1532
sg312
g23
sg313
I203998
ssI203999
(dp1533
g174
Nsg176
V250
p1534
sg178
V2017
p1535
sg180
F22.0
sg181
VFEB 19, 1995
p1536
sg183
V6-10
p1537
sg185
VNikola Jokic
p1538
sg187
I1610612743
sg188
V15
p1539
sg189
g66
sg191
V00
p1540
sg193
g94
sg194
I203999
ssI1628384
(dp1541
g293
VIndiana
p1542
sg295
V235
p1543
sg297
V2017
p1544
sg299
F20.0
sg300
VJUL 17, 1997
p1545
sg302
V6-8
p1546
sg304
VOG Anunoby
p1547
sg306
I1610612761
sg307
g17
sg309
g104
sg310
V00
p1548
sg312
g23
sg313
I1628384
ssI203489
(dp1549
g404
VSouth Dakota State
p1550
sg406
V190
p1551
sg408
V2017
p1552
sg410
F26.0
sg411
VMAY 15, 1991
p1553
sg413
V6-4
p1554
sg415
VNate Wolters
p1555
sg417
I1610612762
sg418
V16
p1556
sg420
g66
sg422
V00
p1557
sg424
g70
sg425
I203489
ssI1627362
(dp1558
g597
VVirginia Commonwealth
p1559
sg599
V165
p1560
sg601
V2017
p1561
sg603
F24.0
sg604
VDEC 29, 1992
p1562
sg606
V6-2
p1563
sg608
VBriante Weber
p1564
sg610
I1610612745
sg611
g210
sg612
g66
sg613
V00
p1565
sg615
g70
sg616
I1627362
ssI201956
(dp1566
g2
VYavne, Israel
p1567
sg4
V225
p1568
sg6
V2017
p1569
sg8
F29.0
sg9
VJUN 22, 1988
p1570
sg11
V6-9
p1571
sg13
VOmri Casspi
p1572
sg15
I1610612744
sg16
V18
p1573
sg18
g379
sg20
V00
p1574
sg22
g23
sg24
I201956
ssI1628389
(dp1575
g342
VKentucky
p1576
sg344
V255
p1577
sg346
V2017
p1578
sg348
F20.0
sg349
VJUL 18, 1997
p1579
sg351
V6-10
p1580
sg353
VBam Adebayo
p1581
sg355
I1610612748
sg356
V13
p1582
sg358
g104
sg359
V00
p1583
sg361
VC-F
p1584
sg362
I1628389
ssI1628390
(dp1585
g519
Nsg521
V184
p1586
sg523
V2017
p1587
sg525
F19.0
sg526
VMAY 17, 1998
p1588
sg528
V6-7
p1589
sg530
VTerrance Ferguson
p1590
sg532
I1610612760
sg533
V23
p1591
sg535
g104
sg536
V00
p1592
sg538
g70
sg539
I1628390
ssI1628391
(dp1593
g478
VMichigan
p1594
sg480
V236
p1595
sg482
V2017
p1596
sg484
F21.0
sg485
VFEB 19, 1996
p1597
sg487
V6-10
p1598
sg489
VD.J. Wilson
p1599
sg491
I1610612749
sg492
g90
sg494
g104
sg495
V00
p1600
sg497
g23
sg498
I1628391
ssI203497
(dp1601
g404
VFrance
p1602
sg406
V245
p1603
sg408
V2017
p1604
sg410
F25.0
sg411
VJUN 26, 1992
p1605
sg413
V7-1
p1606
sg415
VRudy Gobert
p1607
sg417
I1610612762
sg418
V27
p1608
sg420
g124
sg422
V00
p1609
sg424
g94
sg425
I203497
ssI1627883
(dp1610
g107
VTexas A&M
p1611
sg109
V220
p1612
sg111
V2017
p1613
sg113
F24.0
sg114
VMAY 27, 1993
p1614
sg116
V6-7
p1615
sg118
VJalen Jones
p1616
sg120
I1610612740
sg121
V12
p1617
sg123
g104
sg125
V00
p1618
sg127
g23
sg128
I1627883
ssI1628396
(dp1619
g404
VNorth Carolina
p1620
sg406
V248
p1621
sg408
V2017
p1622
sg410
F19.0
sg411
VJAN 08, 1998
p1623
sg413
V6-10
p1624
sg415
VTony Bradley
p1625
sg417
I1610612762
sg418
V13
p1626
sg420
g104
sg422
V00
p1627
sg424
g94
sg425
I1628396
ssI1628397
(dp1628
g263
VCalifornia
p1629
sg265
V220
p1630
sg267
V2017
p1631
sg269
F20.0
sg270
VFEB 04, 1997
p1632
sg272
V6-10
p1633
sg274
VIvan Rabb
p1634
sg276
I1610612763
sg277
V10
p1635
sg278
g104
sg279
V00
p1636
sg281
g23
sg282
I1628397
ssI1628398
(dp1637
g152
VUtah
p1638
sg154
V220
p1639
sg156
V2017
p1640
sg158
F22.0
sg159
VJUL 24, 1995
p1641
sg161
V6-9
p1642
sg163
VKyle Kuzma
p1643
sg165
I1610612747
sg166
g210
sg168
g104
sg169
V00
p1644
sg171
g23
sg172
I1628398
ssI203503
(dp1645
g478
VNew Mexico
p1646
sg480
V221
p1647
sg482
V2017
p1648
sg484
F26.0
sg485
VNOV 10, 1991
p1649
sg487
V6-7
p1650
sg489
VTony Snell
p1651
sg491
I1610612749
sg492
V21
p1652
sg494
g124
sg495
V00
p1653
sg497
g70
sg498
I203503
ssI1628400
(dp1654
g541
VSouthern Methodist
p1655
sg543
V235
p1656
sg545
V2017
p1657
sg547
F22.0
sg548
VDEC 05, 1994
p1658
sg550
V6-7
p1659
sg552
VSemi Ojeleye
p1660
sg554
I1610612738
sg555
V37
p1661
sg557
g104
sg558
V00
p1662
sg560
g23
sg561
I1628400
ssI203505
(dp1663
g152
VMarquette
p1664
sg154
V200
p1665
sg156
V2017
p1666
sg158
F25.0
sg159
VJUL 17, 1992
p1667
sg161
V6-5
p1668
sg163
VVander Blue
p1669
sg165
I1610612747
sg166
V17
p1670
sg168
g66
sg169
V00
p1671
sg171
g70
sg172
I203505
ssI1628402
(dp1672
g107
VDuke
p1673
sg109
V205
p1674
sg111
V2017
p1675
sg113
F19.0
sg114
VMAY 04, 1998
p1676
sg116
V6-3
p1677
sg118
VFrank Jackson
p1678
sg120
I1610612740
sg121
V15
p1679
sg123
g104
sg125
V00
p1680
sg127
g70
sg128
I1628402
ssI203507
(dp1681
g478
VGreece
p1682
sg480
V222
p1683
sg482
V2017
p1684
sg484
F22.0
sg485
VDEC 06, 1994
p1685
sg487
V6-11
p1686
sg489
VGiannis Antetokounmpo
p1687
sg491
I1610612749
sg492
V34
p1688
sg494
g124
sg495
V00
p1689
sg497
g23
sg498
I203507
ssI204020
(dp1690
g342
VFresno State
p1691
sg344
V190
p1692
sg346
V2017
p1693
sg348
F25.0
sg349
VMAY 07, 1992
p1694
sg351
V6-4
p1695
sg353
VTyler Johnson
p1696
sg355
I1610612748
sg356
g379
sg358
g17
sg359
V00
p1697
sg361
g70
sg362
I204020
ssI201973
(dp1698
g404
VKinna, Sweden
p1699
sg406
V231
p1700
sg408
V2017
p1701
sg410
F30.0
sg411
VMAR 02, 1987
p1702
sg413
V6-10
p1703
sg415
VJonas Jerebko
p1704
sg417
I1610612762
sg418
g379
sg420
g331
sg422
V00
p1705
sg424
g23
sg425
I201973
ssI203512
(dp1706
g293
Nsg295
V220
p1707
sg297
V2017
p1708
sg299
F25.0
sg300
VJUL 26, 1992
p1709
sg302
V7-0
p1710
sg304
VLucas Nogueira
p1711
sg306
I1610612761
sg307
V92
p1712
sg309
g17
sg310
V00
p1713
sg312
g94
sg313
I203512
ssI2772
(dp1714
g597
VUCLA
p1715
sg599
V215
p1716
sg601
V2017
p1717
sg603
F32.0
sg604
VJUN 30, 1985
p1718
sg606
V6-8
p1719
sg608
VTrevor Ariza
p1720
sg610
I1610612745
sg611
g145
sg612
V13
p1721
sg613
V00
p1722
sg615
VF-G
p1723
sg616
I2772
ssI203903
(dp1724
g152
VMissouri
p1725
sg154
V194
p1726
sg156
V2017
p1727
sg158
F25.0
sg159
VJUN 07, 1992
p1728
sg161
V6-5
p1729
sg163
VJordan Clarkson
p1730
sg165
I1610612747
sg166
g202
sg168
g17
sg169
V00
p1731
sg171
g70
sg172
I203903
ssI203516
(dp1732
g263
VLong Beach State
p1733
sg265
V210
p1734
sg267
V2017
p1735
sg269
F27.0
sg270
VJUL 01, 1990
p1736
sg272
V6-7
p1737
sg274
VJames Ennis III
p1738
sg276
I1610612763
sg277
g379
sg278
g17
sg279
V00
p1739
sg281
g23
sg282
I203516
ssI203518
(dp1740
g519
Nsg521
V190
p1741
sg523
V2017
p1742
sg525
F24.0
sg526
VAUG 01, 1993
p1743
sg528
V6-6
p1744
sg530
VAlex Abrines
p1745
sg532
I1610612760
sg533
g379
sg535
g145
sg536
V00
p1746
sg538
g70
sg539
I203518
ssI1628415
(dp1747
g263
VOregon
p1748
sg265
V220
p1749
sg267
V2017
p1750
sg269
F21.0
sg270
VJAN 22, 1996
p1751
sg272
V6-6
p1752
sg274
VDillon Brooks
p1753
sg276
I1610612763
sg277
V24
p1754
sg278
g104
sg279
V00
p1755
sg281
VF-G
p1756
sg282
I1628415
ssI1628416
(dp1757
g73
VOregon
p1758
sg75
V183
p1759
sg77
V2017
p1760
sg79
F21.0
sg80
VFEB 18, 1996
p1761
sg82
V6-4
p1762
sg84
VTyler Dorsey
p1763
sg86
I1610612737
sg87
g66
sg89
g104
sg91
V00
p1764
sg93
g70
sg95
I1628416
ssI203521
(dp1765
g478
VSaint Mary's (CA)
p1766
sg480
V198
p1767
sg482
V2017
p1768
sg484
F27.0
sg485
VSEP 08, 1990
p1769
sg487
V6-4
p1770
sg489
VMatthew Dellavedova
p1771
sg491
I1610612749
sg492
g379
sg494
g124
sg495
V00
p1772
sg497
g70
sg498
I203521
ssI1628418
(dp1773
g152
VIndiana
p1774
sg154
V248
p1775
sg156
V2017
p1776
sg158
F20.0
sg159
VJUL 31, 1997
p1777
sg161
V6-10
p1778
sg163
VThomas Bryant
p1779
sg165
I1610612747
sg166
V31
p1780
sg168
g104
sg169
V00
p1781
sg171
g94
sg172
I1628418
ssI1628506
(dp1782
g26
VVirginia
p1783
sg28
V190
p1784
sg30
V2017
p1785
sg32
F23.0
sg33
VOCT 03, 1994
p1786
sg35
V6-2
p1787
sg37
VLondon Perrantes
p1788
sg39
I1610612739
sg40
V15
p1789
sg42
g104
sg44
V00
p1790
sg46
g70
sg47
I1628506
ssI1628420
(dp1791
g174
VIowa State
p1792
sg176
V175
p1793
sg178
V2017
p1794
sg180
F22.0
sg181
VJUN 27, 1995
p1795
sg183
V6-3
p1796
sg185
VMonte Morris
p1797
sg187
I1610612743
sg188
V11
p1798
sg189
g104
sg191
V00
p1799
sg193
g70
sg194
I1628420
ssI1627770
(dp1800
g232
VOakland
p1801
sg234
V176
p1802
sg236
V2017
p1803
sg238
F22.0
sg239
VMAR 29, 1995
p1804
sg241
V5-9
p1805
sg243
VKay Felder
p1806
sg245
I1610612741
sg246
g17
sg248
g145
sg249
V00
p1807
sg251
g70
sg252
I1627770
ssI203526
(dp1808
g404
Nsg406
V179
p1809
sg408
V2017
p1810
sg410
F25.0
sg411
VMAY 19, 1992
p1811
sg413
V6-1
p1812
sg415
VRaul Neto
p1813
sg417
I1610612762
sg418
V25
p1814
sg420
g66
sg422
V00
p1815
sg424
g70
sg425
I203526
ssI1628424
(dp1816
g263
VArizona
p1817
sg265
V170
p1818
sg267
V2017
p1819
sg269
F20.0
sg270
VJUL 04, 1997
p1820
sg272
V6-4
p1821
sg274
VKobi Simmons
p1822
sg276
I1610612763
sg277
g66
sg278
g104
sg279
V00
p1823
sg281
g70
sg282
I1628424
ssI1628425
(dp1824
g478
VSouthern Methodist
p1825
sg480
V230
p1826
sg482
V2017
p1827
sg484
F22.0
sg485
VFEB 10, 1995
p1828
sg487
V6-6
p1829
sg489
VSterling Brown
p1830
sg491
I1610612749
sg492
V23
p1831
sg494
g104
sg495
V00
p1832
sg497
g70
sg498
I1628425
ssI203530
(dp1833
g49
Nsg51
V260
p1834
sg53
V2017
p1835
sg55
F26.0
sg56
VSEP 30, 1991
p1836
sg58
V6-11
p1837
sg60
VJoffrey Lauvergne
p1838
sg62
I1610612759
sg63
V77
p1839
sg65
g17
sg67
V00
p1840
sg69
g94
sg71
I203530
ssI1628429
(dp1841
g107
VDayton
p1842
sg109
V196
p1843
sg111
V2017
p1844
sg113
F23.0
sg114
VJUL 01, 1994
p1845
sg116
V6-5
p1846
sg118
VCharles Cooke
p1847
sg120
I1610612740
sg121
g124
sg123
g104
sg125
V00
p1848
sg127
g70
sg128
I1628429
ssI201980
(dp1849
g49
VNorth Carolina
p1850
sg51
V215
p1851
sg53
V2017
p1852
sg55
F30.0
sg56
VJUN 22, 1987
p1853
sg58
V6-6
p1854
sg60
VDanny Green
p1855
sg62
I1610612759
sg63
V14
p1856
sg65
g379
sg67
V00
p1857
sg69
VG-F
p1858
sg71
I201980
ssI101139
(dp1859
g293
VSkyline HS (TX)
p1860
sg295
V225
p1861
sg297
V2017
p1862
sg299
F30.0
sg300
VMAR 18, 1987
p1863
sg302
V6-6
p1864
sg304
VCJ Miles
p1865
sg306
I1610612761
sg307
g210
sg309
V12
p1866
sg310
V00
p1867
sg312
VF-G
p1868
sg313
I101139
ssI101141
(dp1869
g73
VEskisehir, Turkey
p1870
sg75
V235
p1871
sg77
V2017
p1872
sg79
F30.0
sg80
VMAY 15, 1987
p1873
sg82
V6-10
p1874
sg84
VErsan Ilyasova
p1875
sg86
I1610612737
sg87
g331
sg89
g43
sg91
V00
p1876
sg93
g23
sg95
I101141
ssI201177
(dp1877
g382
VDuke
p1878
sg384
V240
p1879
sg386
V2017
p1880
sg388
F30.0
sg389
VFEB 28, 1987
p1881
sg391
V6-10
p1882
sg393
VJosh McRoberts
p1883
sg395
I1610612742
sg396
V13
p1884
sg398
V10
p1885
sg399
V00
p1886
sg401
VF-C
p1887
sg402
I201177
ssI203546
(dp1888
g107
VBelmont
p1889
sg109
V175
p1890
sg111
V2017
p1891
sg113
F26.0
sg114
VMAR 07, 1991
p1892
sg116
V6-3
p1893
sg118
VIan Clark
p1894
sg120
I1610612740
sg121
g66
sg123
g124
sg125
V00
p1895
sg127
g70
sg128
I203546
ssI203547
(dp1896
g404
VCampbell
p1897
sg406
V205
p1898
sg408
V2017
p1899
sg410
F27.0
sg411
VMAY 26, 1990
p1900
sg413
V6-8
p1901
sg415
VEric Griffin
p1902
sg417
I1610612762
sg418
V17
p1903
sg420
g104
sg422
V00
p1904
sg424
VC-F
p1905
sg425
I203547
ssI204060
(dp1906
g404
Nsg406
V226
p1907
sg408
V2017
p1908
sg410
F30.0
sg411
VOCT 02, 1987
p1909
sg413
V6-8
p1910
sg415
VJoe Ingles
p1911
sg417
I1610612762
sg418
g66
sg420
g17
sg422
V00
p1912
sg424
g23
sg425
I204060
ssI203482
(dp1913
g342
VGonzaga
p1914
sg344
V245
p1915
sg346
V2017
p1916
sg348
F26.0
sg349
VAPR 19, 1991
p1917
sg351
V7-0
p1918
sg353
VKelly Olynyk
p1919
sg355
I1610612748
sg356
g43
sg358
g124
sg359
V00
p1920
sg361
VC-F
p1921
sg362
I203482
ssI101150
(dp1922
g130
VSouth Gwinnett HS (GA)
p1923
sg132
V175
p1924
sg134
V2017
p1925
sg136
F31.0
sg137
VOCT 27, 1986
p1926
sg139
V6-1
p1927
sg141
VLou Williams
p1928
sg143
I1610612746
sg144
V23
p1929
sg146
V12
p1930
sg147
V00
p1931
sg149
g70
sg150
I101150
ssI1626245
(dp1932
g232
Nsg234
V280
p1933
sg236
V2017
p1934
sg238
F25.0
sg239
VJUL 07, 1992
p1935
sg241
V6-9
p1936
sg243
VCristiano Felicio
p1937
sg245
I1610612741
sg246
g202
sg248
g66
sg249
V00
p1938
sg251
VC-F
p1939
sg252
I1626245
ssI203552
(dp1940
g382
VDuke
p1941
sg384
V185
p1942
sg386
V2017
p1943
sg388
F27.0
sg389
VAUG 23, 1990
p1944
sg391
V6-2
p1945
sg393
VSeth Curry
p1946
sg395
I1610612742
sg396
V30
p1947
sg398
g124
sg399
V00
p1948
sg401
g70
sg402
I203552
ssI1628449
(dp1949
g2
VOregon
p1950
sg4
V200
p1951
sg6
V2017
p1952
sg8
F24.0
sg9
VJAN 11, 1993
p1953
sg11
V6-10
p1954
sg13
VChris Boucher
p1955
sg15
I1610612744
sg16
V25
p1956
sg18
g104
sg20
V00
p1957
sg22
g23
sg24
I1628449
ssI204066
(dp1958
g26
VBoston U.
p1959
sg28
V205
p1960
sg30
V2017
p1961
sg32
F29.0
sg33
VNOV 06, 1988
p1962
sg35
V6-5
p1963
sg37
VJohn Holland
p1964
sg39
I1610612739
sg40
V10
p1965
sg42
g145
sg44
V00
p1966
sg46
VG-F
p1967
sg47
I204066
ssI201988
(dp1968
g49
VSaint Mary's (CA)
p1969
sg51
V185
p1970
sg53
V2017
p1971
sg55
F29.0
sg56
VAUG 11, 1988
p1972
sg58
V6-0
p1973
sg60
VPatty Mills
p1974
sg62
I1610612759
sg63
g379
sg65
g379
sg67
V00
p1975
sg69
g70
sg71
I201988
ssI203145
(dp1976
g73
VOld Dominion
p1977
sg75
V201
p1978
sg77
V2017
p1979
sg79
F28.0
sg80
VJUL 01, 1989
p1980
sg82
V6-5
p1981
sg84
VKent Bazemore
p1982
sg86
I1610612737
sg87
V24
p1983
sg89
g90
sg91
V00
p1984
sg93
g70
sg95
I203145
ssI101108
(dp1985
g597
VWake Forest
p1986
sg599
V175
p1987
sg601
V2017
p1988
sg603
F32.0
sg604
VMAY 06, 1985
p1989
sg606
V6-0
p1990
sg608
VChris Paul
p1991
sg610
I1610612745
sg611
g17
sg612
V12
p1992
sg613
V00
p1993
sg615
g70
sg616
I101108
ssI1628462
(dp1994
g130
Nsg132
V196
p1995
sg134
V2017
p1996
sg136
F30.0
sg137
VMAR 19, 1987
p1997
sg139
V6-5
p1998
sg141
VMilos Teodosic
p1999
sg143
I1610612746
sg144
g124
sg146
g104
sg147
V00
p2000
sg149
g70
sg150
I1628462
ssI203485
(dp2001
g293
VNorth Carolina State
p2002
sg295
V189
p2003
sg297
V2017
p2004
sg299
F27.0
sg300
VAUG 26, 1990
p2005
sg302
V6-5
p2006
sg304
VLorenzo Brown
p2007
sg306
I1610612761
sg307
g124
sg309
g17
sg310
V00
p2008
sg312
g70
sg313
I203485
ssI1628464
(dp2009
g541
Nsg543
V243
p2010
sg545
V2017
p2011
sg547
F25.0
sg548
VAPR 04, 1992
p2012
sg550
V6-9
p2013
sg552
VDaniel Theis
p2014
sg554
I1610612738
sg555
V27
p2015
sg557
g104
sg558
V00
p2016
sg560
VF-C
p2017
sg561
I1628464
ssI1628467
(dp2018
g382
Nsg384
V220
p2019
sg386
V2017
p2020
sg388
F25.0
sg389
VJAN 29, 1992
p2021
sg391
V6-11
p2022
sg393
VMaxi Kleber
p2023
sg395
I1610612742
sg396
V42
p2024
sg398
g104
sg399
V00
p2025
sg401
g23
sg402
I1628467
ssI203486
(dp2026
g174
VDuke
p2027
sg176
V255
p2028
sg178
V2017
p2029
sg180
F27.0
sg181
VMAR 05, 1990
p2030
sg183
V6-11
p2031
sg185
VMason Plumlee
p2032
sg187
I1610612743
sg188
V24
p2033
sg189
g124
sg191
V00
p2034
sg193
VC-F
p2035
sg194
I203486
ssI1628470
(dp2036
g174
VSouth Carolina Upstate
p2037
sg176
V215
p2038
sg178
V2017
p2039
sg180
F26.0
sg181
VDEC 19, 1990
p2040
sg183
V6-6
p2041
sg185
VTorrey Craig
p2042
sg187
I1610612743
sg188
g17
sg189
g104
sg191
V00
p2043
sg193
VG-F
p2044
sg194
I1628470
ssI2738
(dp2045
g2
VArizona
p2046
sg4
V215
p2047
sg6
V2017
p2048
sg8
F33.0
sg9
VJAN 28, 1984
p2049
sg11
V6-6
p2050
sg13
VAndre Iguodala
p2051
sg15
I1610612744
sg16
g43
sg18
V13
p2052
sg20
V00
p2053
sg22
VG-F
p2054
sg24
I2738
ssI1628475
(dp2055
g342
VCentral Florida
p2056
sg344
V210
p2057
sg346
V2017
p2058
sg348
F24.0
sg349
VOCT 14, 1993
p2059
sg351
V6-5
p2060
sg353
VMatt Williams Jr.
p2061
sg355
I1610612748
sg356
V12
p2062
sg358
g104
sg359
V00
p2063
sg361
g70
sg362
I1628475
ssI1628476
(dp2064
g342
VMichigan
p2065
sg344
V185
p2066
sg346
V2017
p2067
sg348
F22.0
sg349
VAPR 03, 1995
p2068
sg351
V6-1
p2069
sg353
VDerrick Walton Jr.
p2070
sg355
I1610612748
sg356
V14
p2071
sg358
g104
sg359
V00
p2072
sg361
g70
sg362
I1628476
ssI1627786
(dp2073
g597
VIndiana
p2074
sg599
V218
p2075
sg601
V2017
p2076
sg603
F22.0
sg604
VDEC 30, 1994
p2077
sg606
V6-7
p2078
sg608
VTroy Williams
p2079
sg610
I1610612745
sg611
g90
sg612
g145
sg613
V00
p2080
sg615
g23
sg616
I1627786
ssI1628469
(dp2081
g232
VLouisiana State
p2082
sg234
V197
p2083
sg236
V2017
p2084
sg238
F21.0
sg239
VOCT 04, 1996
p2085
sg241
V6-4
p2086
sg243
VAntonio Blakeney
p2087
sg245
I1610612741
sg246
g43
sg248
g104
sg249
V00
p2088
sg251
g70
sg252
I1628469
ssI203585
(dp2089
g342
VKansas State
p2090
sg344
V200
p2091
sg346
V2017
p2092
sg348
F26.0
sg349
VJUL 29, 1991
p2093
sg351
V6-4
p2094
sg353
VRodney McGruder
p2095
sg355
I1610612748
sg356
V17
p2096
sg358
g145
sg359
V00
p2097
sg361
VG-F
p2098
sg362
I203585
ssI203076
(dp2099
g107
VKentucky
p2100
sg109
V253
p2101
sg111
V2017
p2102
sg113
F24.0
sg114
VMAR 11, 1993
p2103
sg116
V6-10
p2104
sg118
VAnthony Davis
p2105
sg120
I1610612740
sg121
V23
p2106
sg123
g90
sg125
V00
p2107
sg127
VF-C
p2108
sg128
I203076
ssI203079
(dp2109
g342
VSyracuse
p2110
sg344
V215
p2111
sg346
V2017
p2112
sg348
F25.0
sg349
VDEC 10, 1991
p2113
sg351
V6-4
p2114
sg353
VDion Waiters
p2115
sg355
I1610612748
sg356
V11
p2116
sg358
g90
sg359
V00
p2117
sg361
g70
sg362
I203079
ssI1628369
(dp2118
g541
VDuke
p2119
sg543
V205
p2120
sg545
V2017
p2121
sg547
F19.0
sg548
VMAR 03, 1998
p2122
sg550
V6-8
p2123
sg552
VJayson Tatum
p2124
sg554
I1610612738
sg555
g210
sg557
g104
sg558
V00
p2125
sg560
g23
sg561
I1628369
ssI1628492
(dp2126
g382
VColorado State
p2127
sg384
V185
p2128
sg386
V2017
p2129
sg388
F23.0
sg389
VNOV 26, 1993
p2130
sg391
V6-4
p2131
sg393
VGian Clavell
p2132
sg395
I1610612742
sg396
g379
sg398
g104
sg399
V00
p2133
sg401
g70
sg402
I1628492
ssI203085
(dp2134
g130
VDuke
p2135
sg132
V200
p2136
sg134
V2017
p2137
sg136
F25.0
sg137
VAUG 01, 1992
p2138
sg139
V6-4
p2139
sg141
VAustin Rivers
p2140
sg143
I1610612746
sg144
V25
p2141
sg146
g90
sg147
V00
p2142
sg149
g70
sg150
I203085
ssI203089
(dp2143
g478
VNorth Carolina
p2144
sg480
V229
p2145
sg482
V2017
p2146
sg484
F26.0
sg485
VDEC 28, 1990
p2147
sg487
V6-11
p2148
sg489
VJohn Henson
p2149
sg491
I1610612749
sg492
V31
p2150
sg494
g90
sg495
V00
p2151
sg497
VF-C
p2152
sg498
I203089
ssI1627790
(dp2153
g26
Nsg28
V250
p2154
sg30
V2017
p2155
sg32
F20.0
sg33
VJAN 04, 1997
p2156
sg35
V6-11
p2157
sg37
VAnte Zizic
p2158
sg39
I1610612739
sg40
V41
p2159
sg42
g104
sg44
V00
p2160
sg46
VF-C
p2161
sg47
I1627790
ssI201976
(dp2162
g130
VArkansas
p2163
sg132
V185
p2164
sg134
V2017
p2165
sg136
F29.0
sg137
VJUL 12, 1988
p2166
sg139
V6-1
p2167
sg141
VPatrick Beverley
p2168
sg143
I1610612746
sg144
V21
p2169
sg146
g90
sg147
V00
p2170
sg149
g70
sg150
I201976
ssI1627824
(dp2171
g541
Nsg543
V260
p2172
sg545
V2017
p2173
sg547
F21.0
sg548
VDEC 17, 1995
p2174
sg550
V6-8
p2175
sg552
VGuerschon Yabusele
p2176
sg554
I1610612738
sg555
V30
p2177
sg557
g104
sg558
V00
p2178
sg560
g23
sg561
I1627824
ssI2747
(dp2179
g26
VSt. Benedict's Prep (NJ)
p2180
sg28
V225
p2181
sg30
V2017
p2182
sg32
F32.0
sg33
VSEP 09, 1985
p2183
sg35
V6-6
p2184
sg37
VJR Smith
p2185
sg39
I1610612739
sg40
g90
sg42
V13
p2186
sg44
V00
p2187
sg46
VG-F
p2188
sg47
I2747
ssI201565
(dp2189
g26
VMemphis
p2190
sg28
V190
p2191
sg30
V2017
p2192
sg32
F29.0
sg33
VOCT 04, 1988
p2193
sg35
V6-3
p2194
sg37
VDerrick Rose
p2195
sg39
I1610612739
sg40
g145
sg42
g379
sg44
V00
p2196
sg46
g70
sg47
I201565
ssI201566
(dp2197
g519
VUCLA
p2198
sg521
V200
p2199
sg523
V2017
p2200
sg525
F28.0
sg526
VNOV 12, 1988
p2201
sg528
V6-3
p2202
sg530
VRussell Westbrook
p2203
sg532
I1610612760
sg533
g210
sg535
g43
sg536
V00
p2204
sg538
g70
sg539
I201566
ssI201567
(dp2205
g26
VUCLA
p2206
sg28
V251
p2207
sg30
V2017
p2208
sg32
F29.0
sg33
VSEP 07, 1988
p2209
sg35
V6-10
p2210
sg37
VKevin Love
p2211
sg39
I1610612739
sg40
g210
sg42
g43
sg44
V00
p2212
sg46
VF-C
p2213
sg47
I201567
ssI201568
(dp2214
g130
VSant'Angelo Lodigiano, Italy
p2215
sg132
V225
p2216
sg134
V2017
p2217
sg136
F29.0
sg137
VAUG 08, 1988
p2218
sg139
V6-10
p2219
sg141
VDanilo Gallinari
p2220
sg143
I1610612746
sg144
g379
sg146
g379
sg147
V00
p2221
sg149
g23
sg150
I201568
ssI201569
(dp2222
g597
VIndiana
p2223
sg599
V215
p2224
sg601
V2017
p2225
sg603
F28.0
sg604
VDEC 25, 1988
p2226
sg606
V6-4
p2227
sg608
VEric Gordon
p2228
sg610
I1610612745
sg611
V10
p2229
sg612
g43
sg613
V00
p2230
sg615
g70
sg616
I201569
ssI1891
(dp2231
g478
VArizona
p2232
sg480
V185
p2233
sg482
V2017
p2234
sg484
F40.0
sg485
VSEP 15, 1977
p2235
sg487
V6-2
p2236
sg489
VJason Terry
p2237
sg491
I1610612749
sg492
g17
sg494
V18
p2238
sg495
V00
p2239
sg497
g70
sg498
I1891
ssI201572
(dp2240
g152
VStanford
p2241
sg154
V268
p2242
sg156
V2017
p2243
sg158
F29.0
sg159
VAPR 01, 1988
p2244
sg161
V7-0
p2245
sg163
VBrook Lopez
p2246
sg165
I1610612747
sg166
V11
p2247
sg168
g43
sg169
V00
p2248
sg171
g94
sg172
I201572
ssI203109
(dp2249
g26
VMarquette
p2250
sg28
V235
p2251
sg30
V2017
p2252
sg32
F27.0
sg33
VJUL 06, 1990
p2253
sg35
V6-6
p2254
sg37
VJae Crowder
p2255
sg39
I1610612739
sg40
V99
p2256
sg42
g90
sg44
V00
p2257
sg46
g23
sg47
I203109
ssI203110
(dp2258
g2
VMichigan State
p2259
sg4
V230
p2260
sg6
V2017
p2261
sg8
F27.0
sg9
VMAR 04, 1990
p2262
sg11
V6-7
p2263
sg13
VDraymond Green
p2264
sg15
I1610612744
sg16
V23
p2265
sg18
g90
sg20
V00
p2266
sg22
g23
sg24
I203110
ssI201577
(dp2267
g232
VStanford
p2268
sg234
V277
p2269
sg236
V2017
p2270
sg238
F29.0
sg239
VAPR 01, 1988
p2271
sg241
V7-0
p2272
sg243
VRobin Lopez
p2273
sg245
I1610612741
sg246
V42
p2274
sg248
g43
sg249
V00
p2275
sg251
g94
sg252
I201577
ssI203114
(dp2276
g478
VTexas A&M
p2277
sg480
V234
p2278
sg482
V2017
p2279
sg484
F26.0
sg485
VAUG 12, 1991
p2280
sg487
V6-8
p2281
sg489
VKhris Middleton
p2282
sg491
I1610612749
sg492
V22
p2283
sg494
g90
sg495
V00
p2284
sg497
g23
sg498
I203114
ssI203115
(dp2285
g174
VMemphis
p2286
sg176
V190
p2287
sg178
V2017
p2288
sg180
F26.0
sg181
VJAN 06, 1991
p2289
sg183
V6-6
p2290
sg185
VWill Barton
p2291
sg187
I1610612743
sg188
g90
sg189
g90
sg191
V00
p2292
sg193
VG-F
p2293
sg194
I203115
ssI201580
(dp2294
g2
VNevada
p2295
sg4
V270
p2296
sg6
V2017
p2297
sg8
F29.0
sg9
VJAN 19, 1988
p2298
sg11
V7-0
p2299
sg13
VJaVale McGee
p2300
sg15
I1610612744
sg16
g145
sg18
g43
sg20
V00
p2301
sg22
g94
sg24
I201580
ssI101112
(dp2302
g26
VArizona
p2303
sg28
V255
p2304
sg30
V2017
p2305
sg32
F34.0
sg33
VMAY 17, 1983
p2306
sg35
V6-11
p2307
sg37
VChanning Frye
p2308
sg39
I1610612739
sg40
g379
sg42
V11
p2309
sg44
V00
p2310
sg46
g23
sg47
I101112
ssI201582
(dp2311
g107
VSaint Etienne, France
p2312
sg109
V248
p2313
sg111
V2017
p2314
sg113
F29.0
sg114
VMAY 06, 1988
p2315
sg116
V7-2
p2316
sg118
VAlexis Ajinca
p2317
sg120
I1610612740
sg121
V42
p2318
sg123
g331
sg125
V00
p2319
sg127
g94
sg128
I201582
ssI200765
(dp2320
g107
VKentucky
p2321
sg109
V186
p2322
sg111
V2017
p2323
sg113
F31.0
sg114
VFEB 22, 1986
p2324
sg116
V6-1
p2325
sg118
VRajon Rondo
p2326
sg120
I1610612740
sg121
g43
sg123
V11
p2327
sg125
V00
p2328
sg127
g70
sg128
I200765
ssI1717
(dp2329
g382
VWurzburg, Germany
p2330
sg384
V245
p2331
sg386
V2017
p2332
sg388
F39.0
sg389
VJUN 19, 1978
p2333
sg391
V7-0
p2334
sg393
VDirk Nowitzki
p2335
sg395
I1610612742
sg396
V41
p2336
sg398
V19
p2337
sg399
V00
p2338
sg401
VF-C
p2339
sg402
I1717
ssI201586
(dp2340
g293
VBrazzaville, Rep. of Congo
p2341
sg295
V235
p2342
sg297
V2017
p2343
sg299
F28.0
sg300
VSEP 18, 1989
p2344
sg302
V6-10
p2345
sg304
VSerge Ibaka
p2346
sg306
I1610612761
sg307
g43
sg309
g379
sg310
V00
p2347
sg312
g23
sg313
I201586
ssI201589
(dp2348
g174
VKansas
p2349
sg176
V235
p2350
sg178
V2017
p2351
sg180
F29.0
sg181
VMAR 25, 1988
p2352
sg183
V6-9
p2353
sg185
VDarrell Arthur
p2354
sg187
I1610612743
sg188
V00
p2355
sg189
g379
sg191
V00
p2356
sg193
g23
sg194
I201589
ssI201961
(dp2357
g342
VNorth Carolina
p2358
sg344
V200
p2359
sg346
V2017
p2360
sg348
F29.0
sg349
VNOV 29, 1987
p2361
sg351
V6-5
p2362
sg353
VWayne Ellington
p2363
sg355
I1610612748
sg356
g66
sg358
g379
sg359
V00
p2364
sg361
g70
sg362
I201961
ssI201596
(dp2365
g263
VKansas
p2366
sg265
V190
p2367
sg267
V2017
p2368
sg269
F31.0
sg270
VMAY 19, 1986
p2369
sg272
V6-2
p2370
sg274
VMario Chalmers
p2371
sg276
I1610612763
sg277
g202
sg278
g379
sg279
V00
p2372
sg281
g70
sg282
I201596
ssI201599
(dp2373
g130
VTexas A&M
p2374
sg132
V265
p2375
sg134
V2017
p2376
sg136
F29.0
sg137
VJUL 21, 1988
p2377
sg139
V6-11
p2378
sg141
VDeAndre Jordan
p2379
sg143
I1610612746
sg144
g202
sg146
g43
sg147
V00
p2380
sg149
g94
sg150
I201599
ssI201600
(dp2381
g107
VTurkey
p2382
sg109
V255
p2383
sg111
V2017
p2384
sg113
F31.0
sg114
VJUL 04, 1986
p2385
sg116
V7-0
p2386
sg118
VOmer Asik
p2387
sg120
I1610612740
sg121
g17
sg123
g331
sg125
V00
p2388
sg127
g94
sg128
I201600
ssI201601
(dp2389
g597
VUCLA
p2390
sg599
V230
p2391
sg601
V2017
p2392
sg603
F31.0
sg604
VSEP 09, 1986
p2393
sg606
V6-8
p2394
sg608
VLuc Mbah a Moute
p2395
sg610
I1610612745
sg611
V12
p2396
sg612
g43
sg613
V00
p2397
sg615
g23
sg616
I201601
ssI1628035
(dp2398
g293
VWisc.-Green Bay
p2399
sg295
V215
p2400
sg297
V2017
p2401
sg299
F25.0
sg300
VSEP 17, 1992
p2402
sg302
V6-8
p2403
sg304
VAlfonzo McKinnie
p2404
sg306
I1610612761
sg307
V34
p2405
sg309
g104
sg310
V00
p2406
sg312
g23
sg313
I1628035
ssI203141
(dp2407
g478
VBosnia
p2408
sg480
V242
p2409
sg482
V2017
p2410
sg484
F32.0
sg485
VSEP 17, 1985
p2411
sg487
V6-9
p2412
sg489
VMirza Teletovic
p2413
sg491
I1610612749
sg492
V35
p2414
sg494
g90
sg495
V00
p2415
sg497
g23
sg498
I203141
ssI200752
(dp2416
g49
VConnecticut
p2417
sg51
V230
p2418
sg53
V2017
p2419
sg55
F31.0
sg56
VAUG 17, 1986
p2420
sg58
V6-8
p2421
sg60
VRudy Gay
p2422
sg62
I1610612759
sg63
V22
p2423
sg65
V11
p2424
sg67
V00
p2425
sg69
g23
sg71
I200752
ssI201609
(dp2426
g342
VLjubljana, Slovenia
p2427
sg344
V190
p2428
sg346
V2017
p2429
sg348
F31.0
sg349
VMAY 06, 1986
p2430
sg351
V6-3
p2431
sg353
VGoran Dragic
p2432
sg355
I1610612748
sg356
g331
sg358
g43
sg359
V00
p2433
sg361
g70
sg362
I201609
ssI203935
(dp2434
g541
VOklahoma State
p2435
sg543
V220
p2436
sg545
V2017
p2437
sg547
F23.0
sg548
VMAR 06, 1994
p2438
sg550
V6-4
p2439
sg552
VMarcus Smart
p2440
sg554
I1610612738
sg555
V36
p2441
sg557
g17
sg558
V00
p2442
sg560
g70
sg561
I203935
ssI1938
(dp2443
g49
VBahia Blanca, Argentina
p2444
sg51
V205
p2445
sg53
V2017
p2446
sg55
F40.0
sg56
VJUL 28, 1977
p2447
sg58
V6-6
p2448
sg60
VManu Ginobili
p2449
sg62
I1610612759
sg63
V20
p2450
sg65
V15
p2451
sg67
V00
p2452
sg69
g70
sg71
I1938
ssI1628399
(dp2453
g174
VSyracuse
p2454
sg176
V220
p2455
sg178
V2017
p2456
sg180
F21.0
sg181
VAPR 09, 1996
p2457
sg183
V6-9
p2458
sg185
VTyler Lydon
p2459
sg187
I1610612743
sg188
V20
p2460
sg189
g104
sg191
V00
p2461
sg193
g23
sg194
I1628399
ssI201628
(dp2462
g597
VCal State-Fullerton
p2463
sg599
V175
p2464
sg601
V2017
p2465
sg603
F33.0
sg604
VSEP 24, 1984
p2466
sg606
V6-2
p2467
sg608
VBobby Brown
p2468
sg610
I1610612745
sg611
g202
sg612
g17
sg613
V00
p2469
sg615
g70
sg616
I201628
ssI1628401
(dp2470
g49
VColorado
p2471
sg51
V190
p2472
sg53
V2017
p2473
sg55
F23.0
sg56
VJUL 02, 1994
p2474
sg58
V6-4
p2475
sg60
VDerrick White
p2476
sg62
I1610612759
sg63
g124
sg65
g104
sg67
V00
p2477
sg69
g70
sg71
I1628401
ssI101106
(dp2478
g152
VUtah
p2479
sg154
V260
p2480
sg156
V2017
p2481
sg158
F32.0
sg159
VNOV 28, 1984
p2482
sg161
V7-0
p2483
sg163
VAndrew Bogut
p2484
sg165
I1610612747
sg166
V66
p2485
sg168
V12
p2486
sg169
V00
p2487
sg171
g94
sg172
I101106
ssI202330
(dp2488
g541
VButler
p2489
sg543
V226
p2490
sg545
V2017
p2491
sg547
F27.0
sg548
VMAR 23, 1990
p2492
sg550
V6-8
p2493
sg552
VGordon Hayward
p2494
sg554
I1610612738
sg555
V20
p2495
sg557
g331
sg558
V00
p2496
sg560
g23
sg561
I202330
ssI1628381
(dp2497
g73
VWake Forest
p2498
sg75
V235
p2499
sg77
V2017
p2500
sg79
F20.0
sg80
VSEP 23, 1997
p2501
sg82
V6-10
p2502
sg84
VJohn Collins
p2503
sg86
I1610612737
sg87
V20
p2504
sg89
g104
sg91
V00
p2505
sg93
VF-C
p2506
sg95
I1628381
ssI203186
(dp2507
g130
VSaint Louis
p2508
sg132
V245
p2509
sg134
V2017
p2510
sg136
F27.0
sg137
VMAY 16, 1990
p2511
sg139
V6-11
p2512
sg141
VWillie Reed
p2513
sg143
I1610612746
sg144
V35
p2514
sg146
g66
sg147
V00
p2515
sg149
g94
sg150
I203186
ssI203473
(dp2516
g73
VSouthern California
p2517
sg75
V245
p2518
sg77
V2017
p2519
sg79
F28.0
sg80
VAUG 12, 1989
p2520
sg82
V7-0
p2521
sg84
VDewayne Dedmon
p2522
sg86
I1610612737
sg87
V14
p2523
sg89
g124
sg91
V00
p2524
sg93
g94
sg95
I203473
ssI201142
(dp2525
g2
VTexas
p2526
sg4
V240
p2527
sg6
V2017
p2528
sg8
F29.0
sg9
VSEP 29, 1988
p2529
sg11
V6-9
p2530
sg13
VKevin Durant
p2531
sg15
I1610612744
sg16
V35
p2532
sg18
V10
p2533
sg20
V00
p2534
sg22
g23
sg24
I201142
ssI201143
(dp2535
g541
VFlorida
p2536
sg543
V245
p2537
sg545
V2017
p2538
sg547
F31.0
sg548
VJUN 03, 1986
p2539
sg550
V6-10
p2540
sg552
VAl Horford
p2541
sg554
I1610612738
sg555
V42
p2542
sg557
V10
p2543
sg558
V00
p2544
sg560
VF-C
p2545
sg561
I201143
ssI201144
(dp2546
g263
VOhio State
p2547
sg265
V175
p2548
sg267
V2017
p2549
sg269
F30.0
sg270
VOCT 11, 1987
p2550
sg272
V6-1
p2551
sg274
VMike Conley
p2552
sg276
I1610612763
sg277
V11
p2553
sg278
V10
p2554
sg279
V00
p2555
sg281
g70
sg282
I201144
ssI1628404
(dp2556
g152
VVillanova
p2557
sg154
V215
p2558
sg156
V2017
p2559
sg158
F22.0
sg159
VMAR 06, 1995
p2560
sg161
V6-5
p2561
sg163
VJosh Hart
p2562
sg165
I1610612747
sg166
g90
sg168
g104
sg169
V00
p2563
sg171
g70
sg172
I1628404
ssI201147
(dp2564
g152
VFlorida
p2565
sg154
V186
p2566
sg156
V2017
p2567
sg158
F31.0
sg159
VMAR 05, 1986
p2568
sg161
V6-9
p2569
sg163
VCorey Brewer
p2570
sg165
I1610612747
sg166
g17
sg168
V10
p2571
sg169
V00
p2572
sg171
g23
sg172
I201147
ssI201148
(dp2573
g263
VNorth Carolina
p2574
sg265
V235
p2575
sg267
V2017
p2576
sg269
F30.0
sg270
VOCT 05, 1987
p2577
sg272
V6-10
p2578
sg274
VBrandan Wright
p2579
sg276
I1610612763
sg277
V34
p2580
sg278
g43
sg279
V00
p2581
sg281
VF-C
p2582
sg282
I201148
ssI202685
(dp2583
g293
VUtena, Lithuania
p2584
sg295
V255
p2585
sg297
V2017
p2586
sg299
F25.0
sg300
VMAY 06, 1992
p2587
sg302
V7-0
p2588
sg304
VJonas Valanciunas
p2589
sg306
I1610612761
sg307
V17
p2590
sg309
g90
sg310
V00
p2591
sg312
g94
sg313
I202685
ssI203710
(dp2592
g130
VNorth Carolina State
p2593
sg132
V230
p2594
sg134
V2017
p2595
sg136
F27.0
sg137
VFEB 06, 1990
p2596
sg139
V6-5
p2597
sg141
VC.J. Williams
p2598
sg143
I1610612746
sg144
g43
sg146
g104
sg147
V00
p2599
sg149
g70
sg150
I203710
ssI101109
(dp2600
g519
VNorth Carolina
p2601
sg521
V205
p2602
sg523
V2017
p2603
sg525
F33.0
sg526
VJUN 26, 1984
p2604
sg528
V6-1
p2605
sg530
VRaymond Felton
p2606
sg532
I1610612760
sg533
g66
sg535
V12
p2607
sg536
V00
p2608
sg538
g70
sg539
I101109
ssI203200
(dp2609
g232
VWashington
p2610
sg234
V185
p2611
sg236
V2017
p2612
sg238
F28.0
sg239
VAPR 05, 1989
p2613
sg241
V6-6
p2614
sg243
VJustin Holiday
p2615
sg245
I1610612741
sg246
g331
sg248
g124
sg249
V00
p2616
sg251
g70
sg252
I203200
ssI1627856
(dp2617
g49
VMichigan State
p2618
sg51
V240
p2619
sg53
V2017
p2620
sg55
F24.0
sg56
VAUG 05, 1993
p2621
sg58
V6-10
p2622
sg60
VMatt Costello
p2623
sg62
I1610612759
sg63
V10
p2624
sg65
g104
sg67
V00
p2625
sg69
VF-C
p2626
sg71
I1627856
ssI202691
(dp2627
g2
VWashington State
p2628
sg4
V215
p2629
sg6
V2017
p2630
sg8
F27.0
sg9
VFEB 08, 1990
p2631
sg11
V6-7
p2632
sg13
VKlay Thompson
p2633
sg15
I1610612744
sg16
V11
p2634
sg18
g202
sg20
V00
p2635
sg22
g70
sg24
I202691
ssI202692
(dp2636
g404
VColorado
p2637
sg406
V214
p2638
sg408
V2017
p2639
sg410
F26.0
sg411
VJUL 20, 1991
p2640
sg413
V6-6
p2641
sg415
VAlec Burks
p2642
sg417
I1610612762
sg418
V10
p2643
sg420
g202
sg422
V00
p2644
sg424
g70
sg425
I202692
ssI1628405
(dp2645
g382
VBaylor
p2646
sg384
V230
p2647
sg386
V2017
p2648
sg388
F22.0
sg389
VMAY 04, 1995
p2649
sg391
V6-10
p2650
sg393
VJohnathan Motley
p2651
sg395
I1610612742
sg396
g202
sg398
g104
sg399
V00
p2652
sg401
g23
sg402
I1628405
ssI202695
(dp2653
g49
VSan Diego State
p2654
sg51
V230
p2655
sg53
V2017
p2656
sg55
F26.0
sg56
VJUN 29, 1991
p2657
sg58
V6-7
p2658
sg60
VKawhi Leonard
p2659
sg62
I1610612759
sg63
g66
sg65
g202
sg67
V00
p2660
sg69
g23
sg71
I202695
ssI201158
(dp2661
g73
VBologna, Italy
p2662
sg75
V210
p2663
sg77
V2017
p2664
sg79
F31.0
sg80
VMAR 25, 1986
p2665
sg82
V6-5
p2666
sg84
VMarco Belinelli
p2667
sg86
I1610612737
sg87
g17
sg89
V10
p2668
sg91
V00
p2669
sg93
VG-F
p2670
sg95
I201158
ssI203084
(dp2671
g382
VNorth Carolina
p2672
sg384
V225
p2673
sg386
V2017
p2674
sg388
F25.0
sg389
VMAY 30, 1992
p2675
sg391
V6-8
p2676
sg393
VHarrison Barnes
p2677
sg395
I1610612742
sg396
V40
p2678
sg398
g90
sg399
V00
p2679
sg401
g23
sg402
I203084
ssI203210
(dp2680
g263
VAlabama
p2681
sg265
V227
p2682
sg267
V2017
p2683
sg269
F27.0
sg270
VJUN 21, 1990
p2684
sg272
V6-9
p2685
sg274
VJaMychal Green
p2686
sg276
I1610612763
sg277
g210
sg278
g17
sg279
V00
p2687
sg281
g23
sg282
I203210
ssI201163
(dp2688
g174
VDePaul
p2689
sg176
V225
p2690
sg178
V2017
p2691
sg180
F30.0
sg181
VMAY 10, 1987
p2692
sg183
V6-9
p2693
sg185
VWilson Chandler
p2694
sg187
I1610612743
sg188
V21
p2695
sg189
g43
sg191
V00
p2696
sg193
g23
sg194
I201163
ssI202702
(dp2697
g174
VMorehead State
p2698
sg176
V228
p2699
sg178
V2017
p2700
sg180
F27.0
sg181
VNOV 19, 1989
p2701
sg183
V6-8
p2702
sg185
VKenneth Faried
p2703
sg187
I1610612743
sg188
V35
p2704
sg189
g202
sg191
V00
p2705
sg193
g23
sg194
I202702
ssI202703
(dp2706
g232
Nsg234
V238
p2707
sg236
V2017
p2708
sg238
F26.0
sg239
VFEB 11, 1991
p2709
sg241
V6-10
p2710
sg243
VNikola Mirotic
p2711
sg245
I1610612741
sg246
V44
p2712
sg248
g17
sg249
V00
p2713
sg251
g23
sg252
I202703
ssI1628408
(dp2714
g519
VSouth Carolina
p2715
sg521
V205
p2716
sg523
V2017
p2717
sg525
F21.0
sg526
VOCT 25, 1996
p2718
sg528
V6-6
p2719
sg530
VPJ Dozier
p2720
sg532
I1610612760
sg533
V35
p2721
sg535
g104
sg536
V00
p2722
sg538
g70
sg539
I1628408
ssI203471
(dp2723
g73
VGermany
p2724
sg75
V172
p2725
sg77
V2017
p2726
sg79
F24.0
sg80
VSEP 15, 1993
p2727
sg82
V6-1
p2728
sg84
VDennis Schroder
p2729
sg86
I1610612737
sg87
V17
p2730
sg89
g124
sg91
V00
p2731
sg93
g70
sg95
I203471
ssI202713
(dp2732
g519
VDuke
p2733
sg521
V228
p2734
sg523
V2017
p2735
sg525
F29.0
sg526
VMAY 04, 1988
p2736
sg528
V6-8
p2737
sg530
VKyle Singler
p2738
sg532
I1610612760
sg533
V15
p2739
sg535
g90
sg536
V00
p2740
sg538
g23
sg539
I202713
ssI1627743
(dp2741
g597
VNotre Dame
p2742
sg599
V201
p2743
sg601
V2017
p2744
sg603
F23.0
sg604
VSEP 07, 1994
p2745
sg606
V6-1
p2746
sg608
VDemetrius Jackson
p2747
sg610
I1610612745
sg611
g66
sg612
g145
sg613
V00
p2748
sg615
g70
sg616
I1627743
ssI202718
(dp2749
g263
VFlorida
p2750
sg265
V230
p2751
sg267
V2017
p2752
sg269
F29.0
sg270
VOCT 25, 1988
p2753
sg272
V6-10
p2754
sg274
VChandler Parsons
p2755
sg276
I1610612763
sg277
V25
p2756
sg278
g202
sg279
V00
p2757
sg281
g23
sg282
I202718
ssI1628374
(dp2758
g232
VArizona
p2759
sg234
V230
p2760
sg236
V2017
p2761
sg238
F20.0
sg239
VMAY 22, 1997
p2762
sg241
V7-0
p2763
sg243
VLauri Markkanen
p2764
sg245
I1610612741
sg246
V24
p2765
sg248
g104
sg249
V00
p2766
sg251
g23
sg252
I1628374
ssI202722
(dp2767
g49
Nsg51
V210
p2768
sg53
V2017
p2769
sg55
F24.0
sg56
VNOV 12, 1992
p2770
sg58
V6-10
p2771
sg60
VDavis Bertans
p2772
sg62
I1610612759
sg63
V42
p2773
sg65
g145
sg67
V00
p2774
sg69
g23
sg71
I202722
ssI201188
(dp2775
g263
VBarcelona, Spain
p2776
sg265
V255
p2777
sg267
V2017
p2778
sg269
F32.0
sg270
VJAN 29, 1985
p2779
sg272
V7-1
p2780
sg274
VMarc Gasol
p2781
sg276
I1610612763
sg277
V33
p2782
sg278
g43
sg279
V00
p2783
sg281
g94
sg282
I201188
ssI204028
(dp2784
g597
VKansas
p2785
sg599
V250
p2786
sg601
V2017
p2787
sg603
F25.0
sg604
VNOV 22, 1991
p2788
sg606
V6-9
p2789
sg608
VTarik Black
p2790
sg610
I1610612745
sg611
V28
p2791
sg612
g17
sg613
V00
p2792
sg615
VF-C
p2793
sg616
I204028
ssI1628395
(dp2794
g2
VOregon
p2795
sg4
V224
p2796
sg6
V2017
p2797
sg8
F22.0
sg9
VJAN 07, 1995
p2798
sg11
V6-9
p2799
sg13
VJordan Bell
p2800
sg15
I1610612744
sg16
g66
sg18
g104
sg20
V00
p2801
sg22
g23
sg24
I1628395
ssI2403
(dp2802
g597
VSao Carlos, Brazil
p2803
sg599
V250
p2804
sg601
V2017
p2805
sg603
F35.0
sg604
VSEP 13, 1982
p2806
sg606
V6-11
p2807
sg608
VNene
p2808
sg610
I1610612745
sg611
V42
p2809
sg612
V15
p2810
sg613
V00
p2811
sg615
VC-F
p2812
sg616
I2403
ssI202732
(dp2813
g478
VKentucky
p2814
sg480
V209
p2815
sg482
V2017
p2816
sg484
F29.0
sg485
VMAR 31, 1988
p2817
sg487
V6-6
p2818
sg489
VDeAndre Liggins
p2819
sg491
I1610612749
sg492
V25
p2820
sg494
g124
sg495
V00
p2821
sg497
g70
sg498
I202732
ssI202734
(dp2822
g107
VPurdue
p2823
sg109
V191
p2824
sg111
V2017
p2825
sg113
F28.0
sg114
VFEB 25, 1989
p2826
sg116
V6-4
p2827
sg118
VE'Twaun Moore
p2828
sg120
I1610612740
sg121
V55
p2829
sg123
g202
sg125
V00
p2830
sg127
g70
sg128
I202734
ssI2544
(dp2831
g26
VSt. Vincent-St. Mary HS (OH)
p2832
sg28
V250
p2833
sg30
V2017
p2834
sg32
F32.0
sg33
VDEC 30, 1984
p2835
sg35
V6-8
p2836
sg37
VLeBron James
p2837
sg39
I1610612739
sg40
V23
p2838
sg42
V14
p2839
sg44
V00
p2840
sg46
VF-G
p2841
sg47
I2544
ssI2546
(dp2842
g519
VSyracuse
p2843
sg521
V240
p2844
sg523
V2017
p2845
sg525
F33.0
sg526
VMAY 29, 1984
p2846
sg528
V6-8
p2847
sg530
VCarmelo Anthony
p2848
sg532
I1610612760
sg533
g331
sg535
V14
p2849
sg536
V00
p2850
sg538
g23
sg539
I2546
ssI2548
(dp2851
g26
VMarquette
p2852
sg28
V220
p2853
sg30
V2017
p2854
sg32
F35.0
sg33
VJAN 17, 1982
p2855
sg35
V6-4
p2856
sg37
VDwyane Wade
p2857
sg39
I1610612739
sg40
g43
sg42
V14
p2858
sg44
V00
p2859
sg46
g70
sg47
I2548
ssI1628414
(dp2860
g130
VSouth Carolina
p2861
sg132
V215
p2862
sg134
V2017
p2863
sg136
F22.0
sg137
VNOV 15, 1994
p2864
sg139
V6-5
p2865
sg141
VSindarius Thornwell
p2866
sg143
I1610612746
sg144
g210
sg146
g104
sg147
V00
p2867
sg149
g70
sg150
I1628414
ssI1627761
(dp2868
g73
VSaint Joseph's
p2869
sg75
V210
p2870
sg77
V2017
p2871
sg79
F23.0
sg80
VJUL 04, 1994
p2872
sg82
V6-6
p2873
sg84
VDeAndre' Bembry
p2874
sg86
I1610612737
sg87
V95
p2875
sg89
g145
sg91
V00
p2876
sg93
VF-G
p2877
sg95
I1627761
ssI1628443
(dp2878
g541
VArizona
p2879
sg543
V200
p2880
sg545
V2017
p2881
sg547
F24.0
sg548
VJAN 15, 1993
p2882
sg550
V6-3
p2883
sg552
VKadeem Allen
p2884
sg554
I1610612738
sg555
V45
p2885
sg557
g104
sg558
V00
p2886
sg560
g70
sg561
I1628443
ssI1626196
(dp2887
g342
VTennessee
p2888
sg344
V200
p2889
sg346
V2017
p2890
sg348
F24.0
sg349
VSEP 15, 1993
p2891
sg351
V6-6
p2892
sg353
VJosh Richardson
p2893
sg355
I1610612748
sg356
g210
sg358
g66
sg359
V00
p2894
sg361
g23
sg362
I1626196
ssI2555
(dp2895
g519
VKansas
p2896
sg521
V255
p2897
sg523
V2017
p2898
sg525
F37.0
sg526
VOCT 26, 1980
p2899
sg528
V6-10
p2900
sg530
VNick Collison
p2901
sg532
I1610612760
sg533
g124
sg535
V13
p2902
sg536
V00
p2903
sg538
g23
sg539
I2555
ssI101181
(dp2904
g26
VVillanueva de la Serena, Spain
p2905
sg28
V200
p2906
sg30
V2017
p2907
sg32
F36.0
sg33
VSEP 28, 1981
p2908
sg35
V6-3
p2909
sg37
VJose Calderon
p2910
sg39
I1610612739
sg40
V81
p2911
sg42
V12
p2912
sg44
V00
p2913
sg46
g70
sg47
I101181
ss.