(dp0
I1626177
(dp1
VSCHOOL
p2
VKentucky
p3
sVWEIGHT
p4
V255
p5
sVSEASON
p6
V2017
p7
sVAGE
p8
F22.0
sVBIRTH_DATE
p9
VSEP 22, 1995
p10
sVHEIGHT
p11
V7-0
p12
sVPLAYER
p13
VDakari Johnson
p14
sVTeamID
p15
I1610612760
sVNUM
p16
V44
p17
sVEXP
p18
VR
p19
sVLeagueID
p20
V00
p21
sVPOSITION
p22
VC
p23
sVPLAYER_ID
p24
I1626177
ssI202331
(dp25
g2
VFresno State
p26
sg4
V220
p27
sg6
V2017
p28
sg8
F27.0
sg9
VMAY 02, 1990
p29
sg11
V6-9
p30
sg13
VPaul George
p31
sg15
I1610612760
sg16
V13
p32
sg18
V7
p33
sg20
V00
p34
sg22
VF
p35
sg24
I202331
ssI201566
(dp36
g2
VUCLA
p37
sg4
V200
p38
sg6
V2017
p39
sg8
F28.0
sg9
VNOV 12, 1988
p40
sg11
V6-3
p41
sg13
VRussell Westbrook
p42
sg15
I1610612760
sg16
V0
p43
sg18
V9
p44
sg20
V00
p45
sg22
VG
p46
sg24
I201566
ssI1628390
(dp47
g2
Nsg4
V184
p48
sg6
V2017
p49
sg8
F19.0
sg9
VMAY 17, 1998
p50
sg11
V6-7
p51
sg13
VTerrance Ferguson
p52
sg15
I1610612760
sg16
V23
p53
sg18
g19
sg20
V00
p54
sg22
g46
sg24
I1628390
ssI203460
(dp55
g2
VColorado
p56
sg4
V210
p57
sg6
V2017
p58
sg8
F25.0
sg9
VDEC 04, 1991
p59
sg11
V6-7
p60
sg13
VAndre Roberson
p61
sg15
I1610612760
sg16
V21
p62
sg18
V4
p63
sg20
V00
p64
sg22
g46
sg24
I203460
ssI203500
(dp65
g2
VPittsburgh
p66
sg4
V255
p67
sg6
V2017
p68
sg8
F24.0
sg9
VJUL 20, 1993
p69
sg11
V7-0
p70
sg13
VSteven Adams
p71
sg15
I1610612760
sg16
V12
p72
sg18
g63
sg20
V00
p73
sg22
g23
sg24
I203500
ssI2546
(dp74
g2
VSyracuse
p75
sg4
V240
p76
sg6
V2017
p77
sg8
F33.0
sg9
VMAY 29, 1984
p78
sg11
V6-8
p79
sg13
VCarmelo Anthony
p80
sg15
I1610612760
sg16
g33
sg18
V14
p81
sg20
V00
p82
sg22
g35
sg24
I2546
ssI203924
(dp83
g2
VSyracuse
p84
sg4
V220
p85
sg6
V2017
p86
sg8
F23.0
sg9
VMAR 12, 1994
p87
sg11
V6-9
p88
sg13
VJerami Grant
p89
sg15
I1610612760
sg16
g44
sg18
V3
p90
sg20
V00
p91
sg22
g35
sg24
I203924
ssI101109
(dp92
g2
VNorth Carolina
p93
sg4
V205
p94
sg6
V2017
p95
sg8
F33.0
sg9
VJUN 26, 1984
p96
sg11
V6-1
p97
sg13
VRaymond Felton
p98
sg15
I1610612760
sg16
V2
p99
sg18
V12
p100
sg20
V00
p101
sg22
g46
sg24
I101109
ssI1628408
(dp102
g2
VSouth Carolina
p103
sg4
V205
p104
sg6
V2017
p105
sg8
F21.0
sg9
VOCT 25, 1996
p106
sg11
V6-6
p107
sg13
VPJ Dozier
p108
sg15
I1610612760
sg16
V35
p109
sg18
g19
sg20
V00
p110
sg22
g46
sg24
I1628408
ssI202713
(dp111
g2
VDuke
p112
sg4
V228
p113
sg6
V2017
p114
sg8
F29.0
sg9
VMAY 04, 1988
p115
sg11
V6-8
p116
sg13
VKyle Singler
p117
sg15
I1610612760
sg16
V15
p118
sg18
V5
p119
sg20
V00
p120
sg22
g35
sg24
I202713
ssI203962
(dp121
g2
VStanford
p122
sg4
V230
p123
sg6
V2017
p124
sg8
F25.0
sg9
VDEC 19, 1991
p125
sg11
V6-7
p126
sg13
VJosh Huestis
p127
sg15
I1610612760
sg16
V34
p128
sg18
g99
sg20
V00
p129
sg22
g35
sg24
I203962
ssI2555
(dp130
g2
VKansas
p131
sg4
V255
p132
sg6
V2017
p133
sg8
F37.0
sg9
VOCT 26, 1980
p134
sg11
V6-10
p135
sg13
VNick Collison
p136
sg15
I1610612760
sg16
g63
sg18
V13
p137
sg20
V00
p138
sg22
g35
sg24
I2555
ssI1627772
(dp139
g2
VConnecticut
p140
sg4
V195
p141
sg6
V2017
p142
sg8
F22.0
sg9
VAUG 08, 1995
p143
sg11
V6-7
p144
sg13
VDaniel Hamilton
p145
sg15
I1610612760
sg16
V25
p146
sg18
g19
sg20
V00
p147
sg22
g46
sg24
I1627772
ssI203518
(dp148
g2
Nsg4
V190
p149
sg6
V2017
p150
sg8
F24.0
sg9
VAUG 01, 1993
p151
sg11
V6-6
p152
sg13
VAlex Abrines
p153
sg15
I1610612760
sg16
V8
p154
sg18
V1
p155
sg20
V00
p156
sg22
g46
sg24
I203518
ssI202335
(dp157
g2
VKentucky
p158
sg4
V230
p159
sg6
V2017
p160
sg8
F28.0
sg9
VMAR 14, 1989
p161
sg11
V6-9
p162
sg13
VPatrick Patterson
p163
sg15
I1610612760
sg16
V54
p164
sg18
g33
sg20
V00
p165
sg22
g35
sg24
I202335
ss.