(dp0
I1628035
(dp1
VSCHOOL
p2
VWisc.-Green Bay
p3
sVWEIGHT
p4
V215
p5
sVSEASON
p6
V2017
p7
sVAGE
p8
F25.0
sVBIRTH_DATE
p9
VSEP 17, 1992
p10
sVHEIGHT
p11
V6-8
p12
sVPLAYER
p13
VAlfonzo McKinnie
p14
sVTeamID
p15
I1610612761
sVNUM
p16
V34
p17
sVEXP
p18
VR
p19
sVLeagueID
p20
V00
p21
sVPOSITION
p22
VF
p23
sVPLAYER_ID
p24
I1628035
ssI1627783
(dp25
g2
VNew Mexico State
p26
sg4
V230
p27
sg6
V2017
p28
sg8
F23.0
sg9
VAPR 02, 1994
p29
sg11
V6-9
p30
sg13
VPascal Siakam
p31
sg15
I1610612761
sg16
V43
p32
sg18
V1
p33
sg20
V00
p34
sg22
g23
sg24
I1627783
ssI101139
(dp35
g2
VSkyline HS (TX)
p36
sg4
V225
p37
sg6
V2017
p38
sg8
F30.0
sg9
VMAR 18, 1987
p39
sg11
V6-6
p40
sg13
VCJ Miles
p41
sg15
I1610612761
sg16
V0
p42
sg18
V12
p43
sg20
V00
p44
sg22
VF-G
p45
sg24
I101139
ssI203924
(dp46
VSCHOOL
p47
VSyracuse
p48
sVWEIGHT
p49
V220
p50
sVSEASON
p51
V2017
p52
sVAGE
p53
F23.0
sVBIRTH_DATE
p54
VMAR 12, 1994
p55
sVHEIGHT
p56
V6-9
p57
sVPLAYER
p58
VJerami Grant
p59
sVTeamID
p60
I1610612760
sVNUM
p61
V9
p62
sVEXP
p63
V3
p64
sVLeagueID
p65
V00
p66
sVPOSITION
p67
g23
sVPLAYER_ID
p68
I203924
ssI1626153
(dp69
g2
VUtah
p70
sg4
V190
p71
sg6
V2017
p72
sg8
F25.0
sg9
VAPR 26, 1992
p73
sg11
V6-5
p74
sg13
VDelon Wright
p75
sg15
I1610612761
sg16
V55
p76
sg18
V2
p77
sg20
V00
p78
sg22
VG
p79
sg24
I1626153
ssI2546
(dp80
g47
VSyracuse
p81
sg49
V240
p82
sg51
V2017
p83
sg53
F33.0
sg54
VMAY 29, 1984
p84
sg56
V6-8
p85
sg58
VCarmelo Anthony
p86
sg60
I1610612760
sg61
V7
p87
sg63
V14
p88
sg65
V00
p89
sg67
g23
sg68
I2546
ssI203998
(dp90
g2
Nsg4
V205
p91
sg6
V2017
p92
sg8
F22.0
sg9
VSEP 21, 1995
p93
sg11
V6-9
p94
sg13
VBruno Caboclo
p95
sg15
I1610612761
sg16
V5
p96
sg18
g64
sg20
V00
p97
sg22
g23
sg24
I203998
ssI1627832
(dp98
g2
VWichita State
p99
sg4
V195
p100
sg6
V2017
p101
sg8
F23.0
sg9
VFEB 25, 1994
p102
sg11
V6-0
p103
sg13
VFred VanVleet
p104
sg15
I1610612761
sg16
V23
p105
sg18
g33
sg20
V00
p106
sg22
g79
sg24
I1627832
ssI203962
(dp107
g47
VStanford
p108
sg49
V230
p109
sg51
V2017
p110
sg53
F25.0
sg54
VDEC 19, 1991
p111
sg56
V6-7
p112
sg58
VJosh Huestis
p113
sg60
I1610612760
sg61
V34
p114
sg63
g77
sg65
V00
p115
sg67
g23
sg68
I203962
ssI202685
(dp116
g2
VUtena, Lithuania
p117
sg4
V255
p118
sg6
V2017
p119
sg8
F25.0
sg9
VMAY 06, 1992
p120
sg11
V7-0
p121
sg13
VJonas Valanciunas
p122
sg15
I1610612761
sg16
V17
p123
sg18
g96
sg20
V00
p124
sg22
VC
p125
sg24
I202685
ssI200768
(dp126
g2
VVillanova
p127
sg4
V205
p128
sg6
V2017
p129
sg8
F31.0
sg9
VMAR 25, 1986
p130
sg11
V6-0
p131
sg13
VKyle Lowry
p132
sg15
I1610612761
sg16
g87
sg18
V11
p133
sg20
V00
p134
sg22
g79
sg24
I200768
ssI1626177
(dp135
g47
VKentucky
p136
sg49
V255
p137
sg51
V2017
p138
sg53
F22.0
sg54
VSEP 22, 1995
p139
sg56
V7-0
p140
sg58
VDakari Johnson
p141
sg60
I1610612760
sg61
V44
p142
sg63
g19
sg65
V00
p143
sg67
g125
sg68
I1626177
ssI203460
(dp144
g47
VColorado
p145
sg49
V210
p146
sg51
V2017
p147
sg53
F25.0
sg54
VDEC 04, 1991
p148
sg56
V6-7
p149
sg58
VAndre Roberson
p150
sg60
I1610612760
sg61
V21
p151
sg63
V4
p152
sg65
V00
p153
sg67
g79
sg68
I203460
ssI1626181
(dp154
g2
VUCLA
p155
sg4
V215
p156
sg6
V2017
p157
sg8
F24.0
sg9
VMAY 25, 1993
p158
sg11
V6-4
p159
sg13
VNorman Powell
p160
sg15
I1610612761
sg16
V24
p161
sg18
g77
sg20
V00
p162
sg22
VF-G
p163
sg24
I1626181
ssI203512
(dp164
g2
Nsg4
V220
p165
sg6
V2017
p166
sg8
F25.0
sg9
VJUL 26, 1992
p167
sg11
V7-0
p168
sg13
VLucas Nogueira
p169
sg15
I1610612761
sg16
V92
p170
sg18
g64
sg20
V00
p171
sg22
g125
sg24
I203512
ssI201942
(dp172
g2
VSouthern California
p173
sg4
V220
p174
sg6
V2017
p175
sg8
F28.0
sg9
VAUG 07, 1989
p176
sg11
V6-7
p177
sg13
VDeMar DeRozan
p178
sg15
I1610612761
sg16
V10
p179
sg18
V8
p180
sg20
V00
p181
sg22
g79
sg24
I201942
ssI202713
(dp182
g47
VDuke
p183
sg49
V228
p184
sg51
V2017
p185
sg53
F29.0
sg54
VMAY 04, 1988
p186
sg56
V6-8
p187
sg58
VKyle Singler
p188
sg60
I1610612760
sg61
V15
p189
sg63
g96
sg65
V00
p190
sg67
g23
sg68
I202713
ssI202331
(dp191
g47
VFresno State
p192
sg49
V220
p193
sg51
V2017
p194
sg53
F27.0
sg54
VMAY 02, 1990
p195
sg56
V6-9
p196
sg58
VPaul George
p197
sg60
I1610612760
sg61
V13
p198
sg63
g87
sg65
V00
p199
sg67
g23
sg68
I202331
ssI203485
(dp200
g2
VNorth Carolina State
p201
sg4
V189
p202
sg6
V2017
p203
sg8
F27.0
sg9
VAUG 26, 1990
p204
sg11
V6-5
p205
sg13
VLorenzo Brown
p206
sg15
I1610612761
sg16
g152
sg18
g64
sg20
V00
p207
sg22
g79
sg24
I203485
ssI201566
(dp208
g47
VUCLA
p209
sg49
V200
p210
sg51
V2017
p211
sg53
F28.0
sg54
VNOV 12, 1988
p212
sg56
V6-3
p213
sg58
VRussell Westbrook
p214
sg60
I1610612760
sg61
g42
sg63
g62
sg65
V00
p215
sg67
g79
sg68
I201566
ssI202335
(dp216
g47
VKentucky
p217
sg49
V230
p218
sg51
V2017
p219
sg53
F28.0
sg54
VMAR 14, 1989
p220
sg56
V6-9
p221
sg58
VPatrick Patterson
p222
sg60
I1610612760
sg61
V54
p223
sg63
g87
sg65
V00
p224
sg67
g23
sg68
I202335
ssI1628384
(dp225
g2
VIndiana
p226
sg4
V235
p227
sg6
V2017
p228
sg8
F20.0
sg9
VJUL 17, 1997
p229
sg11
V6-8
p230
sg13
VOG Anunoby
p231
sg15
I1610612761
sg16
g64
sg18
g19
sg20
V00
p232
sg22
g23
sg24
I1628384
ssI1628390
(dp233
g47
Nsg49
V184
p234
sg51
V2017
p235
sg53
F19.0
sg54
VMAY 17, 1998
p236
sg56
V6-7
p237
sg58
VTerrance Ferguson
p238
sg60
I1610612760
sg61
V23
p239
sg63
g19
sg65
V00
p240
sg67
g79
sg68
I1628390
ssI1627751
(dp241
g2
VUtah
p242
sg4
V230
p243
sg6
V2017
p244
sg8
F22.0
sg9
VOCT 15, 1995
p245
sg11
V7-0
p246
sg13
VJakob Poeltl
p247
sg15
I1610612761
sg16
V42
p248
sg18
g33
sg20
V00
p249
sg22
g125
sg24
I1627751
ssI203500
(dp250
g47
VPittsburgh
p251
sg49
V255
p252
sg51
V2017
p253
sg53
F24.0
sg54
VJUL 20, 1993
p254
sg56
V7-0
p255
sg58
VSteven Adams
p256
sg60
I1610612760
sg61
V12
p257
sg63
g152
sg65
V00
p258
sg67
g125
sg68
I203500
ssI201586
(dp259
g2
VBrazzaville, Rep. of Congo
p260
sg4
V235
p261
sg6
V2017
p262
sg8
F28.0
sg9
VSEP 18, 1989
p263
sg11
V6-10
p264
sg13
VSerge Ibaka
p265
sg15
I1610612761
sg16
g62
sg18
g180
sg20
V00
p266
sg22
g23
sg24
I201586
ssI1626259
(dp267
g2
VHoly Cross
p268
sg4
V210
p269
sg6
V2017
p270
sg8
F24.0
sg9
VMAR 06, 1993
p271
sg11
V6-7
p272
sg13
VMalcolm Miller
p273
sg15
I1610612761
sg16
V13
p274
sg18
g19
sg20
V00
p275
sg22
g23
sg24
I1626259
ssI101109
(dp276
g47
VNorth Carolina
p277
sg49
V205
p278
sg51
V2017
p279
sg53
F33.0
sg54
VJUN 26, 1984
p280
sg56
V6-1
p281
sg58
VRaymond Felton
p282
sg60
I1610612760
sg61
g77
sg63
V12
p283
sg65
V00
p284
sg67
g79
sg68
I101109
ssI1628408
(dp285
g47
VSouth Carolina
p286
sg49
V205
p287
sg51
V2017
p288
sg53
F21.0
sg54
VOCT 25, 1996
p289
sg56
V6-6
p290
sg58
VPJ Dozier
p291
sg60
I1610612760
sg61
V35
p292
sg63
g19
sg65
V00
p293
sg67
g79
sg68
I1628408
ssI2555
(dp294
g47
VKansas
p295
sg49
V255
p296
sg51
V2017
p297
sg53
F37.0
sg54
VOCT 26, 1980
p298
sg56
V6-10
p299
sg58
VNick Collison
p300
sg60
I1610612760
sg61
g152
sg63
V13
p301
sg65
V00
p302
sg67
g23
sg68
I2555
ssI1627772
(dp303
g47
VConnecticut
p304
sg49
V195
p305
sg51
V2017
p306
sg53
F22.0
sg54
VAUG 08, 1995
p307
sg56
V6-7
p308
sg58
VDaniel Hamilton
p309
sg60
I1610612760
sg61
V25
p310
sg63
g19
sg65
V00
p311
sg67
g79
sg68
I1627772
ssI203518
(dp312
g47
Nsg49
V190
p313
sg51
V2017
p314
sg53
F24.0
sg54
VAUG 01, 1993
p315
sg56
V6-6
p316
sg58
VAlex Abrines
p317
sg60
I1610612760
sg61
g180
sg63
g33
sg65
V00
p318
sg67
g79
sg68
I203518
ss.