(dp0
I2561
(dp1
VSCHOOL
p2
VXavier
p3
sVWEIGHT
p4
V250
p5
sVSEASON
p6
V2017
p7
sVAGE
p8
F37.0
sVBIRTH_DATE
p9
VAUG 29, 1980
p10
sVHEIGHT
p11
V6-9
p12
sVPLAYER
p13
VDavid West
p14
sVTeamID
p15
I1610612744
sVNUM
p16
V3
p17
sVEXP
p18
V14
p19
sVLeagueID
p20
V00
p21
sVPOSITION
p22
VF
p23
sVPLAYER_ID
p24
I2561
ssI203524
(dp25
VSCHOOL
p26
VArizona
p27
sVWEIGHT
p28
V225
p29
sVSEASON
p30
V2017
p31
sVAGE
p32
F26.0
sVBIRTH_DATE
p33
VMAR 18, 1991
p34
sVHEIGHT
p35
V6-7
p36
sVPLAYER
p37
VSolomon Hill
p38
sVTeamID
p39
I1610612740
sVNUM
p40
V44
p41
sVEXP
p42
V4
p43
sVLeagueID
p44
V00
p45
sVPOSITION
p46
g23
sVPLAYER_ID
p47
I203524
ssI1628393
(dp48
VSCHOOL
p49
VOklahoma State
p50
sVWEIGHT
p51
V190
p52
sVSEASON
p53
V2017
p54
sVAGE
p55
F21.0
sVBIRTH_DATE
p56
VJUL 26, 1996
p57
sVHEIGHT
p58
V6-0
p59
sVPLAYER
p60
VJawun Evans
p61
sVTeamID
p62
I1610612746
sVNUM
p63
V1
p64
sVEXP
p65
VR
p66
sVLeagueID
p67
V00
p68
sVPOSITION
p69
VG
p70
sVPLAYER_ID
p71
I1628393
ssI203898
(dp72
VSCHOOL
p73
VSyracuse
p74
sVWEIGHT
p75
V194
p76
sVSEASON
p77
V2017
p78
sVAGE
p79
F23.0
sVBIRTH_DATE
p80
VAUG 24, 1994
p81
sVHEIGHT
p82
V6-3
p83
sVPLAYER
p84
VTyler Ennis
p85
sVTeamID
p86
I1610612747
sVNUM
p87
V10
p88
sVEXP
p89
g17
sVLeagueID
p90
V00
p91
sVPOSITION
p92
g70
sVPLAYER_ID
p93
I203898
ssI200794
(dp94
VSCHOOL
p95
VLouisiana Tech
p96
sVWEIGHT
p97
V246
p98
sVSEASON
p99
V2017
p100
sVAGE
p101
F32.0
sVBIRTH_DATE
p102
VFEB 10, 1985
p103
sVHEIGHT
p104
V6-8
p105
sVPLAYER
p106
VPaul Millsap
p107
sVTeamID
p108
I1610612743
sVNUM
p109
g43
sVEXP
p110
V11
p111
sVLeagueID
p112
V00
p113
sVPOSITION
p114
g23
sVPLAYER_ID
p115
I200794
ssI1626144
(dp116
g95
Nsg97
V200
p117
sg99
V2017
p118
sg101
F21.0
sg102
VMAR 05, 1996
p119
sg104
V6-5
p120
sg106
VEmmanuel Mudiay
p121
sg108
I1610612743
sg109
V0
p122
sg110
V2
p123
sg112
V00
p124
sg114
g70
sg115
I1626144
ssI2736
(dp125
g73
VDuke
p126
sg75
V220
p127
sg77
V2017
p128
sg79
F32.0
sg80
VAPR 16, 1985
p129
sg82
V6-9
p130
sg84
VLuol Deng
p131
sg86
I1610612747
sg87
V9
p132
sg89
V13
p133
sg90
V00
p134
sg92
g23
sg93
I2736
ssI1627739
(dp135
VSCHOOL
p136
VProvidence
p137
sVWEIGHT
p138
V210
p139
sVSEASON
p140
V2017
p141
sVAGE
p142
F23.0
sVBIRTH_DATE
p143
VMAR 18, 1994
p144
sVHEIGHT
p145
V6-4
p146
sVPLAYER
p147
VKris Dunn
p148
sVTeamID
p149
I1610612741
sVNUM
p150
V32
p151
sVEXP
p152
g64
sVLeagueID
p153
V00
p154
sVPOSITION
p155
g70
sVPLAYER_ID
p156
I1627739
ssI1626149
(dp157
g49
VLouisville
p158
sg51
V240
p159
sg53
V2017
p160
sg55
F23.0
sg56
VJAN 26, 1994
p161
sg58
V6-8
p162
sg60
VMontrezl Harrell
p163
sg62
I1610612746
sg63
V5
p164
sg65
g123
sg67
V00
p165
sg69
VF-C
p166
sg71
I1626149
ssI1626150
(dp167
VSCHOOL
p168
VKentucky
p169
sVWEIGHT
p170
V213
p171
sVSEASON
p172
V2017
p173
sVAGE
p174
F23.0
sVBIRTH_DATE
p175
VOCT 28, 1994
p176
sVHEIGHT
p177
V6-6
p178
sVPLAYER
p179
VAndrew Harrison
p180
sVTeamID
p181
I1610612763
sVNUM
p182
g164
sVEXP
p183
g64
sVLeagueID
p184
V00
p185
sVPOSITION
p186
g70
sVPLAYER_ID
p187
I1626150
ssI1626153
(dp188
VSCHOOL
p189
VUtah
p190
sVWEIGHT
p191
V190
p192
sVSEASON
p193
V2017
p194
sVAGE
p195
F25.0
sVBIRTH_DATE
p196
VAPR 26, 1992
p197
sVHEIGHT
p198
V6-5
p199
sVPLAYER
p200
VDelon Wright
p201
sVTeamID
p202
I1610612761
sVNUM
p203
V55
p204
sVEXP
p205
g123
sVLeagueID
p206
V00
p207
sVPOSITION
p208
g70
sVPLAYER_ID
p209
I1626153
ssI1626155
(dp210
g49
VWisconsin
p211
sg51
V230
p212
sg53
V2017
p213
sg55
F23.0
sg56
VMAY 08, 1994
p214
sg58
V6-9
p215
sg60
VSam Dekker
p216
sg62
I1610612746
sg63
V7
p217
sg65
g123
sg67
V00
p218
sg69
g23
sg71
I1626155
ssI1627826
(dp219
g73
Nsg75
V240
p220
sg77
V2017
p221
sg79
F20.0
sg80
VMAR 18, 1997
p222
sg82
V7-1
p223
sg84
VIvica Zubac
p224
sg86
I1610612747
sg87
V40
p225
sg89
g64
sg90
V00
p226
sg92
VC
p227
sg93
I1627826
ssI1626159
(dp228
VSCHOOL
p229
VDuke
p230
sVWEIGHT
p231
V225
p232
sVSEASON
p233
V2017
p234
sVAGE
p235
F21.0
sVBIRTH_DATE
p236
VMAR 26, 1996
p237
sVHEIGHT
p238
V6-7
p239
sVPLAYER
p240
VJustise Winslow
p241
sVTeamID
p242
I1610612748
sVNUM
p243
V20
p244
sVEXP
p245
g123
sVLeagueID
p246
V00
p247
sVPOSITION
p248
g23
sVPLAYER_ID
p249
I1626159
ssI201967
(dp250
g26
VVillanova
p251
sg28
V230
p252
sg30
V2017
p253
sg32
F30.0
sg33
VAPR 22, 1987
p254
sg35
V6-8
p255
sg37
VDante Cunningham
p256
sg39
I1610612740
sg40
V33
p257
sg42
V8
p258
sg44
V00
p259
sg46
g23
sg47
I201967
ssI1627827
(dp260
VSCHOOL
p261
VFlorida
p262
sVWEIGHT
p263
V220
p264
sVSEASON
p265
V2017
p266
sVAGE
p267
F24.0
sVBIRTH_DATE
p268
VMAY 04, 1993
p269
sVHEIGHT
p270
V6-8
p271
sVPLAYER
p272
VDorian Finney-Smith
p273
sVTeamID
p274
I1610612742
sVNUM
p275
V10
p276
sVEXP
p277
g64
sVLeagueID
p278
V00
p279
sVPOSITION
p280
g23
sVPLAYER_ID
p281
I1627827
ssI200757
(dp282
VSCHOOL
p283
VVevey, Switzerland
p284
sVWEIGHT
p285
V220
p286
sVSEASON
p287
V2017
p288
sVAGE
p289
F33.0
sVBIRTH_DATE
p290
VMAY 02, 1984
p291
sVHEIGHT
p292
V6-7
p293
sVPLAYER
p294
VThabo Sefolosha
p295
sVTeamID
p296
I1610612762
sVNUM
p297
V22
p298
sVEXP
p299
V11
p300
sVLeagueID
p301
V00
p302
sVPOSITION
p303
g23
sVPLAYER_ID
p304
I200757
ssI1626166
(dp305
g136
VMurray State
p306
sg138
V185
p307
sg140
V2017
p308
sg142
F23.0
sg143
VAUG 08, 1994
p309
sg145
V6-3
p310
sg147
VCameron Payne
p311
sg149
I1610612741
sg150
V22
p312
sg152
g123
sg153
V00
p313
sg155
g70
sg156
I1626166
ssI1626168
(dp314
g95
VKentucky
p315
sg97
V234
p316
sg99
V2017
p317
sg101
F22.0
sg102
VNOV 05, 1995
p318
sg104
V6-10
p319
sg106
VTrey Lyles
p320
sg108
I1610612743
sg109
g217
sg110
g123
sg112
V00
p321
sg114
g23
sg115
I1626168
ssI2617
(dp322
g229
VFlorida
p323
sg231
V235
p324
sg233
V2017
p325
sg235
F37.0
sg236
VJUN 09, 1980
p326
sg238
V6-8
p327
sg240
VUdonis Haslem
p328
sg242
I1610612748
sg243
V40
p329
sg245
V14
p330
sg246
V00
p331
sg248
g23
sg249
I2617
ssI1626170
(dp332
g136
VNotre Dame
p333
sg138
V198
p334
sg140
V2017
p335
sg142
F25.0
sg143
VOCT 09, 1992
p336
sg145
V6-4
p337
sg147
VJerian Grant
p338
sg149
I1610612741
sg150
g123
sg152
g123
sg153
V00
p339
sg155
g70
sg156
I1626170
ssI1626171
(dp340
g136
VArkansas
p341
sg138
V248
p342
sg140
V2017
p343
sg142
F22.0
sg143
VFEB 10, 1995
p344
sg145
V6-11
p345
sg147
VBobby Portis
p346
sg149
I1610612741
sg150
g164
sg152
g123
sg153
V00
p347
sg155
g23
sg156
I1626171
ssI1626172
(dp348
g2
VUCLA
p349
sg4
V220
p350
sg6
V2017
p351
sg8
F21.0
sg9
VFEB 06, 1996
p352
sg11
V6-9
p353
sg13
VKevon Looney
p354
sg15
I1610612744
sg16
g164
sg18
g123
sg20
V00
p355
sg22
g23
sg24
I1626172
ssI1626173
(dp356
VSCHOOL
p357
VUNLV
p358
sVWEIGHT
p359
V202
p360
sVSEASON
p361
V2017
p362
sVAGE
p363
F21.0
sVBIRTH_DATE
p364
VAUG 16, 1996
p365
sVHEIGHT
p366
V6-6
p367
sVPLAYER
p368
VRashad Vaughn
p369
sVTeamID
p370
I1610612749
sVNUM
p371
V20
p372
sVEXP
p373
g123
sVLeagueID
p374
V00
p375
sVPOSITION
p376
g70
sVPLAYER_ID
p377
I1626173
ssI1626175
(dp378
g229
VLouisiana State
p379
sg231
V235
p380
sg233
V2017
p381
sg235
F23.0
sg236
VJUL 09, 1994
p382
sg238
V6-8
p383
sg240
VJordan Mickey
p384
sg242
I1610612748
sg243
V25
p385
sg245
g123
sg246
V00
p386
sg248
VC-F
p387
sg249
I1626175
ssI200768
(dp388
g189
VVillanova
p389
sg191
V205
p390
sg193
V2017
p391
sg195
F31.0
sg196
VMAR 25, 1986
p392
sg198
V6-0
p393
sg200
VKyle Lowry
p394
sg202
I1610612761
sg203
g217
sg205
V11
p395
sg206
V00
p396
sg208
g70
sg209
I200768
ssI1626177
(dp397
VSCHOOL
p398
VKentucky
p399
sVWEIGHT
p400
V255
p401
sVSEASON
p402
V2017
p403
sVAGE
p404
F22.0
sVBIRTH_DATE
p405
VSEP 22, 1995
p406
sVHEIGHT
p407
V7-0
p408
sVPLAYER
p409
VDakari Johnson
p410
sVTeamID
p411
I1610612760
sVNUM
p412
V44
p413
sVEXP
p414
g66
sVLeagueID
p415
V00
p416
sVPOSITION
p417
g227
sVPLAYER_ID
p418
I1626177
ssI1626181
(dp419
g189
VUCLA
p420
sg191
V215
p421
sg193
V2017
p422
sg195
F24.0
sg196
VMAY 25, 1993
p423
sg198
V6-4
p424
sg200
VNorman Powell
p425
sg202
I1610612761
sg203
V24
p426
sg205
g123
sg206
V00
p427
sg208
VF-G
p428
sg209
I1626181
ssI1626185
(dp429
g168
VLouisiana State
p430
sg170
V239
p431
sg172
V2017
p432
sg174
F23.0
sg175
VMAY 24, 1994
p433
sg177
V6-10
p434
sg179
VJarell Martin
p435
sg181
I1610612763
sg182
g64
sg183
g123
sg184
V00
p436
sg186
g23
sg187
I1626185
ssI1626188
(dp437
g2
VDuke
p438
sg4
V179
p439
sg6
V2017
p440
sg8
F24.0
sg9
VMAR 23, 1993
p441
sg11
V6-2
p442
sg13
VQuinn Cook
p443
sg15
I1610612744
sg16
g43
sg18
g64
sg20
V00
p444
sg22
g70
sg24
I1626188
ssI202083
(dp445
g261
VMarquette
p446
sg263
V220
p447
sg265
V2017
p448
sg267
F31.0
sg268
VOCT 14, 1986
p449
sg270
V6-5
p450
sg272
VWesley Matthews
p451
sg274
I1610612742
sg275
V23
p452
sg277
g258
sg278
V00
p453
sg280
VG-F
p454
sg281
I202083
ssI202324
(dp455
g283
VGeorgia Tech
p456
sg285
V265
p457
sg287
V2017
p458
sg289
F26.0
sg290
VJUL 15, 1991
p459
sg292
V6-10
p460
sg294
VDerrick Favors
p461
sg296
I1610612762
sg297
V15
p462
sg299
g217
sg301
V00
p463
sg303
VF-C
p464
sg304
I202324
ssI202325
(dp465
g49
VSyracuse
p466
sg51
V215
p467
sg53
V2017
p468
sg55
F30.0
sg56
VJUL 11, 1987
p469
sg58
V6-7
p470
sg60
VWesley Johnson
p471
sg62
I1610612746
sg63
V33
p472
sg65
g217
sg67
V00
p473
sg69
g23
sg71
I202325
ssI202326
(dp474
g26
VKentucky
p475
sg28
V270
p476
sg30
V2017
p477
sg32
F27.0
sg33
VAUG 13, 1990
p478
sg35
V6-11
p479
sg37
VDeMarcus Cousins
p480
sg39
I1610612740
sg40
g122
sg42
g217
sg44
V00
p481
sg46
g227
sg47
I202326
ssI202327
(dp482
g283
VBaylor
p483
sg285
V245
p484
sg287
V2017
p485
sg289
F30.0
sg290
VMAY 20, 1987
p486
sg292
V6-10
p487
sg294
VEkpe Udoh
p488
sg296
I1610612762
sg297
V33
p489
sg299
g164
sg301
V00
p490
sg303
VC-F
p491
sg304
I202327
ssI1627736
(dp492
g95
VFlorida State
p493
sg97
V196
p494
sg99
V2017
p495
sg101
F20.0
sg102
VNOV 26, 1996
p496
sg104
V6-5
p497
sg106
VMalik Beasley
p498
sg108
I1610612743
sg109
V25
p499
sg110
g64
sg112
V00
p500
sg114
g70
sg115
I1627736
ssI1627738
(dp501
g168
VMichigan State
p502
sg170
V237
p503
sg172
V2017
p504
sg174
F20.0
sg175
VDEC 02, 1996
p505
sg177
V6-11
p506
sg179
VDeyonta Davis
p507
sg181
I1610612763
sg182
V21
p508
sg183
g64
sg184
V00
p509
sg186
VC-F
p510
sg187
I1627738
ssI202331
(dp511
g398
VFresno State
p512
sg400
V220
p513
sg402
V2017
p514
sg404
F27.0
sg405
VMAY 02, 1990
p515
sg407
V6-9
p516
sg409
VPaul George
p517
sg411
I1610612760
sg412
V13
p518
sg414
g217
sg415
V00
p519
sg417
g23
sg418
I202331
ssI1626204
(dp520
g73
VWyoming
p521
sg75
V230
p522
sg77
V2017
p523
sg79
F24.0
sg80
VJAN 01, 1993
p524
sg82
V6-9
p525
sg84
VLarry Nance Jr.
p526
sg86
I1610612747
sg87
g217
sg89
g123
sg90
V00
p527
sg92
g23
sg93
I1626204
ssI1626205
(dp528
g168
VTexas-El Paso
p529
sg170
V208
p530
sg172
V2017
p531
sg174
F23.0
sg175
VAUG 05, 1994
p532
sg177
V6-8
p533
sg179
VVincent Hunter
p534
sg181
I1610612763
sg182
V32
p535
sg183
g66
sg184
V00
p536
sg186
g23
sg187
I1626205
ssI1627742
(dp537
g73
VDuke
p538
sg75
V190
p539
sg77
V2017
p540
sg79
F20.0
sg80
VSEP 02, 1997
p541
sg82
V6-9
p542
sg84
VBrandon Ingram
p543
sg86
I1610612747
sg87
V14
p544
sg89
g64
sg90
V00
p545
sg92
VF-G
p546
sg93
I1627742
ssI202335
(dp547
g398
VKentucky
p548
sg400
V230
p549
sg402
V2017
p550
sg404
F28.0
sg405
VMAR 14, 1989
p551
sg407
V6-9
p552
sg409
VPatrick Patterson
p553
sg411
I1610612760
sg412
V54
p554
sg414
g217
sg415
V00
p555
sg417
g23
sg418
I202335
ssI1627744
(dp556
g49
VNorth Carolina
p557
sg51
V230
p558
sg53
V2017
p559
sg55
F23.0
sg56
VJUN 27, 1994
p560
sg58
V6-10
p561
sg60
VBrice Johnson
p562
sg62
I1610612746
sg63
V11
p563
sg65
g64
sg67
V00
p564
sg69
g23
sg71
I1627744
ssI1627745
(dp565
g2
VVanderbilt
p566
sg4
V245
p567
sg6
V2017
p568
sg8
F22.0
sg9
VJUN 30, 1995
p569
sg11
V7-0
p570
sg13
VDamian Jones
p571
sg15
I1610612744
sg16
V15
p572
sg18
g64
sg20
V00
p573
sg22
g227
sg24
I1627745
ssI202339
(dp574
g357
VKentucky
p575
sg359
V205
p576
sg361
V2017
p577
sg363
F27.0
sg364
VDEC 09, 1989
p578
sg366
V6-1
p579
sg368
VEric Bledsoe
p580
sg370
I1610612749
sg371
V6
p581
sg373
g217
sg374
V00
p582
sg376
g70
sg377
I202339
ssI1627748
(dp583
g357
Nsg359
V223
p584
sg361
V2017
p585
sg363
F20.0
sg364
VFEB 25, 1997
p586
sg366
V7-1
p587
sg368
VThon Maker
p588
sg370
I1610612749
sg371
g217
sg373
g64
sg374
V00
p589
sg376
VC-F
p590
sg377
I1627748
ssI1627750
(dp591
g95
VKentucky
p592
sg97
V207
p593
sg99
V2017
p594
sg101
F20.0
sg102
VFEB 23, 1997
p595
sg104
V6-4
p596
sg106
VJamal Murray
p597
sg108
I1610612743
sg109
V27
p598
sg110
g64
sg112
V00
p599
sg114
g70
sg115
I1627750
ssI1627751
(dp600
g189
VUtah
p601
sg191
V230
p602
sg193
V2017
p603
sg195
F22.0
sg196
VOCT 15, 1995
p604
sg198
V7-0
p605
sg200
VJakob Poeltl
p606
sg202
I1610612761
sg203
V42
p607
sg205
g64
sg206
V00
p608
sg208
g227
sg209
I1627751
ssI202347
(dp609
g136
VWashington
p610
sg138
V225
p611
sg140
V2017
p612
sg142
F29.0
sg143
VMAR 10, 1988
p613
sg145
V6-7
p614
sg147
VQuincy Pondexter
p615
sg149
I1610612741
sg150
V20
p616
sg152
g164
sg153
V00
p617
sg155
g70
sg156
I202347
ssI1626220
(dp618
g283
VBaylor
p619
sg285
V226
p620
sg287
V2017
p621
sg289
F24.0
sg290
VJUN 05, 1993
p622
sg292
V6-6
p623
sg294
VRoyce O'Neale
p624
sg296
I1610612762
sg297
V23
p625
sg299
g66
sg301
V00
p626
sg303
g23
sg304
I1626220
ssI1627762
(dp627
g357
VWeber State
p628
sg359
V235
p629
sg361
V2017
p630
sg363
F23.0
sg364
VJAN 28, 1994
p631
sg366
V6-9
p632
sg368
VJoel Bolomboy
p633
sg370
I1610612749
sg371
V24
p634
sg373
g64
sg374
V00
p635
sg376
VF-C
p636
sg377
I1627762
ssI202355
(dp637
g229
VMarshall
p638
sg231
V265
p639
sg233
V2017
p640
sg235
F28.0
sg236
VJUN 13, 1989
p641
sg238
V7-0
p642
sg240
VHassan Whiteside
p643
sg242
I1610612748
sg243
V21
p644
sg245
g164
sg246
V00
p645
sg248
g227
sg249
I202355
ssI1627767
(dp646
g26
VKansas
p647
sg28
V220
p648
sg30
V2017
p649
sg32
F21.0
sg33
VSEP 13, 1996
p650
sg35
V6-9
p651
sg37
VCheick Diallo
p652
sg39
I1610612740
sg40
V13
p653
sg42
g64
sg44
V00
p654
sg46
g23
sg47
I1627767
ssI203897
(dp655
g136
VUCLA
p656
sg138
V185
p657
sg140
V2017
p658
sg142
F22.0
sg143
VMAR 10, 1995
p659
sg145
V6-5
p660
sg147
VZach LaVine
p661
sg149
I1610612741
sg150
g258
sg152
g17
sg153
V00
p662
sg155
g70
sg156
I203897
ssI200826
(dp663
g261
VNortheastern
p664
sg263
V185
p665
sg265
V2017
p666
sg267
F33.0
sg268
VJUN 26, 1984
p667
sg270
V6-0
p668
sg272
VJ.J. Barea
p669
sg274
I1610612742
sg275
g164
sg277
V11
p670
sg278
V00
p671
sg280
g70
sg281
I200826
ssI1627772
(dp672
g398
VConnecticut
p673
sg400
V195
p674
sg402
V2017
p675
sg404
F22.0
sg405
VAUG 08, 1995
p676
sg407
V6-7
p677
sg409
VDaniel Hamilton
p678
sg411
I1610612760
sg412
V25
p679
sg414
g66
sg415
V00
p680
sg417
g70
sg418
I1627772
ssI1627773
(dp681
g229
VPurdue
p682
sg231
V260
p683
sg233
V2017
p684
sg235
F25.0
sg236
VAUG 27, 1992
p685
sg238
V7-0
p686
sg240
VAJ Hammons
p687
sg242
I1610612748
sg243
g43
sg245
g64
sg246
V00
p688
sg248
g227
sg249
I1627773
ssI1627936
(dp689
g73
VTexas A&M
p690
sg75
V186
p691
sg77
V2017
p692
sg79
F23.0
sg80
VFEB 28, 1994
p693
sg82
V6-5
p694
sg84
VAlex Caruso
p695
sg86
I1610612747
sg87
g43
sg89
g66
sg90
V00
p696
sg92
g70
sg93
I1627936
ssI1627780
(dp697
g357
VOregon State
p698
sg359
V190
p699
sg361
V2017
p700
sg363
F24.0
sg364
VDEC 01, 1992
p701
sg366
V6-3
p702
sg368
VGary Payton II
p703
sg370
I1610612749
sg371
g122
sg373
g64
sg374
V00
p704
sg376
g70
sg377
I1627780
ssI203500
(dp705
g398
VPittsburgh
p706
sg400
V255
p707
sg402
V2017
p708
sg404
F24.0
sg405
VJUL 20, 1993
p709
sg407
V7-0
p710
sg409
VSteven Adams
p711
sg411
I1610612760
sg412
V12
p712
sg414
g43
sg415
V00
p713
sg417
g227
sg418
I203500
ssI1627782
(dp714
g168
VKansas
p715
sg170
V230
p716
sg172
V2017
p717
sg174
F23.0
sg175
VSEP 30, 1994
p718
sg177
V6-5
p719
sg179
VWayne Selden
p720
sg181
I1610612763
sg182
g217
sg183
g64
sg184
V00
p721
sg186
VG-F
p722
sg187
I1627782
ssI1627783
(dp723
g189
VNew Mexico State
p724
sg191
V230
p725
sg193
V2017
p726
sg195
F23.0
sg196
VAPR 02, 1994
p727
sg198
V6-9
p728
sg200
VPascal Siakam
p729
sg202
I1610612761
sg203
V43
p730
sg205
g64
sg206
V00
p731
sg208
g23
sg209
I1627783
ssI1627756
(dp732
g136
VMichigan State
p733
sg138
V214
p734
sg140
V2017
p735
sg142
F23.0
sg143
VNOV 16, 1993
p736
sg145
V6-6
p737
sg147
VDenzel Valentine
p738
sg149
I1610612741
sg150
V45
p739
sg152
g64
sg153
V00
p740
sg155
g23
sg156
I1627756
ssI203914
(dp741
g95
VMichigan State
p742
sg97
V210
p743
sg99
V2017
p744
sg101
F23.0
sg102
VSEP 14, 1994
p745
sg104
V6-4
p746
sg106
VGary Harris
p747
sg108
I1610612743
sg109
V14
p748
sg110
g17
sg112
V00
p749
sg114
g70
sg115
I203914
ssI203918
(dp750
g283
VDuke
p751
sg285
V206
p752
sg287
V2017
p753
sg289
F25.0
sg290
VOCT 20, 1992
p754
sg292
V6-8
p755
sg294
VRodney Hood
p756
sg296
I1610612762
sg297
g164
sg299
g17
sg301
V00
p757
sg303
g70
sg304
I203918
ssI1626257
(dp758
g261
Nsg263
V235
p759
sg265
V2017
p760
sg267
F31.0
sg268
VJUN 15, 1986
p761
sg270
V7-2
p762
sg272
VSalah Mejri
p763
sg274
I1610612742
sg275
V50
p764
sg277
g123
sg278
V00
p765
sg280
g227
sg281
I1626257
ssI1626259
(dp766
g189
VHoly Cross
p767
sg191
V210
p768
sg193
V2017
p769
sg195
F24.0
sg196
VMAR 06, 1993
p770
sg198
V6-7
p771
sg200
VMalcolm Miller
p772
sg202
I1610612761
sg203
V13
p773
sg205
g66
sg206
V00
p774
sg208
g23
sg209
I1626259
ssI203924
(dp775
g398
VSyracuse
p776
sg400
V220
p777
sg402
V2017
p778
sg404
F23.0
sg405
VMAR 12, 1994
p779
sg407
V6-9
p780
sg409
VJerami Grant
p781
sg411
I1610612760
sg412
g132
sg414
g17
sg415
V00
p782
sg417
g23
sg418
I203924
ssI2585
(dp783
g2
VTbilisi, Georgia
p784
sg4
V270
p785
sg6
V2017
p786
sg8
F33.0
sg9
VFEB 10, 1984
p787
sg11
V6-11
p788
sg13
VZaza Pachulia
p789
sg15
I1610612744
sg16
V27
p790
sg18
V14
p791
sg20
V00
p792
sg22
g227
sg24
I2585
ssI201156
(dp793
g2
VSouthern California
p794
sg4
V210
p795
sg6
V2017
p796
sg8
F32.0
sg9
VJUN 01, 1985
p797
sg11
V6-7
p798
sg13
VNick Young
p799
sg15
I1610612744
sg16
g581
sg18
V10
p800
sg20
V00
p801
sg22
VG-F
p802
sg24
I201156
ssI2207
(dp803
g283
VArkansas
p804
sg285
V240
p805
sg287
V2017
p806
sg289
F36.0
sg290
VJUN 29, 1981
p807
sg292
V6-7
p808
sg294
VJoe Johnson
p809
sg296
I1610612762
sg297
g581
sg299
V16
p810
sg301
V00
p811
sg303
VG-F
p812
sg304
I2207
ssI2210
(dp813
g95
VArizona
p814
sg97
V233
p815
sg99
V2017
p816
sg101
F37.0
sg102
VJUN 21, 1980
p817
sg104
V6-7
p818
sg106
VRichard Jefferson
p819
sg108
I1610612743
sg109
V22
p820
sg110
V16
p821
sg112
V00
p822
sg114
g23
sg115
I2210
ssI203939
(dp823
g261
VStanford
p824
sg263
V240
p825
sg265
V2017
p826
sg267
F26.0
sg268
VJUL 20, 1991
p827
sg270
V6-11
p828
sg272
VDwight Powell
p829
sg274
I1610612742
sg275
g217
sg277
g17
sg278
V00
p830
sg280
VF-C
p831
sg281
I203939
ssI1627812
(dp832
g261
VIndiana
p833
sg263
V180
p834
sg265
V2017
p835
sg267
F24.0
sg268
VMAY 09, 1993
p836
sg270
V6-0
p837
sg272
VYogi Ferrell
p838
sg274
I1610612742
sg275
V11
p839
sg277
g64
sg278
V00
p840
sg280
g70
sg281
I1627812
ssI203121
(dp841
g26
VKentucky
p842
sg28
V225
p843
sg30
V2017
p844
sg32
F27.0
sg33
VMAR 21, 1990
p845
sg35
V6-8
p846
sg37
VDarius Miller
p847
sg39
I1610612740
sg40
V21
p848
sg42
g17
sg44
V00
p849
sg46
g23
sg47
I203121
ssI203944
(dp850
g73
VKentucky
p851
sg75
V250
p852
sg77
V2017
p853
sg79
F22.0
sg80
VNOV 29, 1994
p854
sg82
V6-9
p855
sg84
VJulius Randle
p856
sg86
I1610612747
sg87
V30
p857
sg89
g17
sg90
V00
p858
sg92
VF-C
p859
sg93
I203944
ssI2733
(dp860
g2
VPeoria Central HS (IL)
p861
sg4
V192
p862
sg6
V2017
p863
sg8
F32.0
sg9
VSEP 11, 1985
p864
sg11
V6-7
p865
sg13
VShaun Livingston
p866
sg15
I1610612744
sg16
V34
p867
sg18
V12
p868
sg20
V00
p869
sg22
g70
sg24
I2733
ssI2734
(dp870
g261
VWisconsin
p871
sg263
V185
p872
sg265
V2017
p873
sg267
F34.0
sg268
VFEB 27, 1983
p874
sg270
V6-3
p875
sg272
VDevin Harris
p876
sg274
I1610612742
sg275
V34
p877
sg277
V13
p878
sg278
V00
p879
sg280
g70
sg281
I2734
ssI1627823
(dp880
g95
Nsg97
V230
p881
sg99
V2017
p882
sg101
F22.0
sg102
VSEP 28, 1995
p883
sg104
V6-9
p884
sg106
VJuan Hernangomez
p885
sg108
I1610612743
sg109
V41
p886
sg110
g64
sg112
V00
p887
sg114
g23
sg115
I1627823
ssI201950
(dp888
g26
VUCLA
p889
sg28
V205
p890
sg30
V2017
p891
sg32
F27.0
sg33
VJUN 12, 1990
p892
sg35
V6-4
p893
sg37
VJrue Holiday
p894
sg39
I1610612740
sg40
V11
p895
sg42
g258
sg44
V00
p896
sg46
g70
sg47
I201950
ssI203953
(dp897
g357
VDuke
p898
sg359
V250
p899
sg361
V2017
p900
sg363
F22.0
sg364
VMAR 15, 1995
p901
sg366
V6-8
p902
sg368
VJabari Parker
p903
sg370
I1610612749
sg371
V12
p904
sg373
g17
sg374
V00
p905
sg376
g23
sg377
I203953
ssI201933
(dp906
g49
VOklahoma
p907
sg51
V251
p908
sg53
V2017
p909
sg55
F28.0
sg56
VMAR 16, 1989
p910
sg58
V6-10
p911
sg60
VBlake Griffin
p912
sg62
I1610612746
sg63
V32
p913
sg65
g217
sg67
V00
p914
sg69
g23
sg71
I201933
ssI1627763
(dp915
g357
VVirginia
p916
sg359
V215
p917
sg361
V2017
p918
sg363
F24.0
sg364
VDEC 11, 1992
p919
sg366
V6-5
p920
sg368
VMalcolm Brogdon
p921
sg370
I1610612749
sg371
V13
p922
sg373
g64
sg374
V00
p923
sg376
g70
sg377
I1627763
ssI203957
(dp924
g283
Nsg285
V190
p925
sg287
V2017
p926
sg289
F22.0
sg290
VJUL 13, 1995
p927
sg292
V6-6
p928
sg294
VDante Exum
p929
sg296
I1610612762
sg297
V11
p930
sg299
g123
sg301
V00
p931
sg303
g70
sg304
I203957
ssI1627775
(dp932
g2
VNevada-Las Vegas
p933
sg4
V185
p934
sg6
V2017
p935
sg8
F22.0
sg9
VOCT 25, 1995
p936
sg11
V6-7
p937
sg13
VPatrick McCaw
p938
sg15
I1610612744
sg16
g122
sg18
g64
sg20
V00
p939
sg22
g70
sg24
I1627775
ssI1627832
(dp940
g189
VWichita State
p941
sg191
V195
p942
sg193
V2017
p943
sg195
F23.0
sg196
VFEB 25, 1994
p944
sg198
V6-0
p945
sg200
VFred VanVleet
p946
sg202
I1610612761
sg203
V23
p947
sg205
g64
sg206
V00
p948
sg208
g70
sg209
I1627832
ssI203962
(dp949
g398
VStanford
p950
sg400
V230
p951
sg402
V2017
p952
sg404
F25.0
sg405
VDEC 19, 1991
p953
sg407
V6-7
p954
sg409
VJosh Huestis
p955
sg411
I1610612760
sg412
V34
p956
sg414
g123
sg415
V00
p957
sg417
g23
sg418
I203962
ssI1627835
(dp958
g136
Nsg138
V226
p959
sg140
V2017
p960
sg142
F23.0
sg143
VFEB 18, 1994
p961
sg145
V6-8
p962
sg147
VPaul Zipser
p963
sg149
I1610612741
sg150
V16
p964
sg152
g64
sg153
V00
p965
sg155
g23
sg156
I1627835
ssI2749
(dp966
g26
VSaint Joseph's
p967
sg28
V190
p968
sg30
V2017
p969
sg32
F35.0
sg33
VFEB 09, 1982
p970
sg35
V6-0
p971
sg37
VJameer Nelson
p972
sg39
I1610612740
sg40
V14
p973
sg42
V13
p974
sg44
V00
p975
sg46
g70
sg47
I2749
ssI203966
(dp976
g49
VMarquette
p977
sg51
V229
p978
sg53
V2017
p979
sg55
F26.0
sg56
VNOV 21, 1990
p980
sg58
V6-7
p981
sg60
VJamil Wilson
p982
sg62
I1610612746
sg63
V13
p983
sg65
g66
sg67
V00
p984
sg69
g23
sg71
I203966
ssI1628021
(dp985
g136
VCal Poly-S.L.O.
p986
sg138
V209
p987
sg140
V2017
p988
sg142
F24.0
sg143
VJAN 14, 1993
p989
sg145
V6-4
p990
sg147
VDavid Nwaba
p991
sg149
I1610612741
sg150
V11
p992
sg152
g64
sg153
V00
p993
sg155
g70
sg156
I1628021
ssI203457
(dp994
g261
VKentucky
p995
sg263
V220
p996
sg265
V2017
p997
sg267
F23.0
sg268
VAPR 10, 1994
p998
sg270
V6-11
p999
sg272
VNerlens Noel
p1000
sg274
I1610612742
sg275
g17
sg277
g17
sg278
V00
p1001
sg280
g227
sg281
I203457
ssI2754
(dp1002
g26
VOklahoma State
p1003
sg28
V213
p1004
sg30
V2017
p1005
sg32
F35.0
sg33
VJAN 11, 1982
p1006
sg35
V6-4
p1007
sg37
VTony Allen
p1008
sg39
I1610612740
sg40
V24
p1009
sg42
V13
p1010
sg44
V00
p1011
sg46
VG-F
p1012
sg47
I2754
ssI203460
(dp1013
g398
VColorado
p1014
sg400
V210
p1015
sg402
V2017
p1016
sg404
F25.0
sg405
VDEC 04, 1991
p1017
sg407
V6-7
p1018
sg409
VAndre Roberson
p1019
sg411
I1610612760
sg412
V21
p1020
sg414
g43
sg415
V00
p1021
sg417
g70
sg418
I203460
ssI203463
(dp1022
g168
VKansas
p1023
sg170
V195
p1024
sg172
V2017
p1025
sg174
F24.0
sg175
VFEB 11, 1993
p1026
sg177
V6-5
p1027
sg179
VBen McLemore
p1028
sg181
I1610612763
sg182
V23
p1029
sg183
g43
sg184
V00
p1030
sg186
g70
sg187
I203463
ssI1627853
(dp1031
g136
VVillanova
p1032
sg138
V195
p1033
sg140
V2017
p1034
sg142
F23.0
sg143
VMAR 26, 1994
p1035
sg145
V6-3
p1036
sg147
VRyan Arcidiacono
p1037
sg149
I1610612741
sg150
V15
p1038
sg152
g66
sg153
V00
p1039
sg155
g70
sg156
I1627853
ssI1628366
(dp1040
g73
VCalifornia-Los Angeles
p1041
sg75
V190
p1042
sg77
V2017
p1043
sg79
F20.0
sg80
VOCT 27, 1997
p1044
sg82
V6-6
p1045
sg84
VLonzo Ball
p1046
sg86
I1610612747
sg87
g123
sg89
g66
sg90
V00
p1047
sg92
g70
sg93
I1628366
ssI1627855
(dp1048
g229
VFlorida State
p1049
sg231
V215
p1050
sg233
V2017
p1051
sg235
F25.0
sg236
VAUG 13, 1992
p1052
sg238
V6-8
p1053
sg240
VOkaro White
p1054
sg242
I1610612748
sg243
V15
p1055
sg245
g64
sg246
V00
p1056
sg248
g23
sg249
I1627855
ssI201936
(dp1057
g168
VMemphis
p1058
sg170
V220
p1059
sg172
V2017
p1060
sg174
F28.0
sg175
VSEP 19, 1989
p1061
sg177
V6-6
p1062
sg179
VTyreke Evans
p1063
sg181
I1610612763
sg182
V12
p1064
sg183
g258
sg184
V00
p1065
sg186
VG-F
p1066
sg187
I201936
ssI201937
(dp1067
g283
VEl Masnou, Spain
p1068
sg285
V190
p1069
sg287
V2017
p1070
sg289
F27.0
sg290
VOCT 21, 1990
p1071
sg292
V6-4
p1072
sg294
VRicky Rubio
p1073
sg296
I1610612762
sg297
g17
sg299
g581
sg301
V00
p1074
sg303
g70
sg304
I201937
ssI201939
(dp1075
g2
VDavidson
p1076
sg4
V190
p1077
sg6
V2017
p1078
sg8
F29.0
sg9
VMAR 14, 1988
p1079
sg11
V6-3
p1080
sg13
VStephen Curry
p1081
sg15
I1610612744
sg16
V30
p1082
sg18
g258
sg20
V00
p1083
sg22
g70
sg24
I201939
ssI1628372
(dp1084
g261
VNorth Carolina State
p1085
sg263
V195
p1086
sg265
V2017
p1087
sg267
F19.0
sg268
VNOV 25, 1997
p1088
sg270
V6-3
p1089
sg272
VDennis Smith Jr.
p1090
sg274
I1610612742
sg275
g64
sg277
g66
sg278
V00
p1091
sg280
g70
sg281
I1628372
ssI201942
(dp1092
g189
VSouthern California
p1093
sg191
V220
p1094
sg193
V2017
p1095
sg195
F28.0
sg196
VAUG 07, 1989
p1096
sg198
V6-7
p1097
sg200
VDeMar DeRozan
p1098
sg202
I1610612761
sg203
V10
p1099
sg205
g258
sg206
V00
p1100
sg208
g70
sg209
I201942
ssI203481
(dp1101
g261
VKansas
p1102
sg263
V230
p1103
sg265
V2017
p1104
sg267
F27.0
sg268
VMAR 07, 1990
p1105
sg270
V7-0
p1106
sg272
VJeff Withey
p1107
sg274
I1610612742
sg275
V17
p1108
sg277
g43
sg278
V00
p1109
sg280
g227
sg281
I203481
ssI1628378
(dp1110
g283
VLouisville
p1111
sg285
V215
p1112
sg287
V2017
p1113
sg289
F21.0
sg290
VSEP 07, 1996
p1114
sg292
V6-3
p1115
sg294
VDonovan Mitchell
p1116
sg296
I1610612762
sg297
V45
p1117
sg299
g66
sg301
V00
p1118
sg303
g70
sg304
I1628378
ssI203484
(dp1119
g73
VGeorgia
p1120
sg75
V205
p1121
sg77
V2017
p1122
sg79
F24.0
sg80
VFEB 18, 1993
p1123
sg82
V6-5
p1124
sg84
VKentavious Caldwell-Pope
p1125
sg86
I1610612747
sg87
g64
sg89
g43
sg90
V00
p1126
sg92
g70
sg93
I203484
ssI201949
(dp1127
g229
VWake Forest
p1128
sg231
V240
p1129
sg233
V2017
p1130
sg235
F30.0
sg236
VFEB 20, 1987
p1131
sg238
V6-8
p1132
sg240
VJames Johnson
p1133
sg242
I1610612748
sg243
V16
p1134
sg245
g258
sg246
V00
p1135
sg248
g23
sg249
I201949
ssI203998
(dp1136
g189
Nsg191
V205
p1137
sg193
V2017
p1138
sg195
F22.0
sg196
VSEP 21, 1995
p1139
sg198
V6-9
p1140
sg200
VBruno Caboclo
p1141
sg202
I1610612761
sg203
g164
sg205
g17
sg206
V00
p1142
sg208
g23
sg209
I203998
ssI203999
(dp1143
g95
Nsg97
V250
p1144
sg99
V2017
p1145
sg101
F22.0
sg102
VFEB 19, 1995
p1146
sg104
V6-10
p1147
sg106
VNikola Jokic
p1148
sg108
I1610612743
sg109
V15
p1149
sg110
g123
sg112
V00
p1150
sg114
g227
sg115
I203999
ssI1628384
(dp1151
g189
VIndiana
p1152
sg191
V235
p1153
sg193
V2017
p1154
sg195
F20.0
sg196
VJUL 17, 1997
p1155
sg198
V6-8
p1156
sg200
VOG Anunoby
p1157
sg202
I1610612761
sg203
g17
sg205
g66
sg206
V00
p1158
sg208
g23
sg209
I1628384
ssI203489
(dp1159
g283
VSouth Dakota State
p1160
sg285
V190
p1161
sg287
V2017
p1162
sg289
F26.0
sg290
VMAY 15, 1991
p1163
sg292
V6-4
p1164
sg294
VNate Wolters
p1165
sg296
I1610612762
sg297
V16
p1166
sg299
g123
sg301
V00
p1167
sg303
g70
sg304
I203489
ssI201956
(dp1168
g2
VYavne, Israel
p1169
sg4
V225
p1170
sg6
V2017
p1171
sg8
F29.0
sg9
VJUN 22, 1988
p1172
sg11
V6-9
p1173
sg13
VOmri Casspi
p1174
sg15
I1610612744
sg16
V18
p1175
sg18
g258
sg20
V00
p1176
sg22
g23
sg24
I201956
ssI1628389
(dp1177
g229
VKentucky
p1178
sg231
V255
p1179
sg233
V2017
p1180
sg235
F20.0
sg236
VJUL 18, 1997
p1181
sg238
V6-10
p1182
sg240
VBam Adebayo
p1183
sg242
I1610612748
sg243
V13
p1184
sg245
g66
sg246
V00
p1185
sg248
VC-F
p1186
sg249
I1628389
ssI1628390
(dp1187
g398
Nsg400
V184
p1188
sg402
V2017
p1189
sg404
F19.0
sg405
VMAY 17, 1998
p1190
sg407
V6-7
p1191
sg409
VTerrance Ferguson
p1192
sg411
I1610612760
sg412
V23
p1193
sg414
g66
sg415
V00
p1194
sg417
g70
sg418
I1628390
ssI1628391
(dp1195
g357
VMichigan
p1196
sg359
V236
p1197
sg361
V2017
p1198
sg363
F21.0
sg364
VFEB 19, 1996
p1199
sg366
V6-10
p1200
sg368
VD.J. Wilson
p1201
sg370
I1610612749
sg371
g164
sg373
g66
sg374
V00
p1202
sg376
g23
sg377
I1628391
ssI203497
(dp1203
g283
VFrance
p1204
sg285
V245
p1205
sg287
V2017
p1206
sg289
F25.0
sg290
VJUN 26, 1992
p1207
sg292
V7-1
p1208
sg294
VRudy Gobert
p1209
sg296
I1610612762
sg297
V27
p1210
sg299
g43
sg301
V00
p1211
sg303
g227
sg304
I203497
ssI1627883
(dp1212
g26
VTexas A&M
p1213
sg28
V220
p1214
sg30
V2017
p1215
sg32
F24.0
sg33
VMAY 27, 1993
p1216
sg35
V6-7
p1217
sg37
VJalen Jones
p1218
sg39
I1610612740
sg40
V12
p1219
sg42
g66
sg44
V00
p1220
sg46
g23
sg47
I1627883
ssI1628396
(dp1221
g283
VNorth Carolina
p1222
sg285
V248
p1223
sg287
V2017
p1224
sg289
F19.0
sg290
VJAN 08, 1998
p1225
sg292
V6-10
p1226
sg294
VTony Bradley
p1227
sg296
I1610612762
sg297
V13
p1228
sg299
g66
sg301
V00
p1229
sg303
g227
sg304
I1628396
ssI1628397
(dp1230
g168
VCalifornia
p1231
sg170
V220
p1232
sg172
V2017
p1233
sg174
F20.0
sg175
VFEB 04, 1997
p1234
sg177
V6-10
p1235
sg179
VIvan Rabb
p1236
sg181
I1610612763
sg182
V10
p1237
sg183
g66
sg184
V00
p1238
sg186
g23
sg187
I1628397
ssI1628398
(dp1239
g73
VUtah
p1240
sg75
V220
p1241
sg77
V2017
p1242
sg79
F22.0
sg80
VJUL 24, 1995
p1243
sg82
V6-9
p1244
sg84
VKyle Kuzma
p1245
sg86
I1610612747
sg87
g122
sg89
g66
sg90
V00
p1246
sg92
g23
sg93
I1628398
ssI203503
(dp1247
g357
VNew Mexico
p1248
sg359
V221
p1249
sg361
V2017
p1250
sg363
F26.0
sg364
VNOV 10, 1991
p1251
sg366
V6-7
p1252
sg368
VTony Snell
p1253
sg370
I1610612749
sg371
V21
p1254
sg373
g43
sg374
V00
p1255
sg376
g70
sg377
I203503
ssI203505
(dp1256
g73
VMarquette
p1257
sg75
V200
p1258
sg77
V2017
p1259
sg79
F25.0
sg80
VJUL 17, 1992
p1260
sg82
V6-5
p1261
sg84
VVander Blue
p1262
sg86
I1610612747
sg87
V17
p1263
sg89
g123
sg90
V00
p1264
sg92
g70
sg93
I203505
ssI1628402
(dp1265
g26
VDuke
p1266
sg28
V205
p1267
sg30
V2017
p1268
sg32
F19.0
sg33
VMAY 04, 1998
p1269
sg35
V6-3
p1270
sg37
VFrank Jackson
p1271
sg39
I1610612740
sg40
V15
p1272
sg42
g66
sg44
V00
p1273
sg46
g70
sg47
I1628402
ssI203507
(dp1274
g357
VGreece
p1275
sg359
V222
p1276
sg361
V2017
p1277
sg363
F22.0
sg364
VDEC 06, 1994
p1278
sg366
V6-11
p1279
sg368
VGiannis Antetokounmpo
p1280
sg370
I1610612749
sg371
V34
p1281
sg373
g43
sg374
V00
p1282
sg376
g23
sg377
I203507
ssI204020
(dp1283
g229
VFresno State
p1284
sg231
V190
p1285
sg233
V2017
p1286
sg235
F25.0
sg236
VMAY 07, 1992
p1287
sg238
V6-4
p1288
sg240
VTyler Johnson
p1289
sg242
I1610612748
sg243
g258
sg245
g17
sg246
V00
p1290
sg248
g70
sg249
I204020
ssI201973
(dp1291
g283
VKinna, Sweden
p1292
sg285
V231
p1293
sg287
V2017
p1294
sg289
F30.0
sg290
VMAR 02, 1987
p1295
sg292
V6-10
p1296
sg294
VJonas Jerebko
p1297
sg296
I1610612762
sg297
g258
sg299
g217
sg301
V00
p1298
sg303
g23
sg304
I201973
ssI203512
(dp1299
g189
Nsg191
V220
p1300
sg193
V2017
p1301
sg195
F25.0
sg196
VJUL 26, 1992
p1302
sg198
V7-0
p1303
sg200
VLucas Nogueira
p1304
sg202
I1610612761
sg203
V92
p1305
sg205
g17
sg206
V00
p1306
sg208
g227
sg209
I203512
ssI203903
(dp1307
g73
VMissouri
p1308
sg75
V194
p1309
sg77
V2017
p1310
sg79
F25.0
sg80
VJUN 07, 1992
p1311
sg82
V6-5
p1312
sg84
VJordan Clarkson
p1313
sg86
I1610612747
sg87
g581
sg89
g17
sg90
V00
p1314
sg92
g70
sg93
I203903
ssI203516
(dp1315
g168
VLong Beach State
p1316
sg170
V210
p1317
sg172
V2017
p1318
sg174
F27.0
sg175
VJUL 01, 1990
p1319
sg177
V6-7
p1320
sg179
VJames Ennis III
p1321
sg181
I1610612763
sg182
g258
sg183
g17
sg184
V00
p1322
sg186
g23
sg187
I203516
ssI203518
(dp1323
g398
Nsg400
V190
p1324
sg402
V2017
p1325
sg404
F24.0
sg405
VAUG 01, 1993
p1326
sg407
V6-6
p1327
sg409
VAlex Abrines
p1328
sg411
I1610612760
sg412
g258
sg414
g64
sg415
V00
p1329
sg417
g70
sg418
I203518
ssI1628415
(dp1330
g168
VOregon
p1331
sg170
V220
p1332
sg172
V2017
p1333
sg174
F21.0
sg175
VJAN 22, 1996
p1334
sg177
V6-6
p1335
sg179
VDillon Brooks
p1336
sg181
I1610612763
sg182
V24
p1337
sg183
g66
sg184
V00
p1338
sg186
VF-G
p1339
sg187
I1628415
ssI203521
(dp1340
g357
VSaint Mary's (CA)
p1341
sg359
V198
p1342
sg361
V2017
p1343
sg363
F27.0
sg364
VSEP 08, 1990
p1344
sg366
V6-4
p1345
sg368
VMatthew Dellavedova
p1346
sg370
I1610612749
sg371
g258
sg373
g43
sg374
V00
p1347
sg376
g70
sg377
I203521
ssI1628418
(dp1348
g73
VIndiana
p1349
sg75
V248
p1350
sg77
V2017
p1351
sg79
F20.0
sg80
VJUL 31, 1997
p1352
sg82
V6-10
p1353
sg84
VThomas Bryant
p1354
sg86
I1610612747
sg87
V31
p1355
sg89
g66
sg90
V00
p1356
sg92
g227
sg93
I1628418
ssI1628420
(dp1357
g95
VIowa State
p1358
sg97
V175
p1359
sg99
V2017
p1360
sg101
F22.0
sg102
VJUN 27, 1995
p1361
sg104
V6-3
p1362
sg106
VMonte Morris
p1363
sg108
I1610612743
sg109
V11
p1364
sg110
g66
sg112
V00
p1365
sg114
g70
sg115
I1628420
ssI1627770
(dp1366
g136
VOakland
p1367
sg138
V176
p1368
sg140
V2017
p1369
sg142
F22.0
sg143
VMAR 29, 1995
p1370
sg145
V5-9
p1371
sg147
VKay Felder
p1372
sg149
I1610612741
sg150
g17
sg152
g64
sg153
V00
p1373
sg155
g70
sg156
I1627770
ssI203526
(dp1374
g283
Nsg285
V179
p1375
sg287
V2017
p1376
sg289
F25.0
sg290
VMAY 19, 1992
p1377
sg292
V6-1
p1378
sg294
VRaul Neto
p1379
sg296
I1610612762
sg297
V25
p1380
sg299
g123
sg301
V00
p1381
sg303
g70
sg304
I203526
ssI1628424
(dp1382
g168
VArizona
p1383
sg170
V170
p1384
sg172
V2017
p1385
sg174
F20.0
sg175
VJUL 04, 1997
p1386
sg177
V6-4
p1387
sg179
VKobi Simmons
p1388
sg181
I1610612763
sg182
g123
sg183
g66
sg184
V00
p1389
sg186
g70
sg187
I1628424
ssI1628425
(dp1390
g357
VSouthern Methodist
p1391
sg359
V230
p1392
sg361
V2017
p1393
sg363
F22.0
sg364
VFEB 10, 1995
p1394
sg366
V6-6
p1395
sg368
VSterling Brown
p1396
sg370
I1610612749
sg371
V23
p1397
sg373
g66
sg374
V00
p1398
sg376
g70
sg377
I1628425
ssI1628429
(dp1399
g26
VDayton
p1400
sg28
V196
p1401
sg30
V2017
p1402
sg32
F23.0
sg33
VJUL 01, 1994
p1403
sg35
V6-5
p1404
sg37
VCharles Cooke
p1405
sg39
I1610612740
sg40
g43
sg42
g66
sg44
V00
p1406
sg46
g70
sg47
I1628429
ssI101139
(dp1407
g189
VSkyline HS (TX)
p1408
sg191
V225
p1409
sg193
V2017
p1410
sg195
F30.0
sg196
VMAR 18, 1987
p1411
sg198
V6-6
p1412
sg200
VCJ Miles
p1413
sg202
I1610612761
sg203
g122
sg205
V12
p1414
sg206
V00
p1415
sg208
VF-G
p1416
sg209
I101139
ssI201177
(dp1417
g261
VDuke
p1418
sg263
V240
p1419
sg265
V2017
p1420
sg267
F30.0
sg268
VFEB 28, 1987
p1421
sg270
V6-10
p1422
sg272
VJosh McRoberts
p1423
sg274
I1610612742
sg275
V13
p1424
sg277
V10
p1425
sg278
V00
p1426
sg280
VF-C
p1427
sg281
I201177
ssI203546
(dp1428
g26
VBelmont
p1429
sg28
V175
p1430
sg30
V2017
p1431
sg32
F26.0
sg33
VMAR 07, 1991
p1432
sg35
V6-3
p1433
sg37
VIan Clark
p1434
sg39
I1610612740
sg40
g123
sg42
g43
sg44
V00
p1435
sg46
g70
sg47
I203546
ssI203547
(dp1436
g283
VCampbell
p1437
sg285
V205
p1438
sg287
V2017
p1439
sg289
F27.0
sg290
VMAY 26, 1990
p1440
sg292
V6-8
p1441
sg294
VEric Griffin
p1442
sg296
I1610612762
sg297
V17
p1443
sg299
g66
sg301
V00
p1444
sg303
VC-F
p1445
sg304
I203547
ssI204060
(dp1446
g283
Nsg285
V226
p1447
sg287
V2017
p1448
sg289
F30.0
sg290
VOCT 02, 1987
p1449
sg292
V6-8
p1450
sg294
VJoe Ingles
p1451
sg296
I1610612762
sg297
g123
sg299
g17
sg301
V00
p1452
sg303
g23
sg304
I204060
ssI203482
(dp1453
g229
VGonzaga
p1454
sg231
V245
p1455
sg233
V2017
p1456
sg235
F26.0
sg236
VAPR 19, 1991
p1457
sg238
V7-0
p1458
sg240
VKelly Olynyk
p1459
sg242
I1610612748
sg243
g132
sg245
g43
sg246
V00
p1460
sg248
VC-F
p1461
sg249
I203482
ssI101150
(dp1462
g49
VSouth Gwinnett HS (GA)
p1463
sg51
V175
p1464
sg53
V2017
p1465
sg55
F31.0
sg56
VOCT 27, 1986
p1466
sg58
V6-1
p1467
sg60
VLou Williams
p1468
sg62
I1610612746
sg63
V23
p1469
sg65
V12
p1470
sg67
V00
p1471
sg69
g70
sg71
I101150
ssI1626245
(dp1472
g136
Nsg138
V280
p1473
sg140
V2017
p1474
sg142
F25.0
sg143
VJUL 07, 1992
p1475
sg145
V6-9
p1476
sg147
VCristiano Felicio
p1477
sg149
I1610612741
sg150
g581
sg152
g123
sg153
V00
p1478
sg155
VC-F
p1479
sg156
I1626245
ssI203552
(dp1480
g261
VDuke
p1481
sg263
V185
p1482
sg265
V2017
p1483
sg267
F27.0
sg268
VAUG 23, 1990
p1484
sg270
V6-2
p1485
sg272
VSeth Curry
p1486
sg274
I1610612742
sg275
V30
p1487
sg277
g43
sg278
V00
p1488
sg280
g70
sg281
I203552
ssI1628449
(dp1489
g2
VOregon
p1490
sg4
V200
p1491
sg6
V2017
p1492
sg8
F24.0
sg9
VJAN 11, 1993
p1493
sg11
V6-10
p1494
sg13
VChris Boucher
p1495
sg15
I1610612744
sg16
V25
p1496
sg18
g66
sg20
V00
p1497
sg22
g23
sg24
I1628449
ssI1628462
(dp1498
g49
Nsg51
V196
p1499
sg53
V2017
p1500
sg55
F30.0
sg56
VMAR 19, 1987
p1501
sg58
V6-5
p1502
sg60
VMilos Teodosic
p1503
sg62
I1610612746
sg63
g43
sg65
g66
sg67
V00
p1504
sg69
g70
sg71
I1628462
ssI203485
(dp1505
g189
VNorth Carolina State
p1506
sg191
V189
p1507
sg193
V2017
p1508
sg195
F27.0
sg196
VAUG 26, 1990
p1509
sg198
V6-5
p1510
sg200
VLorenzo Brown
p1511
sg202
I1610612761
sg203
g43
sg205
g17
sg206
V00
p1512
sg208
g70
sg209
I203485
ssI1628467
(dp1513
g261
Nsg263
V220
p1514
sg265
V2017
p1515
sg267
F25.0
sg268
VJAN 29, 1992
p1516
sg270
V6-11
p1517
sg272
VMaxi Kleber
p1518
sg274
I1610612742
sg275
V42
p1519
sg277
g66
sg278
V00
p1520
sg280
g23
sg281
I1628467
ssI203486
(dp1521
g95
VDuke
p1522
sg97
V255
p1523
sg99
V2017
p1524
sg101
F27.0
sg102
VMAR 05, 1990
p1525
sg104
V6-11
p1526
sg106
VMason Plumlee
p1527
sg108
I1610612743
sg109
V24
p1528
sg110
g43
sg112
V00
p1529
sg114
VC-F
p1530
sg115
I203486
ssI1628470
(dp1531
g95
VSouth Carolina Upstate
p1532
sg97
V215
p1533
sg99
V2017
p1534
sg101
F26.0
sg102
VDEC 19, 1990
p1535
sg104
V6-6
p1536
sg106
VTorrey Craig
p1537
sg108
I1610612743
sg109
g17
sg110
g66
sg112
V00
p1538
sg114
VG-F
p1539
sg115
I1628470
ssI2738
(dp1540
g2
VArizona
p1541
sg4
V215
p1542
sg6
V2017
p1543
sg8
F33.0
sg9
VJAN 28, 1984
p1544
sg11
V6-6
p1545
sg13
VAndre Iguodala
p1546
sg15
I1610612744
sg16
g132
sg18
V13
p1547
sg20
V00
p1548
sg22
VG-F
p1549
sg24
I2738
ssI1628475
(dp1550
g229
VCentral Florida
p1551
sg231
V210
p1552
sg233
V2017
p1553
sg235
F24.0
sg236
VOCT 14, 1993
p1554
sg238
V6-5
p1555
sg240
VMatt Williams Jr.
p1556
sg242
I1610612748
sg243
V12
p1557
sg245
g66
sg246
V00
p1558
sg248
g70
sg249
I1628475
ssI1628476
(dp1559
g229
VMichigan
p1560
sg231
V185
p1561
sg233
V2017
p1562
sg235
F22.0
sg236
VAPR 03, 1995
p1563
sg238
V6-1
p1564
sg240
VDerrick Walton Jr.
p1565
sg242
I1610612748
sg243
V14
p1566
sg245
g66
sg246
V00
p1567
sg248
g70
sg249
I1628476
ssI1628469
(dp1568
g136
VLouisiana State
p1569
sg138
V197
p1570
sg140
V2017
p1571
sg142
F21.0
sg143
VOCT 04, 1996
p1572
sg145
V6-4
p1573
sg147
VAntonio Blakeney
p1574
sg149
I1610612741
sg150
g132
sg152
g66
sg153
V00
p1575
sg155
g70
sg156
I1628469
ssI203585
(dp1576
g229
VKansas State
p1577
sg231
V200
p1578
sg233
V2017
p1579
sg235
F26.0
sg236
VJUL 29, 1991
p1580
sg238
V6-4
p1581
sg240
VRodney McGruder
p1582
sg242
I1610612748
sg243
V17
p1583
sg245
g64
sg246
V00
p1584
sg248
VG-F
p1585
sg249
I203585
ssI203076
(dp1586
g26
VKentucky
p1587
sg28
V253
p1588
sg30
V2017
p1589
sg32
F24.0
sg33
VMAR 11, 1993
p1590
sg35
V6-10
p1591
sg37
VAnthony Davis
p1592
sg39
I1610612740
sg40
V23
p1593
sg42
g164
sg44
V00
p1594
sg46
VF-C
p1595
sg47
I203076
ssI203079
(dp1596
g229
VSyracuse
p1597
sg231
V215
p1598
sg233
V2017
p1599
sg235
F25.0
sg236
VDEC 10, 1991
p1600
sg238
V6-4
p1601
sg240
VDion Waiters
p1602
sg242
I1610612748
sg243
V11
p1603
sg245
g164
sg246
V00
p1604
sg248
g70
sg249
I203079
ssI1628492
(dp1605
g261
VColorado State
p1606
sg263
V185
p1607
sg265
V2017
p1608
sg267
F23.0
sg268
VNOV 26, 1993
p1609
sg270
V6-4
p1610
sg272
VGian Clavell
p1611
sg274
I1610612742
sg275
g258
sg277
g66
sg278
V00
p1612
sg280
g70
sg281
I1628492
ssI203085
(dp1613
g49
VDuke
p1614
sg51
V200
p1615
sg53
V2017
p1616
sg55
F25.0
sg56
VAUG 01, 1992
p1617
sg58
V6-4
p1618
sg60
VAustin Rivers
p1619
sg62
I1610612746
sg63
V25
p1620
sg65
g164
sg67
V00
p1621
sg69
g70
sg71
I203085
ssI203089
(dp1622
g357
VNorth Carolina
p1623
sg359
V229
p1624
sg361
V2017
p1625
sg363
F26.0
sg364
VDEC 28, 1990
p1626
sg366
V6-11
p1627
sg368
VJohn Henson
p1628
sg370
I1610612749
sg371
V31
p1629
sg373
g164
sg374
V00
p1630
sg376
VF-C
p1631
sg377
I203089
ssI201976
(dp1632
g49
VArkansas
p1633
sg51
V185
p1634
sg53
V2017
p1635
sg55
F29.0
sg56
VJUL 12, 1988
p1636
sg58
V6-1
p1637
sg60
VPatrick Beverley
p1638
sg62
I1610612746
sg63
V21
p1639
sg65
g164
sg67
V00
p1640
sg69
g70
sg71
I201976
ssI201566
(dp1641
g398
VUCLA
p1642
sg400
V200
p1643
sg402
V2017
p1644
sg404
F28.0
sg405
VNOV 12, 1988
p1645
sg407
V6-3
p1646
sg409
VRussell Westbrook
p1647
sg411
I1610612760
sg412
g122
sg414
g132
sg415
V00
p1648
sg417
g70
sg418
I201566
ssI201568
(dp1649
g49
VSant'Angelo Lodigiano, Italy
p1650
sg51
V225
p1651
sg53
V2017
p1652
sg55
F29.0
sg56
VAUG 08, 1988
p1653
sg58
V6-10
p1654
sg60
VDanilo Gallinari
p1655
sg62
I1610612746
sg63
g258
sg65
g258
sg67
V00
p1656
sg69
g23
sg71
I201568
ssI1891
(dp1657
g357
VArizona
p1658
sg359
V185
p1659
sg361
V2017
p1660
sg363
F40.0
sg364
VSEP 15, 1977
p1661
sg366
V6-2
p1662
sg368
VJason Terry
p1663
sg370
I1610612749
sg371
g17
sg373
V18
p1664
sg374
V00
p1665
sg376
g70
sg377
I1891
ssI201572
(dp1666
g73
VStanford
p1667
sg75
V268
p1668
sg77
V2017
p1669
sg79
F29.0
sg80
VAPR 01, 1988
p1670
sg82
V7-0
p1671
sg84
VBrook Lopez
p1672
sg86
I1610612747
sg87
V11
p1673
sg89
g132
sg90
V00
p1674
sg92
g227
sg93
I201572
ssI203110
(dp1675
g2
VMichigan State
p1676
sg4
V230
p1677
sg6
V2017
p1678
sg8
F27.0
sg9
VMAR 04, 1990
p1679
sg11
V6-7
p1680
sg13
VDraymond Green
p1681
sg15
I1610612744
sg16
V23
p1682
sg18
g164
sg20
V00
p1683
sg22
g23
sg24
I203110
ssI201577
(dp1684
g136
VStanford
p1685
sg138
V277
p1686
sg140
V2017
p1687
sg142
F29.0
sg143
VAPR 01, 1988
p1688
sg145
V7-0
p1689
sg147
VRobin Lopez
p1690
sg149
I1610612741
sg150
V42
p1691
sg152
g132
sg153
V00
p1692
sg155
g227
sg156
I201577
ssI203114
(dp1693
g357
VTexas A&M
p1694
sg359
V234
p1695
sg361
V2017
p1696
sg363
F26.0
sg364
VAUG 12, 1991
p1697
sg366
V6-8
p1698
sg368
VKhris Middleton
p1699
sg370
I1610612749
sg371
V22
p1700
sg373
g164
sg374
V00
p1701
sg376
g23
sg377
I203114
ssI203115
(dp1702
g95
VMemphis
p1703
sg97
V190
p1704
sg99
V2017
p1705
sg101
F26.0
sg102
VJAN 06, 1991
p1706
sg104
V6-6
p1707
sg106
VWill Barton
p1708
sg108
I1610612743
sg109
g164
sg110
g164
sg112
V00
p1709
sg114
VG-F
p1710
sg115
I203115
ssI201580
(dp1711
g2
VNevada
p1712
sg4
V270
p1713
sg6
V2017
p1714
sg8
F29.0
sg9
VJAN 19, 1988
p1715
sg11
V7-0
p1716
sg13
VJaVale McGee
p1717
sg15
I1610612744
sg16
g64
sg18
g132
sg20
V00
p1718
sg22
g227
sg24
I201580
ssI201582
(dp1719
g26
VSaint Etienne, France
p1720
sg28
V248
p1721
sg30
V2017
p1722
sg32
F29.0
sg33
VMAY 06, 1988
p1723
sg35
V7-2
p1724
sg37
VAlexis Ajinca
p1725
sg39
I1610612740
sg40
V42
p1726
sg42
g217
sg44
V00
p1727
sg46
g227
sg47
I201582
ssI200765
(dp1728
g26
VKentucky
p1729
sg28
V186
p1730
sg30
V2017
p1731
sg32
F31.0
sg33
VFEB 22, 1986
p1732
sg35
V6-1
p1733
sg37
VRajon Rondo
p1734
sg39
I1610612740
sg40
g132
sg42
V11
p1735
sg44
V00
p1736
sg46
g70
sg47
I200765
ssI1717
(dp1737
g261
VWurzburg, Germany
p1738
sg263
V245
p1739
sg265
V2017
p1740
sg267
F39.0
sg268
VJUN 19, 1978
p1741
sg270
V7-0
p1742
sg272
VDirk Nowitzki
p1743
sg274
I1610612742
sg275
V41
p1744
sg277
V19
p1745
sg278
V00
p1746
sg280
VF-C
p1747
sg281
I1717
ssI201586
(dp1748
g189
VBrazzaville, Rep. of Congo
p1749
sg191
V235
p1750
sg193
V2017
p1751
sg195
F28.0
sg196
VSEP 18, 1989
p1752
sg198
V6-10
p1753
sg200
VSerge Ibaka
p1754
sg202
I1610612761
sg203
g132
sg205
g258
sg206
V00
p1755
sg208
g23
sg209
I201586
ssI201589
(dp1756
g95
VKansas
p1757
sg97
V235
p1758
sg99
V2017
p1759
sg101
F29.0
sg102
VMAR 25, 1988
p1760
sg104
V6-9
p1761
sg106
VDarrell Arthur
p1762
sg108
I1610612743
sg109
V00
p1763
sg110
g258
sg112
V00
p1764
sg114
g23
sg115
I201589
ssI201961
(dp1765
g229
VNorth Carolina
p1766
sg231
V200
p1767
sg233
V2017
p1768
sg235
F29.0
sg236
VNOV 29, 1987
p1769
sg238
V6-5
p1770
sg240
VWayne Ellington
p1771
sg242
I1610612748
sg243
g123
sg245
g258
sg246
V00
p1772
sg248
g70
sg249
I201961
ssI201596
(dp1773
g168
VKansas
p1774
sg170
V190
p1775
sg172
V2017
p1776
sg174
F31.0
sg175
VMAY 19, 1986
p1777
sg177
V6-2
p1778
sg179
VMario Chalmers
p1779
sg181
I1610612763
sg182
g581
sg183
g258
sg184
V00
p1780
sg186
g70
sg187
I201596
ssI201599
(dp1781
g49
VTexas A&M
p1782
sg51
V265
p1783
sg53
V2017
p1784
sg55
F29.0
sg56
VJUL 21, 1988
p1785
sg58
V6-11
p1786
sg60
VDeAndre Jordan
p1787
sg62
I1610612746
sg63
g581
sg65
g132
sg67
V00
p1788
sg69
g227
sg71
I201599
ssI201600
(dp1789
g26
VTurkey
p1790
sg28
V255
p1791
sg30
V2017
p1792
sg32
F31.0
sg33
VJUL 04, 1986
p1793
sg35
V7-0
p1794
sg37
VOmer Asik
p1795
sg39
I1610612740
sg40
g17
sg42
g217
sg44
V00
p1796
sg46
g227
sg47
I201600
ssI1628035
(dp1797
g189
VWisc.-Green Bay
p1798
sg191
V215
p1799
sg193
V2017
p1800
sg195
F25.0
sg196
VSEP 17, 1992
p1801
sg198
V6-8
p1802
sg200
VAlfonzo McKinnie
p1803
sg202
I1610612761
sg203
V34
p1804
sg205
g66
sg206
V00
p1805
sg208
g23
sg209
I1628035
ssI203141
(dp1806
g357
VBosnia
p1807
sg359
V242
p1808
sg361
V2017
p1809
sg363
F32.0
sg364
VSEP 17, 1985
p1810
sg366
V6-9
p1811
sg368
VMirza Teletovic
p1812
sg370
I1610612749
sg371
V35
p1813
sg373
g164
sg374
V00
p1814
sg376
g23
sg377
I203141
ssI201609
(dp1815
g229
VLjubljana, Slovenia
p1816
sg231
V190
p1817
sg233
V2017
p1818
sg235
F31.0
sg236
VMAY 06, 1986
p1819
sg238
V6-3
p1820
sg240
VGoran Dragic
p1821
sg242
I1610612748
sg243
g217
sg245
g132
sg246
V00
p1822
sg248
g70
sg249
I201609
ssI1628399
(dp1823
g95
VSyracuse
p1824
sg97
V220
p1825
sg99
V2017
p1826
sg101
F21.0
sg102
VAPR 09, 1996
p1827
sg104
V6-9
p1828
sg106
VTyler Lydon
p1829
sg108
I1610612743
sg109
V20
p1830
sg110
g66
sg112
V00
p1831
sg114
g23
sg115
I1628399
ssI101106
(dp1832
g73
VUtah
p1833
sg75
V260
p1834
sg77
V2017
p1835
sg79
F32.0
sg80
VNOV 28, 1984
p1836
sg82
V7-0
p1837
sg84
VAndrew Bogut
p1838
sg86
I1610612747
sg87
V66
p1839
sg89
V12
p1840
sg90
V00
p1841
sg92
g227
sg93
I101106
ssI203186
(dp1842
g49
VSaint Louis
p1843
sg51
V245
p1844
sg53
V2017
p1845
sg55
F27.0
sg56
VMAY 16, 1990
p1846
sg58
V6-11
p1847
sg60
VWillie Reed
p1848
sg62
I1610612746
sg63
V35
p1849
sg65
g123
sg67
V00
p1850
sg69
g227
sg71
I203186
ssI201142
(dp1851
g2
VTexas
p1852
sg4
V240
p1853
sg6
V2017
p1854
sg8
F29.0
sg9
VSEP 29, 1988
p1855
sg11
V6-9
p1856
sg13
VKevin Durant
p1857
sg15
I1610612744
sg16
V35
p1858
sg18
V10
p1859
sg20
V00
p1860
sg22
g23
sg24
I201142
ssI201144
(dp1861
g168
VOhio State
p1862
sg170
V175
p1863
sg172
V2017
p1864
sg174
F30.0
sg175
VOCT 11, 1987
p1865
sg177
V6-1
p1866
sg179
VMike Conley
p1867
sg181
I1610612763
sg182
V11
p1868
sg183
V10
p1869
sg184
V00
p1870
sg186
g70
sg187
I201144
ssI1628404
(dp1871
g73
VVillanova
p1872
sg75
V215
p1873
sg77
V2017
p1874
sg79
F22.0
sg80
VMAR 06, 1995
p1875
sg82
V6-5
p1876
sg84
VJosh Hart
p1877
sg86
I1610612747
sg87
g164
sg89
g66
sg90
V00
p1878
sg92
g70
sg93
I1628404
ssI201147
(dp1879
g73
VFlorida
p1880
sg75
V186
p1881
sg77
V2017
p1882
sg79
F31.0
sg80
VMAR 05, 1986
p1883
sg82
V6-9
p1884
sg84
VCorey Brewer
p1885
sg86
I1610612747
sg87
g17
sg89
V10
p1886
sg90
V00
p1887
sg92
g23
sg93
I201147
ssI201148
(dp1888
g168
VNorth Carolina
p1889
sg170
V235
p1890
sg172
V2017
p1891
sg174
F30.0
sg175
VOCT 05, 1987
p1892
sg177
V6-10
p1893
sg179
VBrandan Wright
p1894
sg181
I1610612763
sg182
V34
p1895
sg183
g132
sg184
V00
p1896
sg186
VF-C
p1897
sg187
I201148
ssI202685
(dp1898
g189
VUtena, Lithuania
p1899
sg191
V255
p1900
sg193
V2017
p1901
sg195
F25.0
sg196
VMAY 06, 1992
p1902
sg198
V7-0
p1903
sg200
VJonas Valanciunas
p1904
sg202
I1610612761
sg203
V17
p1905
sg205
g164
sg206
V00
p1906
sg208
g227
sg209
I202685
ssI203710
(dp1907
g49
VNorth Carolina State
p1908
sg51
V230
p1909
sg53
V2017
p1910
sg55
F27.0
sg56
VFEB 06, 1990
p1911
sg58
V6-5
p1912
sg60
VC.J. Williams
p1913
sg62
I1610612746
sg63
g132
sg65
g66
sg67
V00
p1914
sg69
g70
sg71
I203710
ssI101109
(dp1915
g398
VNorth Carolina
p1916
sg400
V205
p1917
sg402
V2017
p1918
sg404
F33.0
sg405
VJUN 26, 1984
p1919
sg407
V6-1
p1920
sg409
VRaymond Felton
p1921
sg411
I1610612760
sg412
g123
sg414
V12
p1922
sg415
V00
p1923
sg417
g70
sg418
I101109
ssI203200
(dp1924
g136
VWashington
p1925
sg138
V185
p1926
sg140
V2017
p1927
sg142
F28.0
sg143
VAPR 05, 1989
p1928
sg145
V6-6
p1929
sg147
VJustin Holiday
p1930
sg149
I1610612741
sg150
g217
sg152
g43
sg153
V00
p1931
sg155
g70
sg156
I203200
ssI202691
(dp1932
g2
VWashington State
p1933
sg4
V215
p1934
sg6
V2017
p1935
sg8
F27.0
sg9
VFEB 08, 1990
p1936
sg11
V6-7
p1937
sg13
VKlay Thompson
p1938
sg15
I1610612744
sg16
V11
p1939
sg18
g581
sg20
V00
p1940
sg22
g70
sg24
I202691
ssI202692
(dp1941
g283
VColorado
p1942
sg285
V214
p1943
sg287
V2017
p1944
sg289
F26.0
sg290
VJUL 20, 1991
p1945
sg292
V6-6
p1946
sg294
VAlec Burks
p1947
sg296
I1610612762
sg297
V10
p1948
sg299
g581
sg301
V00
p1949
sg303
g70
sg304
I202692
ssI1628405
(dp1950
g261
VBaylor
p1951
sg263
V230
p1952
sg265
V2017
p1953
sg267
F22.0
sg268
VMAY 04, 1995
p1954
sg270
V6-10
p1955
sg272
VJohnathan Motley
p1956
sg274
I1610612742
sg275
g581
sg277
g66
sg278
V00
p1957
sg280
g23
sg281
I1628405
ssI203084
(dp1958
g261
VNorth Carolina
p1959
sg263
V225
p1960
sg265
V2017
p1961
sg267
F25.0
sg268
VMAY 30, 1992
p1962
sg270
V6-8
p1963
sg272
VHarrison Barnes
p1964
sg274
I1610612742
sg275
V40
p1965
sg277
g164
sg278
V00
p1966
sg280
g23
sg281
I203084
ssI203210
(dp1967
g168
VAlabama
p1968
sg170
V227
p1969
sg172
V2017
p1970
sg174
F27.0
sg175
VJUN 21, 1990
p1971
sg177
V6-9
p1972
sg179
VJaMychal Green
p1973
sg181
I1610612763
sg182
g122
sg183
g17
sg184
V00
p1974
sg186
g23
sg187
I203210
ssI201163
(dp1975
g95
VDePaul
p1976
sg97
V225
p1977
sg99
V2017
p1978
sg101
F30.0
sg102
VMAY 10, 1987
p1979
sg104
V6-9
p1980
sg106
VWilson Chandler
p1981
sg108
I1610612743
sg109
V21
p1982
sg110
g132
sg112
V00
p1983
sg114
g23
sg115
I201163
ssI202702
(dp1984
g95
VMorehead State
p1985
sg97
V228
p1986
sg99
V2017
p1987
sg101
F27.0
sg102
VNOV 19, 1989
p1988
sg104
V6-8
p1989
sg106
VKenneth Faried
p1990
sg108
I1610612743
sg109
V35
p1991
sg110
g581
sg112
V00
p1992
sg114
g23
sg115
I202702
ssI202703
(dp1993
g136
Nsg138
V238
p1994
sg140
V2017
p1995
sg142
F26.0
sg143
VFEB 11, 1991
p1996
sg145
V6-10
p1997
sg147
VNikola Mirotic
p1998
sg149
I1610612741
sg150
V44
p1999
sg152
g17
sg153
V00
p2000
sg155
g23
sg156
I202703
ssI1628408
(dp2001
g398
VSouth Carolina
p2002
sg400
V205
p2003
sg402
V2017
p2004
sg404
F21.0
sg405
VOCT 25, 1996
p2005
sg407
V6-6
p2006
sg409
VPJ Dozier
p2007
sg411
I1610612760
sg412
V35
p2008
sg414
g66
sg415
V00
p2009
sg417
g70
sg418
I1628408
ssI202713
(dp2010
g398
VDuke
p2011
sg400
V228
p2012
sg402
V2017
p2013
sg404
F29.0
sg405
VMAY 04, 1988
p2014
sg407
V6-8
p2015
sg409
VKyle Singler
p2016
sg411
I1610612760
sg412
V15
p2017
sg414
g164
sg415
V00
p2018
sg417
g23
sg418
I202713
ssI202718
(dp2019
g168
VFlorida
p2020
sg170
V230
p2021
sg172
V2017
p2022
sg174
F29.0
sg175
VOCT 25, 1988
p2023
sg177
V6-10
p2024
sg179
VChandler Parsons
p2025
sg181
I1610612763
sg182
V25
p2026
sg183
g581
sg184
V00
p2027
sg186
g23
sg187
I202718
ssI1628374
(dp2028
g136
VArizona
p2029
sg138
V230
p2030
sg140
V2017
p2031
sg142
F20.0
sg143
VMAY 22, 1997
p2032
sg145
V7-0
p2033
sg147
VLauri Markkanen
p2034
sg149
I1610612741
sg150
V24
p2035
sg152
g66
sg153
V00
p2036
sg155
g23
sg156
I1628374
ssI201188
(dp2037
g168
VBarcelona, Spain
p2038
sg170
V255
p2039
sg172
V2017
p2040
sg174
F32.0
sg175
VJAN 29, 1985
p2041
sg177
V7-1
p2042
sg179
VMarc Gasol
p2043
sg181
I1610612763
sg182
V33
p2044
sg183
g132
sg184
V00
p2045
sg186
g227
sg187
I201188
ssI1628395
(dp2046
g2
VOregon
p2047
sg4
V224
p2048
sg6
V2017
p2049
sg8
F22.0
sg9
VJAN 07, 1995
p2050
sg11
V6-9
p2051
sg13
VJordan Bell
p2052
sg15
I1610612744
sg16
g123
sg18
g66
sg20
V00
p2053
sg22
g23
sg24
I1628395
ssI202732
(dp2054
g357
VKentucky
p2055
sg359
V209
p2056
sg361
V2017
p2057
sg363
F29.0
sg364
VMAR 31, 1988
p2058
sg366
V6-6
p2059
sg368
VDeAndre Liggins
p2060
sg370
I1610612749
sg371
V25
p2061
sg373
g43
sg374
V00
p2062
sg376
g70
sg377
I202732
ssI202734
(dp2063
g26
VPurdue
p2064
sg28
V191
p2065
sg30
V2017
p2066
sg32
F28.0
sg33
VFEB 25, 1989
p2067
sg35
V6-4
p2068
sg37
VE'Twaun Moore
p2069
sg39
I1610612740
sg40
V55
p2070
sg42
g581
sg44
V00
p2071
sg46
g70
sg47
I202734
ssI2546
(dp2072
g398
VSyracuse
p2073
sg400
V240
p2074
sg402
V2017
p2075
sg404
F33.0
sg405
VMAY 29, 1984
p2076
sg407
V6-8
p2077
sg409
VCarmelo Anthony
p2078
sg411
I1610612760
sg412
g217
sg414
V14
p2079
sg415
V00
p2080
sg417
g23
sg418
I2546
ssI1628414
(dp2081
g49
VSouth Carolina
p2082
sg51
V215
p2083
sg53
V2017
p2084
sg55
F22.0
sg56
VNOV 15, 1994
p2085
sg58
V6-5
p2086
sg60
VSindarius Thornwell
p2087
sg62
I1610612746
sg63
g122
sg65
g66
sg67
V00
p2088
sg69
g70
sg71
I1628414
ssI1626196
(dp2089
g229
VTennessee
p2090
sg231
V200
p2091
sg233
V2017
p2092
sg235
F24.0
sg236
VSEP 15, 1993
p2093
sg238
V6-6
p2094
sg240
VJosh Richardson
p2095
sg242
I1610612748
sg243
g122
sg245
g123
sg246
V00
p2096
sg248
g23
sg249
I1626196
ssI2555
(dp2097
g398
VKansas
p2098
sg400
V255
p2099
sg402
V2017
p2100
sg404
F37.0
sg405
VOCT 26, 1980
p2101
sg407
V6-10
p2102
sg409
VNick Collison
p2103
sg411
I1610612760
sg412
g43
sg414
V13
p2104
sg415
V00
p2105
sg417
g23
sg418
I2555
ss.