(dp0
I1628035
(dp1
VSCHOOL
p2
VWisc.-Green Bay
p3
sVWEIGHT
p4
V215
p5
sVSEASON
p6
V2017
p7
sVAGE
p8
F25.0
sVBIRTH_DATE
p9
VSEP 17, 1992
p10
sVHEIGHT
p11
V6-8
p12
sVPLAYER
p13
VAlfonzo McKinnie
p14
sVTeamID
p15
I1610612761
sVNUM
p16
V34
p17
sVEXP
p18
VR
p19
sVLeagueID
p20
V00
p21
sVPOSITION
p22
VF
p23
sVPLAYER_ID
p24
I1628035
ssI203526
(dp25
VSCHOOL
p26
NsVWEIGHT
p27
V179
p28
sVSEASON
p29
V2017
p30
sVAGE
p31
F25.0
sVBIRTH_DATE
p32
VMAY 19, 1992
p33
sVHEIGHT
p34
V6-1
p35
sVPLAYER
p36
VRaul Neto
p37
sVTeamID
p38
I1610612762
sVNUM
p39
V25
p40
sVEXP
p41
V2
p42
sVLeagueID
p43
V00
p44
sVPOSITION
p45
VG
p46
sVPLAYER_ID
p47
I203526
ssI1627783
(dp48
g2
VNew Mexico State
p49
sg4
V230
p50
sg6
V2017
p51
sg8
F23.0
sg9
VAPR 02, 1994
p52
sg11
V6-9
p53
sg13
VPascal Siakam
p54
sg15
I1610612761
sg16
V43
p55
sg18
V1
p56
sg20
V00
p57
sg22
g23
sg24
I1627783
ssI1628396
(dp58
g26
VNorth Carolina
p59
sg27
V248
p60
sg29
V2017
p61
sg31
F19.0
sg32
VJAN 08, 1998
p62
sg34
V6-10
p63
sg36
VTony Bradley
p64
sg38
I1610612762
sg39
V13
p65
sg41
g19
sg43
V00
p66
sg45
VC
p67
sg47
I1628396
ssI203918
(dp68
g26
VDuke
p69
sg27
V206
p70
sg29
V2017
p71
sg31
F25.0
sg32
VOCT 20, 1992
p72
sg34
V6-8
p73
sg36
VRodney Hood
p74
sg38
I1610612762
sg39
V5
p75
sg41
V3
p76
sg43
V00
p77
sg45
g46
sg47
I203918
ssI101139
(dp78
g2
VSkyline HS (TX)
p79
sg4
V225
p80
sg6
V2017
p81
sg8
F30.0
sg9
VMAR 18, 1987
p82
sg11
V6-6
p83
sg13
VCJ Miles
p84
sg15
I1610612761
sg16
V0
p85
sg18
V12
p86
sg20
V00
p87
sg22
VF-G
p88
sg24
I101139
ssI203924
(dp89
VSCHOOL
p90
VSyracuse
p91
sVWEIGHT
p92
V220
p93
sVSEASON
p94
V2017
p95
sVAGE
p96
F23.0
sVBIRTH_DATE
p97
VMAR 12, 1994
p98
sVHEIGHT
p99
V6-9
p100
sVPLAYER
p101
VJerami Grant
p102
sVTeamID
p103
I1610612760
sVNUM
p104
V9
p105
sVEXP
p106
g76
sVLeagueID
p107
V00
p108
sVPOSITION
p109
g23
sVPLAYER_ID
p110
I203924
ssI202692
(dp111
g26
VColorado
p112
sg27
V214
p113
sg29
V2017
p114
sg31
F26.0
sg32
VJUL 20, 1991
p115
sg34
V6-6
p116
sg36
VAlec Burks
p117
sg38
I1610612762
sg39
V10
p118
sg41
V6
p119
sg43
V00
p120
sg45
g46
sg47
I202692
ssI203547
(dp121
g26
VCampbell
p122
sg27
V205
p123
sg29
V2017
p124
sg31
F27.0
sg32
VMAY 26, 1990
p125
sg34
V6-8
p126
sg36
VEric Griffin
p127
sg38
I1610612762
sg39
V17
p128
sg41
g19
sg43
V00
p129
sg45
VC-F
p130
sg47
I203547
ssI204060
(dp131
g26
Nsg27
V226
p132
sg29
V2017
p133
sg31
F30.0
sg32
VOCT 02, 1987
p134
sg34
V6-8
p135
sg36
VJoe Ingles
p136
sg38
I1610612762
sg39
g42
sg41
g76
sg43
V00
p137
sg45
g23
sg47
I204060
ssI2207
(dp138
g26
VArkansas
p139
sg27
V240
p140
sg29
V2017
p141
sg31
F36.0
sg32
VJUN 29, 1981
p142
sg34
V6-7
p143
sg36
VJoe Johnson
p144
sg38
I1610612762
sg39
g119
sg41
V16
p145
sg43
V00
p146
sg45
VG-F
p147
sg47
I2207
ssI203957
(dp148
g26
Nsg27
V190
p149
sg29
V2017
p150
sg31
F22.0
sg32
VJUL 13, 1995
p151
sg34
V6-6
p152
sg36
VDante Exum
p153
sg38
I1610612762
sg39
V11
p154
sg41
g42
sg43
V00
p155
sg45
g46
sg47
I203957
ssI1626153
(dp156
g2
VUtah
p157
sg4
V190
p158
sg6
V2017
p159
sg8
F25.0
sg9
VAPR 26, 1992
p160
sg11
V6-5
p161
sg13
VDelon Wright
p162
sg15
I1610612761
sg16
V55
p163
sg18
g42
sg20
V00
p164
sg22
g46
sg24
I1626153
ssI201937
(dp165
g26
VEl Masnou, Spain
p166
sg27
V190
p167
sg29
V2017
p168
sg31
F27.0
sg32
VOCT 21, 1990
p169
sg34
V6-4
p170
sg36
VRicky Rubio
p171
sg38
I1610612762
sg39
g76
sg41
g119
sg43
V00
p172
sg45
g46
sg47
I201937
ssI2546
(dp173
g90
VSyracuse
p174
sg92
V240
p175
sg94
V2017
p176
sg96
F33.0
sg97
VMAY 29, 1984
p177
sg99
V6-8
p178
sg101
VCarmelo Anthony
p179
sg103
I1610612760
sg104
V7
p180
sg106
V14
p181
sg107
V00
p182
sg109
g23
sg110
I2546
ssI1626220
(dp183
g26
VBaylor
p184
sg27
V226
p185
sg29
V2017
p186
sg31
F24.0
sg32
VJUN 05, 1993
p187
sg34
V6-6
p188
sg36
VRoyce O'Neale
p189
sg38
I1610612762
sg39
V23
p190
sg41
g19
sg43
V00
p191
sg45
g23
sg47
I1626220
ssI203998
(dp192
g2
Nsg4
V205
p193
sg6
V2017
p194
sg8
F22.0
sg9
VSEP 21, 1995
p195
sg11
V6-9
p196
sg13
VBruno Caboclo
p197
sg15
I1610612761
sg16
g75
sg18
g76
sg20
V00
p198
sg22
g23
sg24
I203998
ssI1627832
(dp199
g2
VWichita State
p200
sg4
V195
p201
sg6
V2017
p202
sg8
F23.0
sg9
VFEB 25, 1994
p203
sg11
V6-0
p204
sg13
VFred VanVleet
p205
sg15
I1610612761
sg16
V23
p206
sg18
g56
sg20
V00
p207
sg22
g46
sg24
I1627832
ssI203962
(dp208
g90
VStanford
p209
sg92
V230
p210
sg94
V2017
p211
sg96
F25.0
sg97
VDEC 19, 1991
p212
sg99
V6-7
p213
sg101
VJosh Huestis
p214
sg103
I1610612760
sg104
V34
p215
sg106
g42
sg107
V00
p216
sg109
g23
sg110
I203962
ssI202685
(dp217
g2
VUtena, Lithuania
p218
sg4
V255
p219
sg6
V2017
p220
sg8
F25.0
sg9
VMAY 06, 1992
p221
sg11
V7-0
p222
sg13
VJonas Valanciunas
p223
sg15
I1610612761
sg16
V17
p224
sg18
g75
sg20
V00
p225
sg22
g67
sg24
I202685
ssI201973
(dp226
g26
VKinna, Sweden
p227
sg27
V231
p228
sg29
V2017
p229
sg31
F30.0
sg32
VMAR 02, 1987
p230
sg34
V6-10
p231
sg36
VJonas Jerebko
p232
sg38
I1610612762
sg39
V8
p233
sg41
g180
sg43
V00
p234
sg45
g23
sg47
I201973
ssI200768
(dp235
g2
VVillanova
p236
sg4
V205
p237
sg6
V2017
p238
sg8
F31.0
sg9
VMAR 25, 1986
p239
sg11
V6-0
p240
sg13
VKyle Lowry
p241
sg15
I1610612761
sg16
g180
sg18
V11
p242
sg20
V00
p243
sg22
g46
sg24
I200768
ssI1626177
(dp244
g90
VKentucky
p245
sg92
V255
p246
sg94
V2017
p247
sg96
F22.0
sg97
VSEP 22, 1995
p248
sg99
V7-0
p249
sg101
VDakari Johnson
p250
sg103
I1610612760
sg104
V44
p251
sg106
g19
sg107
V00
p252
sg109
g67
sg110
I1626177
ssI203460
(dp253
g90
VColorado
p254
sg92
V210
p255
sg94
V2017
p256
sg96
F25.0
sg97
VDEC 04, 1991
p257
sg99
V6-7
p258
sg101
VAndre Roberson
p259
sg103
I1610612760
sg104
V21
p260
sg106
V4
p261
sg107
V00
p262
sg109
g46
sg110
I203460
ssI1626181
(dp263
g2
VUCLA
p264
sg4
V215
p265
sg6
V2017
p266
sg8
F24.0
sg9
VMAY 25, 1993
p267
sg11
V6-4
p268
sg13
VNorman Powell
p269
sg15
I1610612761
sg16
V24
p270
sg18
g42
sg20
V00
p271
sg22
VF-G
p272
sg24
I1626181
ssI203512
(dp273
g2
Nsg4
V220
p274
sg6
V2017
p275
sg8
F25.0
sg9
VJUL 26, 1992
p276
sg11
V7-0
p277
sg13
VLucas Nogueira
p278
sg15
I1610612761
sg16
V92
p279
sg18
g76
sg20
V00
p280
sg22
g67
sg24
I203512
ssI202324
(dp281
g26
VGeorgia Tech
p282
sg27
V265
p283
sg29
V2017
p284
sg31
F26.0
sg32
VJUL 15, 1991
p285
sg34
V6-10
p286
sg36
VDerrick Favors
p287
sg38
I1610612762
sg39
V15
p288
sg41
g180
sg43
V00
p289
sg45
VF-C
p290
sg47
I202324
ssI201942
(dp291
g2
VSouthern California
p292
sg4
V220
p293
sg6
V2017
p294
sg8
F28.0
sg9
VAUG 07, 1989
p295
sg11
V6-7
p296
sg13
VDeMar DeRozan
p297
sg15
I1610612761
sg16
V10
p298
sg18
g233
sg20
V00
p299
sg22
g46
sg24
I201942
ssI202327
(dp300
g26
VBaylor
p301
sg27
V245
p302
sg29
V2017
p303
sg31
F30.0
sg32
VMAY 20, 1987
p304
sg34
V6-10
p305
sg36
VEkpe Udoh
p306
sg38
I1610612762
sg39
V33
p307
sg41
g75
sg43
V00
p308
sg45
VC-F
p309
sg47
I202327
ssI202713
(dp310
g90
VDuke
p311
sg92
V228
p312
sg94
V2017
p313
sg96
F29.0
sg97
VMAY 04, 1988
p314
sg99
V6-8
p315
sg101
VKyle Singler
p316
sg103
I1610612760
sg104
V15
p317
sg106
g75
sg107
V00
p318
sg109
g23
sg110
I202713
ssI1628378
(dp319
g26
VLouisville
p320
sg27
V215
p321
sg29
V2017
p322
sg31
F21.0
sg32
VSEP 07, 1996
p323
sg34
V6-3
p324
sg36
VDonovan Mitchell
p325
sg38
I1610612762
sg39
V45
p326
sg41
g19
sg43
V00
p327
sg45
g46
sg47
I1628378
ssI202331
(dp328
g90
VFresno State
p329
sg92
V220
p330
sg94
V2017
p331
sg96
F27.0
sg97
VMAY 02, 1990
p332
sg99
V6-9
p333
sg101
VPaul George
p334
sg103
I1610612760
sg104
V13
p335
sg106
g180
sg107
V00
p336
sg109
g23
sg110
I202331
ssI203485
(dp337
g2
VNorth Carolina State
p338
sg4
V189
p339
sg6
V2017
p340
sg8
F27.0
sg9
VAUG 26, 1990
p341
sg11
V6-5
p342
sg13
VLorenzo Brown
p343
sg15
I1610612761
sg16
g261
sg18
g76
sg20
V00
p344
sg22
g46
sg24
I203485
ssI201566
(dp345
g90
VUCLA
p346
sg92
V200
p347
sg94
V2017
p348
sg96
F28.0
sg97
VNOV 12, 1988
p349
sg99
V6-3
p350
sg101
VRussell Westbrook
p351
sg103
I1610612760
sg104
g85
sg106
g105
sg107
V00
p352
sg109
g46
sg110
I201566
ssI202335
(dp353
g90
VKentucky
p354
sg92
V230
p355
sg94
V2017
p356
sg96
F28.0
sg97
VMAR 14, 1989
p357
sg99
V6-9
p358
sg101
VPatrick Patterson
p359
sg103
I1610612760
sg104
V54
p360
sg106
g180
sg107
V00
p361
sg109
g23
sg110
I202335
ssI1628384
(dp362
g2
VIndiana
p363
sg4
V235
p364
sg6
V2017
p365
sg8
F20.0
sg9
VJUL 17, 1997
p366
sg11
V6-8
p367
sg13
VOG Anunoby
p368
sg15
I1610612761
sg16
g76
sg18
g19
sg20
V00
p369
sg22
g23
sg24
I1628384
ssI203489
(dp370
g26
VSouth Dakota State
p371
sg27
V190
p372
sg29
V2017
p373
sg31
F26.0
sg32
VMAY 15, 1991
p374
sg34
V6-4
p375
sg36
VNate Wolters
p376
sg38
I1610612762
sg39
V16
p377
sg41
g42
sg43
V00
p378
sg45
g46
sg47
I203489
ssI1628390
(dp379
g90
Nsg92
V184
p380
sg94
V2017
p381
sg96
F19.0
sg97
VMAY 17, 1998
p382
sg99
V6-7
p383
sg101
VTerrance Ferguson
p384
sg103
I1610612760
sg104
V23
p385
sg106
g19
sg107
V00
p386
sg109
g46
sg110
I1628390
ssI1627751
(dp387
g2
VUtah
p388
sg4
V230
p389
sg6
V2017
p390
sg8
F22.0
sg9
VOCT 15, 1995
p391
sg11
V7-0
p392
sg13
VJakob Poeltl
p393
sg15
I1610612761
sg16
V42
p394
sg18
g56
sg20
V00
p395
sg22
g67
sg24
I1627751
ssI203497
(dp396
g26
VFrance
p397
sg27
V245
p398
sg29
V2017
p399
sg31
F25.0
sg32
VJUN 26, 1992
p400
sg34
V7-1
p401
sg36
VRudy Gobert
p402
sg38
I1610612762
sg39
V27
p403
sg41
g261
sg43
V00
p404
sg45
g67
sg47
I203497
ssI203500
(dp405
g90
VPittsburgh
p406
sg92
V255
p407
sg94
V2017
p408
sg96
F24.0
sg97
VJUL 20, 1993
p409
sg99
V7-0
p410
sg101
VSteven Adams
p411
sg103
I1610612760
sg104
V12
p412
sg106
g261
sg107
V00
p413
sg109
g67
sg110
I203500
ssI201586
(dp414
g2
VBrazzaville, Rep. of Congo
p415
sg4
V235
p416
sg6
V2017
p417
sg8
F28.0
sg9
VSEP 18, 1989
p418
sg11
V6-10
p419
sg13
VSerge Ibaka
p420
sg15
I1610612761
sg16
g105
sg18
g233
sg20
V00
p421
sg22
g23
sg24
I201586
ssI1626259
(dp422
g2
VHoly Cross
p423
sg4
V210
p424
sg6
V2017
p425
sg8
F24.0
sg9
VMAR 06, 1993
p426
sg11
V6-7
p427
sg13
VMalcolm Miller
p428
sg15
I1610612761
sg16
V13
p429
sg18
g19
sg20
V00
p430
sg22
g23
sg24
I1626259
ssI101109
(dp431
g90
VNorth Carolina
p432
sg92
V205
p433
sg94
V2017
p434
sg96
F33.0
sg97
VJUN 26, 1984
p435
sg99
V6-1
p436
sg101
VRaymond Felton
p437
sg103
I1610612760
sg104
g42
sg106
V12
p438
sg107
V00
p439
sg109
g46
sg110
I101109
ssI200757
(dp440
g26
VVevey, Switzerland
p441
sg27
V220
p442
sg29
V2017
p443
sg31
F33.0
sg32
VMAY 02, 1984
p444
sg34
V6-7
p445
sg36
VThabo Sefolosha
p446
sg38
I1610612762
sg39
V22
p447
sg41
V11
p448
sg43
V00
p449
sg45
g23
sg47
I200757
ssI1628408
(dp450
g90
VSouth Carolina
p451
sg92
V205
p452
sg94
V2017
p453
sg96
F21.0
sg97
VOCT 25, 1996
p454
sg99
V6-6
p455
sg101
VPJ Dozier
p456
sg103
I1610612760
sg104
V35
p457
sg106
g19
sg107
V00
p458
sg109
g46
sg110
I1628408
ssI2555
(dp459
g90
VKansas
p460
sg92
V255
p461
sg94
V2017
p462
sg96
F37.0
sg97
VOCT 26, 1980
p463
sg99
V6-10
p464
sg101
VNick Collison
p465
sg103
I1610612760
sg104
g261
sg106
V13
p466
sg107
V00
p467
sg109
g23
sg110
I2555
ssI1627772
(dp468
g90
VConnecticut
p469
sg92
V195
p470
sg94
V2017
p471
sg96
F22.0
sg97
VAUG 08, 1995
p472
sg99
V6-7
p473
sg101
VDaniel Hamilton
p474
sg103
I1610612760
sg104
V25
p475
sg106
g19
sg107
V00
p476
sg109
g46
sg110
I1627772
ssI203518
(dp477
g90
Nsg92
V190
p478
sg94
V2017
p479
sg96
F24.0
sg97
VAUG 01, 1993
p480
sg99
V6-6
p481
sg101
VAlex Abrines
p482
sg103
I1610612760
sg104
g233
sg106
g56
sg107
V00
p483
sg109
g46
sg110
I203518
ss.