(dp0
I203095
(dp1
VSCHOOL
p2
VFrance
p3
sVWEIGHT
p4
V205
p5
sVSEASON
p6
V2017
p7
sVAGE
p8
F25.0
sVBIRTH_DATE
p9
VOCT 29, 1992
p10
sVHEIGHT
p11
V6-7
p12
sVPLAYER
p13
VEvan Fournier
p14
sVTeamID
p15
I1610612753
sVNUM
p16
V10
p17
sVEXP
p18
V5
p19
sVLeagueID
p20
V00
p21
sVPOSITION
p22
VF-G
p23
sVPLAYER_ID
p24
I203095
ssI1626144
(dp25
VSCHOOL
p26
NsVWEIGHT
p27
V200
p28
sVSEASON
p29
V2017
p30
sVAGE
p31
F21.0
sVBIRTH_DATE
p32
VMAR 05, 1996
p33
sVHEIGHT
p34
V6-5
p35
sVPLAYER
p36
VEmmanuel Mudiay
p37
sVTeamID
p38
I1610612743
sVNUM
p39
V0
p40
sVEXP
p41
V2
p42
sVLeagueID
p43
V00
p44
sVPOSITION
p45
VG
p46
sVPLAYER_ID
p47
I1626144
ssI1626145
(dp48
VSCHOOL
p49
VDuke
p50
sVWEIGHT
p51
V184
p52
sVSEASON
p53
V2017
p54
sVAGE
p55
F21.0
sVBIRTH_DATE
p56
VMAY 10, 1996
p57
sVHEIGHT
p58
V6-2
p59
sVPLAYER
p60
VTyus Jones
p61
sVTeamID
p62
I1610612750
sVNUM
p63
V1
p64
sVEXP
p65
g42
sVLeagueID
p66
V00
p67
sVPOSITION
p68
g46
sVPLAYER_ID
p69
I1626145
ssI1626148
(dp70
g49
VStanford
p71
sg51
V224
p72
sg53
V2017
p73
sg55
F25.0
sg56
VOCT 10, 1992
p74
sg58
V6-7
p75
sg60
VAnthony Brown
p76
sg62
I1610612750
sg63
V3
p77
sg65
g42
sg66
V00
p78
sg68
VF
p79
sg69
I1626148
ssI1626149
(dp80
VSCHOOL
p81
VLouisville
p82
sVWEIGHT
p83
V240
p84
sVSEASON
p85
V2017
p86
sVAGE
p87
F23.0
sVBIRTH_DATE
p88
VJAN 26, 1994
p89
sVHEIGHT
p90
V6-8
p91
sVPLAYER
p92
VMontrezl Harrell
p93
sVTeamID
p94
I1610612746
sVNUM
p95
g19
sVEXP
p96
g42
sVLeagueID
p97
V00
p98
sVPOSITION
p99
VF-C
p100
sVPLAYER_ID
p101
I1626149
ssI1626150
(dp102
VSCHOOL
p103
VKentucky
p104
sVWEIGHT
p105
V213
p106
sVSEASON
p107
V2017
p108
sVAGE
p109
F23.0
sVBIRTH_DATE
p110
VOCT 28, 1994
p111
sVHEIGHT
p112
V6-6
p113
sVPLAYER
p114
VAndrew Harrison
p115
sVTeamID
p116
I1610612763
sVNUM
p117
g19
sVEXP
p118
g64
sVLeagueID
p119
V00
p120
sVPOSITION
p121
g46
sVPLAYER_ID
p122
I1626150
ssI1626153
(dp123
VSCHOOL
p124
VUtah
p125
sVWEIGHT
p126
V190
p127
sVSEASON
p128
V2017
p129
sVAGE
p130
F25.0
sVBIRTH_DATE
p131
VAPR 26, 1992
p132
sVHEIGHT
p133
V6-5
p134
sVPLAYER
p135
VDelon Wright
p136
sVTeamID
p137
I1610612761
sVNUM
p138
V55
p139
sVEXP
p140
g42
sVLeagueID
p141
V00
p142
sVPOSITION
p143
g46
sVPLAYER_ID
p144
I1626153
ssI200746
(dp145
VSCHOOL
p146
VTexas
p147
sVWEIGHT
p148
V260
p149
sVSEASON
p150
V2017
p151
sVAGE
p152
F32.0
sVBIRTH_DATE
p153
VJUL 19, 1985
p154
sVHEIGHT
p155
V6-11
p156
sVPLAYER
p157
VLaMarcus Aldridge
p158
sVTeamID
p159
I1610612759
sVNUM
p160
V12
p161
sVEXP
p162
V11
p163
sVLeagueID
p164
V00
p165
sVPOSITION
p166
g79
sVPLAYER_ID
p167
I200746
ssI1626155
(dp168
g81
VWisconsin
p169
sg83
V230
p170
sg85
V2017
p171
sg87
F23.0
sg88
VMAY 08, 1994
p172
sg90
V6-9
p173
sg92
VSam Dekker
p174
sg94
I1610612746
sg95
V7
p175
sg96
g42
sg97
V00
p176
sg99
g79
sg101
I1626155
ssI1626156
(dp177
VSCHOOL
p178
VOhio State
p179
sVWEIGHT
p180
V195
p181
sVSEASON
p182
V2017
p183
sVAGE
p184
F21.0
sVBIRTH_DATE
p185
VFEB 23, 1996
p186
sVHEIGHT
p187
V6-5
p188
sVPLAYER
p189
VD'Angelo Russell
p190
sVTeamID
p191
I1610612751
sVNUM
p192
g64
sVEXP
p193
g42
sVLeagueID
p194
V00
p195
sVPOSITION
p196
g46
sVPLAYER_ID
p197
I1626156
ssI1626157
(dp198
g49
VKentucky
p199
sg51
V248
p200
sg53
V2017
p201
sg55
F21.0
sg56
VNOV 15, 1995
p202
sg58
V7-0
p203
sg60
VKarl-Anthony Towns
p204
sg62
I1610612750
sg63
V32
p205
sg65
g42
sg66
V00
p206
sg68
VC
p207
sg69
I1626157
ssI1626159
(dp208
VSCHOOL
p209
VDuke
p210
sVWEIGHT
p211
V225
p212
sVSEASON
p213
V2017
p214
sVAGE
p215
F21.0
sVBIRTH_DATE
p216
VMAR 26, 1996
p217
sVHEIGHT
p218
V6-7
p219
sVPLAYER
p220
VJustise Winslow
p221
sVTeamID
p222
I1610612748
sVNUM
p223
V20
p224
sVEXP
p225
g42
sVLeagueID
p226
V00
p227
sVPOSITION
p228
g79
sVPLAYER_ID
p229
I1626159
ssI200752
(dp230
g146
VConnecticut
p231
sg148
V230
p232
sg150
V2017
p233
sg152
F31.0
sg153
VAUG 17, 1986
p234
sg155
V6-8
p235
sg157
VRudy Gay
p236
sg159
I1610612759
sg160
V22
p237
sg162
V11
p238
sg164
V00
p239
sg166
g79
sg167
I200752
ssI1626161
(dp240
VSCHOOL
p241
VKentucky
p242
sVWEIGHT
p243
V240
p244
sVSEASON
p245
V2017
p246
sVAGE
p247
F24.0
sVBIRTH_DATE
p248
VAUG 18, 1993
p249
sVHEIGHT
p250
V7-0
p251
sVPLAYER
p252
VWillie Cauley-Stein
p253
sVTeamID
p254
I1610612758
sVNUM
p255
V00
p256
sVEXP
p257
g42
sVLeagueID
p258
V00
p259
sVPOSITION
p260
g207
sVPLAYER_ID
p261
I1626161
ssI1627763
(dp262
VSCHOOL
p263
VVirginia
p264
sVWEIGHT
p265
V215
p266
sVSEASON
p267
V2017
p268
sVAGE
p269
F24.0
sVBIRTH_DATE
p270
VDEC 11, 1992
p271
sVHEIGHT
p272
V6-5
p273
sVPLAYER
p274
VMalcolm Brogdon
p275
sVTeamID
p276
I1610612749
sVNUM
p277
V13
p278
sVEXP
p279
g64
sVLeagueID
p280
V00
p281
sVPOSITION
p282
g46
sVPLAYER_ID
p283
I1627763
ssI200757
(dp284
VSCHOOL
p285
VVevey, Switzerland
p286
sVWEIGHT
p287
V220
p288
sVSEASON
p289
V2017
p290
sVAGE
p291
F33.0
sVBIRTH_DATE
p292
VMAY 02, 1984
p293
sVHEIGHT
p294
V6-7
p295
sVPLAYER
p296
VThabo Sefolosha
p297
sVTeamID
p298
I1610612762
sVNUM
p299
V22
p300
sVEXP
p301
V11
p302
sVLeagueID
p303
V00
p304
sVPOSITION
p305
g79
sVPLAYER_ID
p306
I200757
ssI1626166
(dp307
VSCHOOL
p308
VMurray State
p309
sVWEIGHT
p310
V185
p311
sVSEASON
p312
V2017
p313
sVAGE
p314
F23.0
sVBIRTH_DATE
p315
VAUG 08, 1994
p316
sVHEIGHT
p317
V6-3
p318
sVPLAYER
p319
VCameron Payne
p320
sVTeamID
p321
I1610612741
sVNUM
p322
V22
p323
sVEXP
p324
g42
sVLeagueID
p325
V00
p326
sVPOSITION
p327
g46
sVPLAYER_ID
p328
I1626166
ssI1626168
(dp329
g26
VKentucky
p330
sg27
V234
p331
sg29
V2017
p332
sg31
F22.0
sg32
VNOV 05, 1995
p333
sg34
V6-10
p334
sg36
VTrey Lyles
p335
sg38
I1610612743
sg39
g175
sg41
g42
sg43
V00
p336
sg45
g79
sg47
I1626168
ssI1626170
(dp337
g308
VNotre Dame
p338
sg310
V198
p339
sg312
V2017
p340
sg314
F25.0
sg315
VOCT 09, 1992
p341
sg317
V6-4
p342
sg319
VJerian Grant
p343
sg321
I1610612741
sg322
g42
sg324
g42
sg325
V00
p344
sg327
g46
sg328
I1626170
ssI1626171
(dp345
g308
VArkansas
p346
sg310
V248
p347
sg312
V2017
p348
sg314
F22.0
sg315
VFEB 10, 1995
p349
sg317
V6-11
p350
sg319
VBobby Portis
p351
sg321
I1610612741
sg322
g19
sg324
g42
sg325
V00
p352
sg327
g79
sg328
I1626171
ssI1626172
(dp353
VSCHOOL
p354
VUCLA
p355
sVWEIGHT
p356
V220
p357
sVSEASON
p358
V2017
p359
sVAGE
p360
F21.0
sVBIRTH_DATE
p361
VFEB 06, 1996
p362
sVHEIGHT
p363
V6-9
p364
sVPLAYER
p365
VKevon Looney
p366
sVTeamID
p367
I1610612744
sVNUM
p368
g19
sVEXP
p369
g42
sVLeagueID
p370
V00
p371
sVPOSITION
p372
g79
sVPLAYER_ID
p373
I1626172
ssI1626173
(dp374
g263
VUNLV
p375
sg265
V202
p376
sg267
V2017
p377
sg269
F21.0
sg270
VAUG 16, 1996
p378
sg272
V6-6
p379
sg274
VRashad Vaughn
p380
sg276
I1610612749
sg277
V20
p381
sg279
g42
sg280
V00
p382
sg282
g46
sg283
I1626173
ssI1626175
(dp383
g209
VLouisiana State
p384
sg211
V235
p385
sg213
V2017
p386
sg215
F23.0
sg216
VJUL 09, 1994
p387
sg218
V6-8
p388
sg220
VJordan Mickey
p389
sg222
I1610612748
sg223
V25
p390
sg225
g42
sg226
V00
p391
sg228
VC-F
p392
sg229
I1626175
ssI200768
(dp393
g124
VVillanova
p394
sg126
V205
p395
sg128
V2017
p396
sg130
F31.0
sg131
VMAR 25, 1986
p397
sg133
V6-0
p398
sg135
VKyle Lowry
p399
sg137
I1610612761
sg138
g175
sg140
V11
p400
sg141
V00
p401
sg143
g46
sg144
I200768
ssI1626177
(dp402
VSCHOOL
p403
VKentucky
p404
sVWEIGHT
p405
V255
p406
sVSEASON
p407
V2017
p408
sVAGE
p409
F22.0
sVBIRTH_DATE
p410
VSEP 22, 1995
p411
sVHEIGHT
p412
V7-0
p413
sVPLAYER
p414
VDakari Johnson
p415
sVTeamID
p416
I1610612760
sVNUM
p417
V44
p418
sVEXP
p419
VR
p420
sVLeagueID
p421
V00
p422
sVPOSITION
p423
g207
sVPLAYER_ID
p424
I1626177
ssI1626178
(dp425
g178
VArizona
p426
sg180
V214
p427
sg182
V2017
p428
sg184
F22.0
sg185
VJAN 03, 1995
p429
sg187
V6-7
p430
sg189
VRondae Hollis-Jefferson
p431
sg191
I1610612751
sg192
V24
p432
sg193
g42
sg194
V00
p433
sg196
g79
sg197
I1626178
ssI1626179
(dp434
VSCHOOL
p435
VLouisville
p436
sVWEIGHT
p437
V190
p438
sVSEASON
p439
V2017
p440
sVAGE
p441
F23.0
sVBIRTH_DATE
p442
VMAR 17, 1994
p443
sVHEIGHT
p444
V6-2
p445
sVPLAYER
p446
VTerry Rozier
p447
sVTeamID
p448
I1610612738
sVNUM
p449
V12
p450
sVEXP
p451
g42
sVLeagueID
p452
V00
p453
sVPOSITION
p454
g46
sVPLAYER_ID
p455
I1626179
ssI1626181
(dp456
g124
VUCLA
p457
sg126
V215
p458
sg128
V2017
p459
sg130
F24.0
sg131
VMAY 25, 1993
p460
sg133
V6-4
p461
sg135
VNorman Powell
p462
sg137
I1610612761
sg138
V24
p463
sg140
g42
sg141
V00
p464
sg143
VF-G
p465
sg144
I1626181
ssI1626185
(dp466
g103
VLouisiana State
p467
sg105
V239
p468
sg107
V2017
p469
sg109
F23.0
sg110
VMAY 24, 1994
p470
sg112
V6-10
p471
sg114
VJarell Martin
p472
sg116
I1610612763
sg117
g64
sg118
g42
sg119
V00
p473
sg121
g79
sg122
I1626185
ssI1626188
(dp474
g354
VDuke
p475
sg356
V179
p476
sg358
V2017
p477
sg360
F24.0
sg361
VMAR 23, 1993
p478
sg363
V6-2
p479
sg365
VQuinn Cook
p480
sg367
I1610612744
sg368
V4
p481
sg369
g64
sg370
V00
p482
sg372
g46
sg373
I1626188
ssI200782
(dp483
VSCHOOL
p484
VTexas
p485
sVWEIGHT
p486
V245
p487
sVSEASON
p488
V2017
p489
sVAGE
p490
F32.0
sVBIRTH_DATE
p491
VMAY 05, 1985
p492
sVHEIGHT
p493
V6-6
p494
sVPLAYER
p495
VPJ Tucker
p496
sVTeamID
p497
I1610612745
sVNUM
p498
g481
sVEXP
p499
V6
p500
sVLeagueID
p501
V00
p502
sVPOSITION
p503
g79
sVPLAYER_ID
p504
I200782
ssI1626195
(dp505
VSCHOOL
p506
VSpain
p507
sVWEIGHT
p508
V240
p509
sVSEASON
p510
V2017
p511
sVAGE
p512
F23.0
sVBIRTH_DATE
p513
VMAY 27, 1994
p514
sVHEIGHT
p515
V6-11
p516
sVPLAYER
p517
VWilly Hernangomez
p518
sVTeamID
p519
I1610612752
sVNUM
p520
V14
p521
sVEXP
p522
g64
sVLeagueID
p523
V00
p524
sVPOSITION
p525
g207
sVPLAYER_ID
p526
I1626195
ssI1626196
(dp527
g209
VTennessee
p528
sg211
V200
p529
sg213
V2017
p530
sg215
F24.0
sg216
VSEP 15, 1993
p531
sg218
V6-6
p532
sg220
VJosh Richardson
p533
sg222
I1610612748
sg223
g40
sg225
g42
sg226
V00
p534
sg228
g79
sg229
I1626196
ssI1626199
(dp535
g146
VVillanova
p536
sg148
V220
p537
sg150
V2017
p538
sg152
F24.0
sg153
VAPR 13, 1993
p539
sg155
V6-6
p540
sg157
VDarrun Hilliard
p541
sg159
I1610612759
sg160
V24
p542
sg162
g42
sg164
V00
p543
sg166
g46
sg167
I1626199
ssI200794
(dp544
g26
VLouisiana Tech
p545
sg27
V246
p546
sg29
V2017
p547
sg31
F32.0
sg32
VFEB 10, 1985
p548
sg34
V6-8
p549
sg36
VPaul Millsap
p550
sg38
I1610612743
sg39
g481
sg41
V11
p551
sg43
V00
p552
sg45
g79
sg47
I200794
ssI1626204
(dp553
VSCHOOL
p554
VWyoming
p555
sVWEIGHT
p556
V230
p557
sVSEASON
p558
V2017
p559
sVAGE
p560
F24.0
sVBIRTH_DATE
p561
VJAN 01, 1993
p562
sVHEIGHT
p563
V6-9
p564
sVPLAYER
p565
VLarry Nance Jr.
p566
sVTeamID
p567
I1610612747
sVNUM
p568
g175
sVEXP
p569
g42
sVLeagueID
p570
V00
p571
sVPOSITION
p572
g79
sVPLAYER_ID
p573
I1626204
ssI1626205
(dp574
g103
VTexas-El Paso
p575
sg105
V208
p576
sg107
V2017
p577
sg109
F23.0
sg110
VAUG 05, 1994
p578
sg112
V6-8
p579
sg114
VVincent Hunter
p580
sg116
I1610612763
sg117
V32
p581
sg118
g420
sg119
V00
p582
sg121
g79
sg122
I1626205
ssI1626209
(dp583
g2
VCroatia
p584
sg4
V218
p585
sg6
V2017
p586
sg8
F22.0
sg9
VFEB 25, 1995
p587
sg11
V6-8
p588
sg13
VMario Hezonja
p589
sg15
I1610612753
sg16
V8
p590
sg18
g42
sg20
V00
p591
sg22
VG-F
p592
sg24
I1626209
ssI1626220
(dp593
g285
VBaylor
p594
sg287
V226
p595
sg289
V2017
p596
sg291
F24.0
sg292
VJUN 05, 1993
p597
sg294
V6-6
p598
sg296
VRoyce O'Neale
p599
sg298
I1610612762
sg299
V23
p600
sg301
g420
sg303
V00
p601
sg305
g79
sg306
I1626220
ssI1626224
(dp602
VSCHOOL
p603
VAnadolu Efes
p604
sVWEIGHT
p605
V215
p606
sVSEASON
p607
V2017
p608
sVAGE
p609
F22.0
sVBIRTH_DATE
p610
VAPR 08, 1995
p611
sVHEIGHT
p612
V6-8
p613
sVPLAYER
p614
VCedi Osman
p615
sVTeamID
p616
I1610612739
sVNUM
p617
V16
p618
sVEXP
p619
g420
sVLeagueID
p620
V00
p621
sVPOSITION
p622
g79
sVPLAYER_ID
p623
I1626224
ssI200826
(dp624
VSCHOOL
p625
VNortheastern
p626
sVWEIGHT
p627
V185
p628
sVSEASON
p629
V2017
p630
sVAGE
p631
F33.0
sVBIRTH_DATE
p632
VJUN 26, 1984
p633
sVHEIGHT
p634
V6-0
p635
sVPLAYER
p636
VJ.J. Barea
p637
sVTeamID
p638
I1610612742
sVNUM
p639
g19
sVEXP
p640
V11
p641
sVLeagueID
p642
V00
p643
sVPOSITION
p644
g46
sVPLAYER_ID
p645
I200826
ssI1626245
(dp646
g308
Nsg310
V280
p647
sg312
V2017
p648
sg314
F25.0
sg315
VJUL 07, 1992
p649
sg317
V6-9
p650
sg319
VCristiano Felicio
p651
sg321
I1610612741
sg322
g500
sg324
g42
sg325
V00
p652
sg327
VC-F
p653
sg328
I1626245
ssI1626257
(dp654
g625
Nsg627
V235
p655
sg629
V2017
p656
sg631
F31.0
sg632
VJUN 15, 1986
p657
sg634
V7-2
p658
sg636
VSalah Mejri
p659
sg638
I1610612742
sg639
V50
p660
sg640
g42
sg642
V00
p661
sg644
g207
sg645
I1626257
ssI1626259
(dp662
g124
VHoly Cross
p663
sg126
V210
p664
sg128
V2017
p665
sg130
F24.0
sg131
VMAR 06, 1993
p666
sg133
V6-7
p667
sg135
VMalcolm Miller
p668
sg137
I1610612761
sg138
V13
p669
sg140
g420
sg141
V00
p670
sg143
g79
sg144
I1626259
ssI2200
(dp671
g146
VBarcelona, Spain
p672
sg148
V250
p673
sg150
V2017
p674
sg152
F37.0
sg153
VJUL 06, 1980
p675
sg155
V7-0
p676
sg157
VPau Gasol
p677
sg159
I1610612759
sg160
V16
p678
sg162
V16
p679
sg164
V00
p680
sg166
g207
sg167
I2200
ssI2207
(dp681
g285
VArkansas
p682
sg287
V240
p683
sg289
V2017
p684
sg291
F36.0
sg292
VJUN 29, 1981
p685
sg294
V6-7
p686
sg296
VJoe Johnson
p687
sg298
I1610612762
sg299
g500
sg301
V16
p688
sg303
V00
p689
sg305
VG-F
p690
sg306
I2207
ssI2210
(dp691
g26
VArizona
p692
sg27
V233
p693
sg29
V2017
p694
sg31
F37.0
sg32
VJUN 21, 1980
p695
sg34
V6-7
p696
sg36
VRichard Jefferson
p697
sg38
I1610612743
sg39
V22
p698
sg41
V16
p699
sg43
V00
p700
sg45
g79
sg47
I2210
ssI2216
(dp701
g241
VMichigan State
p702
sg243
V250
p703
sg245
V2017
p704
sg247
F36.0
sg248
VJUL 16, 1981
p705
sg250
V6-9
p706
sg252
VZach Randolph
p707
sg254
I1610612758
sg255
V50
p708
sg257
V16
p709
sg258
V00
p710
sg260
g79
sg261
I2216
ssI2225
(dp711
g146
VParis, France
p712
sg148
V185
p713
sg150
V2017
p714
sg152
F35.0
sg153
VMAY 17, 1982
p715
sg155
V6-2
p716
sg157
VTony Parker
p717
sg159
I1610612759
sg160
V9
p718
sg162
V16
p719
sg164
V00
p720
sg166
g46
sg167
I2225
ssI1628366
(dp721
g554
VCalifornia-Los Angeles
p722
sg556
V190
p723
sg558
V2017
p724
sg560
F20.0
sg561
VOCT 27, 1997
p725
sg563
V6-6
p726
sg565
VLonzo Ball
p727
sg567
I1610612747
sg568
g42
sg569
g420
sg570
V00
p728
sg572
g46
sg573
I1628366
ssI1628368
(dp729
g241
VKentucky
p730
sg243
V175
p731
sg245
V2017
p732
sg247
F19.0
sg248
VDEC 20, 1997
p733
sg250
V6-3
p734
sg252
VDe'Aaron Fox
p735
sg254
I1610612758
sg255
g19
sg257
g420
sg258
V00
p736
sg260
g46
sg261
I1628368
ssI1628369
(dp737
g435
VDuke
p738
sg437
V205
p739
sg439
V2017
p740
sg441
F19.0
sg442
VMAR 03, 1998
p741
sg444
V6-8
p742
sg446
VJayson Tatum
p743
sg448
I1610612738
sg449
g40
sg451
g420
sg452
V00
p744
sg454
g79
sg455
I1628369
ssI1628371
(dp745
g2
VFlorida State
p746
sg4
V210
p747
sg6
V2017
p748
sg8
F20.0
sg9
VOCT 03, 1997
p749
sg11
V6-10
p750
sg13
VJonathan Isaac
p751
sg15
I1610612753
sg16
g64
sg18
g420
sg20
V00
p752
sg22
g79
sg24
I1628371
ssI1628372
(dp753
g625
VNorth Carolina State
p754
sg627
V195
p755
sg629
V2017
p756
sg631
F19.0
sg632
VNOV 25, 1997
p757
sg634
V6-3
p758
sg636
VDennis Smith Jr.
p759
sg638
I1610612742
sg639
g64
sg640
g420
sg642
V00
p760
sg644
g46
sg645
I1628372
ssI1628373
(dp761
g506
Nsg508
V190
p762
sg510
V2017
p763
sg512
F19.0
sg513
VJUL 28, 1998
p764
sg515
V6-5
p765
sg517
VFrank Ntilikina
p766
sg519
I1610612752
sg520
V11
p767
sg522
g420
sg523
V00
p768
sg525
g46
sg526
I1628373
ssI1628374
(dp769
g308
VArizona
p770
sg310
V230
p771
sg312
V2017
p772
sg314
F20.0
sg315
VMAY 22, 1997
p773
sg317
V7-0
p774
sg319
VLauri Markkanen
p775
sg321
I1610612741
sg322
V24
p776
sg324
g420
sg325
V00
p777
sg327
g79
sg328
I1628374
ssI1628378
(dp778
g285
VLouisville
p779
sg287
V215
p780
sg289
V2017
p781
sg291
F21.0
sg292
VSEP 07, 1996
p782
sg294
V6-3
p783
sg296
VDonovan Mitchell
p784
sg298
I1610612762
sg299
V45
p785
sg301
g420
sg303
V00
p786
sg305
g46
sg306
I1628378
ssI1628381
(dp787
VSCHOOL
p788
VWake Forest
p789
sVWEIGHT
p790
V235
p791
sVSEASON
p792
V2017
p793
sVAGE
p794
F20.0
sVBIRTH_DATE
p795
VSEP 23, 1997
p796
sVHEIGHT
p797
V6-10
p798
sVPLAYER
p799
VJohn Collins
p800
sVTeamID
p801
I1610612737
sVNUM
p802
V20
p803
sVEXP
p804
g420
sVLeagueID
p805
V00
p806
sVPOSITION
p807
VF-C
p808
sVPLAYER_ID
p809
I1628381
ssI1628382
(dp810
g241
VNorth Carolina
p811
sg243
V210
p812
sg245
V2017
p813
sg247
F22.0
sg248
VMAR 28, 1995
p814
sg250
V6-8
p815
sg252
VJustin Jackson
p816
sg254
I1610612758
sg255
V25
p817
sg257
g420
sg258
V00
p818
sg260
g79
sg261
I1628382
ssI1628383
(dp819
g49
VCreighton
p820
sg51
V236
p821
sg53
V2017
p822
sg55
F20.0
sg56
VJUN 14, 1997
p823
sg58
V7-0
p824
sg60
VJustin Patton
p825
sg62
I1610612750
sg63
V24
p826
sg65
g420
sg66
V00
p827
sg68
g207
sg69
I1628383
ssI1628384
(dp828
g124
VIndiana
p829
sg126
V235
p830
sg128
V2017
p831
sg130
F20.0
sg131
VJUL 17, 1997
p832
sg133
V6-8
p833
sg135
VOG Anunoby
p834
sg137
I1610612761
sg138
g77
sg140
g420
sg141
V00
p835
sg143
g79
sg144
I1628384
ssI1628385
(dp836
g241
VDuke
p837
sg243
V240
p838
sg245
V2017
p839
sg247
F19.0
sg248
VAPR 22, 1998
p840
sg250
V6-10
p841
sg252
VHarry Giles
p842
sg254
I1610612758
sg255
V20
p843
sg257
g420
sg258
V00
p844
sg260
VF-C
p845
sg261
I1628385
ssI1628386
(dp846
g178
VTexas
p847
sg180
V234
p848
sg182
V2017
p849
sg184
F19.0
sg185
VAPR 21, 1998
p850
sg187
V6-11
p851
sg189
VJarrett Allen
p852
sg191
I1610612751
sg192
V31
p853
sg193
g420
sg194
V00
p854
sg196
g207
sg197
I1628386
ssI1628389
(dp855
g209
VKentucky
p856
sg211
V255
p857
sg213
V2017
p858
sg215
F20.0
sg216
VJUL 18, 1997
p859
sg218
V6-10
p860
sg220
VBam Adebayo
p861
sg222
I1610612748
sg223
V13
p862
sg225
g420
sg226
V00
p863
sg228
VC-F
p864
sg229
I1628389
ssI1628390
(dp865
g403
Nsg405
V184
p866
sg407
V2017
p867
sg409
F19.0
sg410
VMAY 17, 1998
p868
sg412
V6-7
p869
sg414
VTerrance Ferguson
p870
sg416
I1610612760
sg417
V23
p871
sg419
g420
sg421
V00
p872
sg423
g46
sg424
I1628390
ssI1628391
(dp873
g263
VMichigan
p874
sg265
V236
p875
sg267
V2017
p876
sg269
F21.0
sg270
VFEB 19, 1996
p877
sg272
V6-10
p878
sg274
VD.J. Wilson
p879
sg276
I1610612749
sg277
g19
sg279
g420
sg280
V00
p880
sg282
g79
sg283
I1628391
ssI1628393
(dp881
g81
VOklahoma State
p882
sg83
V190
p883
sg85
V2017
p884
sg87
F21.0
sg88
VJUL 26, 1996
p885
sg90
V6-0
p886
sg92
VJawun Evans
p887
sg94
I1610612746
sg95
g64
sg96
g420
sg97
V00
p888
sg99
g46
sg101
I1628393
ssI1628395
(dp889
g354
VOregon
p890
sg356
V224
p891
sg358
V2017
p892
sg360
F22.0
sg361
VJAN 07, 1995
p893
sg363
V6-9
p894
sg365
VJordan Bell
p895
sg367
I1610612744
sg368
g42
sg369
g420
sg370
V00
p896
sg372
g79
sg373
I1628395
ssI1628396
(dp897
g285
VNorth Carolina
p898
sg287
V248
p899
sg289
V2017
p900
sg291
F19.0
sg292
VJAN 08, 1998
p901
sg294
V6-10
p902
sg296
VTony Bradley
p903
sg298
I1610612762
sg299
V13
p904
sg301
g420
sg303
V00
p905
sg305
g207
sg306
I1628396
ssI1628397
(dp906
g103
VCalifornia
p907
sg105
V220
p908
sg107
V2017
p909
sg109
F20.0
sg110
VFEB 04, 1997
p910
sg112
V6-10
p911
sg114
VIvan Rabb
p912
sg116
I1610612763
sg117
V10
p913
sg118
g420
sg119
V00
p914
sg121
g79
sg122
I1628397
ssI1628398
(dp915
g554
VUtah
p916
sg556
V220
p917
sg558
V2017
p918
sg560
F22.0
sg561
VJUL 24, 1995
p919
sg563
V6-9
p920
sg565
VKyle Kuzma
p921
sg567
I1610612747
sg568
g40
sg569
g420
sg570
V00
p922
sg572
g79
sg573
I1628398
ssI1628399
(dp923
g26
VSyracuse
p924
sg27
V220
p925
sg29
V2017
p926
sg31
F21.0
sg32
VAPR 09, 1996
p927
sg34
V6-9
p928
sg36
VTyler Lydon
p929
sg38
I1610612743
sg39
V20
p930
sg41
g420
sg43
V00
p931
sg45
g79
sg47
I1628399
ssI1628400
(dp932
g435
VSouthern Methodist
p933
sg437
V235
p934
sg439
V2017
p935
sg441
F22.0
sg442
VDEC 05, 1994
p936
sg444
V6-7
p937
sg446
VSemi Ojeleye
p938
sg448
I1610612738
sg449
V37
p939
sg451
g420
sg452
V00
p940
sg454
g79
sg455
I1628400
ssI1628401
(dp941
g146
VColorado
p942
sg148
V190
p943
sg150
V2017
p944
sg152
F23.0
sg153
VJUL 02, 1994
p945
sg155
V6-4
p946
sg157
VDerrick White
p947
sg159
I1610612759
sg160
g481
sg162
g420
sg164
V00
p948
sg166
g46
sg167
I1628401
ssI1628402
(dp949
VSCHOOL
p950
VDuke
p951
sVWEIGHT
p952
V205
p953
sVSEASON
p954
V2017
p955
sVAGE
p956
F19.0
sVBIRTH_DATE
p957
VMAY 04, 1998
p958
sVHEIGHT
p959
V6-3
p960
sVPLAYER
p961
VFrank Jackson
p962
sVTeamID
p963
I1610612740
sVNUM
p964
V15
p965
sVEXP
p966
g420
sVLeagueID
p967
V00
p968
sVPOSITION
p969
g46
sVPLAYER_ID
p970
I1628402
ssI1628404
(dp971
g554
VVillanova
p972
sg556
V215
p973
sg558
V2017
p974
sg560
F22.0
sg561
VMAR 06, 1995
p975
sg563
V6-5
p976
sg565
VJosh Hart
p977
sg567
I1610612747
sg568
g19
sg569
g420
sg570
V00
p978
sg572
g46
sg573
I1628404
ssI1628405
(dp979
g625
VBaylor
p980
sg627
V230
p981
sg629
V2017
p982
sg631
F22.0
sg632
VMAY 04, 1995
p983
sg634
V6-10
p984
sg636
VJohnathan Motley
p985
sg638
I1610612742
sg639
g500
sg640
g420
sg642
V00
p986
sg644
g79
sg645
I1628405
ssI1628408
(dp987
g403
VSouth Carolina
p988
sg405
V205
p989
sg407
V2017
p990
sg409
F21.0
sg410
VOCT 25, 1996
p991
sg412
V6-6
p992
sg414
VPJ Dozier
p993
sg416
I1610612760
sg417
V35
p994
sg419
g420
sg421
V00
p995
sg423
g46
sg424
I1628408
ssI203476
(dp996
g49
VLouisville
p997
sg51
V251
p998
sg53
V2017
p999
sg55
F27.0
sg56
VJAN 18, 1990
p1000
sg58
V6-11
p1001
sg60
VGorgui Dieng
p1002
sg62
I1610612750
sg63
g19
sg65
g481
sg66
V00
p1003
sg68
g207
sg69
I203476
ssI1628411
(dp1004
g2
VKansas State
p1005
sg4
V195
p1006
sg6
V2017
p1007
sg8
F22.0
sg9
VDEC 20, 1994
p1008
sg11
V6-7
p1009
sg13
VWes Iwundu
p1010
sg15
I1610612753
sg16
V25
p1011
sg18
g420
sg20
V00
p1012
sg22
g79
sg24
I1628411
ssI1628412
(dp1013
g241
VKansas
p1014
sg243
V190
p1015
sg245
V2017
p1016
sg247
F23.0
sg248
VAPR 03, 1994
p1017
sg250
V5-11
p1018
sg252
VFrank Mason
p1019
sg254
I1610612758
sg255
V10
p1020
sg257
g420
sg258
V00
p1021
sg260
g46
sg261
I1628412
ssI1628414
(dp1022
g81
VSouth Carolina
p1023
sg83
V215
p1024
sg85
V2017
p1025
sg87
F22.0
sg88
VNOV 15, 1994
p1026
sg90
V6-5
p1027
sg92
VSindarius Thornwell
p1028
sg94
I1610612746
sg95
g40
sg96
g420
sg97
V00
p1029
sg99
g46
sg101
I1628414
ssI1628415
(dp1030
g103
VOregon
p1031
sg105
V220
p1032
sg107
V2017
p1033
sg109
F21.0
sg110
VJAN 22, 1996
p1034
sg112
V6-6
p1035
sg114
VDillon Brooks
p1036
sg116
I1610612763
sg117
V24
p1037
sg118
g420
sg119
V00
p1038
sg121
VF-G
p1039
sg122
I1628415
ssI1628416
(dp1040
g788
VOregon
p1041
sg790
V183
p1042
sg792
V2017
p1043
sg794
F21.0
sg795
VFEB 18, 1996
p1044
sg797
V6-4
p1045
sg799
VTyler Dorsey
p1046
sg801
I1610612737
sg802
g42
sg804
g420
sg805
V00
p1047
sg807
g46
sg809
I1628416
ssI1628418
(dp1048
g554
VIndiana
p1049
sg556
V248
p1050
sg558
V2017
p1051
sg560
F20.0
sg561
VJUL 31, 1997
p1052
sg563
V6-10
p1053
sg565
VThomas Bryant
p1054
sg567
I1610612747
sg568
V31
p1055
sg569
g420
sg570
V00
p1056
sg572
g207
sg573
I1628418
ssI1628420
(dp1057
g26
VIowa State
p1058
sg27
V175
p1059
sg29
V2017
p1060
sg31
F22.0
sg32
VJUN 27, 1995
p1061
sg34
V6-3
p1062
sg36
VMonte Morris
p1063
sg38
I1610612743
sg39
V11
p1064
sg41
g420
sg43
V00
p1065
sg45
g46
sg47
I1628420
ssI1628422
(dp1066
g506
VHouston
p1067
sg508
V210
p1068
sg510
V2017
p1069
sg512
F23.0
sg513
VMAY 06, 1994
p1070
sg515
V6-5
p1071
sg517
VDamyean Dotson
p1072
sg519
I1610612752
sg520
V21
p1073
sg522
g420
sg523
V00
p1074
sg525
g46
sg526
I1628422
ssI1628424
(dp1075
g103
VArizona
p1076
sg105
V170
p1077
sg107
V2017
p1078
sg109
F20.0
sg110
VJUL 04, 1997
p1079
sg112
V6-4
p1080
sg114
VKobi Simmons
p1081
sg116
I1610612763
sg117
g42
sg118
g420
sg119
V00
p1082
sg121
g46
sg122
I1628424
ssI1628425
(dp1083
g263
VSouthern Methodist
p1084
sg265
V230
p1085
sg267
V2017
p1086
sg269
F22.0
sg270
VFEB 10, 1995
p1087
sg272
V6-6
p1088
sg274
VSterling Brown
p1089
sg276
I1610612749
sg277
V23
p1090
sg279
g420
sg280
V00
p1091
sg282
g46
sg283
I1628425
ssI1628429
(dp1092
g950
VDayton
p1093
sg952
V196
p1094
sg954
V2017
p1095
sg956
F23.0
sg957
VJUL 01, 1994
p1096
sg959
V6-5
p1097
sg961
VCharles Cooke
p1098
sg963
I1610612740
sg964
g481
sg966
g420
sg967
V00
p1099
sg969
g46
sg970
I1628429
ssI1628436
(dp1100
g506
VVanderbilt
p1101
sg508
V250
p1102
sg510
V2017
p1103
sg512
F22.0
sg513
VJUL 15, 1995
p1104
sg515
V7-1
p1105
sg517
VLuke Kornet
p1106
sg519
I1610612752
sg520
g42
sg522
g420
sg523
V00
p1107
sg525
VF-C
p1108
sg526
I1628436
ssI1628439
(dp1109
g506
VNorth Carolina
p1110
sg508
V242
p1111
sg510
V2017
p1112
sg512
F23.0
sg513
VJUL 24, 1994
p1113
sg515
V6-9
p1114
sg517
VIsaiah Hicks
p1115
sg519
I1610612752
sg520
g481
sg522
g420
sg523
V00
p1116
sg525
g79
sg526
I1628439
ssI1628443
(dp1117
g435
VArizona
p1118
sg437
V200
p1119
sg439
V2017
p1120
sg441
F24.0
sg442
VJAN 15, 1993
p1121
sg444
V6-3
p1122
sg446
VKadeem Allen
p1123
sg448
I1610612738
sg449
V45
p1124
sg451
g420
sg452
V00
p1125
sg454
g46
sg455
I1628443
ssI1628444
(dp1126
g435
VCalifornia
p1127
sg437
V198
p1128
sg439
V2017
p1129
sg441
F23.0
sg442
VJUL 03, 1994
p1130
sg444
V6-6
p1131
sg446
VJabari Bird
p1132
sg448
I1610612738
sg449
V26
p1133
sg451
g420
sg452
V00
p1134
sg454
g46
sg455
I1628444
ssI1628449
(dp1135
g354
VOregon
p1136
sg356
V200
p1137
sg358
V2017
p1138
sg360
F24.0
sg361
VJAN 11, 1993
p1139
sg363
V6-10
p1140
sg365
VChris Boucher
p1141
sg367
I1610612744
sg368
V25
p1142
sg369
g420
sg370
V00
p1143
sg372
g79
sg373
I1628449
ssI1628451
(dp1144
g178
VEastern Washington
p1145
sg180
V223
p1146
sg182
V2017
p1147
sg184
F23.0
sg185
VSEP 04, 1994
p1148
sg187
V6-8
p1149
sg189
VJacob Wiley
p1150
sg191
I1610612751
sg192
V21
p1151
sg193
g420
sg194
V00
p1152
sg196
g79
sg197
I1628451
ssI1628462
(dp1153
g81
Nsg83
V196
p1154
sg85
V2017
p1155
sg87
F30.0
sg88
VMAR 19, 1987
p1156
sg90
V6-5
p1157
sg92
VMilos Teodosic
p1158
sg94
I1610612746
sg95
g481
sg96
g420
sg97
V00
p1159
sg99
g46
sg101
I1628462
ssI1628463
(dp1160
g788
VGeorge Washington
p1161
sg790
V238
p1162
sg792
V2017
p1163
sg794
F23.0
sg795
VFEB 09, 1994
p1164
sg797
V6-9
p1165
sg799
VTyler Cavanaugh
p1166
sg801
I1610612737
sg802
V34
p1167
sg804
g420
sg805
V00
p1168
sg807
g79
sg809
I1628463
ssI1628464
(dp1169
g435
Nsg437
V243
p1170
sg439
V2017
p1171
sg441
F25.0
sg442
VAPR 04, 1992
p1172
sg444
V6-9
p1173
sg446
VDaniel Theis
p1174
sg448
I1610612738
sg449
V27
p1175
sg451
g420
sg452
V00
p1176
sg454
VF-C
p1177
sg455
I1628464
ssI1628467
(dp1178
g625
Nsg627
V220
p1179
sg629
V2017
p1180
sg631
F25.0
sg632
VJAN 29, 1992
p1181
sg634
V6-11
p1182
sg636
VMaxi Kleber
p1183
sg638
I1610612742
sg639
V42
p1184
sg640
g420
sg642
V00
p1185
sg644
g79
sg645
I1628467
ssI1628469
(dp1186
g308
VLouisiana State
p1187
sg310
V197
p1188
sg312
V2017
p1189
sg314
F21.0
sg315
VOCT 04, 1996
p1190
sg317
V6-4
p1191
sg319
VAntonio Blakeney
p1192
sg321
I1610612741
sg322
g718
sg324
g420
sg325
V00
p1193
sg327
g46
sg328
I1628469
ssI1628470
(dp1194
g26
VSouth Carolina Upstate
p1195
sg27
V215
p1196
sg29
V2017
p1197
sg31
F26.0
sg32
VDEC 19, 1990
p1198
sg34
V6-6
p1199
sg36
VTorrey Craig
p1200
sg38
I1610612743
sg39
g77
sg41
g420
sg43
V00
p1201
sg45
VG-F
p1202
sg47
I1628470
ssI1628473
(dp1203
g178
Nsg180
V220
p1204
sg182
V2017
p1205
sg184
F25.0
sg185
VJAN 24, 1992
p1206
sg187
V6-4
p1207
sg189
VYakuba Ouattara
p1208
sg191
I1610612751
sg192
V00
p1209
sg193
g420
sg194
V00
p1210
sg196
g46
sg197
I1628473
ssI1628475
(dp1211
g209
VCentral Florida
p1212
sg211
V210
p1213
sg213
V2017
p1214
sg215
F24.0
sg216
VOCT 14, 1993
p1215
sg218
V6-5
p1216
sg220
VMatt Williams Jr.
p1217
sg222
I1610612748
sg223
V12
p1218
sg225
g420
sg226
V00
p1219
sg228
g46
sg229
I1628475
ssI1628476
(dp1220
g209
VMichigan
p1221
sg211
V185
p1222
sg213
V2017
p1223
sg215
F22.0
sg216
VAPR 03, 1995
p1224
sg218
V6-1
p1225
sg220
VDerrick Walton Jr.
p1226
sg222
I1610612748
sg223
V14
p1227
sg225
g420
sg226
V00
p1228
sg228
g46
sg229
I1628476
ssI203076
(dp1229
g950
VKentucky
p1230
sg952
V253
p1231
sg954
V2017
p1232
sg956
F24.0
sg957
VMAR 11, 1993
p1233
sg959
V6-10
p1234
sg961
VAnthony Davis
p1235
sg963
I1610612740
sg964
V23
p1236
sg966
g19
sg967
V00
p1237
sg969
VF-C
p1238
sg970
I203076
ssI203079
(dp1239
g209
VSyracuse
p1240
sg211
V215
p1241
sg213
V2017
p1242
sg215
F25.0
sg216
VDEC 10, 1991
p1243
sg218
V6-4
p1244
sg220
VDion Waiters
p1245
sg222
I1610612748
sg223
V11
p1246
sg225
g19
sg226
V00
p1247
sg228
g46
sg229
I203079
ssI203082
(dp1248
g2
VWashington
p1249
sg4
V206
p1250
sg6
V2017
p1251
sg8
F26.0
sg9
VFEB 05, 1991
p1252
sg11
V6-7
p1253
sg13
VTerrence Ross
p1254
sg15
I1610612753
sg16
V31
p1255
sg18
g19
sg20
V00
p1256
sg22
VG-F
p1257
sg24
I203082
ssI1628492
(dp1258
g625
VColorado State
p1259
sg627
V185
p1260
sg629
V2017
p1261
sg631
F23.0
sg632
VNOV 26, 1993
p1262
sg634
V6-4
p1263
sg636
VGian Clavell
p1264
sg638
I1610612742
sg639
g590
sg640
g420
sg642
V00
p1265
sg644
g46
sg645
I1628492
ssI203085
(dp1266
g81
VDuke
p1267
sg83
V200
p1268
sg85
V2017
p1269
sg87
F25.0
sg88
VAUG 01, 1992
p1270
sg90
V6-4
p1271
sg92
VAustin Rivers
p1272
sg94
I1610612746
sg95
V25
p1273
sg96
g19
sg97
V00
p1274
sg99
g46
sg101
I203085
ssI203089
(dp1275
g263
VNorth Carolina
p1276
sg265
V229
p1277
sg267
V2017
p1278
sg269
F26.0
sg270
VDEC 28, 1990
p1279
sg272
V6-11
p1280
sg274
VJohn Henson
p1281
sg276
I1610612749
sg277
V31
p1282
sg279
g19
sg280
V00
p1283
sg282
VF-C
p1284
sg283
I203089
ssI203092
(dp1285
g178
VNorth Carolina
p1286
sg180
V250
p1287
sg182
V2017
p1288
sg184
F27.0
sg185
VJAN 17, 1990
p1289
sg187
V7-0
p1290
sg189
VTyler Zeller
p1291
sg191
I1610612751
sg192
V44
p1292
sg193
g19
sg194
V00
p1293
sg196
g207
sg197
I203092
ssI1628503
(dp1294
g2
VPittsburgh
p1295
sg4
V213
p1296
sg6
V2017
p1297
sg8
F24.0
sg9
VJAN 12, 1993
p1298
sg11
V6-7
p1299
sg13
VJamel Artis
p1300
sg15
I1610612753
sg16
g40
sg18
g420
sg20
V00
p1301
sg22
g46
sg24
I1628503
ssI1628506
(dp1302
g603
VVirginia
p1303
sg605
V190
p1304
sg607
V2017
p1305
sg609
F23.0
sg610
VOCT 03, 1994
p1306
sg612
V6-2
p1307
sg614
VLondon Perrantes
p1308
sg616
I1610612739
sg617
V15
p1309
sg619
g420
sg620
V00
p1310
sg622
g46
sg623
I1628506
ssI203101
(dp1311
g788
VDuke
p1312
sg790
V249
p1313
sg792
V2017
p1314
sg794
F29.0
sg795
VSEP 01, 1988
p1315
sg797
V6-11
p1316
sg799
VMiles Plumlee
p1317
sg801
I1610612737
sg802
V18
p1318
sg804
g19
sg805
V00
p1319
sg807
g207
sg809
I203101
ssI2403
(dp1320
g484
VSao Carlos, Brazil
p1321
sg486
V250
p1322
sg488
V2017
p1323
sg490
F35.0
sg491
VSEP 13, 1982
p1324
sg493
V6-11
p1325
sg495
VNene
p1326
sg497
I1610612745
sg498
V42
p1327
sg499
V15
p1328
sg501
V00
p1329
sg503
VC-F
p1330
sg504
I2403
ssI203109
(dp1331
g603
VMarquette
p1332
sg605
V235
p1333
sg607
V2017
p1334
sg609
F27.0
sg610
VJUL 06, 1990
p1335
sg612
V6-6
p1336
sg614
VJae Crowder
p1337
sg616
I1610612739
sg617
V99
p1338
sg619
g19
sg620
V00
p1339
sg622
g79
sg623
I203109
ssI203110
(dp1340
g354
VMichigan State
p1341
sg356
V230
p1342
sg358
V2017
p1343
sg360
F27.0
sg361
VMAR 04, 1990
p1344
sg363
V6-7
p1345
sg365
VDraymond Green
p1346
sg367
I1610612744
sg368
V23
p1347
sg369
g19
sg370
V00
p1348
sg372
g79
sg373
I203110
ssI203112
(dp1349
g178
VBaylor
p1350
sg180
V240
p1351
sg182
V2017
p1352
sg184
F27.0
sg185
VOCT 06, 1990
p1353
sg187
V6-7
p1354
sg189
VQuincy Acy
p1355
sg191
I1610612751
sg192
V13
p1356
sg193
g19
sg194
V00
p1357
sg196
g79
sg197
I203112
ssI203114
(dp1358
g263
VTexas A&M
p1359
sg265
V234
p1360
sg267
V2017
p1361
sg269
F26.0
sg270
VAUG 12, 1991
p1362
sg272
V6-8
p1363
sg274
VKhris Middleton
p1364
sg276
I1610612749
sg277
V22
p1365
sg279
g19
sg280
V00
p1366
sg282
g79
sg283
I203114
ssI203115
(dp1367
g26
VMemphis
p1368
sg27
V190
p1369
sg29
V2017
p1370
sg31
F26.0
sg32
VJAN 06, 1991
p1371
sg34
V6-6
p1372
sg36
VWill Barton
p1373
sg38
I1610612743
sg39
g19
sg41
g19
sg43
V00
p1374
sg45
VG-F
p1375
sg47
I203115
ssI200765
(dp1376
g950
VKentucky
p1377
sg952
V186
p1378
sg954
V2017
p1379
sg956
F31.0
sg957
VFEB 22, 1986
p1380
sg959
V6-1
p1381
sg961
VRajon Rondo
p1382
sg963
I1610612740
sg964
g718
sg966
V11
p1383
sg967
V00
p1384
sg969
g46
sg970
I200765
ssI203121
(dp1385
g950
VKentucky
p1386
sg952
V225
p1387
sg954
V2017
p1388
sg956
F27.0
sg957
VMAR 21, 1990
p1389
sg959
V6-8
p1390
sg961
VDarius Miller
p1391
sg963
I1610612740
sg964
V21
p1392
sg966
g77
sg967
V00
p1393
sg969
g79
sg970
I203121
ssI203124
(dp1394
g506
VNorfolk State
p1395
sg508
V250
p1396
sg510
V2017
p1397
sg512
F27.0
sg513
VMAR 26, 1990
p1398
sg515
V6-10
p1399
sg517
VKyle O'Quinn
p1400
sg519
I1610612752
sg520
g718
sg522
g19
sg523
V00
p1401
sg525
VC-F
p1402
sg526
I203124
ssI203141
(dp1403
g263
VBosnia
p1404
sg265
V242
p1405
sg267
V2017
p1406
sg269
F32.0
sg270
VSEP 17, 1985
p1407
sg272
V6-9
p1408
sg274
VMirza Teletovic
p1409
sg276
I1610612749
sg277
V35
p1410
sg279
g19
sg280
V00
p1411
sg282
g79
sg283
I203141
ssI203145
(dp1412
g788
VOld Dominion
p1413
sg790
V201
p1414
sg792
V2017
p1415
sg794
F28.0
sg795
VJUL 01, 1989
p1416
sg797
V6-5
p1417
sg799
VKent Bazemore
p1418
sg801
I1610612737
sg802
V24
p1419
sg804
g19
sg805
V00
p1420
sg807
g46
sg809
I203145
ssI203186
(dp1421
g81
VSaint Louis
p1422
sg83
V245
p1423
sg85
V2017
p1424
sg87
F27.0
sg88
VMAY 16, 1990
p1425
sg90
V6-11
p1426
sg92
VWillie Reed
p1427
sg94
I1610612746
sg95
V35
p1428
sg96
g42
sg97
V00
p1429
sg99
g207
sg101
I203186
ssI201142
(dp1430
g354
VTexas
p1431
sg356
V240
p1432
sg358
V2017
p1433
sg360
F29.0
sg361
VSEP 29, 1988
p1434
sg363
V6-9
p1435
sg365
VKevin Durant
p1436
sg367
I1610612744
sg368
V35
p1437
sg369
V10
p1438
sg370
V00
p1439
sg372
g79
sg373
I201142
ssI201143
(dp1440
g435
VFlorida
p1441
sg437
V245
p1442
sg439
V2017
p1443
sg441
F31.0
sg442
VJUN 03, 1986
p1444
sg444
V6-10
p1445
sg446
VAl Horford
p1446
sg448
I1610612738
sg449
V42
p1447
sg451
V10
p1448
sg452
V00
p1449
sg454
VF-C
p1450
sg455
I201143
ssI201144
(dp1451
g103
VOhio State
p1452
sg105
V175
p1453
sg107
V2017
p1454
sg109
F30.0
sg110
VOCT 11, 1987
p1455
sg112
V6-1
p1456
sg114
VMike Conley
p1457
sg116
I1610612763
sg117
V11
p1458
sg118
V10
p1459
sg119
V00
p1460
sg121
g46
sg122
I201144
ssI201145
(dp1461
g603
VGeorgetown
p1462
sg605
V235
p1463
sg607
V2017
p1464
sg609
F31.0
sg610
VAUG 28, 1986
p1465
sg612
V6-9
p1466
sg614
VJeff Green
p1467
sg616
I1610612739
sg617
V32
p1468
sg619
g718
sg620
V00
p1469
sg622
g79
sg623
I201145
ssI201147
(dp1470
g554
VFlorida
p1471
sg556
V186
p1472
sg558
V2017
p1473
sg560
F31.0
sg561
VMAR 05, 1986
p1474
sg563
V6-9
p1475
sg565
VCorey Brewer
p1476
sg567
I1610612747
sg568
g77
sg569
V10
p1477
sg570
V00
p1478
sg572
g79
sg573
I201147
ssI201148
(dp1479
g103
VNorth Carolina
p1480
sg105
V235
p1481
sg107
V2017
p1482
sg109
F30.0
sg110
VOCT 05, 1987
p1483
sg112
V6-10
p1484
sg114
VBrandan Wright
p1485
sg116
I1610612763
sg117
V34
p1486
sg118
g718
sg119
V00
p1487
sg121
VF-C
p1488
sg122
I201148
ssI201149
(dp1489
g506
VFlorida
p1490
sg508
V230
p1491
sg510
V2017
p1492
sg512
F32.0
sg513
VFEB 25, 1985
p1493
sg515
V6-11
p1494
sg517
VJoakim Noah
p1495
sg519
I1610612752
sg520
V13
p1496
sg522
V10
p1497
sg523
V00
p1498
sg525
g207
sg526
I201149
ssI203200
(dp1499
g308
VWashington
p1500
sg310
V185
p1501
sg312
V2017
p1502
sg314
F28.0
sg315
VAPR 05, 1989
p1503
sg317
V6-6
p1504
sg319
VJustin Holiday
p1505
sg321
I1610612741
sg322
g175
sg324
g481
sg325
V00
p1506
sg327
g46
sg328
I203200
ssI201156
(dp1507
g354
VSouthern California
p1508
sg356
V210
p1509
sg358
V2017
p1510
sg360
F32.0
sg361
VJUN 01, 1985
p1511
sg363
V6-7
p1512
sg365
VNick Young
p1513
sg367
I1610612744
sg368
g500
sg369
V10
p1514
sg370
V00
p1515
sg372
VG-F
p1516
sg373
I201156
ssI201158
(dp1517
g788
VBologna, Italy
p1518
sg790
V210
p1519
sg792
V2017
p1520
sg794
F31.0
sg795
VMAR 25, 1986
p1521
sg797
V6-5
p1522
sg799
VMarco Belinelli
p1523
sg801
I1610612737
sg802
g77
sg804
V10
p1524
sg805
V00
p1525
sg807
VG-F
p1526
sg809
I201158
ssI203210
(dp1527
g103
VAlabama
p1528
sg105
V227
p1529
sg107
V2017
p1530
sg109
F27.0
sg110
VJUN 21, 1990
p1531
sg112
V6-9
p1532
sg114
VJaMychal Green
p1533
sg116
I1610612763
sg117
g40
sg118
g77
sg119
V00
p1534
sg121
g79
sg122
I203210
ssI201163
(dp1535
g26
VDePaul
p1536
sg27
V225
p1537
sg29
V2017
p1538
sg31
F30.0
sg32
VMAY 10, 1987
p1539
sg34
V6-9
p1540
sg36
VWilson Chandler
p1541
sg38
I1610612743
sg39
V21
p1542
sg41
g718
sg43
V00
p1543
sg45
g79
sg47
I201163
ssI201166
(dp1544
g49
VOregon
p1545
sg51
V161
p1546
sg53
V2017
p1547
sg55
F32.0
sg56
VJAN 14, 1985
p1548
sg58
V6-0
p1549
sg60
VAaron Brooks
p1550
sg62
I1610612750
sg63
V30
p1551
sg65
g718
sg66
V00
p1552
sg68
g46
sg69
I201166
ssI201167
(dp1553
g2
VUCLA
p1554
sg4
V210
p1555
sg6
V2017
p1556
sg8
F32.0
sg9
VOCT 15, 1985
p1557
sg11
V6-5
p1558
sg13
VArron Afflalo
p1559
sg15
I1610612753
sg16
g481
sg18
V10
p1560
sg20
V00
p1561
sg22
g46
sg24
I201167
ssI101112
(dp1562
g603
VArizona
p1563
sg605
V255
p1564
sg607
V2017
p1565
sg609
F34.0
sg610
VMAY 17, 1983
p1566
sg612
V6-11
p1567
sg614
VChanning Frye
p1568
sg616
I1610612739
sg617
g590
sg619
V11
p1569
sg620
V00
p1570
sg622
g79
sg623
I101112
ssI201177
(dp1571
g625
VDuke
p1572
sg627
V240
p1573
sg629
V2017
p1574
sg631
F30.0
sg632
VFEB 28, 1987
p1575
sg634
V6-10
p1576
sg636
VJosh McRoberts
p1577
sg638
I1610612742
sg639
V13
p1578
sg640
V10
p1579
sg642
V00
p1580
sg644
VF-C
p1581
sg645
I201177
ssI201188
(dp1582
g103
VBarcelona, Spain
p1583
sg105
V255
p1584
sg107
V2017
p1585
sg109
F32.0
sg110
VJAN 29, 1985
p1586
sg112
V7-1
p1587
sg114
VMarc Gasol
p1588
sg116
I1610612763
sg117
V33
p1589
sg118
g718
sg119
V00
p1590
sg121
g207
sg122
I201188
ssI201196
(dp1591
g506
VNevada
p1592
sg508
V190
p1593
sg510
V2017
p1594
sg512
F31.0
sg513
VAPR 11, 1986
p1595
sg515
V6-3
p1596
sg517
VRamon Sessions
p1597
sg519
I1610612752
sg520
g64
sg522
V10
p1598
sg523
V00
p1599
sg525
g46
sg526
I201196
ssI2544
(dp1600
g603
VSt. Vincent-St. Mary HS (OH)
p1601
sg605
V250
p1602
sg607
V2017
p1603
sg609
F32.0
sg610
VDEC 30, 1984
p1604
sg612
V6-8
p1605
sg614
VLeBron James
p1606
sg616
I1610612739
sg617
V23
p1607
sg619
V14
p1608
sg620
V00
p1609
sg622
VF-G
p1610
sg623
I2544
ssI2546
(dp1611
g403
VSyracuse
p1612
sg405
V240
p1613
sg407
V2017
p1614
sg409
F33.0
sg410
VMAY 29, 1984
p1615
sg412
V6-8
p1616
sg414
VCarmelo Anthony
p1617
sg416
I1610612760
sg417
g175
sg419
V14
p1618
sg421
V00
p1619
sg423
g79
sg424
I2546
ssI2548
(dp1620
g603
VMarquette
p1621
sg605
V220
p1622
sg607
V2017
p1623
sg609
F35.0
sg610
VJAN 17, 1982
p1624
sg612
V6-4
p1625
sg614
VDwyane Wade
p1626
sg616
I1610612739
sg617
g718
sg619
V14
p1627
sg620
V00
p1628
sg622
g46
sg623
I2548
ssI2555
(dp1629
g403
VKansas
p1630
sg405
V255
p1631
sg407
V2017
p1632
sg409
F37.0
sg410
VOCT 26, 1980
p1633
sg412
V6-10
p1634
sg414
VNick Collison
p1635
sg416
I1610612760
sg417
g481
sg419
V13
p1636
sg421
V00
p1637
sg423
g79
sg424
I2555
ssI2561
(dp1638
g354
VXavier
p1639
sg356
V250
p1640
sg358
V2017
p1641
sg360
F37.0
sg361
VAUG 29, 1980
p1642
sg363
V6-9
p1643
sg365
VDavid West
p1644
sg367
I1610612744
sg368
g77
sg369
V14
p1645
sg370
V00
p1646
sg372
g79
sg373
I2561
ssI2585
(dp1647
g354
VTbilisi, Georgia
p1648
sg356
V270
p1649
sg358
V2017
p1650
sg360
F33.0
sg361
VFEB 10, 1984
p1651
sg363
V6-11
p1652
sg365
VZaza Pachulia
p1653
sg367
I1610612744
sg368
V27
p1654
sg369
V14
p1655
sg370
V00
p1656
sg372
g207
sg373
I2585
ssI2594
(dp1657
g603
VCreighton
p1658
sg605
V212
p1659
sg607
V2017
p1660
sg609
F36.0
sg610
VMAR 17, 1981
p1661
sg612
V6-7
p1662
sg614
VKyle Korver
p1663
sg616
I1610612739
sg617
V26
p1664
sg619
V14
p1665
sg620
V00
p1666
sg622
g46
sg623
I2594
ssI2617
(dp1667
g209
VFlorida
p1668
sg211
V235
p1669
sg213
V2017
p1670
sg215
F37.0
sg216
VJUN 09, 1980
p1671
sg218
V6-8
p1672
sg220
VUdonis Haslem
p1673
sg222
I1610612748
sg223
V40
p1674
sg225
V14
p1675
sg226
V00
p1676
sg228
g79
sg229
I2617
ssI203382
(dp1677
g435
VWashington State
p1678
sg437
V260
p1679
sg439
V2017
p1680
sg441
F30.0
sg442
VDEC 09, 1986
p1681
sg444
V6-10
p1682
sg446
VAron Baynes
p1683
sg448
I1610612738
sg449
V46
p1684
sg451
g19
sg452
V00
p1685
sg454
g207
sg455
I203382
ssI2733
(dp1686
g354
VPeoria Central HS (IL)
p1687
sg356
V192
p1688
sg358
V2017
p1689
sg360
F32.0
sg361
VSEP 11, 1985
p1690
sg363
V6-7
p1691
sg365
VShaun Livingston
p1692
sg367
I1610612744
sg368
V34
p1693
sg369
V12
p1694
sg370
V00
p1695
sg372
g46
sg373
I2733
ssI2734
(dp1696
g625
VWisconsin
p1697
sg627
V185
p1698
sg629
V2017
p1699
sg631
F34.0
sg632
VFEB 27, 1983
p1700
sg634
V6-3
p1701
sg636
VDevin Harris
p1702
sg638
I1610612742
sg639
V34
p1703
sg640
V13
p1704
sg642
V00
p1705
sg644
g46
sg645
I2734
ssI2736
(dp1706
g554
VDuke
p1707
sg556
V220
p1708
sg558
V2017
p1709
sg560
F32.0
sg561
VAPR 16, 1985
p1710
sg563
V6-9
p1711
sg565
VLuol Deng
p1712
sg567
I1610612747
sg568
g718
sg569
V13
p1713
sg570
V00
p1714
sg572
g79
sg573
I2736
ssI2738
(dp1715
g354
VArizona
p1716
sg356
V215
p1717
sg358
V2017
p1718
sg360
F33.0
sg361
VJAN 28, 1984
p1719
sg363
V6-6
p1720
sg365
VAndre Iguodala
p1721
sg367
I1610612744
sg368
g718
sg369
V13
p1722
sg370
V00
p1723
sg372
VG-F
p1724
sg373
I2738
ssI2747
(dp1725
g603
VSt. Benedict's Prep (NJ)
p1726
sg605
V225
p1727
sg607
V2017
p1728
sg609
F32.0
sg610
VSEP 09, 1985
p1729
sg612
V6-6
p1730
sg614
VJR Smith
p1731
sg616
I1610612739
sg617
g19
sg619
V13
p1732
sg620
V00
p1733
sg622
VG-F
p1734
sg623
I2747
ssI2749
(dp1735
g950
VSaint Joseph's
p1736
sg952
V190
p1737
sg954
V2017
p1738
sg956
F35.0
sg957
VFEB 09, 1982
p1739
sg959
V6-0
p1740
sg961
VJameer Nelson
p1741
sg963
I1610612740
sg964
V14
p1742
sg966
V13
p1743
sg967
V00
p1744
sg969
g46
sg970
I2749
ssI203457
(dp1745
g625
VKentucky
p1746
sg627
V220
p1747
sg629
V2017
p1748
sg631
F23.0
sg632
VAPR 10, 1994
p1749
sg634
V6-11
p1750
sg636
VNerlens Noel
p1751
sg638
I1610612742
sg639
g77
sg640
g77
sg642
V00
p1752
sg644
g207
sg645
I203457
ssI2754
(dp1753
g950
VOklahoma State
p1754
sg952
V213
p1755
sg954
V2017
p1756
sg956
F35.0
sg957
VJAN 11, 1982
p1757
sg959
V6-4
p1758
sg961
VTony Allen
p1759
sg963
I1610612740
sg964
V24
p1760
sg966
V13
p1761
sg967
V00
p1762
sg969
VG-F
p1763
sg970
I2754
ssI203459
(dp1764
g178
VCalifornia
p1765
sg180
V215
p1766
sg182
V2017
p1767
sg184
F25.0
sg185
VAPR 09, 1992
p1768
sg187
V6-6
p1769
sg189
VAllen Crabbe
p1770
sg191
I1610612751
sg192
V33
p1771
sg193
g481
sg194
V00
p1772
sg196
VG-F
p1773
sg197
I203459
ssI203460
(dp1774
g403
VColorado
p1775
sg405
V210
p1776
sg407
V2017
p1777
sg409
F25.0
sg410
VDEC 04, 1991
p1778
sg412
V6-7
p1779
sg414
VAndre Roberson
p1780
sg416
I1610612760
sg417
V21
p1781
sg419
g481
sg421
V00
p1782
sg423
g46
sg424
I203460
ssI203463
(dp1783
g103
VKansas
p1784
sg105
V195
p1785
sg107
V2017
p1786
sg109
F24.0
sg110
VFEB 11, 1993
p1787
sg112
V6-5
p1788
sg114
VBen McLemore
p1789
sg116
I1610612763
sg117
V23
p1790
sg118
g481
sg119
V00
p1791
sg121
g46
sg122
I203463
ssI203464
(dp1792
g146
Nsg148
V200
p1793
sg150
V2017
p1794
sg152
F26.0
sg153
VAPR 30, 1991
p1795
sg155
V6-4
p1796
sg157
VBrandon Paul
p1797
sg159
I1610612759
sg160
g77
sg162
g420
sg164
V00
p1798
sg166
g46
sg167
I203464
ssI203471
(dp1799
g788
VGermany
p1800
sg790
V172
p1801
sg792
V2017
p1802
sg794
F24.0
sg795
VSEP 15, 1993
p1803
sg797
V6-1
p1804
sg799
VDennis Schroder
p1805
sg801
I1610612737
sg802
V17
p1806
sg804
g481
sg805
V00
p1807
sg807
g46
sg809
I203471
ssI203473
(dp1808
g788
VSouthern California
p1809
sg790
V245
p1810
sg792
V2017
p1811
sg794
F28.0
sg795
VAUG 12, 1989
p1812
sg797
V7-0
p1813
sg799
VDewayne Dedmon
p1814
sg801
I1610612737
sg802
V14
p1815
sg804
g481
sg805
V00
p1816
sg807
g207
sg809
I203473
ssI2772
(dp1817
g484
VUCLA
p1818
sg486
V215
p1819
sg488
V2017
p1820
sg490
F32.0
sg491
VJUN 30, 1985
p1821
sg493
V6-8
p1822
sg495
VTrevor Ariza
p1823
sg497
I1610612745
sg498
g64
sg499
V13
p1824
sg501
V00
p1825
sg503
VF-G
p1826
sg504
I2772
ssI203481
(dp1827
g625
VKansas
p1828
sg627
V230
p1829
sg629
V2017
p1830
sg631
F27.0
sg632
VMAR 07, 1990
p1831
sg634
V7-0
p1832
sg636
VJeff Withey
p1833
sg638
I1610612742
sg639
V17
p1834
sg640
g481
sg642
V00
p1835
sg644
g207
sg645
I203481
ssI203482
(dp1836
g209
VGonzaga
p1837
sg211
V245
p1838
sg213
V2017
p1839
sg215
F26.0
sg216
VAPR 19, 1991
p1840
sg218
V7-0
p1841
sg220
VKelly Olynyk
p1842
sg222
I1610612748
sg223
g718
sg225
g481
sg226
V00
p1843
sg228
VC-F
p1844
sg229
I203482
ssI203484
(dp1845
g554
VGeorgia
p1846
sg556
V205
p1847
sg558
V2017
p1848
sg560
F24.0
sg561
VFEB 18, 1993
p1849
sg563
V6-5
p1850
sg565
VKentavious Caldwell-Pope
p1851
sg567
I1610612747
sg568
g64
sg569
g481
sg570
V00
p1852
sg572
g46
sg573
I203484
ssI203485
(dp1853
g124
VNorth Carolina State
p1854
sg126
V189
p1855
sg128
V2017
p1856
sg130
F27.0
sg131
VAUG 26, 1990
p1857
sg133
V6-5
p1858
sg135
VLorenzo Brown
p1859
sg137
I1610612761
sg138
g481
sg140
g77
sg141
V00
p1860
sg143
g46
sg144
I203485
ssI203486
(dp1861
g26
VDuke
p1862
sg27
V255
p1863
sg29
V2017
p1864
sg31
F27.0
sg32
VMAR 05, 1990
p1865
sg34
V6-11
p1866
sg36
VMason Plumlee
p1867
sg38
I1610612743
sg39
V24
p1868
sg41
g481
sg43
V00
p1869
sg45
VC-F
p1870
sg47
I203486
ssI203488
(dp1871
g788
VBucknell
p1872
sg790
V240
p1873
sg792
V2017
p1874
sg794
F26.0
sg795
VJUL 01, 1991
p1875
sg797
V6-11
p1876
sg799
VMike Muscala
p1877
sg801
I1610612737
sg802
V31
p1878
sg804
g481
sg805
V00
p1879
sg807
VF-C
p1880
sg809
I203488
ssI203489
(dp1881
g285
VSouth Dakota State
p1882
sg287
V190
p1883
sg289
V2017
p1884
sg291
F26.0
sg292
VMAY 15, 1991
p1885
sg294
V6-4
p1886
sg296
VNate Wolters
p1887
sg298
I1610612762
sg299
V16
p1888
sg301
g42
sg303
V00
p1889
sg305
g46
sg306
I203489
ssI203497
(dp1890
g285
VFrance
p1891
sg287
V245
p1892
sg289
V2017
p1893
sg291
F25.0
sg292
VJUN 26, 1992
p1894
sg294
V7-1
p1895
sg296
VRudy Gobert
p1896
sg298
I1610612762
sg299
V27
p1897
sg301
g481
sg303
V00
p1898
sg305
g207
sg306
I203497
ssI203498
(dp1899
g49
VUCLA
p1900
sg51
V221
p1901
sg53
V2017
p1902
sg55
F24.0
sg56
VNOV 13, 1992
p1903
sg58
V6-6
p1904
sg60
VShabazz Muhammad
p1905
sg62
I1610612750
sg63
V15
p1906
sg65
g481
sg66
V00
p1907
sg68
VG-F
p1908
sg69
I203498
ssI203499
(dp1909
g435
VMiami (FL)
p1910
sg437
V175
p1911
sg439
V2017
p1912
sg441
F25.0
sg442
VOCT 02, 1992
p1913
sg444
V5-11
p1914
sg446
VShane Larkin
p1915
sg448
I1610612738
sg449
g590
sg451
g77
sg452
V00
p1916
sg454
g46
sg455
I203499
ssI203500
(dp1917
g403
VPittsburgh
p1918
sg405
V255
p1919
sg407
V2017
p1920
sg409
F24.0
sg410
VJUL 20, 1993
p1921
sg412
V7-0
p1922
sg414
VSteven Adams
p1923
sg416
I1610612760
sg417
V12
p1924
sg419
g481
sg421
V00
p1925
sg423
g207
sg424
I203500
ssI203501
(dp1926
g506
VMichigan
p1927
sg508
V205
p1928
sg510
V2017
p1929
sg512
F25.0
sg513
VMAR 16, 1992
p1930
sg515
V6-6
p1931
sg517
VTim Hardaway Jr.
p1932
sg519
I1610612752
sg520
g77
sg522
g481
sg523
V00
p1933
sg525
VF-G
p1934
sg526
I203501
ssI203503
(dp1935
g263
VNew Mexico
p1936
sg265
V221
p1937
sg267
V2017
p1938
sg269
F26.0
sg270
VNOV 10, 1991
p1939
sg272
V6-7
p1940
sg274
VTony Snell
p1941
sg276
I1610612749
sg277
V21
p1942
sg279
g481
sg280
V00
p1943
sg282
g46
sg283
I203503
ssI203505
(dp1944
g554
VMarquette
p1945
sg556
V200
p1946
sg558
V2017
p1947
sg560
F25.0
sg561
VJUL 17, 1992
p1948
sg563
V6-5
p1949
sg565
VVander Blue
p1950
sg567
I1610612747
sg568
V17
p1951
sg569
g42
sg570
V00
p1952
sg572
g46
sg573
I203505
ssI101106
(dp1953
g554
VUtah
p1954
sg556
V260
p1955
sg558
V2017
p1956
sg560
F32.0
sg561
VNOV 28, 1984
p1957
sg563
V7-0
p1958
sg565
VAndrew Bogut
p1959
sg567
I1610612747
sg568
V66
p1960
sg569
V12
p1961
sg570
V00
p1962
sg572
g207
sg573
I101106
ssI203507
(dp1963
g263
VGreece
p1964
sg265
V222
p1965
sg267
V2017
p1966
sg269
F22.0
sg270
VDEC 06, 1994
p1967
sg272
V6-11
p1968
sg274
VGiannis Antetokounmpo
p1969
sg276
I1610612749
sg277
V34
p1970
sg279
g481
sg280
V00
p1971
sg282
g79
sg283
I203507
ssI101108
(dp1972
g484
VWake Forest
p1973
sg486
V175
p1974
sg488
V2017
p1975
sg490
F32.0
sg491
VMAY 06, 1985
p1976
sg493
V6-0
p1977
sg495
VChris Paul
p1978
sg497
I1610612745
sg498
g77
sg499
V12
p1979
sg501
V00
p1980
sg503
g46
sg504
I101108
ssI101109
(dp1981
g403
VNorth Carolina
p1982
sg405
V205
p1983
sg407
V2017
p1984
sg409
F33.0
sg410
VJUN 26, 1984
p1985
sg412
V6-1
p1986
sg414
VRaymond Felton
p1987
sg416
I1610612760
sg417
g42
sg419
V12
p1988
sg421
V00
p1989
sg423
g46
sg424
I101109
ssI203512
(dp1990
g124
Nsg126
V220
p1991
sg128
V2017
p1992
sg130
F25.0
sg131
VJUL 26, 1992
p1993
sg133
V7-0
p1994
sg135
VLucas Nogueira
p1995
sg137
I1610612761
sg138
V92
p1996
sg140
g77
sg141
V00
p1997
sg143
g207
sg144
I203512
ssI203516
(dp1998
g103
VLong Beach State
p1999
sg105
V210
p2000
sg107
V2017
p2001
sg109
F27.0
sg110
VJUL 01, 1990
p2002
sg112
V6-7
p2003
sg114
VJames Ennis III
p2004
sg116
I1610612763
sg117
g590
sg118
g77
sg119
V00
p2005
sg121
g79
sg122
I203516
ssI203518
(dp2006
g403
Nsg405
V190
p2007
sg407
V2017
p2008
sg409
F24.0
sg410
VAUG 01, 1993
p2009
sg412
V6-6
p2010
sg414
VAlex Abrines
p2011
sg416
I1610612760
sg417
g590
sg419
g64
sg421
V00
p2012
sg423
g46
sg424
I203518
ssI203521
(dp2013
g263
VSaint Mary's (CA)
p2014
sg265
V198
p2015
sg267
V2017
p2016
sg269
F27.0
sg270
VSEP 08, 1990
p2017
sg272
V6-4
p2018
sg274
VMatthew Dellavedova
p2019
sg276
I1610612749
sg277
g590
sg279
g481
sg280
V00
p2020
sg282
g46
sg283
I203521
ssI203524
(dp2021
g950
VArizona
p2022
sg952
V225
p2023
sg954
V2017
p2024
sg956
F26.0
sg957
VMAR 18, 1991
p2025
sg959
V6-7
p2026
sg961
VSolomon Hill
p2027
sg963
I1610612740
sg964
V44
p2028
sg966
g481
sg967
V00
p2029
sg969
g79
sg970
I203524
ssI203526
(dp2030
g285
Nsg287
V179
p2031
sg289
V2017
p2032
sg291
F25.0
sg292
VMAY 19, 1992
p2033
sg294
V6-1
p2034
sg296
VRaul Neto
p2035
sg298
I1610612762
sg299
V25
p2036
sg301
g42
sg303
V00
p2037
sg305
g46
sg306
I203526
ssI101127
(dp2038
g506
VGeorgia Tech
p2039
sg508
V200
p2040
sg510
V2017
p2041
sg512
F34.0
sg513
VOCT 28, 1983
p2042
sg515
V6-3
p2043
sg517
VJarrett Jack
p2044
sg519
I1610612752
sg520
V55
p2045
sg522
V12
p2046
sg523
V00
p2047
sg525
g46
sg526
I101127
ssI203530
(dp2048
g146
Nsg148
V260
p2049
sg150
V2017
p2050
sg152
F26.0
sg153
VSEP 30, 1991
p2051
sg155
V6-11
p2052
sg157
VJoffrey Lauvergne
p2053
sg159
I1610612759
sg160
V77
p2054
sg162
g77
sg164
V00
p2055
sg166
g207
sg167
I203530
ssI101139
(dp2056
g124
VSkyline HS (TX)
p2057
sg126
V225
p2058
sg128
V2017
p2059
sg130
F30.0
sg131
VMAR 18, 1987
p2060
sg133
V6-6
p2061
sg135
VCJ Miles
p2062
sg137
I1610612761
sg138
g40
sg140
V12
p2063
sg141
V00
p2064
sg143
VF-G
p2065
sg144
I101139
ssI101141
(dp2066
g788
VEskisehir, Turkey
p2067
sg790
V235
p2068
sg792
V2017
p2069
sg794
F30.0
sg795
VMAY 15, 1987
p2070
sg797
V6-10
p2071
sg799
VErsan Ilyasova
p2072
sg801
I1610612737
sg802
g175
sg804
g718
sg805
V00
p2073
sg807
g79
sg809
I101141
ssI203546
(dp2074
g950
VBelmont
p2075
sg952
V175
p2076
sg954
V2017
p2077
sg956
F26.0
sg957
VMAR 07, 1991
p2078
sg959
V6-3
p2079
sg961
VIan Clark
p2080
sg963
I1610612740
sg964
g42
sg966
g481
sg967
V00
p2081
sg969
g46
sg970
I203546
ssI203547
(dp2082
g285
VCampbell
p2083
sg287
V205
p2084
sg289
V2017
p2085
sg291
F27.0
sg292
VMAY 26, 1990
p2086
sg294
V6-8
p2087
sg296
VEric Griffin
p2088
sg298
I1610612762
sg299
V17
p2089
sg301
g420
sg303
V00
p2090
sg305
VC-F
p2091
sg306
I203547
ssI101150
(dp2092
g81
VSouth Gwinnett HS (GA)
p2093
sg83
V175
p2094
sg85
V2017
p2095
sg87
F31.0
sg88
VOCT 27, 1986
p2096
sg90
V6-1
p2097
sg92
VLou Williams
p2098
sg94
I1610612746
sg95
V23
p2099
sg96
V12
p2100
sg97
V00
p2101
sg99
g46
sg101
I101150
ssI203552
(dp2102
g625
VDuke
p2103
sg627
V185
p2104
sg629
V2017
p2105
sg631
F27.0
sg632
VAUG 23, 1990
p2106
sg634
V6-2
p2107
sg636
VSeth Curry
p2108
sg638
I1610612742
sg639
V30
p2109
sg640
g481
sg642
V00
p2110
sg644
g46
sg645
I203552
ssI101181
(dp2111
g603
VVillanueva de la Serena, Spain
p2112
sg605
V200
p2113
sg607
V2017
p2114
sg609
F36.0
sg610
VSEP 28, 1981
p2115
sg612
V6-3
p2116
sg614
VJose Calderon
p2117
sg616
I1610612739
sg617
V81
p2118
sg619
V12
p2119
sg620
V00
p2120
sg622
g46
sg623
I101181
ssI203585
(dp2121
g209
VKansas State
p2122
sg211
V200
p2123
sg213
V2017
p2124
sg215
F26.0
sg216
VJUL 29, 1991
p2125
sg218
V6-4
p2126
sg220
VRodney McGruder
p2127
sg222
I1610612748
sg223
V17
p2128
sg225
g64
sg226
V00
p2129
sg228
VG-F
p2130
sg229
I203585
ssI201563
(dp2131
g506
VKansas State
p2132
sg508
V235
p2133
sg510
V2017
p2134
sg512
F28.0
sg513
VJAN 09, 1989
p2135
sg515
V6-9
p2136
sg517
VMichael Beasley
p2137
sg519
I1610612752
sg520
g590
sg522
g718
sg523
V00
p2138
sg525
g79
sg526
I201563
ssI201565
(dp2139
g603
VMemphis
p2140
sg605
V190
p2141
sg607
V2017
p2142
sg609
F29.0
sg610
VOCT 04, 1988
p2143
sg612
V6-3
p2144
sg614
VDerrick Rose
p2145
sg616
I1610612739
sg617
g64
sg619
g590
sg620
V00
p2146
sg622
g46
sg623
I201565
ssI201566
(dp2147
g403
VUCLA
p2148
sg405
V200
p2149
sg407
V2017
p2150
sg409
F28.0
sg410
VNOV 12, 1988
p2151
sg412
V6-3
p2152
sg414
VRussell Westbrook
p2153
sg416
I1610612760
sg417
g40
sg419
g718
sg421
V00
p2154
sg423
g46
sg424
I201566
ssI201567
(dp2155
g603
VUCLA
p2156
sg605
V251
p2157
sg607
V2017
p2158
sg609
F29.0
sg610
VSEP 07, 1988
p2159
sg612
V6-10
p2160
sg614
VKevin Love
p2161
sg616
I1610612739
sg617
g40
sg619
g718
sg620
V00
p2162
sg622
VF-C
p2163
sg623
I201567
ssI201568
(dp2164
g81
VSant'Angelo Lodigiano, Italy
p2165
sg83
V225
p2166
sg85
V2017
p2167
sg87
F29.0
sg88
VAUG 08, 1988
p2168
sg90
V6-10
p2169
sg92
VDanilo Gallinari
p2170
sg94
I1610612746
sg95
g590
sg96
g590
sg97
V00
p2171
sg99
g79
sg101
I201568
ssI201569
(dp2172
g484
VIndiana
p2173
sg486
V215
p2174
sg488
V2017
p2175
sg490
F28.0
sg491
VDEC 25, 1988
p2176
sg493
V6-4
p2177
sg495
VEric Gordon
p2178
sg497
I1610612745
sg498
V10
p2179
sg499
g718
sg501
V00
p2180
sg503
g46
sg504
I201569
ssI201571
(dp2181
g2
VTexas
p2182
sg4
V183
p2183
sg6
V2017
p2184
sg8
F30.0
sg9
VNOV 10, 1987
p2185
sg11
V6-0
p2186
sg13
VD.J. Augustin
p2187
sg15
I1610612753
sg16
V14
p2188
sg18
g718
sg20
V00
p2189
sg22
g46
sg24
I201571
ssI201572
(dp2190
g554
VStanford
p2191
sg556
V268
p2192
sg558
V2017
p2193
sg560
F29.0
sg561
VAPR 01, 1988
p2194
sg563
V7-0
p2195
sg565
VBrook Lopez
p2196
sg567
I1610612747
sg568
V11
p2197
sg569
g718
sg570
V00
p2198
sg572
g207
sg573
I201572
ssI201577
(dp2199
g308
VStanford
p2200
sg310
V277
p2201
sg312
V2017
p2202
sg314
F29.0
sg315
VAPR 01, 1988
p2203
sg317
V7-0
p2204
sg319
VRobin Lopez
p2205
sg321
I1610612741
sg322
V42
p2206
sg324
g718
sg325
V00
p2207
sg327
g207
sg328
I201577
ssI201578
(dp2208
g2
VFlorida
p2209
sg4
V255
p2210
sg6
V2017
p2211
sg8
F30.0
sg9
VAUG 04, 1987
p2212
sg11
V6-10
p2213
sg13
VMarreese Speights
p2214
sg15
I1610612753
sg16
g19
sg18
g718
sg20
V00
p2215
sg22
VF-C
p2216
sg24
I201578
ssI201580
(dp2217
g354
VNevada
p2218
sg356
V270
p2219
sg358
V2017
p2220
sg360
F29.0
sg361
VJAN 19, 1988
p2221
sg363
V7-0
p2222
sg365
VJaVale McGee
p2223
sg367
I1610612744
sg368
g64
sg369
g718
sg370
V00
p2224
sg372
g207
sg373
I201580
ssI201582
(dp2225
g950
VSaint Etienne, France
p2226
sg952
V248
p2227
sg954
V2017
p2228
sg956
F29.0
sg957
VMAY 06, 1988
p2229
sg959
V7-2
p2230
sg961
VAlexis Ajinca
p2231
sg963
I1610612740
sg964
V42
p2232
sg966
g175
sg967
V00
p2233
sg969
g207
sg970
I201582
ssI201583
(dp2234
g484
VCalifornia
p2235
sg486
V240
p2236
sg488
V2017
p2237
sg490
F29.0
sg491
VMAY 06, 1988
p2238
sg493
V6-10
p2239
sg495
VRyan Anderson
p2240
sg497
I1610612745
sg498
V33
p2241
sg499
g718
sg501
V00
p2242
sg503
g79
sg504
I201583
ssI201584
(dp2243
g506
VWestern Kentucky
p2244
sg508
V200
p2245
sg510
V2017
p2246
sg512
F32.0
sg513
VOCT 03, 1985
p2247
sg515
V6-5
p2248
sg517
VCourtney Lee
p2249
sg519
I1610612752
sg520
g19
sg522
g718
sg523
V00
p2250
sg525
g46
sg526
I201584
ssI201585
(dp2251
g241
VOhio State
p2252
sg243
V265
p2253
sg245
V2017
p2254
sg247
F28.0
sg248
VFEB 24, 1989
p2255
sg250
V7-0
p2256
sg252
VKosta Koufos
p2257
sg254
I1610612758
sg255
V41
p2258
sg257
g718
sg258
V00
p2259
sg260
g207
sg261
I201585
ssI201586
(dp2260
g124
VBrazzaville, Rep. of Congo
p2261
sg126
V235
p2262
sg128
V2017
p2263
sg130
F28.0
sg131
VSEP 18, 1989
p2264
sg133
V6-10
p2265
sg135
VSerge Ibaka
p2266
sg137
I1610612761
sg138
g718
sg140
g590
sg141
V00
p2267
sg143
g79
sg144
I201586
ssI201588
(dp2268
g241
VIndiana Purdue-Indianapolis
p2269
sg243
V188
p2270
sg245
V2017
p2271
sg247
F31.0
sg248
VMAY 04, 1986
p2272
sg250
V6-3
p2273
sg252
VGeorge Hill
p2274
sg254
I1610612758
sg255
g77
sg257
g718
sg258
V00
p2275
sg260
g46
sg261
I201588
ssI201589
(dp2276
g26
VKansas
p2277
sg27
V235
p2278
sg29
V2017
p2279
sg31
F29.0
sg32
VMAR 25, 1988
p2280
sg34
V6-9
p2281
sg36
VDarrell Arthur
p2282
sg38
I1610612743
sg39
V00
p2283
sg41
g590
sg43
V00
p2284
sg45
g79
sg47
I201589
ssI201596
(dp2285
g103
VKansas
p2286
sg105
V190
p2287
sg107
V2017
p2288
sg109
F31.0
sg110
VMAY 19, 1986
p2289
sg112
V6-2
p2290
sg114
VMario Chalmers
p2291
sg116
I1610612763
sg117
g500
sg118
g590
sg119
V00
p2292
sg121
g46
sg122
I201596
ssI201599
(dp2293
g81
VTexas A&M
p2294
sg83
V265
p2295
sg85
V2017
p2296
sg87
F29.0
sg88
VJUL 21, 1988
p2297
sg90
V6-11
p2298
sg92
VDeAndre Jordan
p2299
sg94
I1610612746
sg95
g500
sg96
g718
sg97
V00
p2300
sg99
g207
sg101
I201599
ssI201600
(dp2301
g950
VTurkey
p2302
sg952
V255
p2303
sg954
V2017
p2304
sg956
F31.0
sg957
VJUL 04, 1986
p2305
sg959
V7-0
p2306
sg961
VOmer Asik
p2307
sg963
I1610612740
sg964
g77
sg966
g175
sg967
V00
p2308
sg969
g207
sg970
I201600
ssI201601
(dp2309
g484
VUCLA
p2310
sg486
V230
p2311
sg488
V2017
p2312
sg490
F31.0
sg491
VSEP 09, 1986
p2313
sg493
V6-8
p2314
sg495
VLuc Mbah a Moute
p2315
sg497
I1610612745
sg498
V12
p2316
sg499
g718
sg501
V00
p2317
sg503
g79
sg504
I201601
ssI201609
(dp2318
g209
VLjubljana, Slovenia
p2319
sg211
V190
p2320
sg213
V2017
p2321
sg215
F31.0
sg216
VMAY 06, 1986
p2322
sg218
V6-3
p2323
sg220
VGoran Dragic
p2324
sg222
I1610612748
sg223
g175
sg225
g718
sg226
V00
p2325
sg228
g46
sg229
I201609
ssI201628
(dp2326
g484
VCal State-Fullerton
p2327
sg486
V175
p2328
sg488
V2017
p2329
sg490
F33.0
sg491
VSEP 24, 1984
p2330
sg493
V6-2
p2331
sg495
VBobby Brown
p2332
sg497
I1610612745
sg498
g500
sg499
g77
sg501
V00
p2333
sg503
g46
sg504
I201628
ssI203705
(dp2334
g788
VAlabama-Huntsville
p2335
sg790
V160
p2336
sg792
V2017
p2337
sg794
F27.0
sg795
VNOV 28, 1989
p2338
sg797
V6-1
p2339
sg799
VJosh Magette
p2340
sg801
I1610612737
sg802
V11
p2341
sg804
g420
sg805
V00
p2342
sg807
g46
sg809
I203705
ssI203710
(dp2343
g81
VNorth Carolina State
p2344
sg83
V230
p2345
sg85
V2017
p2346
sg87
F27.0
sg88
VFEB 06, 1990
p2347
sg90
V6-5
p2348
sg92
VC.J. Williams
p2349
sg94
I1610612746
sg95
g718
sg96
g420
sg97
V00
p2350
sg99
g46
sg101
I203710
ssI1627098
(dp2351
g788
VVirginia Tech
p2352
sg790
V190
p2353
sg792
V2017
p2354
sg794
F28.0
sg795
VMAR 11, 1989
p2355
sg797
V6-3
p2356
sg799
VMalcolm Delaney
p2357
sg801
I1610612737
sg802
g19
sg804
g64
sg805
V00
p2358
sg807
g46
sg809
I1627098
ssI203613
(dp2359
g2
VHouston
p2360
sg4
V195
p2361
sg6
V2017
p2362
sg8
F28.0
sg9
VSEP 14, 1989
p2363
sg11
V6-6
p2364
sg13
VJonathon Simmons
p2365
sg15
I1610612753
sg16
V17
p2366
sg18
g42
sg20
V00
p2367
sg22
g79
sg24
I203613
ssI203897
(dp2368
g308
VUCLA
p2369
sg310
V185
p2370
sg312
V2017
p2371
sg314
F22.0
sg315
VMAR 10, 1995
p2372
sg317
V6-5
p2373
sg319
VZach LaVine
p2374
sg321
I1610612741
sg322
g590
sg324
g77
sg325
V00
p2375
sg327
g46
sg328
I203897
ssI203898
(dp2376
g554
VSyracuse
p2377
sg556
V194
p2378
sg558
V2017
p2379
sg560
F23.0
sg561
VAUG 24, 1994
p2380
sg563
V6-3
p2381
sg565
VTyler Ennis
p2382
sg567
I1610612747
sg568
V10
p2383
sg569
g77
sg570
V00
p2384
sg572
g46
sg573
I203898
ssI203901
(dp2385
g2
VLouisiana-Lafayette
p2386
sg4
V185
p2387
sg6
V2017
p2388
sg8
F23.0
sg9
VFEB 22, 1994
p2389
sg11
V6-4
p2390
sg13
VElfrid Payton
p2391
sg15
I1610612753
sg16
g42
sg18
g77
sg20
V00
p2392
sg22
g46
sg24
I203901
ssI203903
(dp2393
g554
VMissouri
p2394
sg556
V194
p2395
sg558
V2017
p2396
sg560
F25.0
sg561
VJUN 07, 1992
p2397
sg563
V6-5
p2398
sg565
VJordan Clarkson
p2399
sg567
I1610612747
sg568
g500
sg569
g77
sg570
V00
p2400
sg572
g46
sg573
I203903
ssI203914
(dp2401
g26
VMichigan State
p2402
sg27
V210
p2403
sg29
V2017
p2404
sg31
F23.0
sg32
VSEP 14, 1994
p2405
sg34
V6-4
p2406
sg36
VGary Harris
p2407
sg38
I1610612743
sg39
V14
p2408
sg41
g77
sg43
V00
p2409
sg45
g46
sg47
I203914
ssI203915
(dp2410
g178
VColorado
p2411
sg180
V200
p2412
sg182
V2017
p2413
sg184
F24.0
sg185
VAPR 06, 1993
p2414
sg187
V6-6
p2415
sg189
VSpencer Dinwiddie
p2416
sg191
I1610612751
sg192
g590
sg193
g77
sg194
V00
p2417
sg196
g46
sg197
I203915
ssI203918
(dp2418
g285
VDuke
p2419
sg287
V206
p2420
sg289
V2017
p2421
sg291
F25.0
sg292
VOCT 20, 1992
p2422
sg294
V6-8
p2423
sg296
VRodney Hood
p2424
sg298
I1610612762
sg299
g19
sg301
g77
sg303
V00
p2425
sg305
g46
sg306
I203918
ssI203920
(dp2426
g2
VNevada-Las Vegas
p2427
sg4
V220
p2428
sg6
V2017
p2429
sg8
F25.0
sg9
VSEP 28, 1992
p2430
sg11
V6-9
p2431
sg13
VKhem Birch
p2432
sg15
I1610612753
sg16
V24
p2433
sg18
g420
sg20
V00
p2434
sg22
g207
sg24
I203920
ssI203924
(dp2435
g403
VSyracuse
p2436
sg405
V220
p2437
sg407
V2017
p2438
sg409
F23.0
sg410
VMAR 12, 1994
p2439
sg412
V6-9
p2440
sg414
VJerami Grant
p2441
sg416
I1610612760
sg417
g718
sg419
g77
sg421
V00
p2442
sg423
g79
sg424
I203924
ssI203925
(dp2443
g178
VVirginia
p2444
sg180
V219
p2445
sg182
V2017
p2446
sg184
F26.0
sg185
VSEP 06, 1991
p2447
sg187
V6-6
p2448
sg189
VJoe Harris
p2449
sg191
I1610612751
sg192
V12
p2450
sg193
g77
sg194
V00
p2451
sg196
g46
sg197
I203925
ssI203926
(dp2452
g506
VCreighton
p2453
sg508
V219
p2454
sg510
V2017
p2455
sg512
F25.0
sg513
VJAN 03, 1992
p2456
sg515
V6-8
p2457
sg517
VDoug McDermott
p2458
sg519
I1610612752
sg520
V20
p2459
sg522
g77
sg523
V00
p2460
sg525
g79
sg526
I203926
ssI203930
(dp2461
g178
VCincinnati
p2462
sg180
V212
p2463
sg182
V2017
p2464
sg184
F27.0
sg185
VJAN 06, 1990
p2465
sg187
V6-4
p2466
sg189
VSean Kilpatrick
p2467
sg191
I1610612751
sg192
g500
sg193
g77
sg194
V00
p2468
sg196
g46
sg197
I203930
ssI203932
(dp2469
g2
VArizona
p2470
sg4
V220
p2471
sg6
V2017
p2472
sg8
F22.0
sg9
VSEP 16, 1995
p2473
sg11
V6-9
p2474
sg13
VAaron Gordon
p2475
sg15
I1610612753
sg16
V00
p2476
sg18
g77
sg20
V00
p2477
sg22
g79
sg24
I203932
ssI203935
(dp2478
g435
VOklahoma State
p2479
sg437
V220
p2480
sg439
V2017
p2481
sg441
F23.0
sg442
VMAR 06, 1994
p2482
sg444
V6-4
p2483
sg446
VMarcus Smart
p2484
sg448
I1610612738
sg449
V36
p2485
sg451
g77
sg452
V00
p2486
sg454
g46
sg455
I203935
ssI203937
(dp2487
g146
VUCLA
p2488
sg148
V230
p2489
sg150
V2017
p2490
sg152
F24.0
sg153
VSEP 20, 1993
p2491
sg155
V6-9
p2492
sg157
VKyle Anderson
p2493
sg159
I1610612759
sg160
g64
sg162
g77
sg164
V00
p2494
sg166
g79
sg167
I203937
ssI203939
(dp2495
g625
VStanford
p2496
sg627
V240
p2497
sg629
V2017
p2498
sg631
F26.0
sg632
VJUL 20, 1991
p2499
sg634
V6-11
p2500
sg636
VDwight Powell
p2501
sg638
I1610612742
sg639
g175
sg640
g77
sg642
V00
p2502
sg644
VF-C
p2503
sg645
I203939
ssI203940
(dp2504
g2
VMichigan State
p2505
sg4
V237
p2506
sg6
V2017
p2507
sg8
F26.0
sg9
VFEB 19, 1991
p2508
sg11
V6-10
p2509
sg13
VAdreian Payne
p2510
sg15
I1610612753
sg16
V33
p2511
sg18
g77
sg20
V00
p2512
sg22
g79
sg24
I203940
ssI203944
(dp2513
g554
VKentucky
p2514
sg556
V250
p2515
sg558
V2017
p2516
sg560
F22.0
sg561
VNOV 29, 1994
p2517
sg563
V6-9
p2518
sg565
VJulius Randle
p2519
sg567
I1610612747
sg568
V30
p2520
sg569
g77
sg570
V00
p2521
sg572
VF-C
p2522
sg573
I203944
ssI203952
(dp2523
g49
VKansas
p2524
sg51
V202
p2525
sg53
V2017
p2526
sg55
F22.0
sg56
VFEB 23, 1995
p2527
sg58
V6-8
p2528
sg60
VAndrew Wiggins
p2529
sg62
I1610612750
sg63
V22
p2530
sg65
g77
sg66
V00
p2531
sg68
g79
sg69
I203952
ssI203953
(dp2532
g263
VDuke
p2533
sg265
V250
p2534
sg267
V2017
p2535
sg269
F22.0
sg270
VMAR 15, 1995
p2536
sg272
V6-8
p2537
sg274
VJabari Parker
p2538
sg276
I1610612749
sg277
V12
p2539
sg279
g77
sg280
V00
p2540
sg282
g79
sg283
I203953
ssI203957
(dp2541
g285
Nsg287
V190
p2542
sg289
V2017
p2543
sg291
F22.0
sg292
VJUL 13, 1995
p2544
sg294
V6-6
p2545
sg296
VDante Exum
p2546
sg298
I1610612762
sg299
V11
p2547
sg301
g42
sg303
V00
p2548
sg305
g46
sg306
I203957
ssI203960
(dp2549
g241
VSt. John's (NY)
p2550
sg243
V207
p2551
sg245
V2017
p2552
sg247
F24.0
sg248
VMAR 20, 1993
p2553
sg250
V6-9
p2554
sg252
VJaKarr Sampson
p2555
sg254
I1610612758
sg255
V29
p2556
sg257
g42
sg258
V00
p2557
sg260
g79
sg261
I203960
ssI203962
(dp2558
g403
VStanford
p2559
sg405
V230
p2560
sg407
V2017
p2561
sg409
F25.0
sg410
VDEC 19, 1991
p2562
sg412
V6-7
p2563
sg414
VJosh Huestis
p2564
sg416
I1610612760
sg417
V34
p2565
sg419
g42
sg421
V00
p2566
sg423
g79
sg424
I203962
ssI203966
(dp2567
g81
VMarquette
p2568
sg83
V229
p2569
sg85
V2017
p2570
sg87
F26.0
sg88
VNOV 21, 1990
p2571
sg90
V6-7
p2572
sg92
VJamil Wilson
p2573
sg94
I1610612746
sg95
V13
p2574
sg96
g420
sg97
V00
p2575
sg99
g79
sg101
I203966
ssI201933
(dp2576
g81
VOklahoma
p2577
sg83
V251
p2578
sg85
V2017
p2579
sg87
F28.0
sg88
VMAR 16, 1989
p2580
sg90
V6-10
p2581
sg92
VBlake Griffin
p2582
sg94
I1610612746
sg95
V32
p2583
sg96
g175
sg97
V00
p2584
sg99
g79
sg101
I201933
ssI201935
(dp2585
g484
VArizona State
p2586
sg486
V220
p2587
sg488
V2017
p2588
sg490
F28.0
sg491
VAUG 26, 1989
p2589
sg493
V6-5
p2590
sg495
VJames Harden
p2591
sg497
I1610612745
sg498
V13
p2592
sg499
g590
sg501
V00
p2593
sg503
g46
sg504
I201935
ssI201936
(dp2594
g103
VMemphis
p2595
sg105
V220
p2596
sg107
V2017
p2597
sg109
F28.0
sg110
VSEP 19, 1989
p2598
sg112
V6-6
p2599
sg114
VTyreke Evans
p2600
sg116
I1610612763
sg117
V12
p2601
sg118
g590
sg119
V00
p2602
sg121
VG-F
p2603
sg122
I201936
ssI201937
(dp2604
g285
VEl Masnou, Spain
p2605
sg287
V190
p2606
sg289
V2017
p2607
sg291
F27.0
sg292
VOCT 21, 1990
p2608
sg294
V6-4
p2609
sg296
VRicky Rubio
p2610
sg298
I1610612762
sg299
g77
sg301
g500
sg303
V00
p2611
sg305
g46
sg306
I201937
ssI201939
(dp2612
g354
VDavidson
p2613
sg356
V190
p2614
sg358
V2017
p2615
sg360
F29.0
sg361
VMAR 14, 1988
p2616
sg363
V6-3
p2617
sg365
VStephen Curry
p2618
sg367
I1610612744
sg368
V30
p2619
sg369
g590
sg370
V00
p2620
sg372
g46
sg373
I201939
ssI201942
(dp2621
g124
VSouthern California
p2622
sg126
V220
p2623
sg128
V2017
p2624
sg130
F28.0
sg131
VAUG 07, 1989
p2625
sg133
V6-7
p2626
sg135
VDeMar DeRozan
p2627
sg137
I1610612761
sg138
V10
p2628
sg140
g590
sg141
V00
p2629
sg143
g46
sg144
I201942
ssI203991
(dp2630
g484
Nsg486
V240
p2631
sg488
V2017
p2632
sg490
F23.0
sg491
VMAY 18, 1994
p2633
sg493
V6-10
p2634
sg495
VClint Capela
p2635
sg497
I1610612745
sg498
V15
p2636
sg499
g77
sg501
V00
p2637
sg503
g207
sg504
I203991
ssI203992
(dp2638
g241
Nsg243
V205
p2639
sg245
V2017
p2640
sg247
F25.0
sg248
VAUG 18, 1992
p2641
sg250
V6-6
p2642
sg252
VBogdan Bogdanovic
p2643
sg254
I1610612758
sg255
g590
sg257
g420
sg258
V00
p2644
sg260
g46
sg261
I203992
ssI201949
(dp2645
g209
VWake Forest
p2646
sg211
V240
p2647
sg213
V2017
p2648
sg215
F30.0
sg216
VFEB 20, 1987
p2649
sg218
V6-8
p2650
sg220
VJames Johnson
p2651
sg222
I1610612748
sg223
V16
p2652
sg225
g590
sg226
V00
p2653
sg228
g79
sg229
I201949
ssI201950
(dp2654
g950
VUCLA
p2655
sg952
V205
p2656
sg954
V2017
p2657
sg956
F27.0
sg957
VJUN 12, 1990
p2658
sg959
V6-4
p2659
sg961
VJrue Holiday
p2660
sg963
I1610612740
sg964
V11
p2661
sg966
g590
sg967
V00
p2662
sg969
g46
sg970
I201950
ssI203999
(dp2663
g26
Nsg27
V250
p2664
sg29
V2017
p2665
sg31
F22.0
sg32
VFEB 19, 1995
p2666
sg34
V6-10
p2667
sg36
VNikola Jokic
p2668
sg38
I1610612743
sg39
V15
p2669
sg41
g42
sg43
V00
p2670
sg45
g207
sg47
I203999
ssI201952
(dp2671
g49
VWake Forest
p2672
sg51
V189
p2673
sg53
V2017
p2674
sg55
F29.0
sg56
VJUN 10, 1988
p2675
sg58
V6-2
p2676
sg60
VJeff Teague
p2677
sg62
I1610612750
sg63
g40
sg65
g590
sg66
V00
p2678
sg68
g46
sg69
I201952
ssI204001
(dp2679
g506
Nsg508
V240
p2680
sg510
V2017
p2681
sg512
F22.0
sg513
VAUG 02, 1995
p2682
sg515
V7-3
p2683
sg517
VKristaps Porzingis
p2684
sg519
I1610612752
sg520
g500
sg522
g42
sg523
V00
p2685
sg525
VF-C
p2686
sg526
I204001
ssI1627362
(dp2687
g484
VVirginia Commonwealth
p2688
sg486
V165
p2689
sg488
V2017
p2690
sg490
F24.0
sg491
VDEC 29, 1992
p2691
sg493
V6-2
p2692
sg495
VBriante Weber
p2693
sg497
I1610612745
sg498
g40
sg499
g42
sg501
V00
p2694
sg503
g46
sg504
I1627362
ssI201956
(dp2695
g354
VYavne, Israel
p2696
sg356
V225
p2697
sg358
V2017
p2698
sg360
F29.0
sg361
VJUN 22, 1988
p2699
sg363
V6-9
p2700
sg365
VOmri Casspi
p2701
sg367
I1610612744
sg368
V18
p2702
sg369
g590
sg370
V00
p2703
sg372
g79
sg373
I201956
ssI201959
(dp2704
g49
VSouthern California
p2705
sg51
V235
p2706
sg53
V2017
p2707
sg55
F32.0
sg56
VJUN 24, 1985
p2708
sg58
V6-9
p2709
sg60
VTaj Gibson
p2710
sg62
I1610612750
sg63
V67
p2711
sg65
g590
sg66
V00
p2712
sg68
g79
sg69
I201959
ssI201960
(dp2713
g178
VMissouri
p2714
sg180
V215
p2715
sg182
V2017
p2716
sg184
F31.0
sg185
VJUL 27, 1986
p2717
sg187
V6-8
p2718
sg189
VDeMarre Carroll
p2719
sg191
I1610612751
sg192
g718
sg193
g590
sg194
V00
p2720
sg196
g79
sg197
I201960
ssI201961
(dp2721
g209
VNorth Carolina
p2722
sg211
V200
p2723
sg213
V2017
p2724
sg215
F29.0
sg216
VNOV 29, 1987
p2725
sg218
V6-5
p2726
sg220
VWayne Ellington
p2727
sg222
I1610612748
sg223
g42
sg225
g590
sg226
V00
p2728
sg228
g46
sg229
I201961
ssI201967
(dp2729
g950
VVillanova
p2730
sg952
V230
p2731
sg954
V2017
p2732
sg956
F30.0
sg957
VAPR 22, 1987
p2733
sg959
V6-8
p2734
sg961
VDante Cunningham
p2735
sg963
I1610612740
sg964
V33
p2736
sg966
g590
sg967
V00
p2737
sg969
g79
sg970
I201967
ssI204020
(dp2738
g209
VFresno State
p2739
sg211
V190
p2740
sg213
V2017
p2741
sg215
F25.0
sg216
VMAY 07, 1992
p2742
sg218
V6-4
p2743
sg220
VTyler Johnson
p2744
sg222
I1610612748
sg223
g590
sg225
g77
sg226
V00
p2745
sg228
g46
sg229
I204020
ssI201973
(dp2746
g285
VKinna, Sweden
p2747
sg287
V231
p2748
sg289
V2017
p2749
sg291
F30.0
sg292
VMAR 02, 1987
p2750
sg294
V6-10
p2751
sg296
VJonas Jerebko
p2752
sg298
I1610612762
sg299
g590
sg301
g175
sg303
V00
p2753
sg305
g79
sg306
I201973
ssI204022
(dp2754
g241
VNotre Dame
p2755
sg243
V274
p2756
sg245
V2017
p2757
sg247
F26.0
sg248
VAPR 12, 1991
p2758
sg250
V6-10
p2759
sg252
VJack Cooley
p2760
sg254
I1610612758
sg255
V45
p2761
sg257
g64
sg258
V00
p2762
sg260
g207
sg261
I204022
ssI201976
(dp2763
g81
VArkansas
p2764
sg83
V185
p2765
sg85
V2017
p2766
sg87
F29.0
sg88
VJUL 12, 1988
p2767
sg90
V6-1
p2768
sg92
VPatrick Beverley
p2769
sg94
I1610612746
sg95
V21
p2770
sg96
g19
sg97
V00
p2771
sg99
g46
sg101
I201976
ssI201980
(dp2772
g146
VNorth Carolina
p2773
sg148
V215
p2774
sg150
V2017
p2775
sg152
F30.0
sg153
VJUN 22, 1987
p2776
sg155
V6-6
p2777
sg157
VDanny Green
p2778
sg159
I1610612759
sg160
V14
p2779
sg162
g590
sg164
V00
p2780
sg166
VG-F
p2781
sg167
I201980
ssI201988
(dp2782
g146
VSaint Mary's (CA)
p2783
sg148
V185
p2784
sg150
V2017
p2785
sg152
F29.0
sg153
VAUG 11, 1988
p2786
sg155
V6-0
p2787
sg157
VPatty Mills
p2788
sg159
I1610612759
sg160
g590
sg162
g590
sg164
V00
p2789
sg166
g46
sg167
I201988
ssI204060
(dp2790
g285
Nsg287
V226
p2791
sg289
V2017
p2792
sg291
F30.0
sg292
VOCT 02, 1987
p2793
sg294
V6-8
p2794
sg296
VJoe Ingles
p2795
sg298
I1610612762
sg299
g42
sg301
g77
sg303
V00
p2796
sg305
g79
sg306
I204060
ssI204066
(dp2797
g603
VBoston U.
p2798
sg605
V205
p2799
sg607
V2017
p2800
sg609
F29.0
sg610
VNOV 06, 1988
p2801
sg612
V6-5
p2802
sg614
VJohn Holland
p2803
sg616
I1610612739
sg617
V10
p2804
sg619
g64
sg620
V00
p2805
sg622
VG-F
p2806
sg623
I204066
ssI203998
(dp2807
g124
Nsg126
V205
p2808
sg128
V2017
p2809
sg130
F22.0
sg131
VSEP 21, 1995
p2810
sg133
V6-9
p2811
sg135
VBruno Caboclo
p2812
sg137
I1610612761
sg138
g19
sg140
g77
sg141
V00
p2813
sg143
g79
sg144
I203998
ssI202066
(dp2814
g241
VLouisiana State
p2815
sg243
V195
p2816
sg245
V2017
p2817
sg247
F31.0
sg248
VMAY 08, 1986
p2818
sg250
V6-6
p2819
sg252
VGarrett Temple
p2820
sg254
I1610612758
sg255
V17
p2821
sg257
g175
sg258
V00
p2822
sg260
g46
sg261
I202066
ssI202083
(dp2823
g625
VMarquette
p2824
sg627
V220
p2825
sg629
V2017
p2826
sg631
F31.0
sg632
VOCT 14, 1986
p2827
sg634
V6-5
p2828
sg636
VWesley Matthews
p2829
sg638
I1610612742
sg639
V23
p2830
sg640
g590
sg642
V00
p2831
sg644
VG-F
p2832
sg645
I202083
ssI204028
(dp2833
g484
VKansas
p2834
sg486
V250
p2835
sg488
V2017
p2836
sg490
F25.0
sg491
VNOV 22, 1991
p2837
sg493
V6-9
p2838
sg495
VTarik Black
p2839
sg497
I1610612745
sg498
V28
p2840
sg499
g77
sg501
V00
p2841
sg503
VF-C
p2842
sg504
I204028
ssI202330
(dp2843
g435
VButler
p2844
sg437
V226
p2845
sg439
V2017
p2846
sg441
F27.0
sg442
VMAR 23, 1990
p2847
sg444
V6-8
p2848
sg446
VGordon Hayward
p2849
sg448
I1610612738
sg449
V20
p2850
sg451
g175
sg452
V00
p2851
sg454
g79
sg455
I202330
ssI202331
(dp2852
g403
VFresno State
p2853
sg405
V220
p2854
sg407
V2017
p2855
sg409
F27.0
sg410
VMAY 02, 1990
p2856
sg412
V6-9
p2857
sg414
VPaul George
p2858
sg416
I1610612760
sg417
V13
p2859
sg419
g175
sg421
V00
p2860
sg423
g79
sg424
I202331
ssI1627743
(dp2861
g484
VNotre Dame
p2862
sg486
V201
p2863
sg488
V2017
p2864
sg490
F23.0
sg491
VSEP 07, 1994
p2865
sg493
V6-1
p2866
sg495
VDemetrius Jackson
p2867
sg497
I1610612745
sg498
g42
sg499
g64
sg501
V00
p2868
sg503
g46
sg504
I1627743
ssI1627745
(dp2869
g354
VVanderbilt
p2870
sg356
V245
p2871
sg358
V2017
p2872
sg360
F22.0
sg361
VJUN 30, 1995
p2873
sg363
V7-0
p2874
sg365
VDamian Jones
p2875
sg367
I1610612744
sg368
V15
p2876
sg369
g64
sg370
V00
p2877
sg372
g207
sg373
I1627745
ssI1627747
(dp2878
g178
VMichigan
p2879
sg180
V203
p2880
sg182
V2017
p2881
sg184
F23.0
sg185
VAUG 25, 1994
p2882
sg187
V6-7
p2883
sg189
VCaris LeVert
p2884
sg191
I1610612751
sg192
V22
p2885
sg193
g64
sg194
V00
p2886
sg196
VG-F
p2887
sg197
I1627747
ssI202324
(dp2888
g285
VGeorgia Tech
p2889
sg287
V265
p2890
sg289
V2017
p2891
sg291
F26.0
sg292
VJUL 15, 1991
p2892
sg294
V6-10
p2893
sg296
VDerrick Favors
p2894
sg298
I1610612762
sg299
V15
p2895
sg301
g175
sg303
V00
p2896
sg305
VF-C
p2897
sg306
I202324
ssI202325
(dp2898
g81
VSyracuse
p2899
sg83
V215
p2900
sg85
V2017
p2901
sg87
F30.0
sg88
VJUL 11, 1987
p2902
sg90
V6-7
p2903
sg92
VWesley Johnson
p2904
sg94
I1610612746
sg95
V33
p2905
sg96
g175
sg97
V00
p2906
sg99
g79
sg101
I202325
ssI202326
(dp2907
g950
VKentucky
p2908
sg952
V270
p2909
sg954
V2017
p2910
sg956
F27.0
sg957
VAUG 13, 1990
p2911
sg959
V6-11
p2912
sg961
VDeMarcus Cousins
p2913
sg963
I1610612740
sg964
g40
sg966
g175
sg967
V00
p2914
sg969
g207
sg970
I202326
ssI202327
(dp2915
g285
VBaylor
p2916
sg287
V245
p2917
sg289
V2017
p2918
sg291
F30.0
sg292
VMAY 20, 1987
p2919
sg294
V6-10
p2920
sg296
VEkpe Udoh
p2921
sg298
I1610612762
sg299
V33
p2922
sg301
g19
sg303
V00
p2923
sg305
VC-F
p2924
sg306
I202327
ssI1627736
(dp2925
g26
VFlorida State
p2926
sg27
V196
p2927
sg29
V2017
p2928
sg31
F20.0
sg32
VNOV 26, 1996
p2929
sg34
V6-5
p2930
sg36
VMalik Beasley
p2931
sg38
I1610612743
sg39
V25
p2932
sg41
g64
sg43
V00
p2933
sg45
g46
sg47
I1627736
ssI1627738
(dp2934
g103
VMichigan State
p2935
sg105
V237
p2936
sg107
V2017
p2937
sg109
F20.0
sg110
VDEC 02, 1996
p2938
sg112
V6-11
p2939
sg114
VDeyonta Davis
p2940
sg116
I1610612763
sg117
V21
p2941
sg118
g64
sg119
V00
p2942
sg121
VC-F
p2943
sg122
I1627738
ssI1627739
(dp2944
g308
VProvidence
p2945
sg310
V210
p2946
sg312
V2017
p2947
sg314
F23.0
sg315
VMAR 18, 1994
p2948
sg317
V6-4
p2949
sg319
VKris Dunn
p2950
sg321
I1610612741
sg322
V32
p2951
sg324
g64
sg325
V00
p2952
sg327
g46
sg328
I1627739
ssI202332
(dp2953
g49
VKansas
p2954
sg51
V253
p2955
sg53
V2017
p2956
sg55
F29.0
sg56
VOCT 31, 1988
p2957
sg58
V6-11
p2958
sg60
VCole Aldrich
p2959
sg62
I1610612750
sg63
V45
p2960
sg65
g175
sg66
V00
p2961
sg68
g207
sg69
I202332
ssI1627741
(dp2962
g241
VOklahoma
p2963
sg243
V214
p2964
sg245
V2017
p2965
sg247
F23.0
sg248
VDEC 17, 1993
p2966
sg250
V6-4
p2967
sg252
VBuddy Hield
p2968
sg254
I1610612758
sg255
V24
p2969
sg257
g64
sg258
V00
p2970
sg260
g46
sg261
I1627741
ssI1627742
(dp2971
g554
VDuke
p2972
sg556
V190
p2973
sg558
V2017
p2974
sg560
F20.0
sg561
VSEP 02, 1997
p2975
sg563
V6-9
p2976
sg565
VBrandon Ingram
p2977
sg567
I1610612747
sg568
V14
p2978
sg569
g64
sg570
V00
p2979
sg572
VF-G
p2980
sg573
I1627742
ssI202335
(dp2981
g403
VKentucky
p2982
sg405
V230
p2983
sg407
V2017
p2984
sg409
F28.0
sg410
VMAR 14, 1989
p2985
sg412
V6-9
p2986
sg414
VPatrick Patterson
p2987
sg416
I1610612760
sg417
V54
p2988
sg419
g175
sg421
V00
p2989
sg423
g79
sg424
I202335
ssI1627744
(dp2990
g81
VNorth Carolina
p2991
sg83
V230
p2992
sg85
V2017
p2993
sg87
F23.0
sg88
VJUN 27, 1994
p2994
sg90
V6-10
p2995
sg92
VBrice Johnson
p2996
sg94
I1610612746
sg95
V11
p2997
sg96
g64
sg97
V00
p2998
sg99
g79
sg101
I1627744
ssI202337
(dp2999
g788
VNevada
p3000
sg790
V225
p3001
sg792
V2017
p3002
sg794
F28.0
sg795
VJUN 20, 1989
p3003
sg797
V6-9
p3004
sg799
VLuke Babbitt
p3005
sg801
I1610612737
sg802
g590
sg804
g175
sg805
V00
p3006
sg807
g79
sg809
I202337
ssI1627746
(dp3007
g241
VKentucky
p3008
sg243
V225
p3009
sg245
V2017
p3010
sg247
F21.0
sg248
VMAR 18, 1996
p3011
sg250
V6-11
p3012
sg252
VSkal Labissiere
p3013
sg254
I1610612758
sg255
g175
sg257
g64
sg258
V00
p3014
sg260
VF-C
p3015
sg261
I1627746
ssI202339
(dp3016
g263
VKentucky
p3017
sg265
V205
p3018
sg267
V2017
p3019
sg269
F27.0
sg270
VDEC 09, 1989
p3020
sg272
V6-1
p3021
sg274
VEric Bledsoe
p3022
sg276
I1610612749
sg277
g500
sg279
g175
sg280
V00
p3023
sg282
g46
sg283
I202339
ssI1627748
(dp3024
g263
Nsg265
V223
p3025
sg267
V2017
p3026
sg269
F20.0
sg270
VFEB 25, 1997
p3027
sg272
V7-1
p3028
sg274
VThon Maker
p3029
sg276
I1610612749
sg277
g175
sg279
g64
sg280
V00
p3030
sg282
VC-F
p3031
sg283
I1627748
ssI1627749
(dp3032
g146
VWashington
p3033
sg148
V170
p3034
sg150
V2017
p3035
sg152
F21.0
sg153
VSEP 19, 1996
p3036
sg155
V6-5
p3037
sg157
VDejounte Murray
p3038
sg159
I1610612759
sg160
g19
sg162
g64
sg164
V00
p3039
sg166
g46
sg167
I1627749
ssI1627750
(dp3040
g26
VKentucky
p3041
sg27
V207
p3042
sg29
V2017
p3043
sg31
F20.0
sg32
VFEB 23, 1997
p3044
sg34
V6-4
p3045
sg36
VJamal Murray
p3046
sg38
I1610612743
sg39
V27
p3047
sg41
g64
sg43
V00
p3048
sg45
g46
sg47
I1627750
ssI1627751
(dp3049
g124
VUtah
p3050
sg126
V230
p3051
sg128
V2017
p3052
sg130
F22.0
sg131
VOCT 15, 1995
p3053
sg133
V7-0
p3054
sg135
VJakob Poeltl
p3055
sg137
I1610612761
sg138
V42
p3056
sg140
g64
sg141
V00
p3057
sg143
g207
sg144
I1627751
ssI1627752
(dp3058
g788
VBaylor
p3059
sg790
V220
p3060
sg792
V2017
p3061
sg794
F23.0
sg795
VMAR 22, 1994
p3062
sg797
V6-8
p3063
sg799
VTaurean Prince
p3064
sg801
I1610612737
sg802
V12
p3065
sg804
g64
sg805
V00
p3066
sg807
g79
sg809
I1627752
ssI1627753
(dp3067
g484
Nsg486
V210
p3068
sg488
V2017
p3069
sg490
F21.0
sg491
VJAN 16, 1996
p3070
sg493
V7-1
p3071
sg495
VQi Qi
p3072
sg497
I1610612745
sg498
g718
sg499
g420
sg501
V00
p3073
sg503
VF-C
p3074
sg504
I1627753
ssI202347
(dp3075
g308
VWashington
p3076
sg310
V225
p3077
sg312
V2017
p3078
sg314
F29.0
sg315
VMAR 10, 1988
p3079
sg317
V6-7
p3080
sg319
VQuincy Pondexter
p3081
sg321
I1610612741
sg322
V20
p3082
sg324
g19
sg325
V00
p3083
sg327
g46
sg328
I202347
ssI1627756
(dp3084
g308
VMichigan State
p3085
sg310
V214
p3086
sg312
V2017
p3087
sg314
F23.0
sg315
VNOV 16, 1993
p3088
sg317
V6-6
p3089
sg319
VDenzel Valentine
p3090
sg321
I1610612741
sg322
V45
p3091
sg324
g64
sg325
V00
p3092
sg327
g79
sg328
I1627756
ssI1627758
(dp3093
g506
VWichita State
p3094
sg508
V220
p3095
sg510
V2017
p3096
sg512
F24.0
sg513
VMAR 30, 1993
p3097
sg515
V6-4
p3098
sg517
VRon Baker
p3099
sg519
I1610612752
sg520
V31
p3100
sg522
g64
sg523
V00
p3101
sg525
g46
sg526
I1627758
ssI1627759
(dp3102
g435
VCalifornia
p3103
sg437
V225
p3104
sg439
V2017
p3105
sg441
F21.0
sg442
VOCT 24, 1996
p3106
sg444
V6-7
p3107
sg446
VJaylen Brown
p3108
sg448
I1610612738
sg449
g175
sg451
g64
sg452
V00
p3109
sg454
VG-F
p3110
sg455
I1627759
ssI202344
(dp3111
g178
VClemson
p3112
sg180
V228
p3113
sg182
V2017
p3114
sg184
F29.0
sg185
VNOV 25, 1987
p3115
sg187
V6-8
p3116
sg189
VTrevor Booker
p3117
sg191
I1610612751
sg192
V35
p3118
sg193
g175
sg194
V00
p3119
sg196
g79
sg197
I202344
ssI1627762
(dp3120
g263
VWeber State
p3121
sg265
V235
p3122
sg267
V2017
p3123
sg269
F23.0
sg270
VJAN 28, 1994
p3124
sg272
V6-9
p3125
sg274
VJoel Bolomboy
p3126
sg276
I1610612749
sg277
V24
p3127
sg279
g64
sg280
V00
p3128
sg282
VF-C
p3129
sg283
I1627762
ssI202355
(dp3130
g209
VMarshall
p3131
sg211
V265
p3132
sg213
V2017
p3133
sg215
F28.0
sg216
VJUN 13, 1989
p3134
sg218
V7-0
p3135
sg220
VHassan Whiteside
p3136
sg222
I1610612748
sg223
V21
p3137
sg225
g19
sg226
V00
p3138
sg228
g207
sg229
I202355
ssI202357
(dp3139
g49
Nsg51
V230
p3140
sg53
V2017
p3141
sg55
F29.0
sg56
VMAY 09, 1988
p3142
sg58
V6-10
p3143
sg60
VNemanja Bjelica
p3144
sg62
I1610612750
sg63
g590
sg65
g42
sg66
V00
p3145
sg68
g79
sg69
I202357
ssI1627767
(dp3146
g950
VKansas
p3147
sg952
V220
p3148
sg954
V2017
p3149
sg956
F21.0
sg957
VSEP 13, 1996
p3150
sg959
V6-9
p3151
sg961
VCheick Diallo
p3152
sg963
I1610612740
sg964
V13
p3153
sg966
g64
sg967
V00
p3154
sg969
g79
sg970
I1627767
ssI1627770
(dp3155
g308
VOakland
p3156
sg310
V176
p3157
sg312
V2017
p3158
sg314
F22.0
sg315
VMAR 29, 1995
p3159
sg317
V5-9
p3160
sg319
VKay Felder
p3161
sg321
I1610612741
sg322
g77
sg324
g64
sg325
V00
p3162
sg327
g46
sg328
I1627770
ssI1627772
(dp3163
g403
VConnecticut
p3164
sg405
V195
p3165
sg407
V2017
p3166
sg409
F22.0
sg410
VAUG 08, 1995
p3167
sg412
V6-7
p3168
sg414
VDaniel Hamilton
p3169
sg416
I1610612760
sg417
V25
p3170
sg419
g420
sg421
V00
p3171
sg423
g46
sg424
I1627772
ssI1627773
(dp3172
g209
VPurdue
p3173
sg211
V260
p3174
sg213
V2017
p3175
sg215
F25.0
sg216
VAUG 27, 1992
p3176
sg218
V7-0
p3177
sg220
VAJ Hammons
p3178
sg222
I1610612748
sg223
g481
sg225
g64
sg226
V00
p3179
sg228
g207
sg229
I1627773
ssI1627775
(dp3180
g354
VNevada-Las Vegas
p3181
sg356
V185
p3182
sg358
V2017
p3183
sg360
F22.0
sg361
VOCT 25, 1995
p3184
sg363
V6-7
p3185
sg365
VPatrick McCaw
p3186
sg367
I1610612744
sg368
g40
sg369
g64
sg370
V00
p3187
sg372
g46
sg373
I1627775
ssI1627778
(dp3188
g484
VLouisville
p3189
sg486
V245
p3190
sg488
V2017
p3191
sg490
F21.0
sg491
VNOV 01, 1996
p3192
sg493
V6-10
p3193
sg495
VChinanu Onuaku
p3194
sg497
I1610612745
sg498
V21
p3195
sg499
g64
sg501
V00
p3196
sg503
g207
sg504
I1627778
ssI1627780
(dp3197
g263
VOregon State
p3198
sg265
V190
p3199
sg267
V2017
p3200
sg269
F24.0
sg270
VDEC 01, 1992
p3201
sg272
V6-3
p3202
sg274
VGary Payton II
p3203
sg276
I1610612749
sg277
g40
sg279
g64
sg280
V00
p3204
sg282
g46
sg283
I1627780
ssI1627781
(dp3205
g241
VSyracuse
p3206
sg243
V205
p3207
sg245
V2017
p3208
sg247
F21.0
sg248
VJAN 05, 1996
p3209
sg250
V6-6
p3210
sg252
VMalachi Richardson
p3211
sg254
I1610612758
sg255
V23
p3212
sg257
g64
sg258
V00
p3213
sg260
g46
sg261
I1627781
ssI1627782
(dp3214
g103
VKansas
p3215
sg105
V230
p3216
sg107
V2017
p3217
sg109
F23.0
sg110
VSEP 30, 1994
p3218
sg112
V6-5
p3219
sg114
VWayne Selden
p3220
sg116
I1610612763
sg117
g175
sg118
g64
sg119
V00
p3221
sg121
VG-F
p3222
sg122
I1627782
ssI1627783
(dp3223
g124
VNew Mexico State
p3224
sg126
V230
p3225
sg128
V2017
p3226
sg130
F23.0
sg131
VAPR 02, 1994
p3227
sg133
V6-9
p3228
sg135
VPascal Siakam
p3229
sg137
I1610612761
sg138
V43
p3230
sg140
g64
sg141
V00
p3231
sg143
g79
sg144
I1627783
ssI1627785
(dp3232
g178
VSeton Hall
p3233
sg180
V213
p3234
sg182
V2017
p3235
sg184
F22.0
sg185
VMAR 08, 1995
p3236
sg187
V6-4
p3237
sg189
VIsaiah Whitehead
p3238
sg191
I1610612751
sg192
V15
p3239
sg193
g64
sg194
V00
p3240
sg196
g46
sg197
I1627785
ssI1627786
(dp3241
g484
VIndiana
p3242
sg486
V218
p3243
sg488
V2017
p3244
sg490
F22.0
sg491
VDEC 30, 1994
p3245
sg493
V6-7
p3246
sg495
VTroy Williams
p3247
sg497
I1610612745
sg498
g19
sg499
g64
sg501
V00
p3248
sg503
g79
sg504
I1627786
ssI1627790
(dp3249
g603
Nsg605
V250
p3250
sg607
V2017
p3251
sg609
F20.0
sg610
VJAN 04, 1997
p3252
sg612
V6-11
p3253
sg614
VAnte Zizic
p3254
sg616
I1610612739
sg617
V41
p3255
sg619
g420
sg620
V00
p3256
sg622
VF-C
p3257
sg623
I1627790
ssI202389
(dp3258
g178
VSt. Petersburg, Russia
p3259
sg180
V275
p3260
sg182
V2017
p3261
sg184
F31.0
sg185
VJUL 16, 1986
p3262
sg187
V7-1
p3263
sg189
VTimofey Mozgov
p3264
sg191
I1610612751
sg192
V20
p3265
sg193
g175
sg194
V00
p3266
sg196
g207
sg197
I202389
ssI202391
(dp3267
g178
VHarvard
p3268
sg180
V200
p3269
sg182
V2017
p3270
sg184
F29.0
sg185
VAUG 23, 1988
p3271
sg187
V6-3
p3272
sg189
VJeremy Lin
p3273
sg191
I1610612751
sg192
g175
sg193
g175
sg194
V00
p3274
sg196
g46
sg197
I202391
ssI1627812
(dp3275
g625
VIndiana
p3276
sg627
V180
p3277
sg629
V2017
p3278
sg631
F24.0
sg632
VMAY 09, 1993
p3279
sg634
V6-0
p3280
sg636
VYogi Ferrell
p3281
sg638
I1610612742
sg639
V11
p3282
sg640
g64
sg642
V00
p3283
sg644
g46
sg645
I1627812
ssI1627761
(dp3284
g788
VSaint Joseph's
p3285
sg790
V210
p3286
sg792
V2017
p3287
sg794
F23.0
sg795
VJUL 04, 1994
p3288
sg797
V6-6
p3289
sg799
VDeAndre' Bembry
p3290
sg801
I1610612737
sg802
V95
p3291
sg804
g64
sg805
V00
p3292
sg807
VF-G
p3293
sg809
I1627761
ssI1627819
(dp3294
g788
VTexas
p3295
sg790
V170
p3296
sg792
V2017
p3297
sg794
F23.0
sg795
VJUL 11, 1994
p3298
sg797
V6-3
p3299
sg799
VIsaiah Taylor
p3300
sg801
I1610612737
sg802
V22
p3301
sg804
g64
sg805
V00
p3302
sg807
g46
sg809
I1627819
ssI1627823
(dp3303
g26
Nsg27
V230
p3304
sg29
V2017
p3305
sg31
F22.0
sg32
VSEP 28, 1995
p3306
sg34
V6-9
p3307
sg36
VJuan Hernangomez
p3308
sg38
I1610612743
sg39
V41
p3309
sg41
g64
sg43
V00
p3310
sg45
g79
sg47
I1627823
ssI1627824
(dp3311
g435
Nsg437
V260
p3312
sg439
V2017
p3313
sg441
F21.0
sg442
VDEC 17, 1995
p3314
sg444
V6-8
p3315
sg446
VGuerschon Yabusele
p3316
sg448
I1610612738
sg449
V30
p3317
sg451
g420
sg452
V00
p3318
sg454
g79
sg455
I1627824
ssI1713
(dp3319
g241
VNorth Carolina
p3320
sg243
V220
p3321
sg245
V2017
p3322
sg247
F40.0
sg248
VJAN 26, 1977
p3323
sg250
V6-6
p3324
sg252
VVince Carter
p3325
sg254
I1610612758
sg255
V15
p3326
sg257
V19
p3327
sg258
V00
p3328
sg260
VG-F
p3329
sg261
I1713
ssI1627826
(dp3330
g554
Nsg556
V240
p3331
sg558
V2017
p3332
sg560
F20.0
sg561
VMAR 18, 1997
p3333
sg563
V7-1
p3334
sg565
VIvica Zubac
p3335
sg567
I1610612747
sg568
V40
p3336
sg569
g64
sg570
V00
p3337
sg572
g207
sg573
I1627826
ssI1627827
(dp3338
g625
VFlorida
p3339
sg627
V220
p3340
sg629
V2017
p3341
sg631
F24.0
sg632
VMAY 04, 1993
p3342
sg634
V6-8
p3343
sg636
VDorian Finney-Smith
p3344
sg638
I1610612742
sg639
V10
p3345
sg640
g64
sg642
V00
p3346
sg644
g79
sg645
I1627827
ssI1717
(dp3347
g625
VWurzburg, Germany
p3348
sg627
V245
p3349
sg629
V2017
p3350
sg631
F39.0
sg632
VJUN 19, 1978
p3351
sg634
V7-0
p3352
sg636
VDirk Nowitzki
p3353
sg638
I1610612742
sg639
V41
p3354
sg640
V19
p3355
sg642
V00
p3356
sg644
VF-C
p3357
sg645
I1717
ssI1627832
(dp3358
g124
VWichita State
p3359
sg126
V195
p3360
sg128
V2017
p3361
sg130
F23.0
sg131
VFEB 25, 1994
p3362
sg133
V6-0
p3363
sg135
VFred VanVleet
p3364
sg137
I1610612761
sg138
V23
p3365
sg140
g64
sg141
V00
p3366
sg143
g46
sg144
I1627832
ssI1627834
(dp3367
g241
Nsg243
V240
p3368
sg245
V2017
p3369
sg247
F20.0
sg248
VJUL 03, 1997
p3370
sg250
V7-1
p3371
sg252
VGeorgios Papagiannis
p3372
sg254
I1610612758
sg255
V13
p3373
sg257
g64
sg258
V00
p3374
sg260
g207
sg261
I1627834
ssI1627835
(dp3375
g308
Nsg310
V226
p3376
sg312
V2017
p3377
sg314
F23.0
sg315
VFEB 18, 1994
p3378
sg317
V6-8
p3379
sg319
VPaul Zipser
p3380
sg321
I1610612741
sg322
V16
p3381
sg324
g64
sg325
V00
p3382
sg327
g79
sg328
I1627835
ssI1627846
(dp3383
g435
VIowa State
p3384
sg437
V230
p3385
sg439
V2017
p3386
sg441
F24.0
sg442
VSEP 25, 1993
p3387
sg444
V6-6
p3388
sg446
VAbdel Nader
p3389
sg448
I1610612738
sg449
V28
p3390
sg451
g420
sg452
V00
p3391
sg454
g79
sg455
I1627846
ssI1627851
(dp3392
g506
Nsg508
V215
p3393
sg510
V2017
p3394
sg512
F28.0
sg513
VOCT 19, 1989
p3395
sg515
V6-9
p3396
sg517
VMindaugas Kuzminskas
p3397
sg519
I1610612752
sg520
V91
p3398
sg522
g64
sg523
V00
p3399
sg525
g79
sg526
I1627851
ssI1627852
(dp3400
g788
Nsg790
V195
p3401
sg792
V2017
p3402
sg794
F24.0
sg795
VMAR 02, 1993
p3403
sg797
V6-8
p3404
sg799
VNicolas Brussino
p3405
sg801
I1610612737
sg802
V16
p3406
sg804
g64
sg805
V00
p3407
sg807
g79
sg809
I1627852
ssI1627853
(dp3408
g308
VVillanova
p3409
sg310
V195
p3410
sg312
V2017
p3411
sg314
F23.0
sg315
VMAR 26, 1994
p3412
sg317
V6-3
p3413
sg319
VRyan Arcidiacono
p3414
sg321
I1610612741
sg322
V15
p3415
sg324
g420
sg325
V00
p3416
sg327
g46
sg328
I1627853
ssI1627854
(dp3417
g146
VMichigan State
p3418
sg148
V190
p3419
sg150
V2017
p3420
sg152
F24.0
sg153
VJUL 23, 1993
p3421
sg155
V6-3
p3422
sg157
VBryn Forbes
p3423
sg159
I1610612759
sg160
V11
p3424
sg162
g64
sg164
V00
p3425
sg166
g46
sg167
I1627854
ssI1627855
(dp3426
g209
VFlorida State
p3427
sg211
V215
p3428
sg213
V2017
p3429
sg215
F25.0
sg216
VAUG 13, 1992
p3430
sg218
V6-8
p3431
sg220
VOkaro White
p3432
sg222
I1610612748
sg223
V15
p3433
sg225
g64
sg226
V00
p3434
sg228
g79
sg229
I1627855
ssI1627856
(dp3435
g146
VMichigan State
p3436
sg148
V240
p3437
sg150
V2017
p3438
sg152
F24.0
sg153
VAUG 05, 1993
p3439
sg155
V6-10
p3440
sg157
VMatt Costello
p3441
sg159
I1610612759
sg160
V10
p3442
sg162
g420
sg164
V00
p3443
sg166
VF-C
p3444
sg167
I1627856
ssI1627875
(dp3445
g49
VGeorgia Tech
p3446
sg51
V226
p3447
sg53
V2017
p3448
sg55
F23.0
sg56
VMAR 28, 1994
p3449
sg58
V6-5
p3450
sg60
VMarcus Georges-Hunt
p3451
sg62
I1610612750
sg63
V13
p3452
sg65
g64
sg66
V00
p3453
sg68
g46
sg69
I1627875
ssI1627883
(dp3454
g950
VTexas A&M
p3455
sg952
V220
p3456
sg954
V2017
p3457
sg956
F24.0
sg957
VMAY 27, 1993
p3458
sg959
V6-7
p3459
sg961
VJalen Jones
p3460
sg963
I1610612740
sg964
V12
p3461
sg966
g420
sg967
V00
p3462
sg969
g79
sg970
I1627883
ssI202498
(dp3463
g506
VDuke
p3464
sg508
V235
p3465
sg510
V2017
p3466
sg512
F29.0
sg513
VAPR 24, 1988
p3467
sg515
V6-8
p3468
sg517
VLance Thomas
p3469
sg519
I1610612752
sg520
V42
p3470
sg522
g500
sg523
V00
p3471
sg525
g79
sg526
I202498
ssI1627936
(dp3472
g554
VTexas A&M
p3473
sg556
V186
p3474
sg558
V2017
p3475
sg560
F23.0
sg561
VFEB 28, 1994
p3476
sg563
V6-5
p3477
sg565
VAlex Caruso
p3478
sg567
I1610612747
sg568
g481
sg569
g420
sg570
V00
p3479
sg572
g46
sg573
I1627936
ssI1891
(dp3480
g263
VArizona
p3481
sg265
V185
p3482
sg267
V2017
p3483
sg269
F40.0
sg270
VSEP 15, 1977
p3484
sg272
V6-2
p3485
sg274
VJason Terry
p3486
sg276
I1610612749
sg277
g77
sg279
V18
p3487
sg280
V00
p3488
sg282
g46
sg283
I1891
ssI1628021
(dp3489
g308
VCal Poly-S.L.O.
p3490
sg310
V209
p3491
sg312
V2017
p3492
sg314
F24.0
sg315
VJAN 14, 1993
p3493
sg317
V6-4
p3494
sg319
VDavid Nwaba
p3495
sg321
I1610612741
sg322
V11
p3496
sg324
g64
sg325
V00
p3497
sg327
g46
sg328
I1628021
ssI1628035
(dp3498
g124
VWisc.-Green Bay
p3499
sg126
V215
p3500
sg128
V2017
p3501
sg130
F25.0
sg131
VSEP 17, 1992
p3502
sg133
V6-8
p3503
sg135
VAlfonzo McKinnie
p3504
sg137
I1610612761
sg138
V34
p3505
sg140
g420
sg141
V00
p3506
sg143
g79
sg144
I1628035
ssI1938
(dp3507
g146
VBahia Blanca, Argentina
p3508
sg148
V205
p3509
sg150
V2017
p3510
sg152
F40.0
sg153
VJUL 28, 1977
p3511
sg155
V6-6
p3512
sg157
VManu Ginobili
p3513
sg159
I1610612759
sg160
V20
p3514
sg162
V15
p3515
sg164
V00
p3516
sg166
g46
sg167
I1938
ssI203084
(dp3517
g625
VNorth Carolina
p3518
sg627
V225
p3519
sg629
V2017
p3520
sg631
F25.0
sg632
VMAY 30, 1992
p3521
sg634
V6-8
p3522
sg636
VHarrison Barnes
p3523
sg638
I1610612742
sg639
V40
p3524
sg640
g19
sg642
V00
p3525
sg644
g79
sg645
I203084
ssI202681
(dp3526
g435
VDuke
p3527
sg437
V193
p3528
sg439
V2017
p3529
sg441
F25.0
sg442
VMAR 23, 1992
p3530
sg444
V6-3
p3531
sg446
VKyrie Irving
p3532
sg448
I1610612738
sg449
V11
p3533
sg451
g500
sg452
V00
p3534
sg454
g46
sg455
I202681
ssI202683
(dp3535
g506
VKentucky
p3536
sg508
V245
p3537
sg510
V2017
p3538
sg512
F25.0
sg513
VMAY 20, 1992
p3539
sg515
V6-11
p3540
sg517
VEnes Kanter
p3541
sg519
I1610612752
sg520
V00
p3542
sg522
g500
sg523
V00
p3543
sg525
g207
sg526
I202683
ssI202684
(dp3544
g603
VTexas
p3545
sg605
V238
p3546
sg607
V2017
p3547
sg609
F26.0
sg610
VMAR 13, 1991
p3548
sg612
V6-9
p3549
sg614
VTristan Thompson
p3550
sg616
I1610612739
sg617
V13
p3551
sg619
g500
sg620
V00
p3552
sg622
VC-F
p3553
sg623
I202684
ssI202685
(dp3554
g124
VUtena, Lithuania
p3555
sg126
V255
p3556
sg128
V2017
p3557
sg130
F25.0
sg131
VMAY 06, 1992
p3558
sg133
V7-0
p3559
sg135
VJonas Valanciunas
p3560
sg137
I1610612761
sg138
V17
p3561
sg140
g19
sg141
V00
p3562
sg143
g207
sg144
I202685
ssI202687
(dp3563
g2
VLubumbashi, DR Congo
p3564
sg4
V255
p3565
sg6
V2017
p3566
sg8
F25.0
sg9
VAUG 28, 1992
p3567
sg11
V6-9
p3568
sg13
VBismack Biyombo
p3569
sg15
I1610612753
sg16
V11
p3570
sg18
g500
sg20
V00
p3571
sg22
g207
sg24
I202687
ssI202691
(dp3572
g354
VWashington State
p3573
sg356
V215
p3574
sg358
V2017
p3575
sg360
F27.0
sg361
VFEB 08, 1990
p3576
sg363
V6-7
p3577
sg365
VKlay Thompson
p3578
sg367
I1610612744
sg368
V11
p3579
sg369
g500
sg370
V00
p3580
sg372
g46
sg373
I202691
ssI202692
(dp3581
g285
VColorado
p3582
sg287
V214
p3583
sg289
V2017
p3584
sg291
F26.0
sg292
VJUL 20, 1991
p3585
sg294
V6-6
p3586
sg296
VAlec Burks
p3587
sg298
I1610612762
sg299
V10
p3588
sg301
g500
sg303
V00
p3589
sg305
g46
sg306
I202692
ssI202694
(dp3590
g435
VKansas
p3591
sg437
V235
p3592
sg439
V2017
p3593
sg441
F28.0
sg442
VSEP 02, 1989
p3594
sg444
V6-9
p3595
sg446
VMarcus Morris
p3596
sg448
I1610612738
sg449
V13
p3597
sg451
g500
sg452
V00
p3598
sg454
g79
sg455
I202694
ssI202695
(dp3599
g146
VSan Diego State
p3600
sg148
V230
p3601
sg150
V2017
p3602
sg152
F26.0
sg153
VJUN 29, 1991
p3603
sg155
V6-7
p3604
sg157
VKawhi Leonard
p3605
sg159
I1610612759
sg160
g42
sg162
g500
sg164
V00
p3606
sg166
g79
sg167
I202695
ssI202696
(dp3607
g2
VSouthern California
p3608
sg4
V260
p3609
sg6
V2017
p3610
sg8
F27.0
sg9
VOCT 24, 1990
p3611
sg11
V7-0
p3612
sg13
VNikola Vucevic
p3613
sg15
I1610612753
sg16
g718
sg18
g500
sg20
V00
p3614
sg22
g207
sg24
I202696
ssI202697
(dp3615
g603
VGeorgia Tech
p3616
sg605
V220
p3617
sg607
V2017
p3618
sg609
F27.0
sg610
VJUN 26, 1990
p3619
sg612
V6-5
p3620
sg614
VIman Shumpert
p3621
sg616
I1610612739
sg617
g481
sg619
g500
sg620
V00
p3622
sg622
g46
sg623
I202697
ssI202702
(dp3623
g26
VMorehead State
p3624
sg27
V228
p3625
sg29
V2017
p3626
sg31
F27.0
sg32
VNOV 19, 1989
p3627
sg34
V6-8
p3628
sg36
VKenneth Faried
p3629
sg38
I1610612743
sg39
V35
p3630
sg41
g500
sg43
V00
p3631
sg45
g79
sg47
I202702
ssI202703
(dp3632
g308
Nsg310
V238
p3633
sg312
V2017
p3634
sg314
F26.0
sg315
VFEB 11, 1991
p3635
sg317
V6-10
p3636
sg319
VNikola Mirotic
p3637
sg321
I1610612741
sg322
V44
p3638
sg324
g77
sg325
V00
p3639
sg327
g79
sg328
I202703
ssI202710
(dp3640
g49
VMarquette
p3641
sg51
V236
p3642
sg53
V2017
p3643
sg55
F28.0
sg56
VSEP 14, 1989
p3644
sg58
V6-8
p3645
sg60
VJimmy Butler
p3646
sg62
I1610612750
sg63
V23
p3647
sg65
g500
sg66
V00
p3648
sg68
g46
sg69
I202710
ssI202713
(dp3649
g403
VDuke
p3650
sg405
V228
p3651
sg407
V2017
p3652
sg409
F29.0
sg410
VMAY 04, 1988
p3653
sg412
V6-8
p3654
sg414
VKyle Singler
p3655
sg416
I1610612760
sg417
V15
p3656
sg419
g19
sg421
V00
p3657
sg423
g79
sg424
I202713
ssI202714
(dp3658
g2
VButler
p3659
sg4
V203
p3660
sg6
V2017
p3661
sg8
F27.0
sg9
VAPR 22, 1990
p3662
sg11
V6-3
p3663
sg13
VShelvin Mack
p3664
sg15
I1610612753
sg16
g175
sg18
g500
sg20
V00
p3665
sg22
g46
sg24
I202714
ssI202718
(dp3666
g103
VFlorida
p3667
sg105
V230
p3668
sg107
V2017
p3669
sg109
F29.0
sg110
VOCT 25, 1988
p3670
sg112
V6-10
p3671
sg114
VChandler Parsons
p3672
sg116
I1610612763
sg117
V25
p3673
sg118
g500
sg119
V00
p3674
sg121
g79
sg122
I202718
ssI202722
(dp3675
g146
Nsg148
V210
p3676
sg150
V2017
p3677
sg152
F24.0
sg153
VNOV 12, 1992
p3678
sg155
V6-10
p3679
sg157
VDavis Bertans
p3680
sg159
I1610612759
sg160
V42
p3681
sg162
g64
sg164
V00
p3682
sg166
g79
sg167
I202722
ssI202732
(dp3683
g263
VKentucky
p3684
sg265
V209
p3685
sg267
V2017
p3686
sg269
F29.0
sg270
VMAR 31, 1988
p3687
sg272
V6-6
p3688
sg274
VDeAndre Liggins
p3689
sg276
I1610612749
sg277
V25
p3690
sg279
g481
sg280
V00
p3691
sg282
g46
sg283
I202732
ssI202734
(dp3692
g950
VPurdue
p3693
sg952
V191
p3694
sg954
V2017
p3695
sg956
F28.0
sg957
VFEB 25, 1989
p3696
sg959
V6-4
p3697
sg961
VE'Twaun Moore
p3698
sg963
I1610612740
sg964
V55
p3699
sg966
g500
sg967
V00
p3700
sg969
g46
sg970
I202734
ssI202738
(dp3701
g603
VWashington
p3702
sg605
V185
p3703
sg607
V2017
p3704
sg609
F28.0
sg610
VFEB 07, 1989
p3705
sg612
V5-9
p3706
sg614
VIsaiah Thomas
p3707
sg616
I1610612739
sg617
g77
sg619
g500
sg620
V00
p3708
sg622
g46
sg623
I202738
ssI2037
(dp3709
g49
VMichigan
p3710
sg51
V185
p3711
sg53
V2017
p3712
sg55
F37.0
sg56
VMAR 20, 1980
p3713
sg58
V6-5
p3714
sg60
VJamal Crawford
p3715
sg62
I1610612750
sg63
V11
p3716
sg65
V17
p3717
sg66
V00
p3718
sg68
g46
sg69
I2037
ss.