(dp0
I2561
(dp1
VSCHOOL
p2
VXavier
p3
sVWEIGHT
p4
V250
p5
sVSEASON
p6
V2017
p7
sVAGE
p8
F37.0
sVBIRTH_DATE
p9
VAUG 29, 1980
p10
sVHEIGHT
p11
V6-9
p12
sVPLAYER
p13
VDavid West
p14
sVTeamID
p15
I1610612744
sVNUM
p16
V3
p17
sVEXP
p18
V14
p19
sVLeagueID
p20
V00
p21
sVPOSITION
p22
VF
p23
sVPLAYER_ID
p24
I2561
ssI201145
(dp25
VSCHOOL
p26
VGeorgetown
p27
sVWEIGHT
p28
V235
p29
sVSEASON
p30
V2017
p31
sVAGE
p32
F31.0
sVBIRTH_DATE
p33
VAUG 28, 1986
p34
sVHEIGHT
p35
V6-9
p36
sVPLAYER
p37
VJeff Green
p38
sVTeamID
p39
I1610612739
sVNUM
p40
V32
p41
sVEXP
p42
V9
p43
sVLeagueID
p44
V00
p45
sVPOSITION
p46
g23
sVPLAYER_ID
p47
I201145
ssI203524
(dp48
VSCHOOL
p49
VArizona
p50
sVWEIGHT
p51
V225
p52
sVSEASON
p53
V2017
p54
sVAGE
p55
F26.0
sVBIRTH_DATE
p56
VMAR 18, 1991
p57
sVHEIGHT
p58
V6-7
p59
sVPLAYER
p60
VSolomon Hill
p61
sVTeamID
p62
I1610612740
sVNUM
p63
V44
p64
sVEXP
p65
V4
p66
sVLeagueID
p67
V00
p68
sVPOSITION
p69
g23
sVPLAYER_ID
p70
I203524
ssI1628393
(dp71
VSCHOOL
p72
VOklahoma State
p73
sVWEIGHT
p74
V190
p75
sVSEASON
p76
V2017
p77
sVAGE
p78
F21.0
sVBIRTH_DATE
p79
VJUL 26, 1996
p80
sVHEIGHT
p81
V6-0
p82
sVPLAYER
p83
VJawun Evans
p84
sVTeamID
p85
I1610612746
sVNUM
p86
V1
p87
sVEXP
p88
VR
p89
sVLeagueID
p90
V00
p91
sVPOSITION
p92
VG
p93
sVPLAYER_ID
p94
I1628393
ssI203898
(dp95
VSCHOOL
p96
VSyracuse
p97
sVWEIGHT
p98
V194
p99
sVSEASON
p100
V2017
p101
sVAGE
p102
F23.0
sVBIRTH_DATE
p103
VAUG 24, 1994
p104
sVHEIGHT
p105
V6-3
p106
sVPLAYER
p107
VTyler Ennis
p108
sVTeamID
p109
I1610612747
sVNUM
p110
V10
p111
sVEXP
p112
g17
sVLeagueID
p113
V00
p114
sVPOSITION
p115
g93
sVPLAYER_ID
p116
I203898
ssI200794
(dp117
VSCHOOL
p118
VLouisiana Tech
p119
sVWEIGHT
p120
V246
p121
sVSEASON
p122
V2017
p123
sVAGE
p124
F32.0
sVBIRTH_DATE
p125
VFEB 10, 1985
p126
sVHEIGHT
p127
V6-8
p128
sVPLAYER
p129
VPaul Millsap
p130
sVTeamID
p131
I1610612743
sVNUM
p132
g66
sVEXP
p133
V11
p134
sVLeagueID
p135
V00
p136
sVPOSITION
p137
g23
sVPLAYER_ID
p138
I200794
ssI202738
(dp139
g26
VWashington
p140
sg28
V185
p141
sg30
V2017
p142
sg32
F28.0
sg33
VFEB 07, 1989
p143
sg35
V5-9
p144
sg37
VIsaiah Thomas
p145
sg39
I1610612739
sg40
g17
sg42
V6
p146
sg44
V00
p147
sg46
g93
sg47
I202738
ssI1626144
(dp148
g118
Nsg120
V200
p149
sg122
V2017
p150
sg124
F21.0
sg125
VMAR 05, 1996
p151
sg127
V6-5
p152
sg129
VEmmanuel Mudiay
p153
sg131
I1610612743
sg132
V0
p154
sg133
V2
p155
sg135
V00
p156
sg137
g93
sg138
I1626144
ssI2736
(dp157
g96
VDuke
p158
sg98
V220
p159
sg100
V2017
p160
sg102
F32.0
sg103
VAPR 16, 1985
p161
sg105
V6-9
p162
sg107
VLuol Deng
p163
sg109
I1610612747
sg110
g43
sg112
V13
p164
sg113
V00
p165
sg115
g23
sg116
I2736
ssI2594
(dp166
g26
VCreighton
p167
sg28
V212
p168
sg30
V2017
p169
sg32
F36.0
sg33
VMAR 17, 1981
p170
sg35
V6-7
p171
sg37
VKyle Korver
p172
sg39
I1610612739
sg40
V26
p173
sg42
V14
p174
sg44
V00
p175
sg46
g93
sg47
I2594
ssI1627739
(dp176
VSCHOOL
p177
VProvidence
p178
sVWEIGHT
p179
V210
p180
sVSEASON
p181
V2017
p182
sVAGE
p183
F23.0
sVBIRTH_DATE
p184
VMAR 18, 1994
p185
sVHEIGHT
p186
V6-4
p187
sVPLAYER
p188
VKris Dunn
p189
sVTeamID
p190
I1610612741
sVNUM
p191
V32
p192
sVEXP
p193
g87
sVLeagueID
p194
V00
p195
sVPOSITION
p196
g93
sVPLAYER_ID
p197
I1627739
ssI1626149
(dp198
g72
VLouisville
p199
sg74
V240
p200
sg76
V2017
p201
sg78
F23.0
sg79
VJAN 26, 1994
p202
sg81
V6-8
p203
sg83
VMontrezl Harrell
p204
sg85
I1610612746
sg86
V5
p205
sg88
g155
sg90
V00
p206
sg92
VF-C
p207
sg94
I1626149
ssI1626150
(dp208
VSCHOOL
p209
VKentucky
p210
sVWEIGHT
p211
V213
p212
sVSEASON
p213
V2017
p214
sVAGE
p215
F23.0
sVBIRTH_DATE
p216
VOCT 28, 1994
p217
sVHEIGHT
p218
V6-6
p219
sVPLAYER
p220
VAndrew Harrison
p221
sVTeamID
p222
I1610612763
sVNUM
p223
g205
sVEXP
p224
g87
sVLeagueID
p225
V00
p226
sVPOSITION
p227
g93
sVPLAYER_ID
p228
I1626150
ssI1626153
(dp229
VSCHOOL
p230
VUtah
p231
sVWEIGHT
p232
V190
p233
sVSEASON
p234
V2017
p235
sVAGE
p236
F25.0
sVBIRTH_DATE
p237
VAPR 26, 1992
p238
sVHEIGHT
p239
V6-5
p240
sVPLAYER
p241
VDelon Wright
p242
sVTeamID
p243
I1610612761
sVNUM
p244
V55
p245
sVEXP
p246
g155
sVLeagueID
p247
V00
p248
sVPOSITION
p249
g93
sVPLAYER_ID
p250
I1626153
ssI1626155
(dp251
g72
VWisconsin
p252
sg74
V230
p253
sg76
V2017
p254
sg78
F23.0
sg79
VMAY 08, 1994
p255
sg81
V6-9
p256
sg83
VSam Dekker
p257
sg85
I1610612746
sg86
V7
p258
sg88
g155
sg90
V00
p259
sg92
g23
sg94
I1626155
ssI1627826
(dp260
g96
Nsg98
V240
p261
sg100
V2017
p262
sg102
F20.0
sg103
VMAR 18, 1997
p263
sg105
V7-1
p264
sg107
VIvica Zubac
p265
sg109
I1610612747
sg110
V40
p266
sg112
g87
sg113
V00
p267
sg115
VC
p268
sg116
I1627826
ssI1626159
(dp269
VSCHOOL
p270
VDuke
p271
sVWEIGHT
p272
V225
p273
sVSEASON
p274
V2017
p275
sVAGE
p276
F21.0
sVBIRTH_DATE
p277
VMAR 26, 1996
p278
sVHEIGHT
p279
V6-7
p280
sVPLAYER
p281
VJustise Winslow
p282
sVTeamID
p283
I1610612748
sVNUM
p284
V20
p285
sVEXP
p286
g155
sVLeagueID
p287
V00
p288
sVPOSITION
p289
g23
sVPLAYER_ID
p290
I1626159
ssI201967
(dp291
g49
VVillanova
p292
sg51
V230
p293
sg53
V2017
p294
sg55
F30.0
sg56
VAPR 22, 1987
p295
sg58
V6-8
p296
sg60
VDante Cunningham
p297
sg62
I1610612740
sg63
V33
p298
sg65
V8
p299
sg67
V00
p300
sg69
g23
sg70
I201967
ssI1627827
(dp301
VSCHOOL
p302
VFlorida
p303
sVWEIGHT
p304
V220
p305
sVSEASON
p306
V2017
p307
sVAGE
p308
F24.0
sVBIRTH_DATE
p309
VMAY 04, 1993
p310
sVHEIGHT
p311
V6-8
p312
sVPLAYER
p313
VDorian Finney-Smith
p314
sVTeamID
p315
I1610612742
sVNUM
p316
V10
p317
sVEXP
p318
g87
sVLeagueID
p319
V00
p320
sVPOSITION
p321
g23
sVPLAYER_ID
p322
I1627827
ssI200757
(dp323
VSCHOOL
p324
VVevey, Switzerland
p325
sVWEIGHT
p326
V220
p327
sVSEASON
p328
V2017
p329
sVAGE
p330
F33.0
sVBIRTH_DATE
p331
VMAY 02, 1984
p332
sVHEIGHT
p333
V6-7
p334
sVPLAYER
p335
VThabo Sefolosha
p336
sVTeamID
p337
I1610612762
sVNUM
p338
V22
p339
sVEXP
p340
V11
p341
sVLeagueID
p342
V00
p343
sVPOSITION
p344
g23
sVPLAYER_ID
p345
I200757
ssI1626166
(dp346
g177
VMurray State
p347
sg179
V185
p348
sg181
V2017
p349
sg183
F23.0
sg184
VAUG 08, 1994
p350
sg186
V6-3
p351
sg188
VCameron Payne
p352
sg190
I1610612741
sg191
V22
p353
sg193
g155
sg194
V00
p354
sg196
g93
sg197
I1626166
ssI1626168
(dp355
g118
VKentucky
p356
sg120
V234
p357
sg122
V2017
p358
sg124
F22.0
sg125
VNOV 05, 1995
p359
sg127
V6-10
p360
sg129
VTrey Lyles
p361
sg131
I1610612743
sg132
g258
sg133
g155
sg135
V00
p362
sg137
g23
sg138
I1626168
ssI2617
(dp363
g270
VFlorida
p364
sg272
V235
p365
sg274
V2017
p366
sg276
F37.0
sg277
VJUN 09, 1980
p367
sg279
V6-8
p368
sg281
VUdonis Haslem
p369
sg283
I1610612748
sg284
V40
p370
sg286
V14
p371
sg287
V00
p372
sg289
g23
sg290
I2617
ssI1626170
(dp373
g177
VNotre Dame
p374
sg179
V198
p375
sg181
V2017
p376
sg183
F25.0
sg184
VOCT 09, 1992
p377
sg186
V6-4
p378
sg188
VJerian Grant
p379
sg190
I1610612741
sg191
g155
sg193
g155
sg194
V00
p380
sg196
g93
sg197
I1626170
ssI1626171
(dp381
g177
VArkansas
p382
sg179
V248
p383
sg181
V2017
p384
sg183
F22.0
sg184
VFEB 10, 1995
p385
sg186
V6-11
p386
sg188
VBobby Portis
p387
sg190
I1610612741
sg191
g205
sg193
g155
sg194
V00
p388
sg196
g23
sg197
I1626171
ssI1626172
(dp389
g2
VUCLA
p390
sg4
V220
p391
sg6
V2017
p392
sg8
F21.0
sg9
VFEB 06, 1996
p393
sg11
V6-9
p394
sg13
VKevon Looney
p395
sg15
I1610612744
sg16
g205
sg18
g155
sg20
V00
p396
sg22
g23
sg24
I1626172
ssI1626173
(dp397
VSCHOOL
p398
VUNLV
p399
sVWEIGHT
p400
V202
p401
sVSEASON
p402
V2017
p403
sVAGE
p404
F21.0
sVBIRTH_DATE
p405
VAUG 16, 1996
p406
sVHEIGHT
p407
V6-6
p408
sVPLAYER
p409
VRashad Vaughn
p410
sVTeamID
p411
I1610612749
sVNUM
p412
V20
p413
sVEXP
p414
g155
sVLeagueID
p415
V00
p416
sVPOSITION
p417
g93
sVPLAYER_ID
p418
I1626173
ssI1626175
(dp419
g270
VLouisiana State
p420
sg272
V235
p421
sg274
V2017
p422
sg276
F23.0
sg277
VJUL 09, 1994
p423
sg279
V6-8
p424
sg281
VJordan Mickey
p425
sg283
I1610612748
sg284
V25
p426
sg286
g155
sg287
V00
p427
sg289
VC-F
p428
sg290
I1626175
ssI200768
(dp429
g230
VVillanova
p430
sg232
V205
p431
sg234
V2017
p432
sg236
F31.0
sg237
VMAR 25, 1986
p433
sg239
V6-0
p434
sg241
VKyle Lowry
p435
sg243
I1610612761
sg244
g258
sg246
V11
p436
sg247
V00
p437
sg249
g93
sg250
I200768
ssI1626177
(dp438
VSCHOOL
p439
VKentucky
p440
sVWEIGHT
p441
V255
p442
sVSEASON
p443
V2017
p444
sVAGE
p445
F22.0
sVBIRTH_DATE
p446
VSEP 22, 1995
p447
sVHEIGHT
p448
V7-0
p449
sVPLAYER
p450
VDakari Johnson
p451
sVTeamID
p452
I1610612760
sVNUM
p453
V44
p454
sVEXP
p455
g89
sVLeagueID
p456
V00
p457
sVPOSITION
p458
g268
sVPLAYER_ID
p459
I1626177
ssI1626179
(dp460
VSCHOOL
p461
VLouisville
p462
sVWEIGHT
p463
V190
p464
sVSEASON
p465
V2017
p466
sVAGE
p467
F23.0
sVBIRTH_DATE
p468
VMAR 17, 1994
p469
sVHEIGHT
p470
V6-2
p471
sVPLAYER
p472
VTerry Rozier
p473
sVTeamID
p474
I1610612738
sVNUM
p475
V12
p476
sVEXP
p477
g155
sVLeagueID
p478
V00
p479
sVPOSITION
p480
g93
sVPLAYER_ID
p481
I1626179
ssI1626181
(dp482
g230
VUCLA
p483
sg232
V215
p484
sg234
V2017
p485
sg236
F24.0
sg237
VMAY 25, 1993
p486
sg239
V6-4
p487
sg241
VNorman Powell
p488
sg243
I1610612761
sg244
V24
p489
sg246
g155
sg247
V00
p490
sg249
VF-G
p491
sg250
I1626181
ssI1626185
(dp492
g209
VLouisiana State
p493
sg211
V239
p494
sg213
V2017
p495
sg215
F23.0
sg216
VMAY 24, 1994
p496
sg218
V6-10
p497
sg220
VJarell Martin
p498
sg222
I1610612763
sg223
g87
sg224
g155
sg225
V00
p499
sg227
g23
sg228
I1626185
ssI1626188
(dp500
g2
VDuke
p501
sg4
V179
p502
sg6
V2017
p503
sg8
F24.0
sg9
VMAR 23, 1993
p504
sg11
V6-2
p505
sg13
VQuinn Cook
p506
sg15
I1610612744
sg16
g66
sg18
g87
sg20
V00
p507
sg22
g93
sg24
I1626188
ssI200782
(dp508
VSCHOOL
p509
VTexas
p510
sVWEIGHT
p511
V245
p512
sVSEASON
p513
V2017
p514
sVAGE
p515
F32.0
sVBIRTH_DATE
p516
VMAY 05, 1985
p517
sVHEIGHT
p518
V6-6
p519
sVPLAYER
p520
VPJ Tucker
p521
sVTeamID
p522
I1610612745
sVNUM
p523
g66
sVEXP
p524
g146
sVLeagueID
p525
V00
p526
sVPOSITION
p527
g23
sVPLAYER_ID
p528
I200782
ssI202083
(dp529
g302
VMarquette
p530
sg304
V220
p531
sg306
V2017
p532
sg308
F31.0
sg309
VOCT 14, 1986
p533
sg311
V6-5
p534
sg313
VWesley Matthews
p535
sg315
I1610612742
sg316
V23
p536
sg318
g299
sg319
V00
p537
sg321
VG-F
p538
sg322
I202083
ssI202324
(dp539
g324
VGeorgia Tech
p540
sg326
V265
p541
sg328
V2017
p542
sg330
F26.0
sg331
VJUL 15, 1991
p543
sg333
V6-10
p544
sg335
VDerrick Favors
p545
sg337
I1610612762
sg338
V15
p546
sg340
g258
sg342
V00
p547
sg344
VF-C
p548
sg345
I202324
ssI202325
(dp549
g72
VSyracuse
p550
sg74
V215
p551
sg76
V2017
p552
sg78
F30.0
sg79
VJUL 11, 1987
p553
sg81
V6-7
p554
sg83
VWesley Johnson
p555
sg85
I1610612746
sg86
V33
p556
sg88
g258
sg90
V00
p557
sg92
g23
sg94
I202325
ssI202326
(dp558
g49
VKentucky
p559
sg51
V270
p560
sg53
V2017
p561
sg55
F27.0
sg56
VAUG 13, 1990
p562
sg58
V6-11
p563
sg60
VDeMarcus Cousins
p564
sg62
I1610612740
sg63
g154
sg65
g258
sg67
V00
p565
sg69
g268
sg70
I202326
ssI202327
(dp566
g324
VBaylor
p567
sg326
V245
p568
sg328
V2017
p569
sg330
F30.0
sg331
VMAY 20, 1987
p570
sg333
V6-10
p571
sg335
VEkpe Udoh
p572
sg337
I1610612762
sg338
V33
p573
sg340
g205
sg342
V00
p574
sg344
VC-F
p575
sg345
I202327
ssI1627736
(dp576
g118
VFlorida State
p577
sg120
V196
p578
sg122
V2017
p579
sg124
F20.0
sg125
VNOV 26, 1996
p580
sg127
V6-5
p581
sg129
VMalik Beasley
p582
sg131
I1610612743
sg132
V25
p583
sg133
g87
sg135
V00
p584
sg137
g93
sg138
I1627736
ssI1627738
(dp585
g209
VMichigan State
p586
sg211
V237
p587
sg213
V2017
p588
sg215
F20.0
sg216
VDEC 02, 1996
p589
sg218
V6-11
p590
sg220
VDeyonta Davis
p591
sg222
I1610612763
sg223
V21
p592
sg224
g87
sg225
V00
p593
sg227
VC-F
p594
sg228
I1627738
ssI202331
(dp595
g439
VFresno State
p596
sg441
V220
p597
sg443
V2017
p598
sg445
F27.0
sg446
VMAY 02, 1990
p599
sg448
V6-9
p600
sg450
VPaul George
p601
sg452
I1610612760
sg453
V13
p602
sg455
g258
sg456
V00
p603
sg458
g23
sg459
I202331
ssI1626204
(dp604
g96
VWyoming
p605
sg98
V230
p606
sg100
V2017
p607
sg102
F24.0
sg103
VJAN 01, 1993
p608
sg105
V6-9
p609
sg107
VLarry Nance Jr.
p610
sg109
I1610612747
sg110
g258
sg112
g155
sg113
V00
p611
sg115
g23
sg116
I1626204
ssI1626205
(dp612
g209
VTexas-El Paso
p613
sg211
V208
p614
sg213
V2017
p615
sg215
F23.0
sg216
VAUG 05, 1994
p616
sg218
V6-8
p617
sg220
VVincent Hunter
p618
sg222
I1610612763
sg223
V32
p619
sg224
g89
sg225
V00
p620
sg227
g23
sg228
I1626205
ssI1627742
(dp621
g96
VDuke
p622
sg98
V190
p623
sg100
V2017
p624
sg102
F20.0
sg103
VSEP 02, 1997
p625
sg105
V6-9
p626
sg107
VBrandon Ingram
p627
sg109
I1610612747
sg110
V14
p628
sg112
g87
sg113
V00
p629
sg115
VF-G
p630
sg116
I1627742
ssI202335
(dp631
g439
VKentucky
p632
sg441
V230
p633
sg443
V2017
p634
sg445
F28.0
sg446
VMAR 14, 1989
p635
sg448
V6-9
p636
sg450
VPatrick Patterson
p637
sg452
I1610612760
sg453
V54
p638
sg455
g258
sg456
V00
p639
sg458
g23
sg459
I202335
ssI1627744
(dp640
g72
VNorth Carolina
p641
sg74
V230
p642
sg76
V2017
p643
sg78
F23.0
sg79
VJUN 27, 1994
p644
sg81
V6-10
p645
sg83
VBrice Johnson
p646
sg85
I1610612746
sg86
V11
p647
sg88
g87
sg90
V00
p648
sg92
g23
sg94
I1627744
ssI1627745
(dp649
g2
VVanderbilt
p650
sg4
V245
p651
sg6
V2017
p652
sg8
F22.0
sg9
VJUN 30, 1995
p653
sg11
V7-0
p654
sg13
VDamian Jones
p655
sg15
I1610612744
sg16
V15
p656
sg18
g87
sg20
V00
p657
sg22
g268
sg24
I1627745
ssI202339
(dp658
g398
VKentucky
p659
sg400
V205
p660
sg402
V2017
p661
sg404
F27.0
sg405
VDEC 09, 1989
p662
sg407
V6-1
p663
sg409
VEric Bledsoe
p664
sg411
I1610612749
sg412
g146
sg414
g258
sg415
V00
p665
sg417
g93
sg418
I202339
ssI1627748
(dp666
g398
Nsg400
V223
p667
sg402
V2017
p668
sg404
F20.0
sg405
VFEB 25, 1997
p669
sg407
V7-1
p670
sg409
VThon Maker
p671
sg411
I1610612749
sg412
g258
sg414
g87
sg415
V00
p672
sg417
VC-F
p673
sg418
I1627748
ssI1627750
(dp674
g118
VKentucky
p675
sg120
V207
p676
sg122
V2017
p677
sg124
F20.0
sg125
VFEB 23, 1997
p678
sg127
V6-4
p679
sg129
VJamal Murray
p680
sg131
I1610612743
sg132
V27
p681
sg133
g87
sg135
V00
p682
sg137
g93
sg138
I1627750
ssI1627751
(dp683
g230
VUtah
p684
sg232
V230
p685
sg234
V2017
p686
sg236
F22.0
sg237
VOCT 15, 1995
p687
sg239
V7-0
p688
sg241
VJakob Poeltl
p689
sg243
I1610612761
sg244
V42
p690
sg246
g87
sg247
V00
p691
sg249
g268
sg250
I1627751
ssI1627753
(dp692
g509
Nsg511
V210
p693
sg513
V2017
p694
sg515
F21.0
sg516
VJAN 16, 1996
p695
sg518
V7-1
p696
sg520
VQi Qi
p697
sg522
I1610612745
sg523
g43
sg524
g89
sg525
V00
p698
sg527
VF-C
p699
sg528
I1627753
ssI202347
(dp700
g177
VWashington
p701
sg179
V225
p702
sg181
V2017
p703
sg183
F29.0
sg184
VMAR 10, 1988
p704
sg186
V6-7
p705
sg188
VQuincy Pondexter
p706
sg190
I1610612741
sg191
V20
p707
sg193
g205
sg194
V00
p708
sg196
g93
sg197
I202347
ssI1626220
(dp709
g324
VBaylor
p710
sg326
V226
p711
sg328
V2017
p712
sg330
F24.0
sg331
VJUN 05, 1993
p713
sg333
V6-6
p714
sg335
VRoyce O'Neale
p715
sg337
I1610612762
sg338
V23
p716
sg340
g89
sg342
V00
p717
sg344
g23
sg345
I1626220
ssI1627759
(dp718
g461
VCalifornia
p719
sg463
V225
p720
sg465
V2017
p721
sg467
F21.0
sg468
VOCT 24, 1996
p722
sg470
V6-7
p723
sg472
VJaylen Brown
p724
sg474
I1610612738
sg475
g258
sg477
g87
sg478
V00
p725
sg480
VG-F
p726
sg481
I1627759
ssI1626224
(dp727
g26
VAnadolu Efes
p728
sg28
V215
p729
sg30
V2017
p730
sg32
F22.0
sg33
VAPR 08, 1995
p731
sg35
V6-8
p732
sg37
VCedi Osman
p733
sg39
I1610612739
sg40
V16
p734
sg42
g89
sg44
V00
p735
sg46
g23
sg47
I1626224
ssI202681
(dp736
g461
VDuke
p737
sg463
V193
p738
sg465
V2017
p739
sg467
F25.0
sg468
VMAR 23, 1992
p740
sg470
V6-3
p741
sg472
VKyrie Irving
p742
sg474
I1610612738
sg475
V11
p743
sg477
g146
sg478
V00
p744
sg480
g93
sg481
I202681
ssI1627762
(dp745
g398
VWeber State
p746
sg400
V235
p747
sg402
V2017
p748
sg404
F23.0
sg405
VJAN 28, 1994
p749
sg407
V6-9
p750
sg409
VJoel Bolomboy
p751
sg411
I1610612749
sg412
V24
p752
sg414
g87
sg415
V00
p753
sg417
VF-C
p754
sg418
I1627762
ssI202355
(dp755
g270
VMarshall
p756
sg272
V265
p757
sg274
V2017
p758
sg276
F28.0
sg277
VJUN 13, 1989
p759
sg279
V7-0
p760
sg281
VHassan Whiteside
p761
sg283
I1610612748
sg284
V21
p762
sg286
g205
sg287
V00
p763
sg289
g268
sg290
I202355
ssI203382
(dp764
g461
VWashington State
p765
sg463
V260
p766
sg465
V2017
p767
sg467
F30.0
sg468
VDEC 09, 1986
p768
sg470
V6-10
p769
sg472
VAron Baynes
p770
sg474
I1610612738
sg475
V46
p771
sg477
g205
sg478
V00
p772
sg480
g268
sg481
I203382
ssI1627767
(dp773
g49
VKansas
p774
sg51
V220
p775
sg53
V2017
p776
sg55
F21.0
sg56
VSEP 13, 1996
p777
sg58
V6-9
p778
sg60
VCheick Diallo
p779
sg62
I1610612740
sg63
V13
p780
sg65
g87
sg67
V00
p781
sg69
g23
sg70
I1627767
ssI203897
(dp782
g177
VUCLA
p783
sg179
V185
p784
sg181
V2017
p785
sg183
F22.0
sg184
VMAR 10, 1995
p786
sg186
V6-5
p787
sg188
VZach LaVine
p788
sg190
I1610612741
sg191
g299
sg193
g17
sg194
V00
p789
sg196
g93
sg197
I203897
ssI200826
(dp790
g302
VNortheastern
p791
sg304
V185
p792
sg306
V2017
p793
sg308
F33.0
sg309
VJUN 26, 1984
p794
sg311
V6-0
p795
sg313
VJ.J. Barea
p796
sg315
I1610612742
sg316
g205
sg318
V11
p797
sg319
V00
p798
sg321
g93
sg322
I200826
ssI1627772
(dp799
g439
VConnecticut
p800
sg441
V195
p801
sg443
V2017
p802
sg445
F22.0
sg446
VAUG 08, 1995
p803
sg448
V6-7
p804
sg450
VDaniel Hamilton
p805
sg452
I1610612760
sg453
V25
p806
sg455
g89
sg456
V00
p807
sg458
g93
sg459
I1627772
ssI1627773
(dp808
g270
VPurdue
p809
sg272
V260
p810
sg274
V2017
p811
sg276
F25.0
sg277
VAUG 27, 1992
p812
sg279
V7-0
p813
sg281
VAJ Hammons
p814
sg283
I1610612748
sg284
g66
sg286
g87
sg287
V00
p815
sg289
g268
sg290
I1627773
ssI1627936
(dp816
g96
VTexas A&M
p817
sg98
V186
p818
sg100
V2017
p819
sg102
F23.0
sg103
VFEB 28, 1994
p820
sg105
V6-5
p821
sg107
VAlex Caruso
p822
sg109
I1610612747
sg110
g66
sg112
g89
sg113
V00
p823
sg115
g93
sg116
I1627936
ssI1627778
(dp824
g509
VLouisville
p825
sg511
V245
p826
sg513
V2017
p827
sg515
F21.0
sg516
VNOV 01, 1996
p828
sg518
V6-10
p829
sg520
VChinanu Onuaku
p830
sg522
I1610612745
sg523
V21
p831
sg524
g87
sg525
V00
p832
sg527
g268
sg528
I1627778
ssI1627780
(dp833
g398
VOregon State
p834
sg400
V190
p835
sg402
V2017
p836
sg404
F24.0
sg405
VDEC 01, 1992
p837
sg407
V6-3
p838
sg409
VGary Payton II
p839
sg411
I1610612749
sg412
g154
sg414
g87
sg415
V00
p840
sg417
g93
sg418
I1627780
ssI203500
(dp841
g439
VPittsburgh
p842
sg441
V255
p843
sg443
V2017
p844
sg445
F24.0
sg446
VJUL 20, 1993
p845
sg448
V7-0
p846
sg450
VSteven Adams
p847
sg452
I1610612760
sg453
V12
p848
sg455
g66
sg456
V00
p849
sg458
g268
sg459
I203500
ssI1627782
(dp850
g209
VKansas
p851
sg211
V230
p852
sg213
V2017
p853
sg215
F23.0
sg216
VSEP 30, 1994
p854
sg218
V6-5
p855
sg220
VWayne Selden
p856
sg222
I1610612763
sg223
g258
sg224
g87
sg225
V00
p857
sg227
VG-F
p858
sg228
I1627782
ssI1627783
(dp859
g230
VNew Mexico State
p860
sg232
V230
p861
sg234
V2017
p862
sg236
F23.0
sg237
VAPR 02, 1994
p863
sg239
V6-9
p864
sg241
VPascal Siakam
p865
sg243
I1610612761
sg244
V43
p866
sg246
g87
sg247
V00
p867
sg249
g23
sg250
I1627783
ssI1627756
(dp868
g177
VMichigan State
p869
sg179
V214
p870
sg181
V2017
p871
sg183
F23.0
sg184
VNOV 16, 1993
p872
sg186
V6-6
p873
sg188
VDenzel Valentine
p874
sg190
I1610612741
sg191
V45
p875
sg193
g87
sg194
V00
p876
sg196
g23
sg197
I1627756
ssI203914
(dp877
g118
VMichigan State
p878
sg120
V210
p879
sg122
V2017
p880
sg124
F23.0
sg125
VSEP 14, 1994
p881
sg127
V6-4
p882
sg129
VGary Harris
p883
sg131
I1610612743
sg132
V14
p884
sg133
g17
sg135
V00
p885
sg137
g93
sg138
I203914
ssI203918
(dp886
g324
VDuke
p887
sg326
V206
p888
sg328
V2017
p889
sg330
F25.0
sg331
VOCT 20, 1992
p890
sg333
V6-8
p891
sg335
VRodney Hood
p892
sg337
I1610612762
sg338
g205
sg340
g17
sg342
V00
p893
sg344
g93
sg345
I203918
ssI1626257
(dp894
g302
Nsg304
V235
p895
sg306
V2017
p896
sg308
F31.0
sg309
VJUN 15, 1986
p897
sg311
V7-2
p898
sg313
VSalah Mejri
p899
sg315
I1610612742
sg316
V50
p900
sg318
g155
sg319
V00
p901
sg321
g268
sg322
I1626257
ssI1626259
(dp902
g230
VHoly Cross
p903
sg232
V210
p904
sg234
V2017
p905
sg236
F24.0
sg237
VMAR 06, 1993
p906
sg239
V6-7
p907
sg241
VMalcolm Miller
p908
sg243
I1610612761
sg244
V13
p909
sg246
g89
sg247
V00
p910
sg249
g23
sg250
I1626259
ssI203924
(dp911
g439
VSyracuse
p912
sg441
V220
p913
sg443
V2017
p914
sg445
F23.0
sg446
VMAR 12, 1994
p915
sg448
V6-9
p916
sg450
VJerami Grant
p917
sg452
I1610612760
sg453
g43
sg455
g17
sg456
V00
p918
sg458
g23
sg459
I203924
ssI2585
(dp919
g2
VTbilisi, Georgia
p920
sg4
V270
p921
sg6
V2017
p922
sg8
F33.0
sg9
VFEB 10, 1984
p923
sg11
V6-11
p924
sg13
VZaza Pachulia
p925
sg15
I1610612744
sg16
V27
p926
sg18
V14
p927
sg20
V00
p928
sg22
g268
sg24
I2585
ssI201156
(dp929
g2
VSouthern California
p930
sg4
V210
p931
sg6
V2017
p932
sg8
F32.0
sg9
VJUN 01, 1985
p933
sg11
V6-7
p934
sg13
VNick Young
p935
sg15
I1610612744
sg16
g146
sg18
V10
p936
sg20
V00
p937
sg22
VG-F
p938
sg24
I201156
ssI201583
(dp939
g509
VCalifornia
p940
sg511
V240
p941
sg513
V2017
p942
sg515
F29.0
sg516
VMAY 06, 1988
p943
sg518
V6-10
p944
sg520
VRyan Anderson
p945
sg522
I1610612745
sg523
V33
p946
sg524
g43
sg525
V00
p947
sg527
g23
sg528
I201583
ssI2207
(dp948
g324
VArkansas
p949
sg326
V240
p950
sg328
V2017
p951
sg330
F36.0
sg331
VJUN 29, 1981
p952
sg333
V6-7
p953
sg335
VJoe Johnson
p954
sg337
I1610612762
sg338
g146
sg340
V16
p955
sg342
V00
p956
sg344
VG-F
p957
sg345
I2207
ssI2210
(dp958
g118
VArizona
p959
sg120
V233
p960
sg122
V2017
p961
sg124
F37.0
sg125
VJUN 21, 1980
p962
sg127
V6-7
p963
sg129
VRichard Jefferson
p964
sg131
I1610612743
sg132
V22
p965
sg133
V16
p966
sg135
V00
p967
sg137
g23
sg138
I2210
ssI203939
(dp968
g302
VStanford
p969
sg304
V240
p970
sg306
V2017
p971
sg308
F26.0
sg309
VJUL 20, 1991
p972
sg311
V6-11
p973
sg313
VDwight Powell
p974
sg315
I1610612742
sg316
g258
sg318
g17
sg319
V00
p975
sg321
VF-C
p976
sg322
I203939
ssI1627812
(dp977
g302
VIndiana
p978
sg304
V180
p979
sg306
V2017
p980
sg308
F24.0
sg309
VMAY 09, 1993
p981
sg311
V6-0
p982
sg313
VYogi Ferrell
p983
sg315
I1610612742
sg316
V11
p984
sg318
g87
sg319
V00
p985
sg321
g93
sg322
I1627812
ssI202694
(dp986
g461
VKansas
p987
sg463
V235
p988
sg465
V2017
p989
sg467
F28.0
sg468
VSEP 02, 1989
p990
sg470
V6-9
p991
sg472
VMarcus Morris
p992
sg474
I1610612738
sg475
V13
p993
sg477
g146
sg478
V00
p994
sg480
g23
sg481
I202694
ssI203121
(dp995
g49
VKentucky
p996
sg51
V225
p997
sg53
V2017
p998
sg55
F27.0
sg56
VMAR 21, 1990
p999
sg58
V6-8
p1000
sg60
VDarius Miller
p1001
sg62
I1610612740
sg63
V21
p1002
sg65
g17
sg67
V00
p1003
sg69
g23
sg70
I203121
ssI203944
(dp1004
g96
VKentucky
p1005
sg98
V250
p1006
sg100
V2017
p1007
sg102
F22.0
sg103
VNOV 29, 1994
p1008
sg105
V6-9
p1009
sg107
VJulius Randle
p1010
sg109
I1610612747
sg110
V30
p1011
sg112
g17
sg113
V00
p1012
sg115
VF-C
p1013
sg116
I203944
ssI1628444
(dp1014
g461
VCalifornia
p1015
sg463
V198
p1016
sg465
V2017
p1017
sg467
F23.0
sg468
VJUL 03, 1994
p1018
sg470
V6-6
p1019
sg472
VJabari Bird
p1020
sg474
I1610612738
sg475
V26
p1021
sg477
g89
sg478
V00
p1022
sg480
g93
sg481
I1628444
ssI2733
(dp1023
g2
VPeoria Central HS (IL)
p1024
sg4
V192
p1025
sg6
V2017
p1026
sg8
F32.0
sg9
VSEP 11, 1985
p1027
sg11
V6-7
p1028
sg13
VShaun Livingston
p1029
sg15
I1610612744
sg16
V34
p1030
sg18
V12
p1031
sg20
V00
p1032
sg22
g93
sg24
I2733
ssI2734
(dp1033
g302
VWisconsin
p1034
sg304
V185
p1035
sg306
V2017
p1036
sg308
F34.0
sg309
VFEB 27, 1983
p1037
sg311
V6-3
p1038
sg313
VDevin Harris
p1039
sg315
I1610612742
sg316
V34
p1040
sg318
V13
p1041
sg319
V00
p1042
sg321
g93
sg322
I2734
ssI1627823
(dp1043
g118
Nsg120
V230
p1044
sg122
V2017
p1045
sg124
F22.0
sg125
VSEP 28, 1995
p1046
sg127
V6-9
p1047
sg129
VJuan Hernangomez
p1048
sg131
I1610612743
sg132
V41
p1049
sg133
g87
sg135
V00
p1050
sg137
g23
sg138
I1627823
ssI201950
(dp1051
g49
VUCLA
p1052
sg51
V205
p1053
sg53
V2017
p1054
sg55
F27.0
sg56
VJUN 12, 1990
p1055
sg58
V6-4
p1056
sg60
VJrue Holiday
p1057
sg62
I1610612740
sg63
V11
p1058
sg65
g299
sg67
V00
p1059
sg69
g93
sg70
I201950
ssI203953
(dp1060
g398
VDuke
p1061
sg400
V250
p1062
sg402
V2017
p1063
sg404
F22.0
sg405
VMAR 15, 1995
p1064
sg407
V6-8
p1065
sg409
VJabari Parker
p1066
sg411
I1610612749
sg412
V12
p1067
sg414
g17
sg415
V00
p1068
sg417
g23
sg418
I203953
ssI201933
(dp1069
g72
VOklahoma
p1070
sg74
V251
p1071
sg76
V2017
p1072
sg78
F28.0
sg79
VMAR 16, 1989
p1073
sg81
V6-10
p1074
sg83
VBlake Griffin
p1075
sg85
I1610612746
sg86
V32
p1076
sg88
g258
sg90
V00
p1077
sg92
g23
sg94
I201933
ssI1627763
(dp1078
g398
VVirginia
p1079
sg400
V215
p1080
sg402
V2017
p1081
sg404
F24.0
sg405
VDEC 11, 1992
p1082
sg407
V6-5
p1083
sg409
VMalcolm Brogdon
p1084
sg411
I1610612749
sg412
V13
p1085
sg414
g87
sg415
V00
p1086
sg417
g93
sg418
I1627763
ssI203957
(dp1087
g324
Nsg326
V190
p1088
sg328
V2017
p1089
sg330
F22.0
sg331
VJUL 13, 1995
p1090
sg333
V6-6
p1091
sg335
VDante Exum
p1092
sg337
I1610612762
sg338
V11
p1093
sg340
g155
sg342
V00
p1094
sg344
g93
sg345
I203957
ssI1627775
(dp1095
g2
VNevada-Las Vegas
p1096
sg4
V185
p1097
sg6
V2017
p1098
sg8
F22.0
sg9
VOCT 25, 1995
p1099
sg11
V6-7
p1100
sg13
VPatrick McCaw
p1101
sg15
I1610612744
sg16
g154
sg18
g87
sg20
V00
p1102
sg22
g93
sg24
I1627775
ssI202697
(dp1103
g26
VGeorgia Tech
p1104
sg28
V220
p1105
sg30
V2017
p1106
sg32
F27.0
sg33
VJUN 26, 1990
p1107
sg35
V6-5
p1108
sg37
VIman Shumpert
p1109
sg39
I1610612739
sg40
g66
sg42
g146
sg44
V00
p1110
sg46
g93
sg47
I202697
ssI1627832
(dp1111
g230
VWichita State
p1112
sg232
V195
p1113
sg234
V2017
p1114
sg236
F23.0
sg237
VFEB 25, 1994
p1115
sg239
V6-0
p1116
sg241
VFred VanVleet
p1117
sg243
I1610612761
sg244
V23
p1118
sg246
g87
sg247
V00
p1119
sg249
g93
sg250
I1627832
ssI203962
(dp1120
g439
VStanford
p1121
sg441
V230
p1122
sg443
V2017
p1123
sg445
F25.0
sg446
VDEC 19, 1991
p1124
sg448
V6-7
p1125
sg450
VJosh Huestis
p1126
sg452
I1610612760
sg453
V34
p1127
sg455
g155
sg456
V00
p1128
sg458
g23
sg459
I203962
ssI1627835
(dp1129
g177
Nsg179
V226
p1130
sg181
V2017
p1131
sg183
F23.0
sg184
VFEB 18, 1994
p1132
sg186
V6-8
p1133
sg188
VPaul Zipser
p1134
sg190
I1610612741
sg191
V16
p1135
sg193
g87
sg194
V00
p1136
sg196
g23
sg197
I1627835
ssI2749
(dp1137
g49
VSaint Joseph's
p1138
sg51
V190
p1139
sg53
V2017
p1140
sg55
F35.0
sg56
VFEB 09, 1982
p1141
sg58
V6-0
p1142
sg60
VJameer Nelson
p1143
sg62
I1610612740
sg63
V14
p1144
sg65
V13
p1145
sg67
V00
p1146
sg69
g93
sg70
I2749
ssI203966
(dp1147
g72
VMarquette
p1148
sg74
V229
p1149
sg76
V2017
p1150
sg78
F26.0
sg79
VNOV 21, 1990
p1151
sg81
V6-7
p1152
sg83
VJamil Wilson
p1153
sg85
I1610612746
sg86
V13
p1154
sg88
g89
sg90
V00
p1155
sg92
g23
sg94
I203966
ssI1628021
(dp1156
g177
VCal Poly-S.L.O.
p1157
sg179
V209
p1158
sg181
V2017
p1159
sg183
F24.0
sg184
VJAN 14, 1993
p1160
sg186
V6-4
p1161
sg188
VDavid Nwaba
p1162
sg190
I1610612741
sg191
V11
p1163
sg193
g87
sg194
V00
p1164
sg196
g93
sg197
I1628021
ssI203457
(dp1165
g302
VKentucky
p1166
sg304
V220
p1167
sg306
V2017
p1168
sg308
F23.0
sg309
VAPR 10, 1994
p1169
sg311
V6-11
p1170
sg313
VNerlens Noel
p1171
sg315
I1610612742
sg316
g17
sg318
g17
sg319
V00
p1172
sg321
g268
sg322
I203457
ssI2754
(dp1173
g49
VOklahoma State
p1174
sg51
V213
p1175
sg53
V2017
p1176
sg55
F35.0
sg56
VJAN 11, 1982
p1177
sg58
V6-4
p1178
sg60
VTony Allen
p1179
sg62
I1610612740
sg63
V24
p1180
sg65
V13
p1181
sg67
V00
p1182
sg69
VG-F
p1183
sg70
I2754
ssI203460
(dp1184
g439
VColorado
p1185
sg441
V210
p1186
sg443
V2017
p1187
sg445
F25.0
sg446
VDEC 04, 1991
p1188
sg448
V6-7
p1189
sg450
VAndre Roberson
p1190
sg452
I1610612760
sg453
V21
p1191
sg455
g66
sg456
V00
p1192
sg458
g93
sg459
I203460
ssI1627846
(dp1193
g461
VIowa State
p1194
sg463
V230
p1195
sg465
V2017
p1196
sg467
F24.0
sg468
VSEP 25, 1993
p1197
sg470
V6-6
p1198
sg472
VAbdel Nader
p1199
sg474
I1610612738
sg475
V28
p1200
sg477
g89
sg478
V00
p1201
sg480
g23
sg481
I1627846
ssI203463
(dp1202
g209
VKansas
p1203
sg211
V195
p1204
sg213
V2017
p1205
sg215
F24.0
sg216
VFEB 11, 1993
p1206
sg218
V6-5
p1207
sg220
VBen McLemore
p1208
sg222
I1610612763
sg223
V23
p1209
sg224
g66
sg225
V00
p1210
sg227
g93
sg228
I203463
ssI203499
(dp1211
g461
VMiami (FL)
p1212
sg463
V175
p1213
sg465
V2017
p1214
sg467
F25.0
sg468
VOCT 02, 1992
p1215
sg470
V5-11
p1216
sg472
VShane Larkin
p1217
sg474
I1610612738
sg475
g299
sg477
g17
sg478
V00
p1218
sg480
g93
sg481
I203499
ssI202684
(dp1219
g26
VTexas
p1220
sg28
V238
p1221
sg30
V2017
p1222
sg32
F26.0
sg33
VMAR 13, 1991
p1223
sg35
V6-9
p1224
sg37
VTristan Thompson
p1225
sg39
I1610612739
sg40
V13
p1226
sg42
g146
sg44
V00
p1227
sg46
VC-F
p1228
sg47
I202684
ssI1627853
(dp1229
g177
VVillanova
p1230
sg179
V195
p1231
sg181
V2017
p1232
sg183
F23.0
sg184
VMAR 26, 1994
p1233
sg186
V6-3
p1234
sg188
VRyan Arcidiacono
p1235
sg190
I1610612741
sg191
V15
p1236
sg193
g89
sg194
V00
p1237
sg196
g93
sg197
I1627853
ssI1628366
(dp1238
g96
VCalifornia-Los Angeles
p1239
sg98
V190
p1240
sg100
V2017
p1241
sg102
F20.0
sg103
VOCT 27, 1997
p1242
sg105
V6-6
p1243
sg107
VLonzo Ball
p1244
sg109
I1610612747
sg110
g155
sg112
g89
sg113
V00
p1245
sg115
g93
sg116
I1628366
ssI1627855
(dp1246
g270
VFlorida State
p1247
sg272
V215
p1248
sg274
V2017
p1249
sg276
F25.0
sg277
VAUG 13, 1992
p1250
sg279
V6-8
p1251
sg281
VOkaro White
p1252
sg283
I1610612748
sg284
V15
p1253
sg286
g87
sg287
V00
p1254
sg289
g23
sg290
I1627855
ssI201936
(dp1255
g209
VMemphis
p1256
sg211
V220
p1257
sg213
V2017
p1258
sg215
F28.0
sg216
VSEP 19, 1989
p1259
sg218
V6-6
p1260
sg220
VTyreke Evans
p1261
sg222
I1610612763
sg223
V12
p1262
sg224
g299
sg225
V00
p1263
sg227
VG-F
p1264
sg228
I201936
ssI201937
(dp1265
g324
VEl Masnou, Spain
p1266
sg326
V190
p1267
sg328
V2017
p1268
sg330
F27.0
sg331
VOCT 21, 1990
p1269
sg333
V6-4
p1270
sg335
VRicky Rubio
p1271
sg337
I1610612762
sg338
g17
sg340
g146
sg342
V00
p1272
sg344
g93
sg345
I201937
ssI201939
(dp1273
g2
VDavidson
p1274
sg4
V190
p1275
sg6
V2017
p1276
sg8
F29.0
sg9
VMAR 14, 1988
p1277
sg11
V6-3
p1278
sg13
VStephen Curry
p1279
sg15
I1610612744
sg16
V30
p1280
sg18
g299
sg20
V00
p1281
sg22
g93
sg24
I201939
ssI1628372
(dp1282
g302
VNorth Carolina State
p1283
sg304
V195
p1284
sg306
V2017
p1285
sg308
F19.0
sg309
VNOV 25, 1997
p1286
sg311
V6-3
p1287
sg313
VDennis Smith Jr.
p1288
sg315
I1610612742
sg316
g87
sg318
g89
sg319
V00
p1289
sg321
g93
sg322
I1628372
ssI201942
(dp1290
g230
VSouthern California
p1291
sg232
V220
p1292
sg234
V2017
p1293
sg236
F28.0
sg237
VAUG 07, 1989
p1294
sg239
V6-7
p1295
sg241
VDeMar DeRozan
p1296
sg243
I1610612761
sg244
V10
p1297
sg246
g299
sg247
V00
p1298
sg249
g93
sg250
I201942
ssI203991
(dp1299
g509
Nsg511
V240
p1300
sg513
V2017
p1301
sg515
F23.0
sg516
VMAY 18, 1994
p1302
sg518
V6-10
p1303
sg520
VClint Capela
p1304
sg522
I1610612745
sg523
V15
p1305
sg524
g17
sg525
V00
p1306
sg527
g268
sg528
I203991
ssI203481
(dp1307
g302
VKansas
p1308
sg304
V230
p1309
sg306
V2017
p1310
sg308
F27.0
sg309
VMAR 07, 1990
p1311
sg311
V7-0
p1312
sg313
VJeff Withey
p1313
sg315
I1610612742
sg316
V17
p1314
sg318
g66
sg319
V00
p1315
sg321
g268
sg322
I203481
ssI1628378
(dp1316
g324
VLouisville
p1317
sg326
V215
p1318
sg328
V2017
p1319
sg330
F21.0
sg331
VSEP 07, 1996
p1320
sg333
V6-3
p1321
sg335
VDonovan Mitchell
p1322
sg337
I1610612762
sg338
V45
p1323
sg340
g89
sg342
V00
p1324
sg344
g93
sg345
I1628378
ssI201935
(dp1325
g509
VArizona State
p1326
sg511
V220
p1327
sg513
V2017
p1328
sg515
F28.0
sg516
VAUG 26, 1989
p1329
sg518
V6-5
p1330
sg520
VJames Harden
p1331
sg522
I1610612745
sg523
V13
p1332
sg524
g299
sg525
V00
p1333
sg527
g93
sg528
I201935
ssI203484
(dp1334
g96
VGeorgia
p1335
sg98
V205
p1336
sg100
V2017
p1337
sg102
F24.0
sg103
VFEB 18, 1993
p1338
sg105
V6-5
p1339
sg107
VKentavious Caldwell-Pope
p1340
sg109
I1610612747
sg110
g87
sg112
g66
sg113
V00
p1341
sg115
g93
sg116
I203484
ssI201949
(dp1342
g270
VWake Forest
p1343
sg272
V240
p1344
sg274
V2017
p1345
sg276
F30.0
sg277
VFEB 20, 1987
p1346
sg279
V6-8
p1347
sg281
VJames Johnson
p1348
sg283
I1610612748
sg284
V16
p1349
sg286
g299
sg287
V00
p1350
sg289
g23
sg290
I201949
ssI203998
(dp1351
g230
Nsg232
V205
p1352
sg234
V2017
p1353
sg236
F22.0
sg237
VSEP 21, 1995
p1354
sg239
V6-9
p1355
sg241
VBruno Caboclo
p1356
sg243
I1610612761
sg244
g205
sg246
g17
sg247
V00
p1357
sg249
g23
sg250
I203998
ssI203999
(dp1358
g118
Nsg120
V250
p1359
sg122
V2017
p1360
sg124
F22.0
sg125
VFEB 19, 1995
p1361
sg127
V6-10
p1362
sg129
VNikola Jokic
p1363
sg131
I1610612743
sg132
V15
p1364
sg133
g155
sg135
V00
p1365
sg137
g268
sg138
I203999
ssI1628384
(dp1366
g230
VIndiana
p1367
sg232
V235
p1368
sg234
V2017
p1369
sg236
F20.0
sg237
VJUL 17, 1997
p1370
sg239
V6-8
p1371
sg241
VOG Anunoby
p1372
sg243
I1610612761
sg244
g17
sg246
g89
sg247
V00
p1373
sg249
g23
sg250
I1628384
ssI203489
(dp1374
g324
VSouth Dakota State
p1375
sg326
V190
p1376
sg328
V2017
p1377
sg330
F26.0
sg331
VMAY 15, 1991
p1378
sg333
V6-4
p1379
sg335
VNate Wolters
p1380
sg337
I1610612762
sg338
V16
p1381
sg340
g155
sg342
V00
p1382
sg344
g93
sg345
I203489
ssI1627362
(dp1383
g509
VVirginia Commonwealth
p1384
sg511
V165
p1385
sg513
V2017
p1386
sg515
F24.0
sg516
VDEC 29, 1992
p1387
sg518
V6-2
p1388
sg520
VBriante Weber
p1389
sg522
I1610612745
sg523
g154
sg524
g155
sg525
V00
p1390
sg527
g93
sg528
I1627362
ssI201956
(dp1391
g2
VYavne, Israel
p1392
sg4
V225
p1393
sg6
V2017
p1394
sg8
F29.0
sg9
VJUN 22, 1988
p1395
sg11
V6-9
p1396
sg13
VOmri Casspi
p1397
sg15
I1610612744
sg16
V18
p1398
sg18
g299
sg20
V00
p1399
sg22
g23
sg24
I201956
ssI1628389
(dp1400
g270
VKentucky
p1401
sg272
V255
p1402
sg274
V2017
p1403
sg276
F20.0
sg277
VJUL 18, 1997
p1404
sg279
V6-10
p1405
sg281
VBam Adebayo
p1406
sg283
I1610612748
sg284
V13
p1407
sg286
g89
sg287
V00
p1408
sg289
VC-F
p1409
sg290
I1628389
ssI1628390
(dp1410
g439
Nsg441
V184
p1411
sg443
V2017
p1412
sg445
F19.0
sg446
VMAY 17, 1998
p1413
sg448
V6-7
p1414
sg450
VTerrance Ferguson
p1415
sg452
I1610612760
sg453
V23
p1416
sg455
g89
sg456
V00
p1417
sg458
g93
sg459
I1628390
ssI1628391
(dp1418
g398
VMichigan
p1419
sg400
V236
p1420
sg402
V2017
p1421
sg404
F21.0
sg405
VFEB 19, 1996
p1422
sg407
V6-10
p1423
sg409
VD.J. Wilson
p1424
sg411
I1610612749
sg412
g205
sg414
g89
sg415
V00
p1425
sg417
g23
sg418
I1628391
ssI203497
(dp1426
g324
VFrance
p1427
sg326
V245
p1428
sg328
V2017
p1429
sg330
F25.0
sg331
VJUN 26, 1992
p1430
sg333
V7-1
p1431
sg335
VRudy Gobert
p1432
sg337
I1610612762
sg338
V27
p1433
sg340
g66
sg342
V00
p1434
sg344
g268
sg345
I203497
ssI1627883
(dp1435
g49
VTexas A&M
p1436
sg51
V220
p1437
sg53
V2017
p1438
sg55
F24.0
sg56
VMAY 27, 1993
p1439
sg58
V6-7
p1440
sg60
VJalen Jones
p1441
sg62
I1610612740
sg63
V12
p1442
sg65
g89
sg67
V00
p1443
sg69
g23
sg70
I1627883
ssI1628396
(dp1444
g324
VNorth Carolina
p1445
sg326
V248
p1446
sg328
V2017
p1447
sg330
F19.0
sg331
VJAN 08, 1998
p1448
sg333
V6-10
p1449
sg335
VTony Bradley
p1450
sg337
I1610612762
sg338
V13
p1451
sg340
g89
sg342
V00
p1452
sg344
g268
sg345
I1628396
ssI1628397
(dp1453
g209
VCalifornia
p1454
sg211
V220
p1455
sg213
V2017
p1456
sg215
F20.0
sg216
VFEB 04, 1997
p1457
sg218
V6-10
p1458
sg220
VIvan Rabb
p1459
sg222
I1610612763
sg223
V10
p1460
sg224
g89
sg225
V00
p1461
sg227
g23
sg228
I1628397
ssI1628398
(dp1462
g96
VUtah
p1463
sg98
V220
p1464
sg100
V2017
p1465
sg102
F22.0
sg103
VJUL 24, 1995
p1466
sg105
V6-9
p1467
sg107
VKyle Kuzma
p1468
sg109
I1610612747
sg110
g154
sg112
g89
sg113
V00
p1469
sg115
g23
sg116
I1628398
ssI203503
(dp1470
g398
VNew Mexico
p1471
sg400
V221
p1472
sg402
V2017
p1473
sg404
F26.0
sg405
VNOV 10, 1991
p1474
sg407
V6-7
p1475
sg409
VTony Snell
p1476
sg411
I1610612749
sg412
V21
p1477
sg414
g66
sg415
V00
p1478
sg417
g93
sg418
I203503
ssI1628400
(dp1479
g461
VSouthern Methodist
p1480
sg463
V235
p1481
sg465
V2017
p1482
sg467
F22.0
sg468
VDEC 05, 1994
p1483
sg470
V6-7
p1484
sg472
VSemi Ojeleye
p1485
sg474
I1610612738
sg475
V37
p1486
sg477
g89
sg478
V00
p1487
sg480
g23
sg481
I1628400
ssI203505
(dp1488
g96
VMarquette
p1489
sg98
V200
p1490
sg100
V2017
p1491
sg102
F25.0
sg103
VJUL 17, 1992
p1492
sg105
V6-5
p1493
sg107
VVander Blue
p1494
sg109
I1610612747
sg110
V17
p1495
sg112
g155
sg113
V00
p1496
sg115
g93
sg116
I203505
ssI1628402
(dp1497
g49
VDuke
p1498
sg51
V205
p1499
sg53
V2017
p1500
sg55
F19.0
sg56
VMAY 04, 1998
p1501
sg58
V6-3
p1502
sg60
VFrank Jackson
p1503
sg62
I1610612740
sg63
V15
p1504
sg65
g89
sg67
V00
p1505
sg69
g93
sg70
I1628402
ssI203507
(dp1506
g398
VGreece
p1507
sg400
V222
p1508
sg402
V2017
p1509
sg404
F22.0
sg405
VDEC 06, 1994
p1510
sg407
V6-11
p1511
sg409
VGiannis Antetokounmpo
p1512
sg411
I1610612749
sg412
V34
p1513
sg414
g66
sg415
V00
p1514
sg417
g23
sg418
I203507
ssI204020
(dp1515
g270
VFresno State
p1516
sg272
V190
p1517
sg274
V2017
p1518
sg276
F25.0
sg277
VMAY 07, 1992
p1519
sg279
V6-4
p1520
sg281
VTyler Johnson
p1521
sg283
I1610612748
sg284
g299
sg286
g17
sg287
V00
p1522
sg289
g93
sg290
I204020
ssI201973
(dp1523
g324
VKinna, Sweden
p1524
sg326
V231
p1525
sg328
V2017
p1526
sg330
F30.0
sg331
VMAR 02, 1987
p1527
sg333
V6-10
p1528
sg335
VJonas Jerebko
p1529
sg337
I1610612762
sg338
g299
sg340
g258
sg342
V00
p1530
sg344
g23
sg345
I201973
ssI203512
(dp1531
g230
Nsg232
V220
p1532
sg234
V2017
p1533
sg236
F25.0
sg237
VJUL 26, 1992
p1534
sg239
V7-0
p1535
sg241
VLucas Nogueira
p1536
sg243
I1610612761
sg244
V92
p1537
sg246
g17
sg247
V00
p1538
sg249
g268
sg250
I203512
ssI2772
(dp1539
g509
VUCLA
p1540
sg511
V215
p1541
sg513
V2017
p1542
sg515
F32.0
sg516
VJUN 30, 1985
p1543
sg518
V6-8
p1544
sg520
VTrevor Ariza
p1545
sg522
I1610612745
sg523
g87
sg524
V13
p1546
sg525
V00
p1547
sg527
VF-G
p1548
sg528
I2772
ssI203903
(dp1549
g96
VMissouri
p1550
sg98
V194
p1551
sg100
V2017
p1552
sg102
F25.0
sg103
VJUN 07, 1992
p1553
sg105
V6-5
p1554
sg107
VJordan Clarkson
p1555
sg109
I1610612747
sg110
g146
sg112
g17
sg113
V00
p1556
sg115
g93
sg116
I203903
ssI203516
(dp1557
g209
VLong Beach State
p1558
sg211
V210
p1559
sg213
V2017
p1560
sg215
F27.0
sg216
VJUL 01, 1990
p1561
sg218
V6-7
p1562
sg220
VJames Ennis III
p1563
sg222
I1610612763
sg223
g299
sg224
g17
sg225
V00
p1564
sg227
g23
sg228
I203516
ssI203518
(dp1565
g439
Nsg441
V190
p1566
sg443
V2017
p1567
sg445
F24.0
sg446
VAUG 01, 1993
p1568
sg448
V6-6
p1569
sg450
VAlex Abrines
p1570
sg452
I1610612760
sg453
g299
sg455
g87
sg456
V00
p1571
sg458
g93
sg459
I203518
ssI1628415
(dp1572
g209
VOregon
p1573
sg211
V220
p1574
sg213
V2017
p1575
sg215
F21.0
sg216
VJAN 22, 1996
p1576
sg218
V6-6
p1577
sg220
VDillon Brooks
p1578
sg222
I1610612763
sg223
V24
p1579
sg224
g89
sg225
V00
p1580
sg227
VF-G
p1581
sg228
I1628415
ssI203521
(dp1582
g398
VSaint Mary's (CA)
p1583
sg400
V198
p1584
sg402
V2017
p1585
sg404
F27.0
sg405
VSEP 08, 1990
p1586
sg407
V6-4
p1587
sg409
VMatthew Dellavedova
p1588
sg411
I1610612749
sg412
g299
sg414
g66
sg415
V00
p1589
sg417
g93
sg418
I203521
ssI1628418
(dp1590
g96
VIndiana
p1591
sg98
V248
p1592
sg100
V2017
p1593
sg102
F20.0
sg103
VJUL 31, 1997
p1594
sg105
V6-10
p1595
sg107
VThomas Bryant
p1596
sg109
I1610612747
sg110
V31
p1597
sg112
g89
sg113
V00
p1598
sg115
g268
sg116
I1628418
ssI1628506
(dp1599
g26
VVirginia
p1600
sg28
V190
p1601
sg30
V2017
p1602
sg32
F23.0
sg33
VOCT 03, 1994
p1603
sg35
V6-2
p1604
sg37
VLondon Perrantes
p1605
sg39
I1610612739
sg40
V15
p1606
sg42
g89
sg44
V00
p1607
sg46
g93
sg47
I1628506
ssI1628420
(dp1608
g118
VIowa State
p1609
sg120
V175
p1610
sg122
V2017
p1611
sg124
F22.0
sg125
VJUN 27, 1995
p1612
sg127
V6-3
p1613
sg129
VMonte Morris
p1614
sg131
I1610612743
sg132
V11
p1615
sg133
g89
sg135
V00
p1616
sg137
g93
sg138
I1628420
ssI1627770
(dp1617
g177
VOakland
p1618
sg179
V176
p1619
sg181
V2017
p1620
sg183
F22.0
sg184
VMAR 29, 1995
p1621
sg186
V5-9
p1622
sg188
VKay Felder
p1623
sg190
I1610612741
sg191
g17
sg193
g87
sg194
V00
p1624
sg196
g93
sg197
I1627770
ssI203526
(dp1625
g324
Nsg326
V179
p1626
sg328
V2017
p1627
sg330
F25.0
sg331
VMAY 19, 1992
p1628
sg333
V6-1
p1629
sg335
VRaul Neto
p1630
sg337
I1610612762
sg338
V25
p1631
sg340
g155
sg342
V00
p1632
sg344
g93
sg345
I203526
ssI1628424
(dp1633
g209
VArizona
p1634
sg211
V170
p1635
sg213
V2017
p1636
sg215
F20.0
sg216
VJUL 04, 1997
p1637
sg218
V6-4
p1638
sg220
VKobi Simmons
p1639
sg222
I1610612763
sg223
g155
sg224
g89
sg225
V00
p1640
sg227
g93
sg228
I1628424
ssI1628425
(dp1641
g398
VSouthern Methodist
p1642
sg400
V230
p1643
sg402
V2017
p1644
sg404
F22.0
sg405
VFEB 10, 1995
p1645
sg407
V6-6
p1646
sg409
VSterling Brown
p1647
sg411
I1610612749
sg412
V23
p1648
sg414
g89
sg415
V00
p1649
sg417
g93
sg418
I1628425
ssI1628429
(dp1650
g49
VDayton
p1651
sg51
V196
p1652
sg53
V2017
p1653
sg55
F23.0
sg56
VJUL 01, 1994
p1654
sg58
V6-5
p1655
sg60
VCharles Cooke
p1656
sg62
I1610612740
sg63
g66
sg65
g89
sg67
V00
p1657
sg69
g93
sg70
I1628429
ssI101139
(dp1658
g230
VSkyline HS (TX)
p1659
sg232
V225
p1660
sg234
V2017
p1661
sg236
F30.0
sg237
VMAR 18, 1987
p1662
sg239
V6-6
p1663
sg241
VCJ Miles
p1664
sg243
I1610612761
sg244
g154
sg246
V12
p1665
sg247
V00
p1666
sg249
VF-G
p1667
sg250
I101139
ssI201177
(dp1668
g302
VDuke
p1669
sg304
V240
p1670
sg306
V2017
p1671
sg308
F30.0
sg309
VFEB 28, 1987
p1672
sg311
V6-10
p1673
sg313
VJosh McRoberts
p1674
sg315
I1610612742
sg316
V13
p1675
sg318
V10
p1676
sg319
V00
p1677
sg321
VF-C
p1678
sg322
I201177
ssI203546
(dp1679
g49
VBelmont
p1680
sg51
V175
p1681
sg53
V2017
p1682
sg55
F26.0
sg56
VMAR 07, 1991
p1683
sg58
V6-3
p1684
sg60
VIan Clark
p1685
sg62
I1610612740
sg63
g155
sg65
g66
sg67
V00
p1686
sg69
g93
sg70
I203546
ssI203547
(dp1687
g324
VCampbell
p1688
sg326
V205
p1689
sg328
V2017
p1690
sg330
F27.0
sg331
VMAY 26, 1990
p1691
sg333
V6-8
p1692
sg335
VEric Griffin
p1693
sg337
I1610612762
sg338
V17
p1694
sg340
g89
sg342
V00
p1695
sg344
VC-F
p1696
sg345
I203547
ssI204060
(dp1697
g324
Nsg326
V226
p1698
sg328
V2017
p1699
sg330
F30.0
sg331
VOCT 02, 1987
p1700
sg333
V6-8
p1701
sg335
VJoe Ingles
p1702
sg337
I1610612762
sg338
g155
sg340
g17
sg342
V00
p1703
sg344
g23
sg345
I204060
ssI203482
(dp1704
g270
VGonzaga
p1705
sg272
V245
p1706
sg274
V2017
p1707
sg276
F26.0
sg277
VAPR 19, 1991
p1708
sg279
V7-0
p1709
sg281
VKelly Olynyk
p1710
sg283
I1610612748
sg284
g43
sg286
g66
sg287
V00
p1711
sg289
VC-F
p1712
sg290
I203482
ssI101150
(dp1713
g72
VSouth Gwinnett HS (GA)
p1714
sg74
V175
p1715
sg76
V2017
p1716
sg78
F31.0
sg79
VOCT 27, 1986
p1717
sg81
V6-1
p1718
sg83
VLou Williams
p1719
sg85
I1610612746
sg86
V23
p1720
sg88
V12
p1721
sg90
V00
p1722
sg92
g93
sg94
I101150
ssI1626245
(dp1723
g177
Nsg179
V280
p1724
sg181
V2017
p1725
sg183
F25.0
sg184
VJUL 07, 1992
p1726
sg186
V6-9
p1727
sg188
VCristiano Felicio
p1728
sg190
I1610612741
sg191
g146
sg193
g155
sg194
V00
p1729
sg196
VC-F
p1730
sg197
I1626245
ssI203552
(dp1731
g302
VDuke
p1732
sg304
V185
p1733
sg306
V2017
p1734
sg308
F27.0
sg309
VAUG 23, 1990
p1735
sg311
V6-2
p1736
sg313
VSeth Curry
p1737
sg315
I1610612742
sg316
V30
p1738
sg318
g66
sg319
V00
p1739
sg321
g93
sg322
I203552
ssI1628449
(dp1740
g2
VOregon
p1741
sg4
V200
p1742
sg6
V2017
p1743
sg8
F24.0
sg9
VJAN 11, 1993
p1744
sg11
V6-10
p1745
sg13
VChris Boucher
p1746
sg15
I1610612744
sg16
V25
p1747
sg18
g89
sg20
V00
p1748
sg22
g23
sg24
I1628449
ssI204066
(dp1749
g26
VBoston U.
p1750
sg28
V205
p1751
sg30
V2017
p1752
sg32
F29.0
sg33
VNOV 06, 1988
p1753
sg35
V6-5
p1754
sg37
VJohn Holland
p1755
sg39
I1610612739
sg40
V10
p1756
sg42
g87
sg44
V00
p1757
sg46
VG-F
p1758
sg47
I204066
ssI101108
(dp1759
g509
VWake Forest
p1760
sg511
V175
p1761
sg513
V2017
p1762
sg515
F32.0
sg516
VMAY 06, 1985
p1763
sg518
V6-0
p1764
sg520
VChris Paul
p1765
sg522
I1610612745
sg523
g17
sg524
V12
p1766
sg525
V00
p1767
sg527
g93
sg528
I101108
ssI1628462
(dp1768
g72
Nsg74
V196
p1769
sg76
V2017
p1770
sg78
F30.0
sg79
VMAR 19, 1987
p1771
sg81
V6-5
p1772
sg83
VMilos Teodosic
p1773
sg85
I1610612746
sg86
g66
sg88
g89
sg90
V00
p1774
sg92
g93
sg94
I1628462
ssI203485
(dp1775
g230
VNorth Carolina State
p1776
sg232
V189
p1777
sg234
V2017
p1778
sg236
F27.0
sg237
VAUG 26, 1990
p1779
sg239
V6-5
p1780
sg241
VLorenzo Brown
p1781
sg243
I1610612761
sg244
g66
sg246
g17
sg247
V00
p1782
sg249
g93
sg250
I203485
ssI1628464
(dp1783
g461
Nsg463
V243
p1784
sg465
V2017
p1785
sg467
F25.0
sg468
VAPR 04, 1992
p1786
sg470
V6-9
p1787
sg472
VDaniel Theis
p1788
sg474
I1610612738
sg475
V27
p1789
sg477
g89
sg478
V00
p1790
sg480
VF-C
p1791
sg481
I1628464
ssI1628467
(dp1792
g302
Nsg304
V220
p1793
sg306
V2017
p1794
sg308
F25.0
sg309
VJAN 29, 1992
p1795
sg311
V6-11
p1796
sg313
VMaxi Kleber
p1797
sg315
I1610612742
sg316
V42
p1798
sg318
g89
sg319
V00
p1799
sg321
g23
sg322
I1628467
ssI203486
(dp1800
g118
VDuke
p1801
sg120
V255
p1802
sg122
V2017
p1803
sg124
F27.0
sg125
VMAR 05, 1990
p1804
sg127
V6-11
p1805
sg129
VMason Plumlee
p1806
sg131
I1610612743
sg132
V24
p1807
sg133
g66
sg135
V00
p1808
sg137
VC-F
p1809
sg138
I203486
ssI1628470
(dp1810
g118
VSouth Carolina Upstate
p1811
sg120
V215
p1812
sg122
V2017
p1813
sg124
F26.0
sg125
VDEC 19, 1990
p1814
sg127
V6-6
p1815
sg129
VTorrey Craig
p1816
sg131
I1610612743
sg132
g17
sg133
g89
sg135
V00
p1817
sg137
VG-F
p1818
sg138
I1628470
ssI2738
(dp1819
g2
VArizona
p1820
sg4
V215
p1821
sg6
V2017
p1822
sg8
F33.0
sg9
VJAN 28, 1984
p1823
sg11
V6-6
p1824
sg13
VAndre Iguodala
p1825
sg15
I1610612744
sg16
g43
sg18
V13
p1826
sg20
V00
p1827
sg22
VG-F
p1828
sg24
I2738
ssI1628475
(dp1829
g270
VCentral Florida
p1830
sg272
V210
p1831
sg274
V2017
p1832
sg276
F24.0
sg277
VOCT 14, 1993
p1833
sg279
V6-5
p1834
sg281
VMatt Williams Jr.
p1835
sg283
I1610612748
sg284
V12
p1836
sg286
g89
sg287
V00
p1837
sg289
g93
sg290
I1628475
ssI1628476
(dp1838
g270
VMichigan
p1839
sg272
V185
p1840
sg274
V2017
p1841
sg276
F22.0
sg277
VAPR 03, 1995
p1842
sg279
V6-1
p1843
sg281
VDerrick Walton Jr.
p1844
sg283
I1610612748
sg284
V14
p1845
sg286
g89
sg287
V00
p1846
sg289
g93
sg290
I1628476
ssI1627786
(dp1847
g509
VIndiana
p1848
sg511
V218
p1849
sg513
V2017
p1850
sg515
F22.0
sg516
VDEC 30, 1994
p1851
sg518
V6-7
p1852
sg520
VTroy Williams
p1853
sg522
I1610612745
sg523
g205
sg524
g87
sg525
V00
p1854
sg527
g23
sg528
I1627786
ssI1628469
(dp1855
g177
VLouisiana State
p1856
sg179
V197
p1857
sg181
V2017
p1858
sg183
F21.0
sg184
VOCT 04, 1996
p1859
sg186
V6-4
p1860
sg188
VAntonio Blakeney
p1861
sg190
I1610612741
sg191
g43
sg193
g89
sg194
V00
p1862
sg196
g93
sg197
I1628469
ssI203585
(dp1863
g270
VKansas State
p1864
sg272
V200
p1865
sg274
V2017
p1866
sg276
F26.0
sg277
VJUL 29, 1991
p1867
sg279
V6-4
p1868
sg281
VRodney McGruder
p1869
sg283
I1610612748
sg284
V17
p1870
sg286
g87
sg287
V00
p1871
sg289
VG-F
p1872
sg290
I203585
ssI203076
(dp1873
g49
VKentucky
p1874
sg51
V253
p1875
sg53
V2017
p1876
sg55
F24.0
sg56
VMAR 11, 1993
p1877
sg58
V6-10
p1878
sg60
VAnthony Davis
p1879
sg62
I1610612740
sg63
V23
p1880
sg65
g205
sg67
V00
p1881
sg69
VF-C
p1882
sg70
I203076
ssI203079
(dp1883
g270
VSyracuse
p1884
sg272
V215
p1885
sg274
V2017
p1886
sg276
F25.0
sg277
VDEC 10, 1991
p1887
sg279
V6-4
p1888
sg281
VDion Waiters
p1889
sg283
I1610612748
sg284
V11
p1890
sg286
g205
sg287
V00
p1891
sg289
g93
sg290
I203079
ssI1628369
(dp1892
g461
VDuke
p1893
sg463
V205
p1894
sg465
V2017
p1895
sg467
F19.0
sg468
VMAR 03, 1998
p1896
sg470
V6-8
p1897
sg472
VJayson Tatum
p1898
sg474
I1610612738
sg475
g154
sg477
g89
sg478
V00
p1899
sg480
g23
sg481
I1628369
ssI1628492
(dp1900
g302
VColorado State
p1901
sg304
V185
p1902
sg306
V2017
p1903
sg308
F23.0
sg309
VNOV 26, 1993
p1904
sg311
V6-4
p1905
sg313
VGian Clavell
p1906
sg315
I1610612742
sg316
g299
sg318
g89
sg319
V00
p1907
sg321
g93
sg322
I1628492
ssI203085
(dp1908
g72
VDuke
p1909
sg74
V200
p1910
sg76
V2017
p1911
sg78
F25.0
sg79
VAUG 01, 1992
p1912
sg81
V6-4
p1913
sg83
VAustin Rivers
p1914
sg85
I1610612746
sg86
V25
p1915
sg88
g205
sg90
V00
p1916
sg92
g93
sg94
I203085
ssI203089
(dp1917
g398
VNorth Carolina
p1918
sg400
V229
p1919
sg402
V2017
p1920
sg404
F26.0
sg405
VDEC 28, 1990
p1921
sg407
V6-11
p1922
sg409
VJohn Henson
p1923
sg411
I1610612749
sg412
V31
p1924
sg414
g205
sg415
V00
p1925
sg417
VF-C
p1926
sg418
I203089
ssI1627790
(dp1927
g26
Nsg28
V250
p1928
sg30
V2017
p1929
sg32
F20.0
sg33
VJAN 04, 1997
p1930
sg35
V6-11
p1931
sg37
VAnte Zizic
p1932
sg39
I1610612739
sg40
V41
p1933
sg42
g89
sg44
V00
p1934
sg46
VF-C
p1935
sg47
I1627790
ssI201976
(dp1936
g72
VArkansas
p1937
sg74
V185
p1938
sg76
V2017
p1939
sg78
F29.0
sg79
VJUL 12, 1988
p1940
sg81
V6-1
p1941
sg83
VPatrick Beverley
p1942
sg85
I1610612746
sg86
V21
p1943
sg88
g205
sg90
V00
p1944
sg92
g93
sg94
I201976
ssI1627824
(dp1945
g461
Nsg463
V260
p1946
sg465
V2017
p1947
sg467
F21.0
sg468
VDEC 17, 1995
p1948
sg470
V6-8
p1949
sg472
VGuerschon Yabusele
p1950
sg474
I1610612738
sg475
V30
p1951
sg477
g89
sg478
V00
p1952
sg480
g23
sg481
I1627824
ssI2747
(dp1953
g26
VSt. Benedict's Prep (NJ)
p1954
sg28
V225
p1955
sg30
V2017
p1956
sg32
F32.0
sg33
VSEP 09, 1985
p1957
sg35
V6-6
p1958
sg37
VJR Smith
p1959
sg39
I1610612739
sg40
g205
sg42
V13
p1960
sg44
V00
p1961
sg46
VG-F
p1962
sg47
I2747
ssI201565
(dp1963
g26
VMemphis
p1964
sg28
V190
p1965
sg30
V2017
p1966
sg32
F29.0
sg33
VOCT 04, 1988
p1967
sg35
V6-3
p1968
sg37
VDerrick Rose
p1969
sg39
I1610612739
sg40
g87
sg42
g299
sg44
V00
p1970
sg46
g93
sg47
I201565
ssI201566
(dp1971
g439
VUCLA
p1972
sg441
V200
p1973
sg443
V2017
p1974
sg445
F28.0
sg446
VNOV 12, 1988
p1975
sg448
V6-3
p1976
sg450
VRussell Westbrook
p1977
sg452
I1610612760
sg453
g154
sg455
g43
sg456
V00
p1978
sg458
g93
sg459
I201566
ssI201567
(dp1979
g26
VUCLA
p1980
sg28
V251
p1981
sg30
V2017
p1982
sg32
F29.0
sg33
VSEP 07, 1988
p1983
sg35
V6-10
p1984
sg37
VKevin Love
p1985
sg39
I1610612739
sg40
g154
sg42
g43
sg44
V00
p1986
sg46
VF-C
p1987
sg47
I201567
ssI201568
(dp1988
g72
VSant'Angelo Lodigiano, Italy
p1989
sg74
V225
p1990
sg76
V2017
p1991
sg78
F29.0
sg79
VAUG 08, 1988
p1992
sg81
V6-10
p1993
sg83
VDanilo Gallinari
p1994
sg85
I1610612746
sg86
g299
sg88
g299
sg90
V00
p1995
sg92
g23
sg94
I201568
ssI201569
(dp1996
g509
VIndiana
p1997
sg511
V215
p1998
sg513
V2017
p1999
sg515
F28.0
sg516
VDEC 25, 1988
p2000
sg518
V6-4
p2001
sg520
VEric Gordon
p2002
sg522
I1610612745
sg523
V10
p2003
sg524
g43
sg525
V00
p2004
sg527
g93
sg528
I201569
ssI1891
(dp2005
g398
VArizona
p2006
sg400
V185
p2007
sg402
V2017
p2008
sg404
F40.0
sg405
VSEP 15, 1977
p2009
sg407
V6-2
p2010
sg409
VJason Terry
p2011
sg411
I1610612749
sg412
g17
sg414
V18
p2012
sg415
V00
p2013
sg417
g93
sg418
I1891
ssI201572
(dp2014
g96
VStanford
p2015
sg98
V268
p2016
sg100
V2017
p2017
sg102
F29.0
sg103
VAPR 01, 1988
p2018
sg105
V7-0
p2019
sg107
VBrook Lopez
p2020
sg109
I1610612747
sg110
V11
p2021
sg112
g43
sg113
V00
p2022
sg115
g268
sg116
I201572
ssI203109
(dp2023
g26
VMarquette
p2024
sg28
V235
p2025
sg30
V2017
p2026
sg32
F27.0
sg33
VJUL 06, 1990
p2027
sg35
V6-6
p2028
sg37
VJae Crowder
p2029
sg39
I1610612739
sg40
V99
p2030
sg42
g205
sg44
V00
p2031
sg46
g23
sg47
I203109
ssI203110
(dp2032
g2
VMichigan State
p2033
sg4
V230
p2034
sg6
V2017
p2035
sg8
F27.0
sg9
VMAR 04, 1990
p2036
sg11
V6-7
p2037
sg13
VDraymond Green
p2038
sg15
I1610612744
sg16
V23
p2039
sg18
g205
sg20
V00
p2040
sg22
g23
sg24
I203110
ssI201577
(dp2041
g177
VStanford
p2042
sg179
V277
p2043
sg181
V2017
p2044
sg183
F29.0
sg184
VAPR 01, 1988
p2045
sg186
V7-0
p2046
sg188
VRobin Lopez
p2047
sg190
I1610612741
sg191
V42
p2048
sg193
g43
sg194
V00
p2049
sg196
g268
sg197
I201577
ssI203114
(dp2050
g398
VTexas A&M
p2051
sg400
V234
p2052
sg402
V2017
p2053
sg404
F26.0
sg405
VAUG 12, 1991
p2054
sg407
V6-8
p2055
sg409
VKhris Middleton
p2056
sg411
I1610612749
sg412
V22
p2057
sg414
g205
sg415
V00
p2058
sg417
g23
sg418
I203114
ssI203115
(dp2059
g118
VMemphis
p2060
sg120
V190
p2061
sg122
V2017
p2062
sg124
F26.0
sg125
VJAN 06, 1991
p2063
sg127
V6-6
p2064
sg129
VWill Barton
p2065
sg131
I1610612743
sg132
g205
sg133
g205
sg135
V00
p2066
sg137
VG-F
p2067
sg138
I203115
ssI201580
(dp2068
g2
VNevada
p2069
sg4
V270
p2070
sg6
V2017
p2071
sg8
F29.0
sg9
VJAN 19, 1988
p2072
sg11
V7-0
p2073
sg13
VJaVale McGee
p2074
sg15
I1610612744
sg16
g87
sg18
g43
sg20
V00
p2075
sg22
g268
sg24
I201580
ssI101112
(dp2076
g26
VArizona
p2077
sg28
V255
p2078
sg30
V2017
p2079
sg32
F34.0
sg33
VMAY 17, 1983
p2080
sg35
V6-11
p2081
sg37
VChanning Frye
p2082
sg39
I1610612739
sg40
g299
sg42
V11
p2083
sg44
V00
p2084
sg46
g23
sg47
I101112
ssI201582
(dp2085
g49
VSaint Etienne, France
p2086
sg51
V248
p2087
sg53
V2017
p2088
sg55
F29.0
sg56
VMAY 06, 1988
p2089
sg58
V7-2
p2090
sg60
VAlexis Ajinca
p2091
sg62
I1610612740
sg63
V42
p2092
sg65
g258
sg67
V00
p2093
sg69
g268
sg70
I201582
ssI200765
(dp2094
g49
VKentucky
p2095
sg51
V186
p2096
sg53
V2017
p2097
sg55
F31.0
sg56
VFEB 22, 1986
p2098
sg58
V6-1
p2099
sg60
VRajon Rondo
p2100
sg62
I1610612740
sg63
g43
sg65
V11
p2101
sg67
V00
p2102
sg69
g93
sg70
I200765
ssI1717
(dp2103
g302
VWurzburg, Germany
p2104
sg304
V245
p2105
sg306
V2017
p2106
sg308
F39.0
sg309
VJUN 19, 1978
p2107
sg311
V7-0
p2108
sg313
VDirk Nowitzki
p2109
sg315
I1610612742
sg316
V41
p2110
sg318
V19
p2111
sg319
V00
p2112
sg321
VF-C
p2113
sg322
I1717
ssI201586
(dp2114
g230
VBrazzaville, Rep. of Congo
p2115
sg232
V235
p2116
sg234
V2017
p2117
sg236
F28.0
sg237
VSEP 18, 1989
p2118
sg239
V6-10
p2119
sg241
VSerge Ibaka
p2120
sg243
I1610612761
sg244
g43
sg246
g299
sg247
V00
p2121
sg249
g23
sg250
I201586
ssI201589
(dp2122
g118
VKansas
p2123
sg120
V235
p2124
sg122
V2017
p2125
sg124
F29.0
sg125
VMAR 25, 1988
p2126
sg127
V6-9
p2127
sg129
VDarrell Arthur
p2128
sg131
I1610612743
sg132
V00
p2129
sg133
g299
sg135
V00
p2130
sg137
g23
sg138
I201589
ssI201961
(dp2131
g270
VNorth Carolina
p2132
sg272
V200
p2133
sg274
V2017
p2134
sg276
F29.0
sg277
VNOV 29, 1987
p2135
sg279
V6-5
p2136
sg281
VWayne Ellington
p2137
sg283
I1610612748
sg284
g155
sg286
g299
sg287
V00
p2138
sg289
g93
sg290
I201961
ssI201596
(dp2139
g209
VKansas
p2140
sg211
V190
p2141
sg213
V2017
p2142
sg215
F31.0
sg216
VMAY 19, 1986
p2143
sg218
V6-2
p2144
sg220
VMario Chalmers
p2145
sg222
I1610612763
sg223
g146
sg224
g299
sg225
V00
p2146
sg227
g93
sg228
I201596
ssI201599
(dp2147
g72
VTexas A&M
p2148
sg74
V265
p2149
sg76
V2017
p2150
sg78
F29.0
sg79
VJUL 21, 1988
p2151
sg81
V6-11
p2152
sg83
VDeAndre Jordan
p2153
sg85
I1610612746
sg86
g146
sg88
g43
sg90
V00
p2154
sg92
g268
sg94
I201599
ssI201600
(dp2155
g49
VTurkey
p2156
sg51
V255
p2157
sg53
V2017
p2158
sg55
F31.0
sg56
VJUL 04, 1986
p2159
sg58
V7-0
p2160
sg60
VOmer Asik
p2161
sg62
I1610612740
sg63
g17
sg65
g258
sg67
V00
p2162
sg69
g268
sg70
I201600
ssI201601
(dp2163
g509
VUCLA
p2164
sg511
V230
p2165
sg513
V2017
p2166
sg515
F31.0
sg516
VSEP 09, 1986
p2167
sg518
V6-8
p2168
sg520
VLuc Mbah a Moute
p2169
sg522
I1610612745
sg523
V12
p2170
sg524
g43
sg525
V00
p2171
sg527
g23
sg528
I201601
ssI1628035
(dp2172
g230
VWisc.-Green Bay
p2173
sg232
V215
p2174
sg234
V2017
p2175
sg236
F25.0
sg237
VSEP 17, 1992
p2176
sg239
V6-8
p2177
sg241
VAlfonzo McKinnie
p2178
sg243
I1610612761
sg244
V34
p2179
sg246
g89
sg247
V00
p2180
sg249
g23
sg250
I1628035
ssI203141
(dp2181
g398
VBosnia
p2182
sg400
V242
p2183
sg402
V2017
p2184
sg404
F32.0
sg405
VSEP 17, 1985
p2185
sg407
V6-9
p2186
sg409
VMirza Teletovic
p2187
sg411
I1610612749
sg412
V35
p2188
sg414
g205
sg415
V00
p2189
sg417
g23
sg418
I203141
ssI201609
(dp2190
g270
VLjubljana, Slovenia
p2191
sg272
V190
p2192
sg274
V2017
p2193
sg276
F31.0
sg277
VMAY 06, 1986
p2194
sg279
V6-3
p2195
sg281
VGoran Dragic
p2196
sg283
I1610612748
sg284
g258
sg286
g43
sg287
V00
p2197
sg289
g93
sg290
I201609
ssI203935
(dp2198
g461
VOklahoma State
p2199
sg463
V220
p2200
sg465
V2017
p2201
sg467
F23.0
sg468
VMAR 06, 1994
p2202
sg470
V6-4
p2203
sg472
VMarcus Smart
p2204
sg474
I1610612738
sg475
V36
p2205
sg477
g17
sg478
V00
p2206
sg480
g93
sg481
I203935
ssI1628399
(dp2207
g118
VSyracuse
p2208
sg120
V220
p2209
sg122
V2017
p2210
sg124
F21.0
sg125
VAPR 09, 1996
p2211
sg127
V6-9
p2212
sg129
VTyler Lydon
p2213
sg131
I1610612743
sg132
V20
p2214
sg133
g89
sg135
V00
p2215
sg137
g23
sg138
I1628399
ssI201628
(dp2216
g509
VCal State-Fullerton
p2217
sg511
V175
p2218
sg513
V2017
p2219
sg515
F33.0
sg516
VSEP 24, 1984
p2220
sg518
V6-2
p2221
sg520
VBobby Brown
p2222
sg522
I1610612745
sg523
g146
sg524
g17
sg525
V00
p2223
sg527
g93
sg528
I201628
ssI101106
(dp2224
g96
VUtah
p2225
sg98
V260
p2226
sg100
V2017
p2227
sg102
F32.0
sg103
VNOV 28, 1984
p2228
sg105
V7-0
p2229
sg107
VAndrew Bogut
p2230
sg109
I1610612747
sg110
V66
p2231
sg112
V12
p2232
sg113
V00
p2233
sg115
g268
sg116
I101106
ssI202330
(dp2234
g461
VButler
p2235
sg463
V226
p2236
sg465
V2017
p2237
sg467
F27.0
sg468
VMAR 23, 1990
p2238
sg470
V6-8
p2239
sg472
VGordon Hayward
p2240
sg474
I1610612738
sg475
V20
p2241
sg477
g258
sg478
V00
p2242
sg480
g23
sg481
I202330
ssI203186
(dp2243
g72
VSaint Louis
p2244
sg74
V245
p2245
sg76
V2017
p2246
sg78
F27.0
sg79
VMAY 16, 1990
p2247
sg81
V6-11
p2248
sg83
VWillie Reed
p2249
sg85
I1610612746
sg86
V35
p2250
sg88
g155
sg90
V00
p2251
sg92
g268
sg94
I203186
ssI201142
(dp2252
g2
VTexas
p2253
sg4
V240
p2254
sg6
V2017
p2255
sg8
F29.0
sg9
VSEP 29, 1988
p2256
sg11
V6-9
p2257
sg13
VKevin Durant
p2258
sg15
I1610612744
sg16
V35
p2259
sg18
V10
p2260
sg20
V00
p2261
sg22
g23
sg24
I201142
ssI201143
(dp2262
g461
VFlorida
p2263
sg463
V245
p2264
sg465
V2017
p2265
sg467
F31.0
sg468
VJUN 03, 1986
p2266
sg470
V6-10
p2267
sg472
VAl Horford
p2268
sg474
I1610612738
sg475
V42
p2269
sg477
V10
p2270
sg478
V00
p2271
sg480
VF-C
p2272
sg481
I201143
ssI201144
(dp2273
g209
VOhio State
p2274
sg211
V175
p2275
sg213
V2017
p2276
sg215
F30.0
sg216
VOCT 11, 1987
p2277
sg218
V6-1
p2278
sg220
VMike Conley
p2279
sg222
I1610612763
sg223
V11
p2280
sg224
V10
p2281
sg225
V00
p2282
sg227
g93
sg228
I201144
ssI1628404
(dp2283
g96
VVillanova
p2284
sg98
V215
p2285
sg100
V2017
p2286
sg102
F22.0
sg103
VMAR 06, 1995
p2287
sg105
V6-5
p2288
sg107
VJosh Hart
p2289
sg109
I1610612747
sg110
g205
sg112
g89
sg113
V00
p2290
sg115
g93
sg116
I1628404
ssI201147
(dp2291
g96
VFlorida
p2292
sg98
V186
p2293
sg100
V2017
p2294
sg102
F31.0
sg103
VMAR 05, 1986
p2295
sg105
V6-9
p2296
sg107
VCorey Brewer
p2297
sg109
I1610612747
sg110
g17
sg112
V10
p2298
sg113
V00
p2299
sg115
g23
sg116
I201147
ssI201148
(dp2300
g209
VNorth Carolina
p2301
sg211
V235
p2302
sg213
V2017
p2303
sg215
F30.0
sg216
VOCT 05, 1987
p2304
sg218
V6-10
p2305
sg220
VBrandan Wright
p2306
sg222
I1610612763
sg223
V34
p2307
sg224
g43
sg225
V00
p2308
sg227
VF-C
p2309
sg228
I201148
ssI202685
(dp2310
g230
VUtena, Lithuania
p2311
sg232
V255
p2312
sg234
V2017
p2313
sg236
F25.0
sg237
VMAY 06, 1992
p2314
sg239
V7-0
p2315
sg241
VJonas Valanciunas
p2316
sg243
I1610612761
sg244
V17
p2317
sg246
g205
sg247
V00
p2318
sg249
g268
sg250
I202685
ssI203710
(dp2319
g72
VNorth Carolina State
p2320
sg74
V230
p2321
sg76
V2017
p2322
sg78
F27.0
sg79
VFEB 06, 1990
p2323
sg81
V6-5
p2324
sg83
VC.J. Williams
p2325
sg85
I1610612746
sg86
g43
sg88
g89
sg90
V00
p2326
sg92
g93
sg94
I203710
ssI101109
(dp2327
g439
VNorth Carolina
p2328
sg441
V205
p2329
sg443
V2017
p2330
sg445
F33.0
sg446
VJUN 26, 1984
p2331
sg448
V6-1
p2332
sg450
VRaymond Felton
p2333
sg452
I1610612760
sg453
g155
sg455
V12
p2334
sg456
V00
p2335
sg458
g93
sg459
I101109
ssI203200
(dp2336
g177
VWashington
p2337
sg179
V185
p2338
sg181
V2017
p2339
sg183
F28.0
sg184
VAPR 05, 1989
p2340
sg186
V6-6
p2341
sg188
VJustin Holiday
p2342
sg190
I1610612741
sg191
g258
sg193
g66
sg194
V00
p2343
sg196
g93
sg197
I203200
ssI202691
(dp2344
g2
VWashington State
p2345
sg4
V215
p2346
sg6
V2017
p2347
sg8
F27.0
sg9
VFEB 08, 1990
p2348
sg11
V6-7
p2349
sg13
VKlay Thompson
p2350
sg15
I1610612744
sg16
V11
p2351
sg18
g146
sg20
V00
p2352
sg22
g93
sg24
I202691
ssI202692
(dp2353
g324
VColorado
p2354
sg326
V214
p2355
sg328
V2017
p2356
sg330
F26.0
sg331
VJUL 20, 1991
p2357
sg333
V6-6
p2358
sg335
VAlec Burks
p2359
sg337
I1610612762
sg338
V10
p2360
sg340
g146
sg342
V00
p2361
sg344
g93
sg345
I202692
ssI1628405
(dp2362
g302
VBaylor
p2363
sg304
V230
p2364
sg306
V2017
p2365
sg308
F22.0
sg309
VMAY 04, 1995
p2366
sg311
V6-10
p2367
sg313
VJohnathan Motley
p2368
sg315
I1610612742
sg316
g146
sg318
g89
sg319
V00
p2369
sg321
g23
sg322
I1628405
ssI203084
(dp2370
g302
VNorth Carolina
p2371
sg304
V225
p2372
sg306
V2017
p2373
sg308
F25.0
sg309
VMAY 30, 1992
p2374
sg311
V6-8
p2375
sg313
VHarrison Barnes
p2376
sg315
I1610612742
sg316
V40
p2377
sg318
g205
sg319
V00
p2378
sg321
g23
sg322
I203084
ssI203210
(dp2379
g209
VAlabama
p2380
sg211
V227
p2381
sg213
V2017
p2382
sg215
F27.0
sg216
VJUN 21, 1990
p2383
sg218
V6-9
p2384
sg220
VJaMychal Green
p2385
sg222
I1610612763
sg223
g154
sg224
g17
sg225
V00
p2386
sg227
g23
sg228
I203210
ssI201163
(dp2387
g118
VDePaul
p2388
sg120
V225
p2389
sg122
V2017
p2390
sg124
F30.0
sg125
VMAY 10, 1987
p2391
sg127
V6-9
p2392
sg129
VWilson Chandler
p2393
sg131
I1610612743
sg132
V21
p2394
sg133
g43
sg135
V00
p2395
sg137
g23
sg138
I201163
ssI202702
(dp2396
g118
VMorehead State
p2397
sg120
V228
p2398
sg122
V2017
p2399
sg124
F27.0
sg125
VNOV 19, 1989
p2400
sg127
V6-8
p2401
sg129
VKenneth Faried
p2402
sg131
I1610612743
sg132
V35
p2403
sg133
g146
sg135
V00
p2404
sg137
g23
sg138
I202702
ssI202703
(dp2405
g177
Nsg179
V238
p2406
sg181
V2017
p2407
sg183
F26.0
sg184
VFEB 11, 1991
p2408
sg186
V6-10
p2409
sg188
VNikola Mirotic
p2410
sg190
I1610612741
sg191
V44
p2411
sg193
g17
sg194
V00
p2412
sg196
g23
sg197
I202703
ssI1628408
(dp2413
g439
VSouth Carolina
p2414
sg441
V205
p2415
sg443
V2017
p2416
sg445
F21.0
sg446
VOCT 25, 1996
p2417
sg448
V6-6
p2418
sg450
VPJ Dozier
p2419
sg452
I1610612760
sg453
V35
p2420
sg455
g89
sg456
V00
p2421
sg458
g93
sg459
I1628408
ssI202713
(dp2422
g439
VDuke
p2423
sg441
V228
p2424
sg443
V2017
p2425
sg445
F29.0
sg446
VMAY 04, 1988
p2426
sg448
V6-8
p2427
sg450
VKyle Singler
p2428
sg452
I1610612760
sg453
V15
p2429
sg455
g205
sg456
V00
p2430
sg458
g23
sg459
I202713
ssI1627743
(dp2431
g509
VNotre Dame
p2432
sg511
V201
p2433
sg513
V2017
p2434
sg515
F23.0
sg516
VSEP 07, 1994
p2435
sg518
V6-1
p2436
sg520
VDemetrius Jackson
p2437
sg522
I1610612745
sg523
g155
sg524
g87
sg525
V00
p2438
sg527
g93
sg528
I1627743
ssI202718
(dp2439
g209
VFlorida
p2440
sg211
V230
p2441
sg213
V2017
p2442
sg215
F29.0
sg216
VOCT 25, 1988
p2443
sg218
V6-10
p2444
sg220
VChandler Parsons
p2445
sg222
I1610612763
sg223
V25
p2446
sg224
g146
sg225
V00
p2447
sg227
g23
sg228
I202718
ssI1628374
(dp2448
g177
VArizona
p2449
sg179
V230
p2450
sg181
V2017
p2451
sg183
F20.0
sg184
VMAY 22, 1997
p2452
sg186
V7-0
p2453
sg188
VLauri Markkanen
p2454
sg190
I1610612741
sg191
V24
p2455
sg193
g89
sg194
V00
p2456
sg196
g23
sg197
I1628374
ssI201188
(dp2457
g209
VBarcelona, Spain
p2458
sg211
V255
p2459
sg213
V2017
p2460
sg215
F32.0
sg216
VJAN 29, 1985
p2461
sg218
V7-1
p2462
sg220
VMarc Gasol
p2463
sg222
I1610612763
sg223
V33
p2464
sg224
g43
sg225
V00
p2465
sg227
g268
sg228
I201188
ssI204028
(dp2466
g509
VKansas
p2467
sg511
V250
p2468
sg513
V2017
p2469
sg515
F25.0
sg516
VNOV 22, 1991
p2470
sg518
V6-9
p2471
sg520
VTarik Black
p2472
sg522
I1610612745
sg523
V28
p2473
sg524
g17
sg525
V00
p2474
sg527
VF-C
p2475
sg528
I204028
ssI1628395
(dp2476
g2
VOregon
p2477
sg4
V224
p2478
sg6
V2017
p2479
sg8
F22.0
sg9
VJAN 07, 1995
p2480
sg11
V6-9
p2481
sg13
VJordan Bell
p2482
sg15
I1610612744
sg16
g155
sg18
g89
sg20
V00
p2483
sg22
g23
sg24
I1628395
ssI2403
(dp2484
g509
VSao Carlos, Brazil
p2485
sg511
V250
p2486
sg513
V2017
p2487
sg515
F35.0
sg516
VSEP 13, 1982
p2488
sg518
V6-11
p2489
sg520
VNene
p2490
sg522
I1610612745
sg523
V42
p2491
sg524
V15
p2492
sg525
V00
p2493
sg527
VC-F
p2494
sg528
I2403
ssI202732
(dp2495
g398
VKentucky
p2496
sg400
V209
p2497
sg402
V2017
p2498
sg404
F29.0
sg405
VMAR 31, 1988
p2499
sg407
V6-6
p2500
sg409
VDeAndre Liggins
p2501
sg411
I1610612749
sg412
V25
p2502
sg414
g66
sg415
V00
p2503
sg417
g93
sg418
I202732
ssI202734
(dp2504
g49
VPurdue
p2505
sg51
V191
p2506
sg53
V2017
p2507
sg55
F28.0
sg56
VFEB 25, 1989
p2508
sg58
V6-4
p2509
sg60
VE'Twaun Moore
p2510
sg62
I1610612740
sg63
V55
p2511
sg65
g146
sg67
V00
p2512
sg69
g93
sg70
I202734
ssI2544
(dp2513
g26
VSt. Vincent-St. Mary HS (OH)
p2514
sg28
V250
p2515
sg30
V2017
p2516
sg32
F32.0
sg33
VDEC 30, 1984
p2517
sg35
V6-8
p2518
sg37
VLeBron James
p2519
sg39
I1610612739
sg40
V23
p2520
sg42
V14
p2521
sg44
V00
p2522
sg46
VF-G
p2523
sg47
I2544
ssI2546
(dp2524
g439
VSyracuse
p2525
sg441
V240
p2526
sg443
V2017
p2527
sg445
F33.0
sg446
VMAY 29, 1984
p2528
sg448
V6-8
p2529
sg450
VCarmelo Anthony
p2530
sg452
I1610612760
sg453
g258
sg455
V14
p2531
sg456
V00
p2532
sg458
g23
sg459
I2546
ssI2548
(dp2533
g26
VMarquette
p2534
sg28
V220
p2535
sg30
V2017
p2536
sg32
F35.0
sg33
VJAN 17, 1982
p2537
sg35
V6-4
p2538
sg37
VDwyane Wade
p2539
sg39
I1610612739
sg40
g43
sg42
V14
p2540
sg44
V00
p2541
sg46
g93
sg47
I2548
ssI1628414
(dp2542
g72
VSouth Carolina
p2543
sg74
V215
p2544
sg76
V2017
p2545
sg78
F22.0
sg79
VNOV 15, 1994
p2546
sg81
V6-5
p2547
sg83
VSindarius Thornwell
p2548
sg85
I1610612746
sg86
g154
sg88
g89
sg90
V00
p2549
sg92
g93
sg94
I1628414
ssI1628443
(dp2550
g461
VArizona
p2551
sg463
V200
p2552
sg465
V2017
p2553
sg467
F24.0
sg468
VJAN 15, 1993
p2554
sg470
V6-3
p2555
sg472
VKadeem Allen
p2556
sg474
I1610612738
sg475
V45
p2557
sg477
g89
sg478
V00
p2558
sg480
g93
sg481
I1628443
ssI1626196
(dp2559
g270
VTennessee
p2560
sg272
V200
p2561
sg274
V2017
p2562
sg276
F24.0
sg277
VSEP 15, 1993
p2563
sg279
V6-6
p2564
sg281
VJosh Richardson
p2565
sg283
I1610612748
sg284
g154
sg286
g155
sg287
V00
p2566
sg289
g23
sg290
I1626196
ssI2555
(dp2567
g439
VKansas
p2568
sg441
V255
p2569
sg443
V2017
p2570
sg445
F37.0
sg446
VOCT 26, 1980
p2571
sg448
V6-10
p2572
sg450
VNick Collison
p2573
sg452
I1610612760
sg453
g66
sg455
V13
p2574
sg456
V00
p2575
sg458
g23
sg459
I2555
ssI101181
(dp2576
g26
VVillanueva de la Serena, Spain
p2577
sg28
V200
p2578
sg30
V2017
p2579
sg32
F36.0
sg33
VSEP 28, 1981
p2580
sg35
V6-3
p2581
sg37
VJose Calderon
p2582
sg39
I1610612739
sg40
V81
p2583
sg42
V12
p2584
sg44
V00
p2585
sg46
g93
sg47
I101181
ss.