(dp0
I2561
(dp1
VSCHOOL
p2
VXavier
p3
sVWEIGHT
p4
V250
p5
sVSEASON
p6
V2017
p7
sVAGE
p8
F37.0
sVBIRTH_DATE
p9
VAUG 29, 1980
p10
sVHEIGHT
p11
V6-9
p12
sVPLAYER
p13
VDavid West
p14
sVTeamID
p15
I1610612744
sVNUM
p16
V3
p17
sVEXP
p18
V14
p19
sVLeagueID
p20
V00
p21
sVPOSITION
p22
VF
p23
sVPLAYER_ID
p24
I2561
ssI201145
(dp25
VSCHOOL
p26
VGeorgetown
p27
sVWEIGHT
p28
V235
p29
sVSEASON
p30
V2017
p31
sVAGE
p32
F31.0
sVBIRTH_DATE
p33
VAUG 28, 1986
p34
sVHEIGHT
p35
V6-9
p36
sVPLAYER
p37
VJeff Green
p38
sVTeamID
p39
I1610612739
sVNUM
p40
V32
p41
sVEXP
p42
V9
p43
sVLeagueID
p44
V00
p45
sVPOSITION
p46
g23
sVPLAYER_ID
p47
I201145
ssI203524
(dp48
VSCHOOL
p49
VArizona
p50
sVWEIGHT
p51
V225
p52
sVSEASON
p53
V2017
p54
sVAGE
p55
F26.0
sVBIRTH_DATE
p56
VMAR 18, 1991
p57
sVHEIGHT
p58
V6-7
p59
sVPLAYER
p60
VSolomon Hill
p61
sVTeamID
p62
I1610612740
sVNUM
p63
V44
p64
sVEXP
p65
V4
p66
sVLeagueID
p67
V00
p68
sVPOSITION
p69
g23
sVPLAYER_ID
p70
I203524
ssI1628393
(dp71
VSCHOOL
p72
VOklahoma State
p73
sVWEIGHT
p74
V190
p75
sVSEASON
p76
V2017
p77
sVAGE
p78
F21.0
sVBIRTH_DATE
p79
VJUL 26, 1996
p80
sVHEIGHT
p81
V6-0
p82
sVPLAYER
p83
VJawun Evans
p84
sVTeamID
p85
I1610612746
sVNUM
p86
V1
p87
sVEXP
p88
VR
p89
sVLeagueID
p90
V00
p91
sVPOSITION
p92
VG
p93
sVPLAYER_ID
p94
I1628393
ssI203898
(dp95
VSCHOOL
p96
VSyracuse
p97
sVWEIGHT
p98
V194
p99
sVSEASON
p100
V2017
p101
sVAGE
p102
F23.0
sVBIRTH_DATE
p103
VAUG 24, 1994
p104
sVHEIGHT
p105
V6-3
p106
sVPLAYER
p107
VTyler Ennis
p108
sVTeamID
p109
I1610612747
sVNUM
p110
V10
p111
sVEXP
p112
g17
sVLeagueID
p113
V00
p114
sVPOSITION
p115
g93
sVPLAYER_ID
p116
I203898
ssI200794
(dp117
VSCHOOL
p118
VLouisiana Tech
p119
sVWEIGHT
p120
V246
p121
sVSEASON
p122
V2017
p123
sVAGE
p124
F32.0
sVBIRTH_DATE
p125
VFEB 10, 1985
p126
sVHEIGHT
p127
V6-8
p128
sVPLAYER
p129
VPaul Millsap
p130
sVTeamID
p131
I1610612743
sVNUM
p132
g66
sVEXP
p133
V11
p134
sVLeagueID
p135
V00
p136
sVPOSITION
p137
g23
sVPLAYER_ID
p138
I200794
ssI202738
(dp139
g26
VWashington
p140
sg28
V185
p141
sg30
V2017
p142
sg32
F28.0
sg33
VFEB 07, 1989
p143
sg35
V5-9
p144
sg37
VIsaiah Thomas
p145
sg39
I1610612739
sg40
g17
sg42
V6
p146
sg44
V00
p147
sg46
g93
sg47
I202738
ssI1626144
(dp148
g118
Nsg120
V200
p149
sg122
V2017
p150
sg124
F21.0
sg125
VMAR 05, 1996
p151
sg127
V6-5
p152
sg129
VEmmanuel Mudiay
p153
sg131
I1610612743
sg132
V0
p154
sg133
V2
p155
sg135
V00
p156
sg137
g93
sg138
I1626144
ssI2736
(dp157
g96
VDuke
p158
sg98
V220
p159
sg100
V2017
p160
sg102
F32.0
sg103
VAPR 16, 1985
p161
sg105
V6-9
p162
sg107
VLuol Deng
p163
sg109
I1610612747
sg110
g43
sg112
V13
p164
sg113
V00
p165
sg115
g23
sg116
I2736
ssI2594
(dp166
g26
VCreighton
p167
sg28
V212
p168
sg30
V2017
p169
sg32
F36.0
sg33
VMAR 17, 1981
p170
sg35
V6-7
p171
sg37
VKyle Korver
p172
sg39
I1610612739
sg40
V26
p173
sg42
V14
p174
sg44
V00
p175
sg46
g93
sg47
I2594
ssI1627739
(dp176
VSCHOOL
p177
VProvidence
p178
sVWEIGHT
p179
V210
p180
sVSEASON
p181
V2017
p182
sVAGE
p183
F23.0
sVBIRTH_DATE
p184
VMAR 18, 1994
p185
sVHEIGHT
p186
V6-4
p187
sVPLAYER
p188
VKris Dunn
p189
sVTeamID
p190
I1610612741
sVNUM
p191
V32
p192
sVEXP
p193
g87
sVLeagueID
p194
V00
p195
sVPOSITION
p196
g93
sVPLAYER_ID
p197
I1627739
ssI1626149
(dp198
g72
VLouisville
p199
sg74
V240
p200
sg76
V2017
p201
sg78
F23.0
sg79
VJAN 26, 1994
p202
sg81
V6-8
p203
sg83
VMontrezl Harrell
p204
sg85
I1610612746
sg86
V5
p205
sg88
g155
sg90
V00
p206
sg92
VF-C
p207
sg94
I1626149
ssI1626150
(dp208
VSCHOOL
p209
VKentucky
p210
sVWEIGHT
p211
V213
p212
sVSEASON
p213
V2017
p214
sVAGE
p215
F23.0
sVBIRTH_DATE
p216
VOCT 28, 1994
p217
sVHEIGHT
p218
V6-6
p219
sVPLAYER
p220
VAndrew Harrison
p221
sVTeamID
p222
I1610612763
sVNUM
p223
g205
sVEXP
p224
g87
sVLeagueID
p225
V00
p226
sVPOSITION
p227
g93
sVPLAYER_ID
p228
I1626150
ssI1626153
(dp229
VSCHOOL
p230
VUtah
p231
sVWEIGHT
p232
V190
p233
sVSEASON
p234
V2017
p235
sVAGE
p236
F25.0
sVBIRTH_DATE
p237
VAPR 26, 1992
p238
sVHEIGHT
p239
V6-5
p240
sVPLAYER
p241
VDelon Wright
p242
sVTeamID
p243
I1610612761
sVNUM
p244
V55
p245
sVEXP
p246
g155
sVLeagueID
p247
V00
p248
sVPOSITION
p249
g93
sVPLAYER_ID
p250
I1626153
ssI1626155
(dp251
g72
VWisconsin
p252
sg74
V230
p253
sg76
V2017
p254
sg78
F23.0
sg79
VMAY 08, 1994
p255
sg81
V6-9
p256
sg83
VSam Dekker
p257
sg85
I1610612746
sg86
V7
p258
sg88
g155
sg90
V00
p259
sg92
g23
sg94
I1626155
ssI1627826
(dp260
g96
Nsg98
V240
p261
sg100
V2017
p262
sg102
F20.0
sg103
VMAR 18, 1997
p263
sg105
V7-1
p264
sg107
VIvica Zubac
p265
sg109
I1610612747
sg110
V40
p266
sg112
g87
sg113
V00
p267
sg115
VC
p268
sg116
I1627826
ssI1626159
(dp269
VSCHOOL
p270
VDuke
p271
sVWEIGHT
p272
V225
p273
sVSEASON
p274
V2017
p275
sVAGE
p276
F21.0
sVBIRTH_DATE
p277
VMAR 26, 1996
p278
sVHEIGHT
p279
V6-7
p280
sVPLAYER
p281
VJustise Winslow
p282
sVTeamID
p283
I1610612748
sVNUM
p284
V20
p285
sVEXP
p286
g155
sVLeagueID
p287
V00
p288
sVPOSITION
p289
g23
sVPLAYER_ID
p290
I1626159
ssI201967
(dp291
g49
VVillanova
p292
sg51
V230
p293
sg53
V2017
p294
sg55
F30.0
sg56
VAPR 22, 1987
p295
sg58
V6-8
p296
sg60
VDante Cunningham
p297
sg62
I1610612740
sg63
V33
p298
sg65
V8
p299
sg67
V00
p300
sg69
g23
sg70
I201967
ssI1627827
(dp301
VSCHOOL
p302
VFlorida
p303
sVWEIGHT
p304
V220
p305
sVSEASON
p306
V2017
p307
sVAGE
p308
F24.0
sVBIRTH_DATE
p309
VMAY 04, 1993
p310
sVHEIGHT
p311
V6-8
p312
sVPLAYER
p313
VDorian Finney-Smith
p314
sVTeamID
p315
I1610612742
sVNUM
p316
V10
p317
sVEXP
p318
g87
sVLeagueID
p319
V00
p320
sVPOSITION
p321
g23
sVPLAYER_ID
p322
I1627827
ssI200757
(dp323
VSCHOOL
p324
VVevey, Switzerland
p325
sVWEIGHT
p326
V220
p327
sVSEASON
p328
V2017
p329
sVAGE
p330
F33.0
sVBIRTH_DATE
p331
VMAY 02, 1984
p332
sVHEIGHT
p333
V6-7
p334
sVPLAYER
p335
VThabo Sefolosha
p336
sVTeamID
p337
I1610612762
sVNUM
p338
V22
p339
sVEXP
p340
V11
p341
sVLeagueID
p342
V00
p343
sVPOSITION
p344
g23
sVPLAYER_ID
p345
I200757
ssI1626166
(dp346
g177
VMurray State
p347
sg179
V185
p348
sg181
V2017
p349
sg183
F23.0
sg184
VAUG 08, 1994
p350
sg186
V6-3
p351
sg188
VCameron Payne
p352
sg190
I1610612741
sg191
V22
p353
sg193
g155
sg194
V00
p354
sg196
g93
sg197
I1626166
ssI1626168
(dp355
g118
VKentucky
p356
sg120
V234
p357
sg122
V2017
p358
sg124
F22.0
sg125
VNOV 05, 1995
p359
sg127
V6-10
p360
sg129
VTrey Lyles
p361
sg131
I1610612743
sg132
g258
sg133
g155
sg135
V00
p362
sg137
g23
sg138
I1626168
ssI2617
(dp363
g270
VFlorida
p364
sg272
V235
p365
sg274
V2017
p366
sg276
F37.0
sg277
VJUN 09, 1980
p367
sg279
V6-8
p368
sg281
VUdonis Haslem
p369
sg283
I1610612748
sg284
V40
p370
sg286
V14
p371
sg287
V00
p372
sg289
g23
sg290
I2617
ssI1626170
(dp373
g177
VNotre Dame
p374
sg179
V198
p375
sg181
V2017
p376
sg183
F25.0
sg184
VOCT 09, 1992
p377
sg186
V6-4
p378
sg188
VJerian Grant
p379
sg190
I1610612741
sg191
g155
sg193
g155
sg194
V00
p380
sg196
g93
sg197
I1626170
ssI1626171
(dp381
g177
VArkansas
p382
sg179
V248
p383
sg181
V2017
p384
sg183
F22.0
sg184
VFEB 10, 1995
p385
sg186
V6-11
p386
sg188
VBobby Portis
p387
sg190
I1610612741
sg191
g205
sg193
g155
sg194
V00
p388
sg196
g23
sg197
I1626171
ssI1626172
(dp389
g2
VUCLA
p390
sg4
V220
p391
sg6
V2017
p392
sg8
F21.0
sg9
VFEB 06, 1996
p393
sg11
V6-9
p394
sg13
VKevon Looney
p395
sg15
I1610612744
sg16
g205
sg18
g155
sg20
V00
p396
sg22
g23
sg24
I1626172
ssI1626173
(dp397
VSCHOOL
p398
VUNLV
p399
sVWEIGHT
p400
V202
p401
sVSEASON
p402
V2017
p403
sVAGE
p404
F21.0
sVBIRTH_DATE
p405
VAUG 16, 1996
p406
sVHEIGHT
p407
V6-6
p408
sVPLAYER
p409
VRashad Vaughn
p410
sVTeamID
p411
I1610612749
sVNUM
p412
V20
p413
sVEXP
p414
g155
sVLeagueID
p415
V00
p416
sVPOSITION
p417
g93
sVPLAYER_ID
p418
I1626173
ssI1626175
(dp419
g270
VLouisiana State
p420
sg272
V235
p421
sg274
V2017
p422
sg276
F23.0
sg277
VJUL 09, 1994
p423
sg279
V6-8
p424
sg281
VJordan Mickey
p425
sg283
I1610612748
sg284
V25
p426
sg286
g155
sg287
V00
p427
sg289
VC-F
p428
sg290
I1626175
ssI200768
(dp429
g230
VVillanova
p430
sg232
V205
p431
sg234
V2017
p432
sg236
F31.0
sg237
VMAR 25, 1986
p433
sg239
V6-0
p434
sg241
VKyle Lowry
p435
sg243
I1610612761
sg244
g258
sg246
V11
p436
sg247
V00
p437
sg249
g93
sg250
I200768
ssI1626177
(dp438
VSCHOOL
p439
VKentucky
p440
sVWEIGHT
p441
V255
p442
sVSEASON
p443
V2017
p444
sVAGE
p445
F22.0
sVBIRTH_DATE
p446
VSEP 22, 1995
p447
sVHEIGHT
p448
V7-0
p449
sVPLAYER
p450
VDakari Johnson
p451
sVTeamID
p452
I1610612760
sVNUM
p453
V44
p454
sVEXP
p455
g89
sVLeagueID
p456
V00
p457
sVPOSITION
p458
g268
sVPLAYER_ID
p459
I1626177
ssI1626181
(dp460
g230
VUCLA
p461
sg232
V215
p462
sg234
V2017
p463
sg236
F24.0
sg237
VMAY 25, 1993
p464
sg239
V6-4
p465
sg241
VNorman Powell
p466
sg243
I1610612761
sg244
V24
p467
sg246
g155
sg247
V00
p468
sg249
VF-G
p469
sg250
I1626181
ssI1626185
(dp470
g209
VLouisiana State
p471
sg211
V239
p472
sg213
V2017
p473
sg215
F23.0
sg216
VMAY 24, 1994
p474
sg218
V6-10
p475
sg220
VJarell Martin
p476
sg222
I1610612763
sg223
g87
sg224
g155
sg225
V00
p477
sg227
g23
sg228
I1626185
ssI1626188
(dp478
g2
VDuke
p479
sg4
V179
p480
sg6
V2017
p481
sg8
F24.0
sg9
VMAR 23, 1993
p482
sg11
V6-2
p483
sg13
VQuinn Cook
p484
sg15
I1610612744
sg16
g66
sg18
g87
sg20
V00
p485
sg22
g93
sg24
I1626188
ssI200782
(dp486
VSCHOOL
p487
VTexas
p488
sVWEIGHT
p489
V245
p490
sVSEASON
p491
V2017
p492
sVAGE
p493
F32.0
sVBIRTH_DATE
p494
VMAY 05, 1985
p495
sVHEIGHT
p496
V6-6
p497
sVPLAYER
p498
VPJ Tucker
p499
sVTeamID
p500
I1610612745
sVNUM
p501
g66
sVEXP
p502
g146
sVLeagueID
p503
V00
p504
sVPOSITION
p505
g23
sVPLAYER_ID
p506
I200782
ssI202083
(dp507
g302
VMarquette
p508
sg304
V220
p509
sg306
V2017
p510
sg308
F31.0
sg309
VOCT 14, 1986
p511
sg311
V6-5
p512
sg313
VWesley Matthews
p513
sg315
I1610612742
sg316
V23
p514
sg318
g299
sg319
V00
p515
sg321
VG-F
p516
sg322
I202083
ssI202324
(dp517
g324
VGeorgia Tech
p518
sg326
V265
p519
sg328
V2017
p520
sg330
F26.0
sg331
VJUL 15, 1991
p521
sg333
V6-10
p522
sg335
VDerrick Favors
p523
sg337
I1610612762
sg338
V15
p524
sg340
g258
sg342
V00
p525
sg344
VF-C
p526
sg345
I202324
ssI202325
(dp527
g72
VSyracuse
p528
sg74
V215
p529
sg76
V2017
p530
sg78
F30.0
sg79
VJUL 11, 1987
p531
sg81
V6-7
p532
sg83
VWesley Johnson
p533
sg85
I1610612746
sg86
V33
p534
sg88
g258
sg90
V00
p535
sg92
g23
sg94
I202325
ssI202326
(dp536
g49
VKentucky
p537
sg51
V270
p538
sg53
V2017
p539
sg55
F27.0
sg56
VAUG 13, 1990
p540
sg58
V6-11
p541
sg60
VDeMarcus Cousins
p542
sg62
I1610612740
sg63
g154
sg65
g258
sg67
V00
p543
sg69
g268
sg70
I202326
ssI202327
(dp544
g324
VBaylor
p545
sg326
V245
p546
sg328
V2017
p547
sg330
F30.0
sg331
VMAY 20, 1987
p548
sg333
V6-10
p549
sg335
VEkpe Udoh
p550
sg337
I1610612762
sg338
V33
p551
sg340
g205
sg342
V00
p552
sg344
VC-F
p553
sg345
I202327
ssI1627736
(dp554
g118
VFlorida State
p555
sg120
V196
p556
sg122
V2017
p557
sg124
F20.0
sg125
VNOV 26, 1996
p558
sg127
V6-5
p559
sg129
VMalik Beasley
p560
sg131
I1610612743
sg132
V25
p561
sg133
g87
sg135
V00
p562
sg137
g93
sg138
I1627736
ssI1627738
(dp563
g209
VMichigan State
p564
sg211
V237
p565
sg213
V2017
p566
sg215
F20.0
sg216
VDEC 02, 1996
p567
sg218
V6-11
p568
sg220
VDeyonta Davis
p569
sg222
I1610612763
sg223
V21
p570
sg224
g87
sg225
V00
p571
sg227
VC-F
p572
sg228
I1627738
ssI202331
(dp573
g439
VFresno State
p574
sg441
V220
p575
sg443
V2017
p576
sg445
F27.0
sg446
VMAY 02, 1990
p577
sg448
V6-9
p578
sg450
VPaul George
p579
sg452
I1610612760
sg453
V13
p580
sg455
g258
sg456
V00
p581
sg458
g23
sg459
I202331
ssI1626204
(dp582
g96
VWyoming
p583
sg98
V230
p584
sg100
V2017
p585
sg102
F24.0
sg103
VJAN 01, 1993
p586
sg105
V6-9
p587
sg107
VLarry Nance Jr.
p588
sg109
I1610612747
sg110
g258
sg112
g155
sg113
V00
p589
sg115
g23
sg116
I1626204
ssI1626205
(dp590
g209
VTexas-El Paso
p591
sg211
V208
p592
sg213
V2017
p593
sg215
F23.0
sg216
VAUG 05, 1994
p594
sg218
V6-8
p595
sg220
VVincent Hunter
p596
sg222
I1610612763
sg223
V32
p597
sg224
g89
sg225
V00
p598
sg227
g23
sg228
I1626205
ssI1627742
(dp599
g96
VDuke
p600
sg98
V190
p601
sg100
V2017
p602
sg102
F20.0
sg103
VSEP 02, 1997
p603
sg105
V6-9
p604
sg107
VBrandon Ingram
p605
sg109
I1610612747
sg110
V14
p606
sg112
g87
sg113
V00
p607
sg115
VF-G
p608
sg116
I1627742
ssI202335
(dp609
g439
VKentucky
p610
sg441
V230
p611
sg443
V2017
p612
sg445
F28.0
sg446
VMAR 14, 1989
p613
sg448
V6-9
p614
sg450
VPatrick Patterson
p615
sg452
I1610612760
sg453
V54
p616
sg455
g258
sg456
V00
p617
sg458
g23
sg459
I202335
ssI1627744
(dp618
g72
VNorth Carolina
p619
sg74
V230
p620
sg76
V2017
p621
sg78
F23.0
sg79
VJUN 27, 1994
p622
sg81
V6-10
p623
sg83
VBrice Johnson
p624
sg85
I1610612746
sg86
V11
p625
sg88
g87
sg90
V00
p626
sg92
g23
sg94
I1627744
ssI1627745
(dp627
g2
VVanderbilt
p628
sg4
V245
p629
sg6
V2017
p630
sg8
F22.0
sg9
VJUN 30, 1995
p631
sg11
V7-0
p632
sg13
VDamian Jones
p633
sg15
I1610612744
sg16
V15
p634
sg18
g87
sg20
V00
p635
sg22
g268
sg24
I1627745
ssI202339
(dp636
g398
VKentucky
p637
sg400
V205
p638
sg402
V2017
p639
sg404
F27.0
sg405
VDEC 09, 1989
p640
sg407
V6-1
p641
sg409
VEric Bledsoe
p642
sg411
I1610612749
sg412
g146
sg414
g258
sg415
V00
p643
sg417
g93
sg418
I202339
ssI1627748
(dp644
g398
Nsg400
V223
p645
sg402
V2017
p646
sg404
F20.0
sg405
VFEB 25, 1997
p647
sg407
V7-1
p648
sg409
VThon Maker
p649
sg411
I1610612749
sg412
g258
sg414
g87
sg415
V00
p650
sg417
VC-F
p651
sg418
I1627748
ssI1627750
(dp652
g118
VKentucky
p653
sg120
V207
p654
sg122
V2017
p655
sg124
F20.0
sg125
VFEB 23, 1997
p656
sg127
V6-4
p657
sg129
VJamal Murray
p658
sg131
I1610612743
sg132
V27
p659
sg133
g87
sg135
V00
p660
sg137
g93
sg138
I1627750
ssI1627751
(dp661
g230
VUtah
p662
sg232
V230
p663
sg234
V2017
p664
sg236
F22.0
sg237
VOCT 15, 1995
p665
sg239
V7-0
p666
sg241
VJakob Poeltl
p667
sg243
I1610612761
sg244
V42
p668
sg246
g87
sg247
V00
p669
sg249
g268
sg250
I1627751
ssI1627753
(dp670
g487
Nsg489
V210
p671
sg491
V2017
p672
sg493
F21.0
sg494
VJAN 16, 1996
p673
sg496
V7-1
p674
sg498
VQi Qi
p675
sg500
I1610612745
sg501
g43
sg502
g89
sg503
V00
p676
sg505
VF-C
p677
sg506
I1627753
ssI202347
(dp678
g177
VWashington
p679
sg179
V225
p680
sg181
V2017
p681
sg183
F29.0
sg184
VMAR 10, 1988
p682
sg186
V6-7
p683
sg188
VQuincy Pondexter
p684
sg190
I1610612741
sg191
V20
p685
sg193
g205
sg194
V00
p686
sg196
g93
sg197
I202347
ssI1626220
(dp687
g324
VBaylor
p688
sg326
V226
p689
sg328
V2017
p690
sg330
F24.0
sg331
VJUN 05, 1993
p691
sg333
V6-6
p692
sg335
VRoyce O'Neale
p693
sg337
I1610612762
sg338
V23
p694
sg340
g89
sg342
V00
p695
sg344
g23
sg345
I1626220
ssI1626224
(dp696
g26
VAnadolu Efes
p697
sg28
V215
p698
sg30
V2017
p699
sg32
F22.0
sg33
VAPR 08, 1995
p700
sg35
V6-8
p701
sg37
VCedi Osman
p702
sg39
I1610612739
sg40
V16
p703
sg42
g89
sg44
V00
p704
sg46
g23
sg47
I1626224
ssI1627762
(dp705
g398
VWeber State
p706
sg400
V235
p707
sg402
V2017
p708
sg404
F23.0
sg405
VJAN 28, 1994
p709
sg407
V6-9
p710
sg409
VJoel Bolomboy
p711
sg411
I1610612749
sg412
V24
p712
sg414
g87
sg415
V00
p713
sg417
VF-C
p714
sg418
I1627762
ssI202355
(dp715
g270
VMarshall
p716
sg272
V265
p717
sg274
V2017
p718
sg276
F28.0
sg277
VJUN 13, 1989
p719
sg279
V7-0
p720
sg281
VHassan Whiteside
p721
sg283
I1610612748
sg284
V21
p722
sg286
g205
sg287
V00
p723
sg289
g268
sg290
I202355
ssI1627767
(dp724
g49
VKansas
p725
sg51
V220
p726
sg53
V2017
p727
sg55
F21.0
sg56
VSEP 13, 1996
p728
sg58
V6-9
p729
sg60
VCheick Diallo
p730
sg62
I1610612740
sg63
V13
p731
sg65
g87
sg67
V00
p732
sg69
g23
sg70
I1627767
ssI203897
(dp733
g177
VUCLA
p734
sg179
V185
p735
sg181
V2017
p736
sg183
F22.0
sg184
VMAR 10, 1995
p737
sg186
V6-5
p738
sg188
VZach LaVine
p739
sg190
I1610612741
sg191
g299
sg193
g17
sg194
V00
p740
sg196
g93
sg197
I203897
ssI200826
(dp741
g302
VNortheastern
p742
sg304
V185
p743
sg306
V2017
p744
sg308
F33.0
sg309
VJUN 26, 1984
p745
sg311
V6-0
p746
sg313
VJ.J. Barea
p747
sg315
I1610612742
sg316
g205
sg318
V11
p748
sg319
V00
p749
sg321
g93
sg322
I200826
ssI1627772
(dp750
g439
VConnecticut
p751
sg441
V195
p752
sg443
V2017
p753
sg445
F22.0
sg446
VAUG 08, 1995
p754
sg448
V6-7
p755
sg450
VDaniel Hamilton
p756
sg452
I1610612760
sg453
V25
p757
sg455
g89
sg456
V00
p758
sg458
g93
sg459
I1627772
ssI1627773
(dp759
g270
VPurdue
p760
sg272
V260
p761
sg274
V2017
p762
sg276
F25.0
sg277
VAUG 27, 1992
p763
sg279
V7-0
p764
sg281
VAJ Hammons
p765
sg283
I1610612748
sg284
g66
sg286
g87
sg287
V00
p766
sg289
g268
sg290
I1627773
ssI1627936
(dp767
g96
VTexas A&M
p768
sg98
V186
p769
sg100
V2017
p770
sg102
F23.0
sg103
VFEB 28, 1994
p771
sg105
V6-5
p772
sg107
VAlex Caruso
p773
sg109
I1610612747
sg110
g66
sg112
g89
sg113
V00
p774
sg115
g93
sg116
I1627936
ssI1627778
(dp775
g487
VLouisville
p776
sg489
V245
p777
sg491
V2017
p778
sg493
F21.0
sg494
VNOV 01, 1996
p779
sg496
V6-10
p780
sg498
VChinanu Onuaku
p781
sg500
I1610612745
sg501
V21
p782
sg502
g87
sg503
V00
p783
sg505
g268
sg506
I1627778
ssI1627780
(dp784
g398
VOregon State
p785
sg400
V190
p786
sg402
V2017
p787
sg404
F24.0
sg405
VDEC 01, 1992
p788
sg407
V6-3
p789
sg409
VGary Payton II
p790
sg411
I1610612749
sg412
g154
sg414
g87
sg415
V00
p791
sg417
g93
sg418
I1627780
ssI203500
(dp792
g439
VPittsburgh
p793
sg441
V255
p794
sg443
V2017
p795
sg445
F24.0
sg446
VJUL 20, 1993
p796
sg448
V7-0
p797
sg450
VSteven Adams
p798
sg452
I1610612760
sg453
V12
p799
sg455
g66
sg456
V00
p800
sg458
g268
sg459
I203500
ssI1627782
(dp801
g209
VKansas
p802
sg211
V230
p803
sg213
V2017
p804
sg215
F23.0
sg216
VSEP 30, 1994
p805
sg218
V6-5
p806
sg220
VWayne Selden
p807
sg222
I1610612763
sg223
g258
sg224
g87
sg225
V00
p808
sg227
VG-F
p809
sg228
I1627782
ssI1627783
(dp810
g230
VNew Mexico State
p811
sg232
V230
p812
sg234
V2017
p813
sg236
F23.0
sg237
VAPR 02, 1994
p814
sg239
V6-9
p815
sg241
VPascal Siakam
p816
sg243
I1610612761
sg244
V43
p817
sg246
g87
sg247
V00
p818
sg249
g23
sg250
I1627783
ssI1627756
(dp819
g177
VMichigan State
p820
sg179
V214
p821
sg181
V2017
p822
sg183
F23.0
sg184
VNOV 16, 1993
p823
sg186
V6-6
p824
sg188
VDenzel Valentine
p825
sg190
I1610612741
sg191
V45
p826
sg193
g87
sg194
V00
p827
sg196
g23
sg197
I1627756
ssI203914
(dp828
g118
VMichigan State
p829
sg120
V210
p830
sg122
V2017
p831
sg124
F23.0
sg125
VSEP 14, 1994
p832
sg127
V6-4
p833
sg129
VGary Harris
p834
sg131
I1610612743
sg132
V14
p835
sg133
g17
sg135
V00
p836
sg137
g93
sg138
I203914
ssI203918
(dp837
g324
VDuke
p838
sg326
V206
p839
sg328
V2017
p840
sg330
F25.0
sg331
VOCT 20, 1992
p841
sg333
V6-8
p842
sg335
VRodney Hood
p843
sg337
I1610612762
sg338
g205
sg340
g17
sg342
V00
p844
sg344
g93
sg345
I203918
ssI1626257
(dp845
g302
Nsg304
V235
p846
sg306
V2017
p847
sg308
F31.0
sg309
VJUN 15, 1986
p848
sg311
V7-2
p849
sg313
VSalah Mejri
p850
sg315
I1610612742
sg316
V50
p851
sg318
g155
sg319
V00
p852
sg321
g268
sg322
I1626257
ssI1626259
(dp853
g230
VHoly Cross
p854
sg232
V210
p855
sg234
V2017
p856
sg236
F24.0
sg237
VMAR 06, 1993
p857
sg239
V6-7
p858
sg241
VMalcolm Miller
p859
sg243
I1610612761
sg244
V13
p860
sg246
g89
sg247
V00
p861
sg249
g23
sg250
I1626259
ssI203924
(dp862
g439
VSyracuse
p863
sg441
V220
p864
sg443
V2017
p865
sg445
F23.0
sg446
VMAR 12, 1994
p866
sg448
V6-9
p867
sg450
VJerami Grant
p868
sg452
I1610612760
sg453
g43
sg455
g17
sg456
V00
p869
sg458
g23
sg459
I203924
ssI2585
(dp870
g2
VTbilisi, Georgia
p871
sg4
V270
p872
sg6
V2017
p873
sg8
F33.0
sg9
VFEB 10, 1984
p874
sg11
V6-11
p875
sg13
VZaza Pachulia
p876
sg15
I1610612744
sg16
V27
p877
sg18
V14
p878
sg20
V00
p879
sg22
g268
sg24
I2585
ssI201156
(dp880
g2
VSouthern California
p881
sg4
V210
p882
sg6
V2017
p883
sg8
F32.0
sg9
VJUN 01, 1985
p884
sg11
V6-7
p885
sg13
VNick Young
p886
sg15
I1610612744
sg16
g146
sg18
V10
p887
sg20
V00
p888
sg22
VG-F
p889
sg24
I201156
ssI201583
(dp890
g487
VCalifornia
p891
sg489
V240
p892
sg491
V2017
p893
sg493
F29.0
sg494
VMAY 06, 1988
p894
sg496
V6-10
p895
sg498
VRyan Anderson
p896
sg500
I1610612745
sg501
V33
p897
sg502
g43
sg503
V00
p898
sg505
g23
sg506
I201583
ssI2207
(dp899
g324
VArkansas
p900
sg326
V240
p901
sg328
V2017
p902
sg330
F36.0
sg331
VJUN 29, 1981
p903
sg333
V6-7
p904
sg335
VJoe Johnson
p905
sg337
I1610612762
sg338
g146
sg340
V16
p906
sg342
V00
p907
sg344
VG-F
p908
sg345
I2207
ssI2210
(dp909
g118
VArizona
p910
sg120
V233
p911
sg122
V2017
p912
sg124
F37.0
sg125
VJUN 21, 1980
p913
sg127
V6-7
p914
sg129
VRichard Jefferson
p915
sg131
I1610612743
sg132
V22
p916
sg133
V16
p917
sg135
V00
p918
sg137
g23
sg138
I2210
ssI203939
(dp919
g302
VStanford
p920
sg304
V240
p921
sg306
V2017
p922
sg308
F26.0
sg309
VJUL 20, 1991
p923
sg311
V6-11
p924
sg313
VDwight Powell
p925
sg315
I1610612742
sg316
g258
sg318
g17
sg319
V00
p926
sg321
VF-C
p927
sg322
I203939
ssI1627812
(dp928
g302
VIndiana
p929
sg304
V180
p930
sg306
V2017
p931
sg308
F24.0
sg309
VMAY 09, 1993
p932
sg311
V6-0
p933
sg313
VYogi Ferrell
p934
sg315
I1610612742
sg316
V11
p935
sg318
g87
sg319
V00
p936
sg321
g93
sg322
I1627812
ssI203121
(dp937
g49
VKentucky
p938
sg51
V225
p939
sg53
V2017
p940
sg55
F27.0
sg56
VMAR 21, 1990
p941
sg58
V6-8
p942
sg60
VDarius Miller
p943
sg62
I1610612740
sg63
V21
p944
sg65
g17
sg67
V00
p945
sg69
g23
sg70
I203121
ssI203944
(dp946
g96
VKentucky
p947
sg98
V250
p948
sg100
V2017
p949
sg102
F22.0
sg103
VNOV 29, 1994
p950
sg105
V6-9
p951
sg107
VJulius Randle
p952
sg109
I1610612747
sg110
V30
p953
sg112
g17
sg113
V00
p954
sg115
VF-C
p955
sg116
I203944
ssI2733
(dp956
g2
VPeoria Central HS (IL)
p957
sg4
V192
p958
sg6
V2017
p959
sg8
F32.0
sg9
VSEP 11, 1985
p960
sg11
V6-7
p961
sg13
VShaun Livingston
p962
sg15
I1610612744
sg16
V34
p963
sg18
V12
p964
sg20
V00
p965
sg22
g93
sg24
I2733
ssI2734
(dp966
g302
VWisconsin
p967
sg304
V185
p968
sg306
V2017
p969
sg308
F34.0
sg309
VFEB 27, 1983
p970
sg311
V6-3
p971
sg313
VDevin Harris
p972
sg315
I1610612742
sg316
V34
p973
sg318
V13
p974
sg319
V00
p975
sg321
g93
sg322
I2734
ssI1627823
(dp976
g118
Nsg120
V230
p977
sg122
V2017
p978
sg124
F22.0
sg125
VSEP 28, 1995
p979
sg127
V6-9
p980
sg129
VJuan Hernangomez
p981
sg131
I1610612743
sg132
V41
p982
sg133
g87
sg135
V00
p983
sg137
g23
sg138
I1627823
ssI201950
(dp984
g49
VUCLA
p985
sg51
V205
p986
sg53
V2017
p987
sg55
F27.0
sg56
VJUN 12, 1990
p988
sg58
V6-4
p989
sg60
VJrue Holiday
p990
sg62
I1610612740
sg63
V11
p991
sg65
g299
sg67
V00
p992
sg69
g93
sg70
I201950
ssI203953
(dp993
g398
VDuke
p994
sg400
V250
p995
sg402
V2017
p996
sg404
F22.0
sg405
VMAR 15, 1995
p997
sg407
V6-8
p998
sg409
VJabari Parker
p999
sg411
I1610612749
sg412
V12
p1000
sg414
g17
sg415
V00
p1001
sg417
g23
sg418
I203953
ssI201933
(dp1002
g72
VOklahoma
p1003
sg74
V251
p1004
sg76
V2017
p1005
sg78
F28.0
sg79
VMAR 16, 1989
p1006
sg81
V6-10
p1007
sg83
VBlake Griffin
p1008
sg85
I1610612746
sg86
V32
p1009
sg88
g258
sg90
V00
p1010
sg92
g23
sg94
I201933
ssI1627763
(dp1011
g398
VVirginia
p1012
sg400
V215
p1013
sg402
V2017
p1014
sg404
F24.0
sg405
VDEC 11, 1992
p1015
sg407
V6-5
p1016
sg409
VMalcolm Brogdon
p1017
sg411
I1610612749
sg412
V13
p1018
sg414
g87
sg415
V00
p1019
sg417
g93
sg418
I1627763
ssI203957
(dp1020
g324
Nsg326
V190
p1021
sg328
V2017
p1022
sg330
F22.0
sg331
VJUL 13, 1995
p1023
sg333
V6-6
p1024
sg335
VDante Exum
p1025
sg337
I1610612762
sg338
V11
p1026
sg340
g155
sg342
V00
p1027
sg344
g93
sg345
I203957
ssI1627775
(dp1028
g2
VNevada-Las Vegas
p1029
sg4
V185
p1030
sg6
V2017
p1031
sg8
F22.0
sg9
VOCT 25, 1995
p1032
sg11
V6-7
p1033
sg13
VPatrick McCaw
p1034
sg15
I1610612744
sg16
g154
sg18
g87
sg20
V00
p1035
sg22
g93
sg24
I1627775
ssI202697
(dp1036
g26
VGeorgia Tech
p1037
sg28
V220
p1038
sg30
V2017
p1039
sg32
F27.0
sg33
VJUN 26, 1990
p1040
sg35
V6-5
p1041
sg37
VIman Shumpert
p1042
sg39
I1610612739
sg40
g66
sg42
g146
sg44
V00
p1043
sg46
g93
sg47
I202697
ssI1627832
(dp1044
g230
VWichita State
p1045
sg232
V195
p1046
sg234
V2017
p1047
sg236
F23.0
sg237
VFEB 25, 1994
p1048
sg239
V6-0
p1049
sg241
VFred VanVleet
p1050
sg243
I1610612761
sg244
V23
p1051
sg246
g87
sg247
V00
p1052
sg249
g93
sg250
I1627832
ssI203962
(dp1053
g439
VStanford
p1054
sg441
V230
p1055
sg443
V2017
p1056
sg445
F25.0
sg446
VDEC 19, 1991
p1057
sg448
V6-7
p1058
sg450
VJosh Huestis
p1059
sg452
I1610612760
sg453
V34
p1060
sg455
g155
sg456
V00
p1061
sg458
g23
sg459
I203962
ssI1627835
(dp1062
g177
Nsg179
V226
p1063
sg181
V2017
p1064
sg183
F23.0
sg184
VFEB 18, 1994
p1065
sg186
V6-8
p1066
sg188
VPaul Zipser
p1067
sg190
I1610612741
sg191
V16
p1068
sg193
g87
sg194
V00
p1069
sg196
g23
sg197
I1627835
ssI2749
(dp1070
g49
VSaint Joseph's
p1071
sg51
V190
p1072
sg53
V2017
p1073
sg55
F35.0
sg56
VFEB 09, 1982
p1074
sg58
V6-0
p1075
sg60
VJameer Nelson
p1076
sg62
I1610612740
sg63
V14
p1077
sg65
V13
p1078
sg67
V00
p1079
sg69
g93
sg70
I2749
ssI203966
(dp1080
g72
VMarquette
p1081
sg74
V229
p1082
sg76
V2017
p1083
sg78
F26.0
sg79
VNOV 21, 1990
p1084
sg81
V6-7
p1085
sg83
VJamil Wilson
p1086
sg85
I1610612746
sg86
V13
p1087
sg88
g89
sg90
V00
p1088
sg92
g23
sg94
I203966
ssI1628021
(dp1089
g177
VCal Poly-S.L.O.
p1090
sg179
V209
p1091
sg181
V2017
p1092
sg183
F24.0
sg184
VJAN 14, 1993
p1093
sg186
V6-4
p1094
sg188
VDavid Nwaba
p1095
sg190
I1610612741
sg191
V11
p1096
sg193
g87
sg194
V00
p1097
sg196
g93
sg197
I1628021
ssI203457
(dp1098
g302
VKentucky
p1099
sg304
V220
p1100
sg306
V2017
p1101
sg308
F23.0
sg309
VAPR 10, 1994
p1102
sg311
V6-11
p1103
sg313
VNerlens Noel
p1104
sg315
I1610612742
sg316
g17
sg318
g17
sg319
V00
p1105
sg321
g268
sg322
I203457
ssI2754
(dp1106
g49
VOklahoma State
p1107
sg51
V213
p1108
sg53
V2017
p1109
sg55
F35.0
sg56
VJAN 11, 1982
p1110
sg58
V6-4
p1111
sg60
VTony Allen
p1112
sg62
I1610612740
sg63
V24
p1113
sg65
V13
p1114
sg67
V00
p1115
sg69
VG-F
p1116
sg70
I2754
ssI203460
(dp1117
g439
VColorado
p1118
sg441
V210
p1119
sg443
V2017
p1120
sg445
F25.0
sg446
VDEC 04, 1991
p1121
sg448
V6-7
p1122
sg450
VAndre Roberson
p1123
sg452
I1610612760
sg453
V21
p1124
sg455
g66
sg456
V00
p1125
sg458
g93
sg459
I203460
ssI203463
(dp1126
g209
VKansas
p1127
sg211
V195
p1128
sg213
V2017
p1129
sg215
F24.0
sg216
VFEB 11, 1993
p1130
sg218
V6-5
p1131
sg220
VBen McLemore
p1132
sg222
I1610612763
sg223
V23
p1133
sg224
g66
sg225
V00
p1134
sg227
g93
sg228
I203463
ssI202684
(dp1135
g26
VTexas
p1136
sg28
V238
p1137
sg30
V2017
p1138
sg32
F26.0
sg33
VMAR 13, 1991
p1139
sg35
V6-9
p1140
sg37
VTristan Thompson
p1141
sg39
I1610612739
sg40
V13
p1142
sg42
g146
sg44
V00
p1143
sg46
VC-F
p1144
sg47
I202684
ssI1627853
(dp1145
g177
VVillanova
p1146
sg179
V195
p1147
sg181
V2017
p1148
sg183
F23.0
sg184
VMAR 26, 1994
p1149
sg186
V6-3
p1150
sg188
VRyan Arcidiacono
p1151
sg190
I1610612741
sg191
V15
p1152
sg193
g89
sg194
V00
p1153
sg196
g93
sg197
I1627853
ssI1628366
(dp1154
g96
VCalifornia-Los Angeles
p1155
sg98
V190
p1156
sg100
V2017
p1157
sg102
F20.0
sg103
VOCT 27, 1997
p1158
sg105
V6-6
p1159
sg107
VLonzo Ball
p1160
sg109
I1610612747
sg110
g155
sg112
g89
sg113
V00
p1161
sg115
g93
sg116
I1628366
ssI1627855
(dp1162
g270
VFlorida State
p1163
sg272
V215
p1164
sg274
V2017
p1165
sg276
F25.0
sg277
VAUG 13, 1992
p1166
sg279
V6-8
p1167
sg281
VOkaro White
p1168
sg283
I1610612748
sg284
V15
p1169
sg286
g87
sg287
V00
p1170
sg289
g23
sg290
I1627855
ssI201936
(dp1171
g209
VMemphis
p1172
sg211
V220
p1173
sg213
V2017
p1174
sg215
F28.0
sg216
VSEP 19, 1989
p1175
sg218
V6-6
p1176
sg220
VTyreke Evans
p1177
sg222
I1610612763
sg223
V12
p1178
sg224
g299
sg225
V00
p1179
sg227
VG-F
p1180
sg228
I201936
ssI201937
(dp1181
g324
VEl Masnou, Spain
p1182
sg326
V190
p1183
sg328
V2017
p1184
sg330
F27.0
sg331
VOCT 21, 1990
p1185
sg333
V6-4
p1186
sg335
VRicky Rubio
p1187
sg337
I1610612762
sg338
g17
sg340
g146
sg342
V00
p1188
sg344
g93
sg345
I201937
ssI201939
(dp1189
g2
VDavidson
p1190
sg4
V190
p1191
sg6
V2017
p1192
sg8
F29.0
sg9
VMAR 14, 1988
p1193
sg11
V6-3
p1194
sg13
VStephen Curry
p1195
sg15
I1610612744
sg16
V30
p1196
sg18
g299
sg20
V00
p1197
sg22
g93
sg24
I201939
ssI1628372
(dp1198
g302
VNorth Carolina State
p1199
sg304
V195
p1200
sg306
V2017
p1201
sg308
F19.0
sg309
VNOV 25, 1997
p1202
sg311
V6-3
p1203
sg313
VDennis Smith Jr.
p1204
sg315
I1610612742
sg316
g87
sg318
g89
sg319
V00
p1205
sg321
g93
sg322
I1628372
ssI201942
(dp1206
g230
VSouthern California
p1207
sg232
V220
p1208
sg234
V2017
p1209
sg236
F28.0
sg237
VAUG 07, 1989
p1210
sg239
V6-7
p1211
sg241
VDeMar DeRozan
p1212
sg243
I1610612761
sg244
V10
p1213
sg246
g299
sg247
V00
p1214
sg249
g93
sg250
I201942
ssI203991
(dp1215
g487
Nsg489
V240
p1216
sg491
V2017
p1217
sg493
F23.0
sg494
VMAY 18, 1994
p1218
sg496
V6-10
p1219
sg498
VClint Capela
p1220
sg500
I1610612745
sg501
V15
p1221
sg502
g17
sg503
V00
p1222
sg505
g268
sg506
I203991
ssI203481
(dp1223
g302
VKansas
p1224
sg304
V230
p1225
sg306
V2017
p1226
sg308
F27.0
sg309
VMAR 07, 1990
p1227
sg311
V7-0
p1228
sg313
VJeff Withey
p1229
sg315
I1610612742
sg316
V17
p1230
sg318
g66
sg319
V00
p1231
sg321
g268
sg322
I203481
ssI1628378
(dp1232
g324
VLouisville
p1233
sg326
V215
p1234
sg328
V2017
p1235
sg330
F21.0
sg331
VSEP 07, 1996
p1236
sg333
V6-3
p1237
sg335
VDonovan Mitchell
p1238
sg337
I1610612762
sg338
V45
p1239
sg340
g89
sg342
V00
p1240
sg344
g93
sg345
I1628378
ssI201935
(dp1241
g487
VArizona State
p1242
sg489
V220
p1243
sg491
V2017
p1244
sg493
F28.0
sg494
VAUG 26, 1989
p1245
sg496
V6-5
p1246
sg498
VJames Harden
p1247
sg500
I1610612745
sg501
V13
p1248
sg502
g299
sg503
V00
p1249
sg505
g93
sg506
I201935
ssI203484
(dp1250
g96
VGeorgia
p1251
sg98
V205
p1252
sg100
V2017
p1253
sg102
F24.0
sg103
VFEB 18, 1993
p1254
sg105
V6-5
p1255
sg107
VKentavious Caldwell-Pope
p1256
sg109
I1610612747
sg110
g87
sg112
g66
sg113
V00
p1257
sg115
g93
sg116
I203484
ssI201949
(dp1258
g270
VWake Forest
p1259
sg272
V240
p1260
sg274
V2017
p1261
sg276
F30.0
sg277
VFEB 20, 1987
p1262
sg279
V6-8
p1263
sg281
VJames Johnson
p1264
sg283
I1610612748
sg284
V16
p1265
sg286
g299
sg287
V00
p1266
sg289
g23
sg290
I201949
ssI203998
(dp1267
g230
Nsg232
V205
p1268
sg234
V2017
p1269
sg236
F22.0
sg237
VSEP 21, 1995
p1270
sg239
V6-9
p1271
sg241
VBruno Caboclo
p1272
sg243
I1610612761
sg244
g205
sg246
g17
sg247
V00
p1273
sg249
g23
sg250
I203998
ssI203999
(dp1274
g118
Nsg120
V250
p1275
sg122
V2017
p1276
sg124
F22.0
sg125
VFEB 19, 1995
p1277
sg127
V6-10
p1278
sg129
VNikola Jokic
p1279
sg131
I1610612743
sg132
V15
p1280
sg133
g155
sg135
V00
p1281
sg137
g268
sg138
I203999
ssI1628384
(dp1282
g230
VIndiana
p1283
sg232
V235
p1284
sg234
V2017
p1285
sg236
F20.0
sg237
VJUL 17, 1997
p1286
sg239
V6-8
p1287
sg241
VOG Anunoby
p1288
sg243
I1610612761
sg244
g17
sg246
g89
sg247
V00
p1289
sg249
g23
sg250
I1628384
ssI203489
(dp1290
g324
VSouth Dakota State
p1291
sg326
V190
p1292
sg328
V2017
p1293
sg330
F26.0
sg331
VMAY 15, 1991
p1294
sg333
V6-4
p1295
sg335
VNate Wolters
p1296
sg337
I1610612762
sg338
V16
p1297
sg340
g155
sg342
V00
p1298
sg344
g93
sg345
I203489
ssI1627362
(dp1299
g487
VVirginia Commonwealth
p1300
sg489
V165
p1301
sg491
V2017
p1302
sg493
F24.0
sg494
VDEC 29, 1992
p1303
sg496
V6-2
p1304
sg498
VBriante Weber
p1305
sg500
I1610612745
sg501
g154
sg502
g155
sg503
V00
p1306
sg505
g93
sg506
I1627362
ssI201956
(dp1307
g2
VYavne, Israel
p1308
sg4
V225
p1309
sg6
V2017
p1310
sg8
F29.0
sg9
VJUN 22, 1988
p1311
sg11
V6-9
p1312
sg13
VOmri Casspi
p1313
sg15
I1610612744
sg16
V18
p1314
sg18
g299
sg20
V00
p1315
sg22
g23
sg24
I201956
ssI1628389
(dp1316
g270
VKentucky
p1317
sg272
V255
p1318
sg274
V2017
p1319
sg276
F20.0
sg277
VJUL 18, 1997
p1320
sg279
V6-10
p1321
sg281
VBam Adebayo
p1322
sg283
I1610612748
sg284
V13
p1323
sg286
g89
sg287
V00
p1324
sg289
VC-F
p1325
sg290
I1628389
ssI1628390
(dp1326
g439
Nsg441
V184
p1327
sg443
V2017
p1328
sg445
F19.0
sg446
VMAY 17, 1998
p1329
sg448
V6-7
p1330
sg450
VTerrance Ferguson
p1331
sg452
I1610612760
sg453
V23
p1332
sg455
g89
sg456
V00
p1333
sg458
g93
sg459
I1628390
ssI1628391
(dp1334
g398
VMichigan
p1335
sg400
V236
p1336
sg402
V2017
p1337
sg404
F21.0
sg405
VFEB 19, 1996
p1338
sg407
V6-10
p1339
sg409
VD.J. Wilson
p1340
sg411
I1610612749
sg412
g205
sg414
g89
sg415
V00
p1341
sg417
g23
sg418
I1628391
ssI203497
(dp1342
g324
VFrance
p1343
sg326
V245
p1344
sg328
V2017
p1345
sg330
F25.0
sg331
VJUN 26, 1992
p1346
sg333
V7-1
p1347
sg335
VRudy Gobert
p1348
sg337
I1610612762
sg338
V27
p1349
sg340
g66
sg342
V00
p1350
sg344
g268
sg345
I203497
ssI1627883
(dp1351
g49
VTexas A&M
p1352
sg51
V220
p1353
sg53
V2017
p1354
sg55
F24.0
sg56
VMAY 27, 1993
p1355
sg58
V6-7
p1356
sg60
VJalen Jones
p1357
sg62
I1610612740
sg63
V12
p1358
sg65
g89
sg67
V00
p1359
sg69
g23
sg70
I1627883
ssI1628396
(dp1360
g324
VNorth Carolina
p1361
sg326
V248
p1362
sg328
V2017
p1363
sg330
F19.0
sg331
VJAN 08, 1998
p1364
sg333
V6-10
p1365
sg335
VTony Bradley
p1366
sg337
I1610612762
sg338
V13
p1367
sg340
g89
sg342
V00
p1368
sg344
g268
sg345
I1628396
ssI1628397
(dp1369
g209
VCalifornia
p1370
sg211
V220
p1371
sg213
V2017
p1372
sg215
F20.0
sg216
VFEB 04, 1997
p1373
sg218
V6-10
p1374
sg220
VIvan Rabb
p1375
sg222
I1610612763
sg223
V10
p1376
sg224
g89
sg225
V00
p1377
sg227
g23
sg228
I1628397
ssI1628398
(dp1378
g96
VUtah
p1379
sg98
V220
p1380
sg100
V2017
p1381
sg102
F22.0
sg103
VJUL 24, 1995
p1382
sg105
V6-9
p1383
sg107
VKyle Kuzma
p1384
sg109
I1610612747
sg110
g154
sg112
g89
sg113
V00
p1385
sg115
g23
sg116
I1628398
ssI203503
(dp1386
g398
VNew Mexico
p1387
sg400
V221
p1388
sg402
V2017
p1389
sg404
F26.0
sg405
VNOV 10, 1991
p1390
sg407
V6-7
p1391
sg409
VTony Snell
p1392
sg411
I1610612749
sg412
V21
p1393
sg414
g66
sg415
V00
p1394
sg417
g93
sg418
I203503
ssI203505
(dp1395
g96
VMarquette
p1396
sg98
V200
p1397
sg100
V2017
p1398
sg102
F25.0
sg103
VJUL 17, 1992
p1399
sg105
V6-5
p1400
sg107
VVander Blue
p1401
sg109
I1610612747
sg110
V17
p1402
sg112
g155
sg113
V00
p1403
sg115
g93
sg116
I203505
ssI1628402
(dp1404
g49
VDuke
p1405
sg51
V205
p1406
sg53
V2017
p1407
sg55
F19.0
sg56
VMAY 04, 1998
p1408
sg58
V6-3
p1409
sg60
VFrank Jackson
p1410
sg62
I1610612740
sg63
V15
p1411
sg65
g89
sg67
V00
p1412
sg69
g93
sg70
I1628402
ssI203507
(dp1413
g398
VGreece
p1414
sg400
V222
p1415
sg402
V2017
p1416
sg404
F22.0
sg405
VDEC 06, 1994
p1417
sg407
V6-11
p1418
sg409
VGiannis Antetokounmpo
p1419
sg411
I1610612749
sg412
V34
p1420
sg414
g66
sg415
V00
p1421
sg417
g23
sg418
I203507
ssI204020
(dp1422
g270
VFresno State
p1423
sg272
V190
p1424
sg274
V2017
p1425
sg276
F25.0
sg277
VMAY 07, 1992
p1426
sg279
V6-4
p1427
sg281
VTyler Johnson
p1428
sg283
I1610612748
sg284
g299
sg286
g17
sg287
V00
p1429
sg289
g93
sg290
I204020
ssI201973
(dp1430
g324
VKinna, Sweden
p1431
sg326
V231
p1432
sg328
V2017
p1433
sg330
F30.0
sg331
VMAR 02, 1987
p1434
sg333
V6-10
p1435
sg335
VJonas Jerebko
p1436
sg337
I1610612762
sg338
g299
sg340
g258
sg342
V00
p1437
sg344
g23
sg345
I201973
ssI203512
(dp1438
g230
Nsg232
V220
p1439
sg234
V2017
p1440
sg236
F25.0
sg237
VJUL 26, 1992
p1441
sg239
V7-0
p1442
sg241
VLucas Nogueira
p1443
sg243
I1610612761
sg244
V92
p1444
sg246
g17
sg247
V00
p1445
sg249
g268
sg250
I203512
ssI2772
(dp1446
g487
VUCLA
p1447
sg489
V215
p1448
sg491
V2017
p1449
sg493
F32.0
sg494
VJUN 30, 1985
p1450
sg496
V6-8
p1451
sg498
VTrevor Ariza
p1452
sg500
I1610612745
sg501
g87
sg502
V13
p1453
sg503
V00
p1454
sg505
VF-G
p1455
sg506
I2772
ssI203903
(dp1456
g96
VMissouri
p1457
sg98
V194
p1458
sg100
V2017
p1459
sg102
F25.0
sg103
VJUN 07, 1992
p1460
sg105
V6-5
p1461
sg107
VJordan Clarkson
p1462
sg109
I1610612747
sg110
g146
sg112
g17
sg113
V00
p1463
sg115
g93
sg116
I203903
ssI203516
(dp1464
g209
VLong Beach State
p1465
sg211
V210
p1466
sg213
V2017
p1467
sg215
F27.0
sg216
VJUL 01, 1990
p1468
sg218
V6-7
p1469
sg220
VJames Ennis III
p1470
sg222
I1610612763
sg223
g299
sg224
g17
sg225
V00
p1471
sg227
g23
sg228
I203516
ssI203518
(dp1472
g439
Nsg441
V190
p1473
sg443
V2017
p1474
sg445
F24.0
sg446
VAUG 01, 1993
p1475
sg448
V6-6
p1476
sg450
VAlex Abrines
p1477
sg452
I1610612760
sg453
g299
sg455
g87
sg456
V00
p1478
sg458
g93
sg459
I203518
ssI1628415
(dp1479
g209
VOregon
p1480
sg211
V220
p1481
sg213
V2017
p1482
sg215
F21.0
sg216
VJAN 22, 1996
p1483
sg218
V6-6
p1484
sg220
VDillon Brooks
p1485
sg222
I1610612763
sg223
V24
p1486
sg224
g89
sg225
V00
p1487
sg227
VF-G
p1488
sg228
I1628415
ssI203521
(dp1489
g398
VSaint Mary's (CA)
p1490
sg400
V198
p1491
sg402
V2017
p1492
sg404
F27.0
sg405
VSEP 08, 1990
p1493
sg407
V6-4
p1494
sg409
VMatthew Dellavedova
p1495
sg411
I1610612749
sg412
g299
sg414
g66
sg415
V00
p1496
sg417
g93
sg418
I203521
ssI1628418
(dp1497
g96
VIndiana
p1498
sg98
V248
p1499
sg100
V2017
p1500
sg102
F20.0
sg103
VJUL 31, 1997
p1501
sg105
V6-10
p1502
sg107
VThomas Bryant
p1503
sg109
I1610612747
sg110
V31
p1504
sg112
g89
sg113
V00
p1505
sg115
g268
sg116
I1628418
ssI1628506
(dp1506
g26
VVirginia
p1507
sg28
V190
p1508
sg30
V2017
p1509
sg32
F23.0
sg33
VOCT 03, 1994
p1510
sg35
V6-2
p1511
sg37
VLondon Perrantes
p1512
sg39
I1610612739
sg40
V15
p1513
sg42
g89
sg44
V00
p1514
sg46
g93
sg47
I1628506
ssI1628420
(dp1515
g118
VIowa State
p1516
sg120
V175
p1517
sg122
V2017
p1518
sg124
F22.0
sg125
VJUN 27, 1995
p1519
sg127
V6-3
p1520
sg129
VMonte Morris
p1521
sg131
I1610612743
sg132
V11
p1522
sg133
g89
sg135
V00
p1523
sg137
g93
sg138
I1628420
ssI1627770
(dp1524
g177
VOakland
p1525
sg179
V176
p1526
sg181
V2017
p1527
sg183
F22.0
sg184
VMAR 29, 1995
p1528
sg186
V5-9
p1529
sg188
VKay Felder
p1530
sg190
I1610612741
sg191
g17
sg193
g87
sg194
V00
p1531
sg196
g93
sg197
I1627770
ssI203526
(dp1532
g324
Nsg326
V179
p1533
sg328
V2017
p1534
sg330
F25.0
sg331
VMAY 19, 1992
p1535
sg333
V6-1
p1536
sg335
VRaul Neto
p1537
sg337
I1610612762
sg338
V25
p1538
sg340
g155
sg342
V00
p1539
sg344
g93
sg345
I203526
ssI1628424
(dp1540
g209
VArizona
p1541
sg211
V170
p1542
sg213
V2017
p1543
sg215
F20.0
sg216
VJUL 04, 1997
p1544
sg218
V6-4
p1545
sg220
VKobi Simmons
p1546
sg222
I1610612763
sg223
g155
sg224
g89
sg225
V00
p1547
sg227
g93
sg228
I1628424
ssI1628425
(dp1548
g398
VSouthern Methodist
p1549
sg400
V230
p1550
sg402
V2017
p1551
sg404
F22.0
sg405
VFEB 10, 1995
p1552
sg407
V6-6
p1553
sg409
VSterling Brown
p1554
sg411
I1610612749
sg412
V23
p1555
sg414
g89
sg415
V00
p1556
sg417
g93
sg418
I1628425
ssI1628429
(dp1557
g49
VDayton
p1558
sg51
V196
p1559
sg53
V2017
p1560
sg55
F23.0
sg56
VJUL 01, 1994
p1561
sg58
V6-5
p1562
sg60
VCharles Cooke
p1563
sg62
I1610612740
sg63
g66
sg65
g89
sg67
V00
p1564
sg69
g93
sg70
I1628429
ssI101139
(dp1565
g230
VSkyline HS (TX)
p1566
sg232
V225
p1567
sg234
V2017
p1568
sg236
F30.0
sg237
VMAR 18, 1987
p1569
sg239
V6-6
p1570
sg241
VCJ Miles
p1571
sg243
I1610612761
sg244
g154
sg246
V12
p1572
sg247
V00
p1573
sg249
VF-G
p1574
sg250
I101139
ssI201177
(dp1575
g302
VDuke
p1576
sg304
V240
p1577
sg306
V2017
p1578
sg308
F30.0
sg309
VFEB 28, 1987
p1579
sg311
V6-10
p1580
sg313
VJosh McRoberts
p1581
sg315
I1610612742
sg316
V13
p1582
sg318
V10
p1583
sg319
V00
p1584
sg321
VF-C
p1585
sg322
I201177
ssI203546
(dp1586
g49
VBelmont
p1587
sg51
V175
p1588
sg53
V2017
p1589
sg55
F26.0
sg56
VMAR 07, 1991
p1590
sg58
V6-3
p1591
sg60
VIan Clark
p1592
sg62
I1610612740
sg63
g155
sg65
g66
sg67
V00
p1593
sg69
g93
sg70
I203546
ssI203547
(dp1594
g324
VCampbell
p1595
sg326
V205
p1596
sg328
V2017
p1597
sg330
F27.0
sg331
VMAY 26, 1990
p1598
sg333
V6-8
p1599
sg335
VEric Griffin
p1600
sg337
I1610612762
sg338
V17
p1601
sg340
g89
sg342
V00
p1602
sg344
VC-F
p1603
sg345
I203547
ssI204060
(dp1604
g324
Nsg326
V226
p1605
sg328
V2017
p1606
sg330
F30.0
sg331
VOCT 02, 1987
p1607
sg333
V6-8
p1608
sg335
VJoe Ingles
p1609
sg337
I1610612762
sg338
g155
sg340
g17
sg342
V00
p1610
sg344
g23
sg345
I204060
ssI203482
(dp1611
g270
VGonzaga
p1612
sg272
V245
p1613
sg274
V2017
p1614
sg276
F26.0
sg277
VAPR 19, 1991
p1615
sg279
V7-0
p1616
sg281
VKelly Olynyk
p1617
sg283
I1610612748
sg284
g43
sg286
g66
sg287
V00
p1618
sg289
VC-F
p1619
sg290
I203482
ssI101150
(dp1620
g72
VSouth Gwinnett HS (GA)
p1621
sg74
V175
p1622
sg76
V2017
p1623
sg78
F31.0
sg79
VOCT 27, 1986
p1624
sg81
V6-1
p1625
sg83
VLou Williams
p1626
sg85
I1610612746
sg86
V23
p1627
sg88
V12
p1628
sg90
V00
p1629
sg92
g93
sg94
I101150
ssI1626245
(dp1630
g177
Nsg179
V280
p1631
sg181
V2017
p1632
sg183
F25.0
sg184
VJUL 07, 1992
p1633
sg186
V6-9
p1634
sg188
VCristiano Felicio
p1635
sg190
I1610612741
sg191
g146
sg193
g155
sg194
V00
p1636
sg196
VC-F
p1637
sg197
I1626245
ssI203552
(dp1638
g302
VDuke
p1639
sg304
V185
p1640
sg306
V2017
p1641
sg308
F27.0
sg309
VAUG 23, 1990
p1642
sg311
V6-2
p1643
sg313
VSeth Curry
p1644
sg315
I1610612742
sg316
V30
p1645
sg318
g66
sg319
V00
p1646
sg321
g93
sg322
I203552
ssI1628449
(dp1647
g2
VOregon
p1648
sg4
V200
p1649
sg6
V2017
p1650
sg8
F24.0
sg9
VJAN 11, 1993
p1651
sg11
V6-10
p1652
sg13
VChris Boucher
p1653
sg15
I1610612744
sg16
V25
p1654
sg18
g89
sg20
V00
p1655
sg22
g23
sg24
I1628449
ssI204066
(dp1656
g26
VBoston U.
p1657
sg28
V205
p1658
sg30
V2017
p1659
sg32
F29.0
sg33
VNOV 06, 1988
p1660
sg35
V6-5
p1661
sg37
VJohn Holland
p1662
sg39
I1610612739
sg40
V10
p1663
sg42
g87
sg44
V00
p1664
sg46
VG-F
p1665
sg47
I204066
ssI101108
(dp1666
g487
VWake Forest
p1667
sg489
V175
p1668
sg491
V2017
p1669
sg493
F32.0
sg494
VMAY 06, 1985
p1670
sg496
V6-0
p1671
sg498
VChris Paul
p1672
sg500
I1610612745
sg501
g17
sg502
V12
p1673
sg503
V00
p1674
sg505
g93
sg506
I101108
ssI1628462
(dp1675
g72
Nsg74
V196
p1676
sg76
V2017
p1677
sg78
F30.0
sg79
VMAR 19, 1987
p1678
sg81
V6-5
p1679
sg83
VMilos Teodosic
p1680
sg85
I1610612746
sg86
g66
sg88
g89
sg90
V00
p1681
sg92
g93
sg94
I1628462
ssI203485
(dp1682
g230
VNorth Carolina State
p1683
sg232
V189
p1684
sg234
V2017
p1685
sg236
F27.0
sg237
VAUG 26, 1990
p1686
sg239
V6-5
p1687
sg241
VLorenzo Brown
p1688
sg243
I1610612761
sg244
g66
sg246
g17
sg247
V00
p1689
sg249
g93
sg250
I203485
ssI1628467
(dp1690
g302
Nsg304
V220
p1691
sg306
V2017
p1692
sg308
F25.0
sg309
VJAN 29, 1992
p1693
sg311
V6-11
p1694
sg313
VMaxi Kleber
p1695
sg315
I1610612742
sg316
V42
p1696
sg318
g89
sg319
V00
p1697
sg321
g23
sg322
I1628467
ssI203486
(dp1698
g118
VDuke
p1699
sg120
V255
p1700
sg122
V2017
p1701
sg124
F27.0
sg125
VMAR 05, 1990
p1702
sg127
V6-11
p1703
sg129
VMason Plumlee
p1704
sg131
I1610612743
sg132
V24
p1705
sg133
g66
sg135
V00
p1706
sg137
VC-F
p1707
sg138
I203486
ssI1628470
(dp1708
g118
VSouth Carolina Upstate
p1709
sg120
V215
p1710
sg122
V2017
p1711
sg124
F26.0
sg125
VDEC 19, 1990
p1712
sg127
V6-6
p1713
sg129
VTorrey Craig
p1714
sg131
I1610612743
sg132
g17
sg133
g89
sg135
V00
p1715
sg137
VG-F
p1716
sg138
I1628470
ssI2738
(dp1717
g2
VArizona
p1718
sg4
V215
p1719
sg6
V2017
p1720
sg8
F33.0
sg9
VJAN 28, 1984
p1721
sg11
V6-6
p1722
sg13
VAndre Iguodala
p1723
sg15
I1610612744
sg16
g43
sg18
V13
p1724
sg20
V00
p1725
sg22
VG-F
p1726
sg24
I2738
ssI1628475
(dp1727
g270
VCentral Florida
p1728
sg272
V210
p1729
sg274
V2017
p1730
sg276
F24.0
sg277
VOCT 14, 1993
p1731
sg279
V6-5
p1732
sg281
VMatt Williams Jr.
p1733
sg283
I1610612748
sg284
V12
p1734
sg286
g89
sg287
V00
p1735
sg289
g93
sg290
I1628475
ssI1628476
(dp1736
g270
VMichigan
p1737
sg272
V185
p1738
sg274
V2017
p1739
sg276
F22.0
sg277
VAPR 03, 1995
p1740
sg279
V6-1
p1741
sg281
VDerrick Walton Jr.
p1742
sg283
I1610612748
sg284
V14
p1743
sg286
g89
sg287
V00
p1744
sg289
g93
sg290
I1628476
ssI1627786
(dp1745
g487
VIndiana
p1746
sg489
V218
p1747
sg491
V2017
p1748
sg493
F22.0
sg494
VDEC 30, 1994
p1749
sg496
V6-7
p1750
sg498
VTroy Williams
p1751
sg500
I1610612745
sg501
g205
sg502
g87
sg503
V00
p1752
sg505
g23
sg506
I1627786
ssI1628469
(dp1753
g177
VLouisiana State
p1754
sg179
V197
p1755
sg181
V2017
p1756
sg183
F21.0
sg184
VOCT 04, 1996
p1757
sg186
V6-4
p1758
sg188
VAntonio Blakeney
p1759
sg190
I1610612741
sg191
g43
sg193
g89
sg194
V00
p1760
sg196
g93
sg197
I1628469
ssI203585
(dp1761
g270
VKansas State
p1762
sg272
V200
p1763
sg274
V2017
p1764
sg276
F26.0
sg277
VJUL 29, 1991
p1765
sg279
V6-4
p1766
sg281
VRodney McGruder
p1767
sg283
I1610612748
sg284
V17
p1768
sg286
g87
sg287
V00
p1769
sg289
VG-F
p1770
sg290
I203585
ssI203076
(dp1771
g49
VKentucky
p1772
sg51
V253
p1773
sg53
V2017
p1774
sg55
F24.0
sg56
VMAR 11, 1993
p1775
sg58
V6-10
p1776
sg60
VAnthony Davis
p1777
sg62
I1610612740
sg63
V23
p1778
sg65
g205
sg67
V00
p1779
sg69
VF-C
p1780
sg70
I203076
ssI203079
(dp1781
g270
VSyracuse
p1782
sg272
V215
p1783
sg274
V2017
p1784
sg276
F25.0
sg277
VDEC 10, 1991
p1785
sg279
V6-4
p1786
sg281
VDion Waiters
p1787
sg283
I1610612748
sg284
V11
p1788
sg286
g205
sg287
V00
p1789
sg289
g93
sg290
I203079
ssI1628492
(dp1790
g302
VColorado State
p1791
sg304
V185
p1792
sg306
V2017
p1793
sg308
F23.0
sg309
VNOV 26, 1993
p1794
sg311
V6-4
p1795
sg313
VGian Clavell
p1796
sg315
I1610612742
sg316
g299
sg318
g89
sg319
V00
p1797
sg321
g93
sg322
I1628492
ssI203085
(dp1798
g72
VDuke
p1799
sg74
V200
p1800
sg76
V2017
p1801
sg78
F25.0
sg79
VAUG 01, 1992
p1802
sg81
V6-4
p1803
sg83
VAustin Rivers
p1804
sg85
I1610612746
sg86
V25
p1805
sg88
g205
sg90
V00
p1806
sg92
g93
sg94
I203085
ssI203089
(dp1807
g398
VNorth Carolina
p1808
sg400
V229
p1809
sg402
V2017
p1810
sg404
F26.0
sg405
VDEC 28, 1990
p1811
sg407
V6-11
p1812
sg409
VJohn Henson
p1813
sg411
I1610612749
sg412
V31
p1814
sg414
g205
sg415
V00
p1815
sg417
VF-C
p1816
sg418
I203089
ssI1627790
(dp1817
g26
Nsg28
V250
p1818
sg30
V2017
p1819
sg32
F20.0
sg33
VJAN 04, 1997
p1820
sg35
V6-11
p1821
sg37
VAnte Zizic
p1822
sg39
I1610612739
sg40
V41
p1823
sg42
g89
sg44
V00
p1824
sg46
VF-C
p1825
sg47
I1627790
ssI201976
(dp1826
g72
VArkansas
p1827
sg74
V185
p1828
sg76
V2017
p1829
sg78
F29.0
sg79
VJUL 12, 1988
p1830
sg81
V6-1
p1831
sg83
VPatrick Beverley
p1832
sg85
I1610612746
sg86
V21
p1833
sg88
g205
sg90
V00
p1834
sg92
g93
sg94
I201976
ssI2747
(dp1835
g26
VSt. Benedict's Prep (NJ)
p1836
sg28
V225
p1837
sg30
V2017
p1838
sg32
F32.0
sg33
VSEP 09, 1985
p1839
sg35
V6-6
p1840
sg37
VJR Smith
p1841
sg39
I1610612739
sg40
g205
sg42
V13
p1842
sg44
V00
p1843
sg46
VG-F
p1844
sg47
I2747
ssI201565
(dp1845
g26
VMemphis
p1846
sg28
V190
p1847
sg30
V2017
p1848
sg32
F29.0
sg33
VOCT 04, 1988
p1849
sg35
V6-3
p1850
sg37
VDerrick Rose
p1851
sg39
I1610612739
sg40
g87
sg42
g299
sg44
V00
p1852
sg46
g93
sg47
I201565
ssI201566
(dp1853
g439
VUCLA
p1854
sg441
V200
p1855
sg443
V2017
p1856
sg445
F28.0
sg446
VNOV 12, 1988
p1857
sg448
V6-3
p1858
sg450
VRussell Westbrook
p1859
sg452
I1610612760
sg453
g154
sg455
g43
sg456
V00
p1860
sg458
g93
sg459
I201566
ssI201567
(dp1861
g26
VUCLA
p1862
sg28
V251
p1863
sg30
V2017
p1864
sg32
F29.0
sg33
VSEP 07, 1988
p1865
sg35
V6-10
p1866
sg37
VKevin Love
p1867
sg39
I1610612739
sg40
g154
sg42
g43
sg44
V00
p1868
sg46
VF-C
p1869
sg47
I201567
ssI201568
(dp1870
g72
VSant'Angelo Lodigiano, Italy
p1871
sg74
V225
p1872
sg76
V2017
p1873
sg78
F29.0
sg79
VAUG 08, 1988
p1874
sg81
V6-10
p1875
sg83
VDanilo Gallinari
p1876
sg85
I1610612746
sg86
g299
sg88
g299
sg90
V00
p1877
sg92
g23
sg94
I201568
ssI201569
(dp1878
g487
VIndiana
p1879
sg489
V215
p1880
sg491
V2017
p1881
sg493
F28.0
sg494
VDEC 25, 1988
p1882
sg496
V6-4
p1883
sg498
VEric Gordon
p1884
sg500
I1610612745
sg501
V10
p1885
sg502
g43
sg503
V00
p1886
sg505
g93
sg506
I201569
ssI1891
(dp1887
g398
VArizona
p1888
sg400
V185
p1889
sg402
V2017
p1890
sg404
F40.0
sg405
VSEP 15, 1977
p1891
sg407
V6-2
p1892
sg409
VJason Terry
p1893
sg411
I1610612749
sg412
g17
sg414
V18
p1894
sg415
V00
p1895
sg417
g93
sg418
I1891
ssI201572
(dp1896
g96
VStanford
p1897
sg98
V268
p1898
sg100
V2017
p1899
sg102
F29.0
sg103
VAPR 01, 1988
p1900
sg105
V7-0
p1901
sg107
VBrook Lopez
p1902
sg109
I1610612747
sg110
V11
p1903
sg112
g43
sg113
V00
p1904
sg115
g268
sg116
I201572
ssI203109
(dp1905
g26
VMarquette
p1906
sg28
V235
p1907
sg30
V2017
p1908
sg32
F27.0
sg33
VJUL 06, 1990
p1909
sg35
V6-6
p1910
sg37
VJae Crowder
p1911
sg39
I1610612739
sg40
V99
p1912
sg42
g205
sg44
V00
p1913
sg46
g23
sg47
I203109
ssI203110
(dp1914
g2
VMichigan State
p1915
sg4
V230
p1916
sg6
V2017
p1917
sg8
F27.0
sg9
VMAR 04, 1990
p1918
sg11
V6-7
p1919
sg13
VDraymond Green
p1920
sg15
I1610612744
sg16
V23
p1921
sg18
g205
sg20
V00
p1922
sg22
g23
sg24
I203110
ssI201577
(dp1923
g177
VStanford
p1924
sg179
V277
p1925
sg181
V2017
p1926
sg183
F29.0
sg184
VAPR 01, 1988
p1927
sg186
V7-0
p1928
sg188
VRobin Lopez
p1929
sg190
I1610612741
sg191
V42
p1930
sg193
g43
sg194
V00
p1931
sg196
g268
sg197
I201577
ssI203114
(dp1932
g398
VTexas A&M
p1933
sg400
V234
p1934
sg402
V2017
p1935
sg404
F26.0
sg405
VAUG 12, 1991
p1936
sg407
V6-8
p1937
sg409
VKhris Middleton
p1938
sg411
I1610612749
sg412
V22
p1939
sg414
g205
sg415
V00
p1940
sg417
g23
sg418
I203114
ssI203115
(dp1941
g118
VMemphis
p1942
sg120
V190
p1943
sg122
V2017
p1944
sg124
F26.0
sg125
VJAN 06, 1991
p1945
sg127
V6-6
p1946
sg129
VWill Barton
p1947
sg131
I1610612743
sg132
g205
sg133
g205
sg135
V00
p1948
sg137
VG-F
p1949
sg138
I203115
ssI201580
(dp1950
g2
VNevada
p1951
sg4
V270
p1952
sg6
V2017
p1953
sg8
F29.0
sg9
VJAN 19, 1988
p1954
sg11
V7-0
p1955
sg13
VJaVale McGee
p1956
sg15
I1610612744
sg16
g87
sg18
g43
sg20
V00
p1957
sg22
g268
sg24
I201580
ssI101112
(dp1958
g26
VArizona
p1959
sg28
V255
p1960
sg30
V2017
p1961
sg32
F34.0
sg33
VMAY 17, 1983
p1962
sg35
V6-11
p1963
sg37
VChanning Frye
p1964
sg39
I1610612739
sg40
g299
sg42
V11
p1965
sg44
V00
p1966
sg46
g23
sg47
I101112
ssI201582
(dp1967
g49
VSaint Etienne, France
p1968
sg51
V248
p1969
sg53
V2017
p1970
sg55
F29.0
sg56
VMAY 06, 1988
p1971
sg58
V7-2
p1972
sg60
VAlexis Ajinca
p1973
sg62
I1610612740
sg63
V42
p1974
sg65
g258
sg67
V00
p1975
sg69
g268
sg70
I201582
ssI200765
(dp1976
g49
VKentucky
p1977
sg51
V186
p1978
sg53
V2017
p1979
sg55
F31.0
sg56
VFEB 22, 1986
p1980
sg58
V6-1
p1981
sg60
VRajon Rondo
p1982
sg62
I1610612740
sg63
g43
sg65
V11
p1983
sg67
V00
p1984
sg69
g93
sg70
I200765
ssI1717
(dp1985
g302
VWurzburg, Germany
p1986
sg304
V245
p1987
sg306
V2017
p1988
sg308
F39.0
sg309
VJUN 19, 1978
p1989
sg311
V7-0
p1990
sg313
VDirk Nowitzki
p1991
sg315
I1610612742
sg316
V41
p1992
sg318
V19
p1993
sg319
V00
p1994
sg321
VF-C
p1995
sg322
I1717
ssI201586
(dp1996
g230
VBrazzaville, Rep. of Congo
p1997
sg232
V235
p1998
sg234
V2017
p1999
sg236
F28.0
sg237
VSEP 18, 1989
p2000
sg239
V6-10
p2001
sg241
VSerge Ibaka
p2002
sg243
I1610612761
sg244
g43
sg246
g299
sg247
V00
p2003
sg249
g23
sg250
I201586
ssI201589
(dp2004
g118
VKansas
p2005
sg120
V235
p2006
sg122
V2017
p2007
sg124
F29.0
sg125
VMAR 25, 1988
p2008
sg127
V6-9
p2009
sg129
VDarrell Arthur
p2010
sg131
I1610612743
sg132
V00
p2011
sg133
g299
sg135
V00
p2012
sg137
g23
sg138
I201589
ssI201961
(dp2013
g270
VNorth Carolina
p2014
sg272
V200
p2015
sg274
V2017
p2016
sg276
F29.0
sg277
VNOV 29, 1987
p2017
sg279
V6-5
p2018
sg281
VWayne Ellington
p2019
sg283
I1610612748
sg284
g155
sg286
g299
sg287
V00
p2020
sg289
g93
sg290
I201961
ssI201596
(dp2021
g209
VKansas
p2022
sg211
V190
p2023
sg213
V2017
p2024
sg215
F31.0
sg216
VMAY 19, 1986
p2025
sg218
V6-2
p2026
sg220
VMario Chalmers
p2027
sg222
I1610612763
sg223
g146
sg224
g299
sg225
V00
p2028
sg227
g93
sg228
I201596
ssI201599
(dp2029
g72
VTexas A&M
p2030
sg74
V265
p2031
sg76
V2017
p2032
sg78
F29.0
sg79
VJUL 21, 1988
p2033
sg81
V6-11
p2034
sg83
VDeAndre Jordan
p2035
sg85
I1610612746
sg86
g146
sg88
g43
sg90
V00
p2036
sg92
g268
sg94
I201599
ssI201600
(dp2037
g49
VTurkey
p2038
sg51
V255
p2039
sg53
V2017
p2040
sg55
F31.0
sg56
VJUL 04, 1986
p2041
sg58
V7-0
p2042
sg60
VOmer Asik
p2043
sg62
I1610612740
sg63
g17
sg65
g258
sg67
V00
p2044
sg69
g268
sg70
I201600
ssI201601
(dp2045
g487
VUCLA
p2046
sg489
V230
p2047
sg491
V2017
p2048
sg493
F31.0
sg494
VSEP 09, 1986
p2049
sg496
V6-8
p2050
sg498
VLuc Mbah a Moute
p2051
sg500
I1610612745
sg501
V12
p2052
sg502
g43
sg503
V00
p2053
sg505
g23
sg506
I201601
ssI1628035
(dp2054
g230
VWisc.-Green Bay
p2055
sg232
V215
p2056
sg234
V2017
p2057
sg236
F25.0
sg237
VSEP 17, 1992
p2058
sg239
V6-8
p2059
sg241
VAlfonzo McKinnie
p2060
sg243
I1610612761
sg244
V34
p2061
sg246
g89
sg247
V00
p2062
sg249
g23
sg250
I1628035
ssI203141
(dp2063
g398
VBosnia
p2064
sg400
V242
p2065
sg402
V2017
p2066
sg404
F32.0
sg405
VSEP 17, 1985
p2067
sg407
V6-9
p2068
sg409
VMirza Teletovic
p2069
sg411
I1610612749
sg412
V35
p2070
sg414
g205
sg415
V00
p2071
sg417
g23
sg418
I203141
ssI201609
(dp2072
g270
VLjubljana, Slovenia
p2073
sg272
V190
p2074
sg274
V2017
p2075
sg276
F31.0
sg277
VMAY 06, 1986
p2076
sg279
V6-3
p2077
sg281
VGoran Dragic
p2078
sg283
I1610612748
sg284
g258
sg286
g43
sg287
V00
p2079
sg289
g93
sg290
I201609
ssI1628399
(dp2080
g118
VSyracuse
p2081
sg120
V220
p2082
sg122
V2017
p2083
sg124
F21.0
sg125
VAPR 09, 1996
p2084
sg127
V6-9
p2085
sg129
VTyler Lydon
p2086
sg131
I1610612743
sg132
V20
p2087
sg133
g89
sg135
V00
p2088
sg137
g23
sg138
I1628399
ssI201628
(dp2089
g487
VCal State-Fullerton
p2090
sg489
V175
p2091
sg491
V2017
p2092
sg493
F33.0
sg494
VSEP 24, 1984
p2093
sg496
V6-2
p2094
sg498
VBobby Brown
p2095
sg500
I1610612745
sg501
g146
sg502
g17
sg503
V00
p2096
sg505
g93
sg506
I201628
ssI101106
(dp2097
g96
VUtah
p2098
sg98
V260
p2099
sg100
V2017
p2100
sg102
F32.0
sg103
VNOV 28, 1984
p2101
sg105
V7-0
p2102
sg107
VAndrew Bogut
p2103
sg109
I1610612747
sg110
V66
p2104
sg112
V12
p2105
sg113
V00
p2106
sg115
g268
sg116
I101106
ssI203186
(dp2107
g72
VSaint Louis
p2108
sg74
V245
p2109
sg76
V2017
p2110
sg78
F27.0
sg79
VMAY 16, 1990
p2111
sg81
V6-11
p2112
sg83
VWillie Reed
p2113
sg85
I1610612746
sg86
V35
p2114
sg88
g155
sg90
V00
p2115
sg92
g268
sg94
I203186
ssI201142
(dp2116
g2
VTexas
p2117
sg4
V240
p2118
sg6
V2017
p2119
sg8
F29.0
sg9
VSEP 29, 1988
p2120
sg11
V6-9
p2121
sg13
VKevin Durant
p2122
sg15
I1610612744
sg16
V35
p2123
sg18
V10
p2124
sg20
V00
p2125
sg22
g23
sg24
I201142
ssI201144
(dp2126
g209
VOhio State
p2127
sg211
V175
p2128
sg213
V2017
p2129
sg215
F30.0
sg216
VOCT 11, 1987
p2130
sg218
V6-1
p2131
sg220
VMike Conley
p2132
sg222
I1610612763
sg223
V11
p2133
sg224
V10
p2134
sg225
V00
p2135
sg227
g93
sg228
I201144
ssI1628404
(dp2136
g96
VVillanova
p2137
sg98
V215
p2138
sg100
V2017
p2139
sg102
F22.0
sg103
VMAR 06, 1995
p2140
sg105
V6-5
p2141
sg107
VJosh Hart
p2142
sg109
I1610612747
sg110
g205
sg112
g89
sg113
V00
p2143
sg115
g93
sg116
I1628404
ssI201147
(dp2144
g96
VFlorida
p2145
sg98
V186
p2146
sg100
V2017
p2147
sg102
F31.0
sg103
VMAR 05, 1986
p2148
sg105
V6-9
p2149
sg107
VCorey Brewer
p2150
sg109
I1610612747
sg110
g17
sg112
V10
p2151
sg113
V00
p2152
sg115
g23
sg116
I201147
ssI201148
(dp2153
g209
VNorth Carolina
p2154
sg211
V235
p2155
sg213
V2017
p2156
sg215
F30.0
sg216
VOCT 05, 1987
p2157
sg218
V6-10
p2158
sg220
VBrandan Wright
p2159
sg222
I1610612763
sg223
V34
p2160
sg224
g43
sg225
V00
p2161
sg227
VF-C
p2162
sg228
I201148
ssI202685
(dp2163
g230
VUtena, Lithuania
p2164
sg232
V255
p2165
sg234
V2017
p2166
sg236
F25.0
sg237
VMAY 06, 1992
p2167
sg239
V7-0
p2168
sg241
VJonas Valanciunas
p2169
sg243
I1610612761
sg244
V17
p2170
sg246
g205
sg247
V00
p2171
sg249
g268
sg250
I202685
ssI203710
(dp2172
g72
VNorth Carolina State
p2173
sg74
V230
p2174
sg76
V2017
p2175
sg78
F27.0
sg79
VFEB 06, 1990
p2176
sg81
V6-5
p2177
sg83
VC.J. Williams
p2178
sg85
I1610612746
sg86
g43
sg88
g89
sg90
V00
p2179
sg92
g93
sg94
I203710
ssI101109
(dp2180
g439
VNorth Carolina
p2181
sg441
V205
p2182
sg443
V2017
p2183
sg445
F33.0
sg446
VJUN 26, 1984
p2184
sg448
V6-1
p2185
sg450
VRaymond Felton
p2186
sg452
I1610612760
sg453
g155
sg455
V12
p2187
sg456
V00
p2188
sg458
g93
sg459
I101109
ssI203200
(dp2189
g177
VWashington
p2190
sg179
V185
p2191
sg181
V2017
p2192
sg183
F28.0
sg184
VAPR 05, 1989
p2193
sg186
V6-6
p2194
sg188
VJustin Holiday
p2195
sg190
I1610612741
sg191
g258
sg193
g66
sg194
V00
p2196
sg196
g93
sg197
I203200
ssI202691
(dp2197
g2
VWashington State
p2198
sg4
V215
p2199
sg6
V2017
p2200
sg8
F27.0
sg9
VFEB 08, 1990
p2201
sg11
V6-7
p2202
sg13
VKlay Thompson
p2203
sg15
I1610612744
sg16
V11
p2204
sg18
g146
sg20
V00
p2205
sg22
g93
sg24
I202691
ssI202692
(dp2206
g324
VColorado
p2207
sg326
V214
p2208
sg328
V2017
p2209
sg330
F26.0
sg331
VJUL 20, 1991
p2210
sg333
V6-6
p2211
sg335
VAlec Burks
p2212
sg337
I1610612762
sg338
V10
p2213
sg340
g146
sg342
V00
p2214
sg344
g93
sg345
I202692
ssI1628405
(dp2215
g302
VBaylor
p2216
sg304
V230
p2217
sg306
V2017
p2218
sg308
F22.0
sg309
VMAY 04, 1995
p2219
sg311
V6-10
p2220
sg313
VJohnathan Motley
p2221
sg315
I1610612742
sg316
g146
sg318
g89
sg319
V00
p2222
sg321
g23
sg322
I1628405
ssI203084
(dp2223
g302
VNorth Carolina
p2224
sg304
V225
p2225
sg306
V2017
p2226
sg308
F25.0
sg309
VMAY 30, 1992
p2227
sg311
V6-8
p2228
sg313
VHarrison Barnes
p2229
sg315
I1610612742
sg316
V40
p2230
sg318
g205
sg319
V00
p2231
sg321
g23
sg322
I203084
ssI203210
(dp2232
g209
VAlabama
p2233
sg211
V227
p2234
sg213
V2017
p2235
sg215
F27.0
sg216
VJUN 21, 1990
p2236
sg218
V6-9
p2237
sg220
VJaMychal Green
p2238
sg222
I1610612763
sg223
g154
sg224
g17
sg225
V00
p2239
sg227
g23
sg228
I203210
ssI201163
(dp2240
g118
VDePaul
p2241
sg120
V225
p2242
sg122
V2017
p2243
sg124
F30.0
sg125
VMAY 10, 1987
p2244
sg127
V6-9
p2245
sg129
VWilson Chandler
p2246
sg131
I1610612743
sg132
V21
p2247
sg133
g43
sg135
V00
p2248
sg137
g23
sg138
I201163
ssI202702
(dp2249
g118
VMorehead State
p2250
sg120
V228
p2251
sg122
V2017
p2252
sg124
F27.0
sg125
VNOV 19, 1989
p2253
sg127
V6-8
p2254
sg129
VKenneth Faried
p2255
sg131
I1610612743
sg132
V35
p2256
sg133
g146
sg135
V00
p2257
sg137
g23
sg138
I202702
ssI202703
(dp2258
g177
Nsg179
V238
p2259
sg181
V2017
p2260
sg183
F26.0
sg184
VFEB 11, 1991
p2261
sg186
V6-10
p2262
sg188
VNikola Mirotic
p2263
sg190
I1610612741
sg191
V44
p2264
sg193
g17
sg194
V00
p2265
sg196
g23
sg197
I202703
ssI1628408
(dp2266
g439
VSouth Carolina
p2267
sg441
V205
p2268
sg443
V2017
p2269
sg445
F21.0
sg446
VOCT 25, 1996
p2270
sg448
V6-6
p2271
sg450
VPJ Dozier
p2272
sg452
I1610612760
sg453
V35
p2273
sg455
g89
sg456
V00
p2274
sg458
g93
sg459
I1628408
ssI202713
(dp2275
g439
VDuke
p2276
sg441
V228
p2277
sg443
V2017
p2278
sg445
F29.0
sg446
VMAY 04, 1988
p2279
sg448
V6-8
p2280
sg450
VKyle Singler
p2281
sg452
I1610612760
sg453
V15
p2282
sg455
g205
sg456
V00
p2283
sg458
g23
sg459
I202713
ssI1627743
(dp2284
g487
VNotre Dame
p2285
sg489
V201
p2286
sg491
V2017
p2287
sg493
F23.0
sg494
VSEP 07, 1994
p2288
sg496
V6-1
p2289
sg498
VDemetrius Jackson
p2290
sg500
I1610612745
sg501
g155
sg502
g87
sg503
V00
p2291
sg505
g93
sg506
I1627743
ssI202718
(dp2292
g209
VFlorida
p2293
sg211
V230
p2294
sg213
V2017
p2295
sg215
F29.0
sg216
VOCT 25, 1988
p2296
sg218
V6-10
p2297
sg220
VChandler Parsons
p2298
sg222
I1610612763
sg223
V25
p2299
sg224
g146
sg225
V00
p2300
sg227
g23
sg228
I202718
ssI1628374
(dp2301
g177
VArizona
p2302
sg179
V230
p2303
sg181
V2017
p2304
sg183
F20.0
sg184
VMAY 22, 1997
p2305
sg186
V7-0
p2306
sg188
VLauri Markkanen
p2307
sg190
I1610612741
sg191
V24
p2308
sg193
g89
sg194
V00
p2309
sg196
g23
sg197
I1628374
ssI201188
(dp2310
g209
VBarcelona, Spain
p2311
sg211
V255
p2312
sg213
V2017
p2313
sg215
F32.0
sg216
VJAN 29, 1985
p2314
sg218
V7-1
p2315
sg220
VMarc Gasol
p2316
sg222
I1610612763
sg223
V33
p2317
sg224
g43
sg225
V00
p2318
sg227
g268
sg228
I201188
ssI204028
(dp2319
g487
VKansas
p2320
sg489
V250
p2321
sg491
V2017
p2322
sg493
F25.0
sg494
VNOV 22, 1991
p2323
sg496
V6-9
p2324
sg498
VTarik Black
p2325
sg500
I1610612745
sg501
V28
p2326
sg502
g17
sg503
V00
p2327
sg505
VF-C
p2328
sg506
I204028
ssI1628395
(dp2329
g2
VOregon
p2330
sg4
V224
p2331
sg6
V2017
p2332
sg8
F22.0
sg9
VJAN 07, 1995
p2333
sg11
V6-9
p2334
sg13
VJordan Bell
p2335
sg15
I1610612744
sg16
g155
sg18
g89
sg20
V00
p2336
sg22
g23
sg24
I1628395
ssI2403
(dp2337
g487
VSao Carlos, Brazil
p2338
sg489
V250
p2339
sg491
V2017
p2340
sg493
F35.0
sg494
VSEP 13, 1982
p2341
sg496
V6-11
p2342
sg498
VNene
p2343
sg500
I1610612745
sg501
V42
p2344
sg502
V15
p2345
sg503
V00
p2346
sg505
VC-F
p2347
sg506
I2403
ssI202732
(dp2348
g398
VKentucky
p2349
sg400
V209
p2350
sg402
V2017
p2351
sg404
F29.0
sg405
VMAR 31, 1988
p2352
sg407
V6-6
p2353
sg409
VDeAndre Liggins
p2354
sg411
I1610612749
sg412
V25
p2355
sg414
g66
sg415
V00
p2356
sg417
g93
sg418
I202732
ssI202734
(dp2357
g49
VPurdue
p2358
sg51
V191
p2359
sg53
V2017
p2360
sg55
F28.0
sg56
VFEB 25, 1989
p2361
sg58
V6-4
p2362
sg60
VE'Twaun Moore
p2363
sg62
I1610612740
sg63
V55
p2364
sg65
g146
sg67
V00
p2365
sg69
g93
sg70
I202734
ssI2544
(dp2366
g26
VSt. Vincent-St. Mary HS (OH)
p2367
sg28
V250
p2368
sg30
V2017
p2369
sg32
F32.0
sg33
VDEC 30, 1984
p2370
sg35
V6-8
p2371
sg37
VLeBron James
p2372
sg39
I1610612739
sg40
V23
p2373
sg42
V14
p2374
sg44
V00
p2375
sg46
VF-G
p2376
sg47
I2544
ssI2546
(dp2377
g439
VSyracuse
p2378
sg441
V240
p2379
sg443
V2017
p2380
sg445
F33.0
sg446
VMAY 29, 1984
p2381
sg448
V6-8
p2382
sg450
VCarmelo Anthony
p2383
sg452
I1610612760
sg453
g258
sg455
V14
p2384
sg456
V00
p2385
sg458
g23
sg459
I2546
ssI2548
(dp2386
g26
VMarquette
p2387
sg28
V220
p2388
sg30
V2017
p2389
sg32
F35.0
sg33
VJAN 17, 1982
p2390
sg35
V6-4
p2391
sg37
VDwyane Wade
p2392
sg39
I1610612739
sg40
g43
sg42
V14
p2393
sg44
V00
p2394
sg46
g93
sg47
I2548
ssI1628414
(dp2395
g72
VSouth Carolina
p2396
sg74
V215
p2397
sg76
V2017
p2398
sg78
F22.0
sg79
VNOV 15, 1994
p2399
sg81
V6-5
p2400
sg83
VSindarius Thornwell
p2401
sg85
I1610612746
sg86
g154
sg88
g89
sg90
V00
p2402
sg92
g93
sg94
I1628414
ssI1626196
(dp2403
g270
VTennessee
p2404
sg272
V200
p2405
sg274
V2017
p2406
sg276
F24.0
sg277
VSEP 15, 1993
p2407
sg279
V6-6
p2408
sg281
VJosh Richardson
p2409
sg283
I1610612748
sg284
g154
sg286
g155
sg287
V00
p2410
sg289
g23
sg290
I1626196
ssI2555
(dp2411
g439
VKansas
p2412
sg441
V255
p2413
sg443
V2017
p2414
sg445
F37.0
sg446
VOCT 26, 1980
p2415
sg448
V6-10
p2416
sg450
VNick Collison
p2417
sg452
I1610612760
sg453
g66
sg455
V13
p2418
sg456
V00
p2419
sg458
g23
sg459
I2555
ssI101181
(dp2420
g26
VVillanueva de la Serena, Spain
p2421
sg28
V200
p2422
sg30
V2017
p2423
sg32
F36.0
sg33
VSEP 28, 1981
p2424
sg35
V6-3
p2425
sg37
VJose Calderon
p2426
sg39
I1610612739
sg40
V81
p2427
sg42
V12
p2428
sg44
V00
p2429
sg46
g93
sg47
I101181
ss.