(dp0
I200794
(dp1
VSCHOOL
p2
VLouisiana Tech
p3
sVWEIGHT
p4
V246
p5
sVSEASON
p6
V2017
p7
sVAGE
p8
F32.0
sVBIRTH_DATE
p9
VFEB 10, 1985
p10
sVHEIGHT
p11
V6-8
p12
sVPLAYER
p13
VPaul Millsap
p14
sVTeamID
p15
I1610612743
sVNUM
p16
V4
p17
sVEXP
p18
V11
p19
sVLeagueID
p20
V00
p21
sVPOSITION
p22
VF
p23
sVPLAYER_ID
p24
I200794
ssI1626144
(dp25
g2
Nsg4
V200
p26
sg6
V2017
p27
sg8
F21.0
sg9
VMAR 05, 1996
p28
sg11
V6-5
p29
sg13
VEmmanuel Mudiay
p30
sg15
I1610612743
sg16
V0
p31
sg18
V2
p32
sg20
V00
p33
sg22
VG
p34
sg24
I1626144
ssI1626150
(dp35
VSCHOOL
p36
VKentucky
p37
sVWEIGHT
p38
V213
p39
sVSEASON
p40
V2017
p41
sVAGE
p42
F23.0
sVBIRTH_DATE
p43
VOCT 28, 1994
p44
sVHEIGHT
p45
V6-6
p46
sVPLAYER
p47
VAndrew Harrison
p48
sVTeamID
p49
I1610612763
sVNUM
p50
V5
p51
sVEXP
p52
V1
p53
sVLeagueID
p54
V00
p55
sVPOSITION
p56
g34
sVPLAYER_ID
p57
I1626150
ssI1626153
(dp58
VSCHOOL
p59
VUtah
p60
sVWEIGHT
p61
V190
p62
sVSEASON
p63
V2017
p64
sVAGE
p65
F25.0
sVBIRTH_DATE
p66
VAPR 26, 1992
p67
sVHEIGHT
p68
V6-5
p69
sVPLAYER
p70
VDelon Wright
p71
sVTeamID
p72
I1610612761
sVNUM
p73
V55
p74
sVEXP
p75
g32
sVLeagueID
p76
V00
p77
sVPOSITION
p78
g34
sVPLAYER_ID
p79
I1626153
ssI1626159
(dp80
VSCHOOL
p81
VDuke
p82
sVWEIGHT
p83
V225
p84
sVSEASON
p85
V2017
p86
sVAGE
p87
F21.0
sVBIRTH_DATE
p88
VMAR 26, 1996
p89
sVHEIGHT
p90
V6-7
p91
sVPLAYER
p92
VJustise Winslow
p93
sVTeamID
p94
I1610612748
sVNUM
p95
V20
p96
sVEXP
p97
g32
sVLeagueID
p98
V00
p99
sVPOSITION
p100
g23
sVPLAYER_ID
p101
I1626159
ssI1627827
(dp102
VSCHOOL
p103
VFlorida
p104
sVWEIGHT
p105
V220
p106
sVSEASON
p107
V2017
p108
sVAGE
p109
F24.0
sVBIRTH_DATE
p110
VMAY 04, 1993
p111
sVHEIGHT
p112
V6-8
p113
sVPLAYER
p114
VDorian Finney-Smith
p115
sVTeamID
p116
I1610612742
sVNUM
p117
V10
p118
sVEXP
p119
g53
sVLeagueID
p120
V00
p121
sVPOSITION
p122
g23
sVPLAYER_ID
p123
I1627827
ssI200757
(dp124
VSCHOOL
p125
VVevey, Switzerland
p126
sVWEIGHT
p127
V220
p128
sVSEASON
p129
V2017
p130
sVAGE
p131
F33.0
sVBIRTH_DATE
p132
VMAY 02, 1984
p133
sVHEIGHT
p134
V6-7
p135
sVPLAYER
p136
VThabo Sefolosha
p137
sVTeamID
p138
I1610612762
sVNUM
p139
V22
p140
sVEXP
p141
V11
p142
sVLeagueID
p143
V00
p144
sVPOSITION
p145
g23
sVPLAYER_ID
p146
I200757
ssI1626168
(dp147
g2
VKentucky
p148
sg4
V234
p149
sg6
V2017
p150
sg8
F22.0
sg9
VNOV 05, 1995
p151
sg11
V6-10
p152
sg13
VTrey Lyles
p153
sg15
I1610612743
sg16
V7
p154
sg18
g32
sg20
V00
p155
sg22
g23
sg24
I1626168
ssI2617
(dp156
g81
VFlorida
p157
sg83
V235
p158
sg85
V2017
p159
sg87
F37.0
sg88
VJUN 09, 1980
p160
sg90
V6-8
p161
sg92
VUdonis Haslem
p162
sg94
I1610612748
sg95
V40
p163
sg97
V14
p164
sg98
V00
p165
sg100
g23
sg101
I2617
ssI1626173
(dp166
VSCHOOL
p167
VUNLV
p168
sVWEIGHT
p169
V202
p170
sVSEASON
p171
V2017
p172
sVAGE
p173
F21.0
sVBIRTH_DATE
p174
VAUG 16, 1996
p175
sVHEIGHT
p176
V6-6
p177
sVPLAYER
p178
VRashad Vaughn
p179
sVTeamID
p180
I1610612749
sVNUM
p181
V20
p182
sVEXP
p183
g32
sVLeagueID
p184
V00
p185
sVPOSITION
p186
g34
sVPLAYER_ID
p187
I1626173
ssI1626175
(dp188
g81
VLouisiana State
p189
sg83
V235
p190
sg85
V2017
p191
sg87
F23.0
sg88
VJUL 09, 1994
p192
sg90
V6-8
p193
sg92
VJordan Mickey
p194
sg94
I1610612748
sg95
V25
p195
sg97
g32
sg98
V00
p196
sg100
VC-F
p197
sg101
I1626175
ssI200768
(dp198
g59
VVillanova
p199
sg61
V205
p200
sg63
V2017
p201
sg65
F31.0
sg66
VMAR 25, 1986
p202
sg68
V6-0
p203
sg70
VKyle Lowry
p204
sg72
I1610612761
sg73
g154
sg75
V11
p205
sg76
V00
p206
sg78
g34
sg79
I200768
ssI1626177
(dp207
VSCHOOL
p208
VKentucky
p209
sVWEIGHT
p210
V255
p211
sVSEASON
p212
V2017
p213
sVAGE
p214
F22.0
sVBIRTH_DATE
p215
VSEP 22, 1995
p216
sVHEIGHT
p217
V7-0
p218
sVPLAYER
p219
VDakari Johnson
p220
sVTeamID
p221
I1610612760
sVNUM
p222
V44
p223
sVEXP
p224
VR
p225
sVLeagueID
p226
V00
p227
sVPOSITION
p228
VC
p229
sVPLAYER_ID
p230
I1626177
ssI1626181
(dp231
g59
VUCLA
p232
sg61
V215
p233
sg63
V2017
p234
sg65
F24.0
sg66
VMAY 25, 1993
p235
sg68
V6-4
p236
sg70
VNorman Powell
p237
sg72
I1610612761
sg73
V24
p238
sg75
g32
sg76
V00
p239
sg78
VF-G
p240
sg79
I1626181
ssI1626185
(dp241
g36
VLouisiana State
p242
sg38
V239
p243
sg40
V2017
p244
sg42
F23.0
sg43
VMAY 24, 1994
p245
sg45
V6-10
p246
sg47
VJarell Martin
p247
sg49
I1610612763
sg50
g53
sg52
g32
sg54
V00
p248
sg56
g23
sg57
I1626185
ssI202083
(dp249
g103
VMarquette
p250
sg105
V220
p251
sg107
V2017
p252
sg109
F31.0
sg110
VOCT 14, 1986
p253
sg112
V6-5
p254
sg114
VWesley Matthews
p255
sg116
I1610612742
sg117
V23
p256
sg119
V8
p257
sg120
V00
p258
sg122
VG-F
p259
sg123
I202083
ssI202324
(dp260
g125
VGeorgia Tech
p261
sg127
V265
p262
sg129
V2017
p263
sg131
F26.0
sg132
VJUL 15, 1991
p264
sg134
V6-10
p265
sg136
VDerrick Favors
p266
sg138
I1610612762
sg139
V15
p267
sg141
g154
sg143
V00
p268
sg145
VF-C
p269
sg146
I202324
ssI202327
(dp270
g125
VBaylor
p271
sg127
V245
p272
sg129
V2017
p273
sg131
F30.0
sg132
VMAY 20, 1987
p274
sg134
V6-10
p275
sg136
VEkpe Udoh
p276
sg138
I1610612762
sg139
V33
p277
sg141
g51
sg143
V00
p278
sg145
VC-F
p279
sg146
I202327
ssI1627736
(dp280
g2
VFlorida State
p281
sg4
V196
p282
sg6
V2017
p283
sg8
F20.0
sg9
VNOV 26, 1996
p284
sg11
V6-5
p285
sg13
VMalik Beasley
p286
sg15
I1610612743
sg16
V25
p287
sg18
g53
sg20
V00
p288
sg22
g34
sg24
I1627736
ssI1627738
(dp289
g36
VMichigan State
p290
sg38
V237
p291
sg40
V2017
p292
sg42
F20.0
sg43
VDEC 02, 1996
p293
sg45
V6-11
p294
sg47
VDeyonta Davis
p295
sg49
I1610612763
sg50
V21
p296
sg52
g53
sg54
V00
p297
sg56
VC-F
p298
sg57
I1627738
ssI202331
(dp299
g208
VFresno State
p300
sg210
V220
p301
sg212
V2017
p302
sg214
F27.0
sg215
VMAY 02, 1990
p303
sg217
V6-9
p304
sg219
VPaul George
p305
sg221
I1610612760
sg222
V13
p306
sg224
g154
sg226
V00
p307
sg228
g23
sg230
I202331
ssI1626205
(dp308
g36
VTexas-El Paso
p309
sg38
V208
p310
sg40
V2017
p311
sg42
F23.0
sg43
VAUG 05, 1994
p312
sg45
V6-8
p313
sg47
VVincent Hunter
p314
sg49
I1610612763
sg50
V32
p315
sg52
g225
sg54
V00
p316
sg56
g23
sg57
I1626205
ssI202335
(dp317
g208
VKentucky
p318
sg210
V230
p319
sg212
V2017
p320
sg214
F28.0
sg215
VMAR 14, 1989
p321
sg217
V6-9
p322
sg219
VPatrick Patterson
p323
sg221
I1610612760
sg222
V54
p324
sg224
g154
sg226
V00
p325
sg228
g23
sg230
I202335
ssI202339
(dp326
g167
VKentucky
p327
sg169
V205
p328
sg171
V2017
p329
sg173
F27.0
sg174
VDEC 09, 1989
p330
sg176
V6-1
p331
sg178
VEric Bledsoe
p332
sg180
I1610612749
sg181
V6
p333
sg183
g154
sg184
V00
p334
sg186
g34
sg187
I202339
ssI1627748
(dp335
g167
Nsg169
V223
p336
sg171
V2017
p337
sg173
F20.0
sg174
VFEB 25, 1997
p338
sg176
V7-1
p339
sg178
VThon Maker
p340
sg180
I1610612749
sg181
g154
sg183
g53
sg184
V00
p341
sg186
VC-F
p342
sg187
I1627748
ssI1627750
(dp343
g2
VKentucky
p344
sg4
V207
p345
sg6
V2017
p346
sg8
F20.0
sg9
VFEB 23, 1997
p347
sg11
V6-4
p348
sg13
VJamal Murray
p349
sg15
I1610612743
sg16
V27
p350
sg18
g53
sg20
V00
p351
sg22
g34
sg24
I1627750
ssI1627751
(dp352
g59
VUtah
p353
sg61
V230
p354
sg63
V2017
p355
sg65
F22.0
sg66
VOCT 15, 1995
p356
sg68
V7-0
p357
sg70
VJakob Poeltl
p358
sg72
I1610612761
sg73
V42
p359
sg75
g53
sg76
V00
p360
sg78
g229
sg79
I1627751
ssI1626220
(dp361
g125
VBaylor
p362
sg127
V226
p363
sg129
V2017
p364
sg131
F24.0
sg132
VJUN 05, 1993
p365
sg134
V6-6
p366
sg136
VRoyce O'Neale
p367
sg138
I1610612762
sg139
V23
p368
sg141
g225
sg143
V00
p369
sg145
g23
sg146
I1626220
ssI1627762
(dp370
g167
VWeber State
p371
sg169
V235
p372
sg171
V2017
p373
sg173
F23.0
sg174
VJAN 28, 1994
p374
sg176
V6-9
p375
sg178
VJoel Bolomboy
p376
sg180
I1610612749
sg181
V24
p377
sg183
g53
sg184
V00
p378
sg186
VF-C
p379
sg187
I1627762
ssI202355
(dp380
g81
VMarshall
p381
sg83
V265
p382
sg85
V2017
p383
sg87
F28.0
sg88
VJUN 13, 1989
p384
sg90
V7-0
p385
sg92
VHassan Whiteside
p386
sg94
I1610612748
sg95
V21
p387
sg97
g51
sg98
V00
p388
sg100
g229
sg101
I202355
ssI200826
(dp389
g103
VNortheastern
p390
sg105
V185
p391
sg107
V2017
p392
sg109
F33.0
sg110
VJUN 26, 1984
p393
sg112
V6-0
p394
sg114
VJ.J. Barea
p395
sg116
I1610612742
sg117
g51
sg119
V11
p396
sg120
V00
p397
sg122
g34
sg123
I200826
ssI1627772
(dp398
g208
VConnecticut
p399
sg210
V195
p400
sg212
V2017
p401
sg214
F22.0
sg215
VAUG 08, 1995
p402
sg217
V6-7
p403
sg219
VDaniel Hamilton
p404
sg221
I1610612760
sg222
V25
p405
sg224
g225
sg226
V00
p406
sg228
g34
sg230
I1627772
ssI1627773
(dp407
g81
VPurdue
p408
sg83
V260
p409
sg85
V2017
p410
sg87
F25.0
sg88
VAUG 27, 1992
p411
sg90
V7-0
p412
sg92
VAJ Hammons
p413
sg94
I1610612748
sg95
g17
sg97
g53
sg98
V00
p414
sg100
g229
sg101
I1627773
ssI1627780
(dp415
g167
VOregon State
p416
sg169
V190
p417
sg171
V2017
p418
sg173
F24.0
sg174
VDEC 01, 1992
p419
sg176
V6-3
p420
sg178
VGary Payton II
p421
sg180
I1610612749
sg181
g31
sg183
g53
sg184
V00
p422
sg186
g34
sg187
I1627780
ssI203500
(dp423
g208
VPittsburgh
p424
sg210
V255
p425
sg212
V2017
p426
sg214
F24.0
sg215
VJUL 20, 1993
p427
sg217
V7-0
p428
sg219
VSteven Adams
p429
sg221
I1610612760
sg222
V12
p430
sg224
g17
sg226
V00
p431
sg228
g229
sg230
I203500
ssI1627782
(dp432
g36
VKansas
p433
sg38
V230
p434
sg40
V2017
p435
sg42
F23.0
sg43
VSEP 30, 1994
p436
sg45
V6-5
p437
sg47
VWayne Selden
p438
sg49
I1610612763
sg50
g154
sg52
g53
sg54
V00
p439
sg56
VG-F
p440
sg57
I1627782
ssI1627783
(dp441
g59
VNew Mexico State
p442
sg61
V230
p443
sg63
V2017
p444
sg65
F23.0
sg66
VAPR 02, 1994
p445
sg68
V6-9
p446
sg70
VPascal Siakam
p447
sg72
I1610612761
sg73
V43
p448
sg75
g53
sg76
V00
p449
sg78
g23
sg79
I1627783
ssI203914
(dp450
g2
VMichigan State
p451
sg4
V210
p452
sg6
V2017
p453
sg8
F23.0
sg9
VSEP 14, 1994
p454
sg11
V6-4
p455
sg13
VGary Harris
p456
sg15
I1610612743
sg16
V14
p457
sg18
V3
p458
sg20
V00
p459
sg22
g34
sg24
I203914
ssI203918
(dp460
g125
VDuke
p461
sg127
V206
p462
sg129
V2017
p463
sg131
F25.0
sg132
VOCT 20, 1992
p464
sg134
V6-8
p465
sg136
VRodney Hood
p466
sg138
I1610612762
sg139
g51
sg141
g458
sg143
V00
p467
sg145
g34
sg146
I203918
ssI1626257
(dp468
g103
Nsg105
V235
p469
sg107
V2017
p470
sg109
F31.0
sg110
VJUN 15, 1986
p471
sg112
V7-2
p472
sg114
VSalah Mejri
p473
sg116
I1610612742
sg117
V50
p474
sg119
g32
sg120
V00
p475
sg122
g229
sg123
I1626257
ssI1626259
(dp476
g59
VHoly Cross
p477
sg61
V210
p478
sg63
V2017
p479
sg65
F24.0
sg66
VMAR 06, 1993
p480
sg68
V6-7
p481
sg70
VMalcolm Miller
p482
sg72
I1610612761
sg73
V13
p483
sg75
g225
sg76
V00
p484
sg78
g23
sg79
I1626259
ssI203924
(dp485
g208
VSyracuse
p486
sg210
V220
p487
sg212
V2017
p488
sg214
F23.0
sg215
VMAR 12, 1994
p489
sg217
V6-9
p490
sg219
VJerami Grant
p491
sg221
I1610612760
sg222
V9
p492
sg224
g458
sg226
V00
p493
sg228
g23
sg230
I203924
ssI2207
(dp494
g125
VArkansas
p495
sg127
V240
p496
sg129
V2017
p497
sg131
F36.0
sg132
VJUN 29, 1981
p498
sg134
V6-7
p499
sg136
VJoe Johnson
p500
sg138
I1610612762
sg139
g333
sg141
V16
p501
sg143
V00
p502
sg145
VG-F
p503
sg146
I2207
ssI2210
(dp504
g2
VArizona
p505
sg4
V233
p506
sg6
V2017
p507
sg8
F37.0
sg9
VJUN 21, 1980
p508
sg11
V6-7
p509
sg13
VRichard Jefferson
p510
sg15
I1610612743
sg16
V22
p511
sg18
V16
p512
sg20
V00
p513
sg22
g23
sg24
I2210
ssI203939
(dp514
g103
VStanford
p515
sg105
V240
p516
sg107
V2017
p517
sg109
F26.0
sg110
VJUL 20, 1991
p518
sg112
V6-11
p519
sg114
VDwight Powell
p520
sg116
I1610612742
sg117
g154
sg119
g458
sg120
V00
p521
sg122
VF-C
p522
sg123
I203939
ssI1627812
(dp523
g103
VIndiana
p524
sg105
V180
p525
sg107
V2017
p526
sg109
F24.0
sg110
VMAY 09, 1993
p527
sg112
V6-0
p528
sg114
VYogi Ferrell
p529
sg116
I1610612742
sg117
V11
p530
sg119
g53
sg120
V00
p531
sg122
g34
sg123
I1627812
ssI2734
(dp532
g103
VWisconsin
p533
sg105
V185
p534
sg107
V2017
p535
sg109
F34.0
sg110
VFEB 27, 1983
p536
sg112
V6-3
p537
sg114
VDevin Harris
p538
sg116
I1610612742
sg117
V34
p539
sg119
V13
p540
sg120
V00
p541
sg122
g34
sg123
I2734
ssI1627823
(dp542
g2
Nsg4
V230
p543
sg6
V2017
p544
sg8
F22.0
sg9
VSEP 28, 1995
p545
sg11
V6-9
p546
sg13
VJuan Hernangomez
p547
sg15
I1610612743
sg16
V41
p548
sg18
g53
sg20
V00
p549
sg22
g23
sg24
I1627823
ssI203953
(dp550
g167
VDuke
p551
sg169
V250
p552
sg171
V2017
p553
sg173
F22.0
sg174
VMAR 15, 1995
p554
sg176
V6-8
p555
sg178
VJabari Parker
p556
sg180
I1610612749
sg181
V12
p557
sg183
g458
sg184
V00
p558
sg186
g23
sg187
I203953
ssI1627763
(dp559
g167
VVirginia
p560
sg169
V215
p561
sg171
V2017
p562
sg173
F24.0
sg174
VDEC 11, 1992
p563
sg176
V6-5
p564
sg178
VMalcolm Brogdon
p565
sg180
I1610612749
sg181
V13
p566
sg183
g53
sg184
V00
p567
sg186
g34
sg187
I1627763
ssI203957
(dp568
g125
Nsg127
V190
p569
sg129
V2017
p570
sg131
F22.0
sg132
VJUL 13, 1995
p571
sg134
V6-6
p572
sg136
VDante Exum
p573
sg138
I1610612762
sg139
V11
p574
sg141
g32
sg143
V00
p575
sg145
g34
sg146
I203957
ssI1627832
(dp576
g59
VWichita State
p577
sg61
V195
p578
sg63
V2017
p579
sg65
F23.0
sg66
VFEB 25, 1994
p580
sg68
V6-0
p581
sg70
VFred VanVleet
p582
sg72
I1610612761
sg73
V23
p583
sg75
g53
sg76
V00
p584
sg78
g34
sg79
I1627832
ssI203962
(dp585
g208
VStanford
p586
sg210
V230
p587
sg212
V2017
p588
sg214
F25.0
sg215
VDEC 19, 1991
p589
sg217
V6-7
p590
sg219
VJosh Huestis
p591
sg221
I1610612760
sg222
V34
p592
sg224
g32
sg226
V00
p593
sg228
g23
sg230
I203962
ssI203457
(dp594
g103
VKentucky
p595
sg105
V220
p596
sg107
V2017
p597
sg109
F23.0
sg110
VAPR 10, 1994
p598
sg112
V6-11
p599
sg114
VNerlens Noel
p600
sg116
I1610612742
sg117
g458
sg119
g458
sg120
V00
p601
sg122
g229
sg123
I203457
ssI203460
(dp602
g208
VColorado
p603
sg210
V210
p604
sg212
V2017
p605
sg214
F25.0
sg215
VDEC 04, 1991
p606
sg217
V6-7
p607
sg219
VAndre Roberson
p608
sg221
I1610612760
sg222
V21
p609
sg224
g17
sg226
V00
p610
sg228
g34
sg230
I203460
ssI203463
(dp611
g36
VKansas
p612
sg38
V195
p613
sg40
V2017
p614
sg42
F24.0
sg43
VFEB 11, 1993
p615
sg45
V6-5
p616
sg47
VBen McLemore
p617
sg49
I1610612763
sg50
V23
p618
sg52
g17
sg54
V00
p619
sg56
g34
sg57
I203463
ssI1627855
(dp620
g81
VFlorida State
p621
sg83
V215
p622
sg85
V2017
p623
sg87
F25.0
sg88
VAUG 13, 1992
p624
sg90
V6-8
p625
sg92
VOkaro White
p626
sg94
I1610612748
sg95
V15
p627
sg97
g53
sg98
V00
p628
sg100
g23
sg101
I1627855
ssI201936
(dp629
g36
VMemphis
p630
sg38
V220
p631
sg40
V2017
p632
sg42
F28.0
sg43
VSEP 19, 1989
p633
sg45
V6-6
p634
sg47
VTyreke Evans
p635
sg49
I1610612763
sg50
V12
p636
sg52
g257
sg54
V00
p637
sg56
VG-F
p638
sg57
I201936
ssI201937
(dp639
g125
VEl Masnou, Spain
p640
sg127
V190
p641
sg129
V2017
p642
sg131
F27.0
sg132
VOCT 21, 1990
p643
sg134
V6-4
p644
sg136
VRicky Rubio
p645
sg138
I1610612762
sg139
g458
sg141
g333
sg143
V00
p646
sg145
g34
sg146
I201937
ssI1628372
(dp647
g103
VNorth Carolina State
p648
sg105
V195
p649
sg107
V2017
p650
sg109
F19.0
sg110
VNOV 25, 1997
p651
sg112
V6-3
p652
sg114
VDennis Smith Jr.
p653
sg116
I1610612742
sg117
g53
sg119
g225
sg120
V00
p654
sg122
g34
sg123
I1628372
ssI201942
(dp655
g59
VSouthern California
p656
sg61
V220
p657
sg63
V2017
p658
sg65
F28.0
sg66
VAUG 07, 1989
p659
sg68
V6-7
p660
sg70
VDeMar DeRozan
p661
sg72
I1610612761
sg73
V10
p662
sg75
g257
sg76
V00
p663
sg78
g34
sg79
I201942
ssI203481
(dp664
g103
VKansas
p665
sg105
V230
p666
sg107
V2017
p667
sg109
F27.0
sg110
VMAR 07, 1990
p668
sg112
V7-0
p669
sg114
VJeff Withey
p670
sg116
I1610612742
sg117
V17
p671
sg119
g17
sg120
V00
p672
sg122
g229
sg123
I203481
ssI1628378
(dp673
g125
VLouisville
p674
sg127
V215
p675
sg129
V2017
p676
sg131
F21.0
sg132
VSEP 07, 1996
p677
sg134
V6-3
p678
sg136
VDonovan Mitchell
p679
sg138
I1610612762
sg139
V45
p680
sg141
g225
sg143
V00
p681
sg145
g34
sg146
I1628378
ssI201949
(dp682
g81
VWake Forest
p683
sg83
V240
p684
sg85
V2017
p685
sg87
F30.0
sg88
VFEB 20, 1987
p686
sg90
V6-8
p687
sg92
VJames Johnson
p688
sg94
I1610612748
sg95
V16
p689
sg97
g257
sg98
V00
p690
sg100
g23
sg101
I201949
ssI203998
(dp691
g59
Nsg61
V205
p692
sg63
V2017
p693
sg65
F22.0
sg66
VSEP 21, 1995
p694
sg68
V6-9
p695
sg70
VBruno Caboclo
p696
sg72
I1610612761
sg73
g51
sg75
g458
sg76
V00
p697
sg78
g23
sg79
I203998
ssI203999
(dp698
g2
Nsg4
V250
p699
sg6
V2017
p700
sg8
F22.0
sg9
VFEB 19, 1995
p701
sg11
V6-10
p702
sg13
VNikola Jokic
p703
sg15
I1610612743
sg16
V15
p704
sg18
g32
sg20
V00
p705
sg22
g229
sg24
I203999
ssI1628384
(dp706
g59
VIndiana
p707
sg61
V235
p708
sg63
V2017
p709
sg65
F20.0
sg66
VJUL 17, 1997
p710
sg68
V6-8
p711
sg70
VOG Anunoby
p712
sg72
I1610612761
sg73
g458
sg75
g225
sg76
V00
p713
sg78
g23
sg79
I1628384
ssI203489
(dp714
g125
VSouth Dakota State
p715
sg127
V190
p716
sg129
V2017
p717
sg131
F26.0
sg132
VMAY 15, 1991
p718
sg134
V6-4
p719
sg136
VNate Wolters
p720
sg138
I1610612762
sg139
V16
p721
sg141
g32
sg143
V00
p722
sg145
g34
sg146
I203489
ssI1628389
(dp723
g81
VKentucky
p724
sg83
V255
p725
sg85
V2017
p726
sg87
F20.0
sg88
VJUL 18, 1997
p727
sg90
V6-10
p728
sg92
VBam Adebayo
p729
sg94
I1610612748
sg95
V13
p730
sg97
g225
sg98
V00
p731
sg100
VC-F
p732
sg101
I1628389
ssI1628390
(dp733
g208
Nsg210
V184
p734
sg212
V2017
p735
sg214
F19.0
sg215
VMAY 17, 1998
p736
sg217
V6-7
p737
sg219
VTerrance Ferguson
p738
sg221
I1610612760
sg222
V23
p739
sg224
g225
sg226
V00
p740
sg228
g34
sg230
I1628390
ssI1628391
(dp741
g167
VMichigan
p742
sg169
V236
p743
sg171
V2017
p744
sg173
F21.0
sg174
VFEB 19, 1996
p745
sg176
V6-10
p746
sg178
VD.J. Wilson
p747
sg180
I1610612749
sg181
g51
sg183
g225
sg184
V00
p748
sg186
g23
sg187
I1628391
ssI203497
(dp749
g125
VFrance
p750
sg127
V245
p751
sg129
V2017
p752
sg131
F25.0
sg132
VJUN 26, 1992
p753
sg134
V7-1
p754
sg136
VRudy Gobert
p755
sg138
I1610612762
sg139
V27
p756
sg141
g17
sg143
V00
p757
sg145
g229
sg146
I203497
ssI1628396
(dp758
g125
VNorth Carolina
p759
sg127
V248
p760
sg129
V2017
p761
sg131
F19.0
sg132
VJAN 08, 1998
p762
sg134
V6-10
p763
sg136
VTony Bradley
p764
sg138
I1610612762
sg139
V13
p765
sg141
g225
sg143
V00
p766
sg145
g229
sg146
I1628396
ssI1628397
(dp767
g36
VCalifornia
p768
sg38
V220
p769
sg40
V2017
p770
sg42
F20.0
sg43
VFEB 04, 1997
p771
sg45
V6-10
p772
sg47
VIvan Rabb
p773
sg49
I1610612763
sg50
V10
p774
sg52
g225
sg54
V00
p775
sg56
g23
sg57
I1628397
ssI203503
(dp776
g167
VNew Mexico
p777
sg169
V221
p778
sg171
V2017
p779
sg173
F26.0
sg174
VNOV 10, 1991
p780
sg176
V6-7
p781
sg178
VTony Snell
p782
sg180
I1610612749
sg181
V21
p783
sg183
g17
sg184
V00
p784
sg186
g34
sg187
I203503
ssI203507
(dp785
g167
VGreece
p786
sg169
V222
p787
sg171
V2017
p788
sg173
F22.0
sg174
VDEC 06, 1994
p789
sg176
V6-11
p790
sg178
VGiannis Antetokounmpo
p791
sg180
I1610612749
sg181
V34
p792
sg183
g17
sg184
V00
p793
sg186
g23
sg187
I203507
ssI204020
(dp794
g81
VFresno State
p795
sg83
V190
p796
sg85
V2017
p797
sg87
F25.0
sg88
VMAY 07, 1992
p798
sg90
V6-4
p799
sg92
VTyler Johnson
p800
sg94
I1610612748
sg95
g257
sg97
g458
sg98
V00
p801
sg100
g34
sg101
I204020
ssI201973
(dp802
g125
VKinna, Sweden
p803
sg127
V231
p804
sg129
V2017
p805
sg131
F30.0
sg132
VMAR 02, 1987
p806
sg134
V6-10
p807
sg136
VJonas Jerebko
p808
sg138
I1610612762
sg139
g257
sg141
g154
sg143
V00
p809
sg145
g23
sg146
I201973
ssI203512
(dp810
g59
Nsg61
V220
p811
sg63
V2017
p812
sg65
F25.0
sg66
VJUL 26, 1992
p813
sg68
V7-0
p814
sg70
VLucas Nogueira
p815
sg72
I1610612761
sg73
V92
p816
sg75
g458
sg76
V00
p817
sg78
g229
sg79
I203512
ssI203516
(dp818
g36
VLong Beach State
p819
sg38
V210
p820
sg40
V2017
p821
sg42
F27.0
sg43
VJUL 01, 1990
p822
sg45
V6-7
p823
sg47
VJames Ennis III
p824
sg49
I1610612763
sg50
g257
sg52
g458
sg54
V00
p825
sg56
g23
sg57
I203516
ssI203518
(dp826
g208
Nsg210
V190
p827
sg212
V2017
p828
sg214
F24.0
sg215
VAUG 01, 1993
p829
sg217
V6-6
p830
sg219
VAlex Abrines
p831
sg221
I1610612760
sg222
g257
sg224
g53
sg226
V00
p832
sg228
g34
sg230
I203518
ssI1628415
(dp833
g36
VOregon
p834
sg38
V220
p835
sg40
V2017
p836
sg42
F21.0
sg43
VJAN 22, 1996
p837
sg45
V6-6
p838
sg47
VDillon Brooks
p839
sg49
I1610612763
sg50
V24
p840
sg52
g225
sg54
V00
p841
sg56
VF-G
p842
sg57
I1628415
ssI203521
(dp843
g167
VSaint Mary's (CA)
p844
sg169
V198
p845
sg171
V2017
p846
sg173
F27.0
sg174
VSEP 08, 1990
p847
sg176
V6-4
p848
sg178
VMatthew Dellavedova
p849
sg180
I1610612749
sg181
g257
sg183
g17
sg184
V00
p850
sg186
g34
sg187
I203521
ssI1628420
(dp851
g2
VIowa State
p852
sg4
V175
p853
sg6
V2017
p854
sg8
F22.0
sg9
VJUN 27, 1995
p855
sg11
V6-3
p856
sg13
VMonte Morris
p857
sg15
I1610612743
sg16
V11
p858
sg18
g225
sg20
V00
p859
sg22
g34
sg24
I1628420
ssI203526
(dp860
g125
Nsg127
V179
p861
sg129
V2017
p862
sg131
F25.0
sg132
VMAY 19, 1992
p863
sg134
V6-1
p864
sg136
VRaul Neto
p865
sg138
I1610612762
sg139
V25
p866
sg141
g32
sg143
V00
p867
sg145
g34
sg146
I203526
ssI1628424
(dp868
g36
VArizona
p869
sg38
V170
p870
sg40
V2017
p871
sg42
F20.0
sg43
VJUL 04, 1997
p872
sg45
V6-4
p873
sg47
VKobi Simmons
p874
sg49
I1610612763
sg50
g32
sg52
g225
sg54
V00
p875
sg56
g34
sg57
I1628424
ssI1628425
(dp876
g167
VSouthern Methodist
p877
sg169
V230
p878
sg171
V2017
p879
sg173
F22.0
sg174
VFEB 10, 1995
p880
sg176
V6-6
p881
sg178
VSterling Brown
p882
sg180
I1610612749
sg181
V23
p883
sg183
g225
sg184
V00
p884
sg186
g34
sg187
I1628425
ssI101139
(dp885
g59
VSkyline HS (TX)
p886
sg61
V225
p887
sg63
V2017
p888
sg65
F30.0
sg66
VMAR 18, 1987
p889
sg68
V6-6
p890
sg70
VCJ Miles
p891
sg72
I1610612761
sg73
g31
sg75
V12
p892
sg76
V00
p893
sg78
VF-G
p894
sg79
I101139
ssI201177
(dp895
g103
VDuke
p896
sg105
V240
p897
sg107
V2017
p898
sg109
F30.0
sg110
VFEB 28, 1987
p899
sg112
V6-10
p900
sg114
VJosh McRoberts
p901
sg116
I1610612742
sg117
V13
p902
sg119
V10
p903
sg120
V00
p904
sg122
VF-C
p905
sg123
I201177
ssI203547
(dp906
g125
VCampbell
p907
sg127
V205
p908
sg129
V2017
p909
sg131
F27.0
sg132
VMAY 26, 1990
p910
sg134
V6-8
p911
sg136
VEric Griffin
p912
sg138
I1610612762
sg139
V17
p913
sg141
g225
sg143
V00
p914
sg145
VC-F
p915
sg146
I203547
ssI204060
(dp916
g125
Nsg127
V226
p917
sg129
V2017
p918
sg131
F30.0
sg132
VOCT 02, 1987
p919
sg134
V6-8
p920
sg136
VJoe Ingles
p921
sg138
I1610612762
sg139
g32
sg141
g458
sg143
V00
p922
sg145
g23
sg146
I204060
ssI203482
(dp923
g81
VGonzaga
p924
sg83
V245
p925
sg85
V2017
p926
sg87
F26.0
sg88
VAPR 19, 1991
p927
sg90
V7-0
p928
sg92
VKelly Olynyk
p929
sg94
I1610612748
sg95
g492
sg97
g17
sg98
V00
p930
sg100
VC-F
p931
sg101
I203482
ssI203552
(dp932
g103
VDuke
p933
sg105
V185
p934
sg107
V2017
p935
sg109
F27.0
sg110
VAUG 23, 1990
p936
sg112
V6-2
p937
sg114
VSeth Curry
p938
sg116
I1610612742
sg117
V30
p939
sg119
g17
sg120
V00
p940
sg122
g34
sg123
I203552
ssI203485
(dp941
g59
VNorth Carolina State
p942
sg61
V189
p943
sg63
V2017
p944
sg65
F27.0
sg66
VAUG 26, 1990
p945
sg68
V6-5
p946
sg70
VLorenzo Brown
p947
sg72
I1610612761
sg73
g17
sg75
g458
sg76
V00
p948
sg78
g34
sg79
I203485
ssI1628467
(dp949
g103
Nsg105
V220
p950
sg107
V2017
p951
sg109
F25.0
sg110
VJAN 29, 1992
p952
sg112
V6-11
p953
sg114
VMaxi Kleber
p954
sg116
I1610612742
sg117
V42
p955
sg119
g225
sg120
V00
p956
sg122
g23
sg123
I1628467
ssI203486
(dp957
g2
VDuke
p958
sg4
V255
p959
sg6
V2017
p960
sg8
F27.0
sg9
VMAR 05, 1990
p961
sg11
V6-11
p962
sg13
VMason Plumlee
p963
sg15
I1610612743
sg16
V24
p964
sg18
g17
sg20
V00
p965
sg22
VC-F
p966
sg24
I203486
ssI1628470
(dp967
g2
VSouth Carolina Upstate
p968
sg4
V215
p969
sg6
V2017
p970
sg8
F26.0
sg9
VDEC 19, 1990
p971
sg11
V6-6
p972
sg13
VTorrey Craig
p973
sg15
I1610612743
sg16
g458
sg18
g225
sg20
V00
p974
sg22
VG-F
p975
sg24
I1628470
ssI1628475
(dp976
g81
VCentral Florida
p977
sg83
V210
p978
sg85
V2017
p979
sg87
F24.0
sg88
VOCT 14, 1993
p980
sg90
V6-5
p981
sg92
VMatt Williams Jr.
p982
sg94
I1610612748
sg95
V12
p983
sg97
g225
sg98
V00
p984
sg100
g34
sg101
I1628475
ssI1628476
(dp985
g81
VMichigan
p986
sg83
V185
p987
sg85
V2017
p988
sg87
F22.0
sg88
VAPR 03, 1995
p989
sg90
V6-1
p990
sg92
VDerrick Walton Jr.
p991
sg94
I1610612748
sg95
V14
p992
sg97
g225
sg98
V00
p993
sg100
g34
sg101
I1628476
ssI203585
(dp994
g81
VKansas State
p995
sg83
V200
p996
sg85
V2017
p997
sg87
F26.0
sg88
VJUL 29, 1991
p998
sg90
V6-4
p999
sg92
VRodney McGruder
p1000
sg94
I1610612748
sg95
V17
p1001
sg97
g53
sg98
V00
p1002
sg100
VG-F
p1003
sg101
I203585
ssI203079
(dp1004
g81
VSyracuse
p1005
sg83
V215
p1006
sg85
V2017
p1007
sg87
F25.0
sg88
VDEC 10, 1991
p1008
sg90
V6-4
p1009
sg92
VDion Waiters
p1010
sg94
I1610612748
sg95
V11
p1011
sg97
g51
sg98
V00
p1012
sg100
g34
sg101
I203079
ssI1628492
(dp1013
g103
VColorado State
p1014
sg105
V185
p1015
sg107
V2017
p1016
sg109
F23.0
sg110
VNOV 26, 1993
p1017
sg112
V6-4
p1018
sg114
VGian Clavell
p1019
sg116
I1610612742
sg117
g257
sg119
g225
sg120
V00
p1020
sg122
g34
sg123
I1628492
ssI203089
(dp1021
g167
VNorth Carolina
p1022
sg169
V229
p1023
sg171
V2017
p1024
sg173
F26.0
sg174
VDEC 28, 1990
p1025
sg176
V6-11
p1026
sg178
VJohn Henson
p1027
sg180
I1610612749
sg181
V31
p1028
sg183
g51
sg184
V00
p1029
sg186
VF-C
p1030
sg187
I203089
ssI201566
(dp1031
g208
VUCLA
p1032
sg210
V200
p1033
sg212
V2017
p1034
sg214
F28.0
sg215
VNOV 12, 1988
p1035
sg217
V6-3
p1036
sg219
VRussell Westbrook
p1037
sg221
I1610612760
sg222
g31
sg224
g492
sg226
V00
p1038
sg228
g34
sg230
I201566
ssI1891
(dp1039
g167
VArizona
p1040
sg169
V185
p1041
sg171
V2017
p1042
sg173
F40.0
sg174
VSEP 15, 1977
p1043
sg176
V6-2
p1044
sg178
VJason Terry
p1045
sg180
I1610612749
sg181
g458
sg183
V18
p1046
sg184
V00
p1047
sg186
g34
sg187
I1891
ssI203114
(dp1048
g167
VTexas A&M
p1049
sg169
V234
p1050
sg171
V2017
p1051
sg173
F26.0
sg174
VAUG 12, 1991
p1052
sg176
V6-8
p1053
sg178
VKhris Middleton
p1054
sg180
I1610612749
sg181
V22
p1055
sg183
g51
sg184
V00
p1056
sg186
g23
sg187
I203114
ssI203115
(dp1057
g2
VMemphis
p1058
sg4
V190
p1059
sg6
V2017
p1060
sg8
F26.0
sg9
VJAN 06, 1991
p1061
sg11
V6-6
p1062
sg13
VWill Barton
p1063
sg15
I1610612743
sg16
g51
sg18
g51
sg20
V00
p1064
sg22
VG-F
p1065
sg24
I203115
ssI1717
(dp1066
g103
VWurzburg, Germany
p1067
sg105
V245
p1068
sg107
V2017
p1069
sg109
F39.0
sg110
VJUN 19, 1978
p1070
sg112
V7-0
p1071
sg114
VDirk Nowitzki
p1072
sg116
I1610612742
sg117
V41
p1073
sg119
V19
p1074
sg120
V00
p1075
sg122
VF-C
p1076
sg123
I1717
ssI201586
(dp1077
g59
VBrazzaville, Rep. of Congo
p1078
sg61
V235
p1079
sg63
V2017
p1080
sg65
F28.0
sg66
VSEP 18, 1989
p1081
sg68
V6-10
p1082
sg70
VSerge Ibaka
p1083
sg72
I1610612761
sg73
g492
sg75
g257
sg76
V00
p1084
sg78
g23
sg79
I201586
ssI201589
(dp1085
g2
VKansas
p1086
sg4
V235
p1087
sg6
V2017
p1088
sg8
F29.0
sg9
VMAR 25, 1988
p1089
sg11
V6-9
p1090
sg13
VDarrell Arthur
p1091
sg15
I1610612743
sg16
V00
p1092
sg18
g257
sg20
V00
p1093
sg22
g23
sg24
I201589
ssI201961
(dp1094
g81
VNorth Carolina
p1095
sg83
V200
p1096
sg85
V2017
p1097
sg87
F29.0
sg88
VNOV 29, 1987
p1098
sg90
V6-5
p1099
sg92
VWayne Ellington
p1100
sg94
I1610612748
sg95
g32
sg97
g257
sg98
V00
p1101
sg100
g34
sg101
I201961
ssI201596
(dp1102
g36
VKansas
p1103
sg38
V190
p1104
sg40
V2017
p1105
sg42
F31.0
sg43
VMAY 19, 1986
p1106
sg45
V6-2
p1107
sg47
VMario Chalmers
p1108
sg49
I1610612763
sg50
g333
sg52
g257
sg54
V00
p1109
sg56
g34
sg57
I201596
ssI1628035
(dp1110
g59
VWisc.-Green Bay
p1111
sg61
V215
p1112
sg63
V2017
p1113
sg65
F25.0
sg66
VSEP 17, 1992
p1114
sg68
V6-8
p1115
sg70
VAlfonzo McKinnie
p1116
sg72
I1610612761
sg73
V34
p1117
sg75
g225
sg76
V00
p1118
sg78
g23
sg79
I1628035
ssI203141
(dp1119
g167
VBosnia
p1120
sg169
V242
p1121
sg171
V2017
p1122
sg173
F32.0
sg174
VSEP 17, 1985
p1123
sg176
V6-9
p1124
sg178
VMirza Teletovic
p1125
sg180
I1610612749
sg181
V35
p1126
sg183
g51
sg184
V00
p1127
sg186
g23
sg187
I203141
ssI201609
(dp1128
g81
VLjubljana, Slovenia
p1129
sg83
V190
p1130
sg85
V2017
p1131
sg87
F31.0
sg88
VMAY 06, 1986
p1132
sg90
V6-3
p1133
sg92
VGoran Dragic
p1134
sg94
I1610612748
sg95
g154
sg97
g492
sg98
V00
p1135
sg100
g34
sg101
I201609
ssI1628399
(dp1136
g2
VSyracuse
p1137
sg4
V220
p1138
sg6
V2017
p1139
sg8
F21.0
sg9
VAPR 09, 1996
p1140
sg11
V6-9
p1141
sg13
VTyler Lydon
p1142
sg15
I1610612743
sg16
V20
p1143
sg18
g225
sg20
V00
p1144
sg22
g23
sg24
I1628399
ssI201144
(dp1145
g36
VOhio State
p1146
sg38
V175
p1147
sg40
V2017
p1148
sg42
F30.0
sg43
VOCT 11, 1987
p1149
sg45
V6-1
p1150
sg47
VMike Conley
p1151
sg49
I1610612763
sg50
V11
p1152
sg52
V10
p1153
sg54
V00
p1154
sg56
g34
sg57
I201144
ssI201148
(dp1155
g36
VNorth Carolina
p1156
sg38
V235
p1157
sg40
V2017
p1158
sg42
F30.0
sg43
VOCT 05, 1987
p1159
sg45
V6-10
p1160
sg47
VBrandan Wright
p1161
sg49
I1610612763
sg50
V34
p1162
sg52
g492
sg54
V00
p1163
sg56
VF-C
p1164
sg57
I201148
ssI202685
(dp1165
g59
VUtena, Lithuania
p1166
sg61
V255
p1167
sg63
V2017
p1168
sg65
F25.0
sg66
VMAY 06, 1992
p1169
sg68
V7-0
p1170
sg70
VJonas Valanciunas
p1171
sg72
I1610612761
sg73
V17
p1172
sg75
g51
sg76
V00
p1173
sg78
g229
sg79
I202685
ssI101109
(dp1174
g208
VNorth Carolina
p1175
sg210
V205
p1176
sg212
V2017
p1177
sg214
F33.0
sg215
VJUN 26, 1984
p1178
sg217
V6-1
p1179
sg219
VRaymond Felton
p1180
sg221
I1610612760
sg222
g32
sg224
V12
p1181
sg226
V00
p1182
sg228
g34
sg230
I101109
ssI202692
(dp1183
g125
VColorado
p1184
sg127
V214
p1185
sg129
V2017
p1186
sg131
F26.0
sg132
VJUL 20, 1991
p1187
sg134
V6-6
p1188
sg136
VAlec Burks
p1189
sg138
I1610612762
sg139
V10
p1190
sg141
g333
sg143
V00
p1191
sg145
g34
sg146
I202692
ssI1628405
(dp1192
g103
VBaylor
p1193
sg105
V230
p1194
sg107
V2017
p1195
sg109
F22.0
sg110
VMAY 04, 1995
p1196
sg112
V6-10
p1197
sg114
VJohnathan Motley
p1198
sg116
I1610612742
sg117
g333
sg119
g225
sg120
V00
p1199
sg122
g23
sg123
I1628405
ssI203084
(dp1200
g103
VNorth Carolina
p1201
sg105
V225
p1202
sg107
V2017
p1203
sg109
F25.0
sg110
VMAY 30, 1992
p1204
sg112
V6-8
p1205
sg114
VHarrison Barnes
p1206
sg116
I1610612742
sg117
V40
p1207
sg119
g51
sg120
V00
p1208
sg122
g23
sg123
I203084
ssI203210
(dp1209
g36
VAlabama
p1210
sg38
V227
p1211
sg40
V2017
p1212
sg42
F27.0
sg43
VJUN 21, 1990
p1213
sg45
V6-9
p1214
sg47
VJaMychal Green
p1215
sg49
I1610612763
sg50
g31
sg52
g458
sg54
V00
p1216
sg56
g23
sg57
I203210
ssI201163
(dp1217
g2
VDePaul
p1218
sg4
V225
p1219
sg6
V2017
p1220
sg8
F30.0
sg9
VMAY 10, 1987
p1221
sg11
V6-9
p1222
sg13
VWilson Chandler
p1223
sg15
I1610612743
sg16
V21
p1224
sg18
g492
sg20
V00
p1225
sg22
g23
sg24
I201163
ssI202702
(dp1226
g2
VMorehead State
p1227
sg4
V228
p1228
sg6
V2017
p1229
sg8
F27.0
sg9
VNOV 19, 1989
p1230
sg11
V6-8
p1231
sg13
VKenneth Faried
p1232
sg15
I1610612743
sg16
V35
p1233
sg18
g333
sg20
V00
p1234
sg22
g23
sg24
I202702
ssI1628408
(dp1235
g208
VSouth Carolina
p1236
sg210
V205
p1237
sg212
V2017
p1238
sg214
F21.0
sg215
VOCT 25, 1996
p1239
sg217
V6-6
p1240
sg219
VPJ Dozier
p1241
sg221
I1610612760
sg222
V35
p1242
sg224
g225
sg226
V00
p1243
sg228
g34
sg230
I1628408
ssI202713
(dp1244
g208
VDuke
p1245
sg210
V228
p1246
sg212
V2017
p1247
sg214
F29.0
sg215
VMAY 04, 1988
p1248
sg217
V6-8
p1249
sg219
VKyle Singler
p1250
sg221
I1610612760
sg222
V15
p1251
sg224
g51
sg226
V00
p1252
sg228
g23
sg230
I202713
ssI202718
(dp1253
g36
VFlorida
p1254
sg38
V230
p1255
sg40
V2017
p1256
sg42
F29.0
sg43
VOCT 25, 1988
p1257
sg45
V6-10
p1258
sg47
VChandler Parsons
p1259
sg49
I1610612763
sg50
V25
p1260
sg52
g333
sg54
V00
p1261
sg56
g23
sg57
I202718
ssI201188
(dp1262
g36
VBarcelona, Spain
p1263
sg38
V255
p1264
sg40
V2017
p1265
sg42
F32.0
sg43
VJAN 29, 1985
p1266
sg45
V7-1
p1267
sg47
VMarc Gasol
p1268
sg49
I1610612763
sg50
V33
p1269
sg52
g492
sg54
V00
p1270
sg56
g229
sg57
I201188
ssI202732
(dp1271
g167
VKentucky
p1272
sg169
V209
p1273
sg171
V2017
p1274
sg173
F29.0
sg174
VMAR 31, 1988
p1275
sg176
V6-6
p1276
sg178
VDeAndre Liggins
p1277
sg180
I1610612749
sg181
V25
p1278
sg183
g17
sg184
V00
p1279
sg186
g34
sg187
I202732
ssI2546
(dp1280
g208
VSyracuse
p1281
sg210
V240
p1282
sg212
V2017
p1283
sg214
F33.0
sg215
VMAY 29, 1984
p1284
sg217
V6-8
p1285
sg219
VCarmelo Anthony
p1286
sg221
I1610612760
sg222
g154
sg224
V14
p1287
sg226
V00
p1288
sg228
g23
sg230
I2546
ssI1626196
(dp1289
g81
VTennessee
p1290
sg83
V200
p1291
sg85
V2017
p1292
sg87
F24.0
sg88
VSEP 15, 1993
p1293
sg90
V6-6
p1294
sg92
VJosh Richardson
p1295
sg94
I1610612748
sg95
g31
sg97
g32
sg98
V00
p1296
sg100
g23
sg101
I1626196
ssI2555
(dp1297
g208
VKansas
p1298
sg210
V255
p1299
sg212
V2017
p1300
sg214
F37.0
sg215
VOCT 26, 1980
p1301
sg217
V6-10
p1302
sg219
VNick Collison
p1303
sg221
I1610612760
sg222
g17
sg224
V13
p1304
sg226
V00
p1305
sg228
g23
sg230
I2555
ss.