(dp0
I203095
(dp1
VSCHOOL
p2
VFrance
p3
sVWEIGHT
p4
V205
p5
sVSEASON
p6
V2017
p7
sVAGE
p8
F25.0
sVBIRTH_DATE
p9
VOCT 29, 1992
p10
sVHEIGHT
p11
V6-7
p12
sVPLAYER
p13
VEvan Fournier
p14
sVTeamID
p15
I1610612753
sVNUM
p16
V10
p17
sVEXP
p18
V5
p19
sVLeagueID
p20
V00
p21
sVPOSITION
p22
VF-G
p23
sVPLAYER_ID
p24
I203095
ssI1626143
(dp25
VSCHOOL
p26
VDuke
p27
sVWEIGHT
p28
V260
p29
sVSEASON
p30
V2017
p31
sVAGE
p32
F21.0
sVBIRTH_DATE
p33
VDEC 15, 1995
p34
sVHEIGHT
p35
V6-11
p36
sVPLAYER
p37
VJahlil Okafor
p38
sVTeamID
p39
I1610612755
sVNUM
p40
V8
p41
sVEXP
p42
V2
p43
sVLeagueID
p44
V00
p45
sVPOSITION
p46
VC
p47
sVPLAYER_ID
p48
I1626143
ssI1626144
(dp49
VSCHOOL
p50
NsVWEIGHT
p51
V200
p52
sVSEASON
p53
V2017
p54
sVAGE
p55
F21.0
sVBIRTH_DATE
p56
VMAR 05, 1996
p57
sVHEIGHT
p58
V6-5
p59
sVPLAYER
p60
VEmmanuel Mudiay
p61
sVTeamID
p62
I1610612743
sVNUM
p63
V0
p64
sVEXP
p65
g43
sVLeagueID
p66
V00
p67
sVPOSITION
p68
VG
p69
sVPLAYER_ID
p70
I1626144
ssI1626145
(dp71
VSCHOOL
p72
VDuke
p73
sVWEIGHT
p74
V184
p75
sVSEASON
p76
V2017
p77
sVAGE
p78
F21.0
sVBIRTH_DATE
p79
VMAY 10, 1996
p80
sVHEIGHT
p81
V6-2
p82
sVPLAYER
p83
VTyus Jones
p84
sVTeamID
p85
I1610612750
sVNUM
p86
V1
p87
sVEXP
p88
g43
sVLeagueID
p89
V00
p90
sVPOSITION
p91
g69
sVPLAYER_ID
p92
I1626145
ssI1626147
(dp93
g26
VVirginia
p94
sg28
V230
p95
sg30
V2017
p96
sg32
F23.0
sg33
VNOV 19, 1993
p97
sg35
V6-6
p98
sg37
VJustin Anderson
p99
sg39
I1610612755
sg40
g87
sg42
g43
sg44
V00
p100
sg46
VG-F
p101
sg48
I1626147
ssI1626148
(dp102
g72
VStanford
p103
sg74
V224
p104
sg76
V2017
p105
sg78
F25.0
sg79
VOCT 10, 1992
p106
sg81
V6-7
p107
sg83
VAnthony Brown
p108
sg85
I1610612750
sg86
V3
p109
sg88
g43
sg89
V00
p110
sg91
VF
p111
sg92
I1626148
ssI1626149
(dp112
VSCHOOL
p113
VLouisville
p114
sVWEIGHT
p115
V240
p116
sVSEASON
p117
V2017
p118
sVAGE
p119
F23.0
sVBIRTH_DATE
p120
VJAN 26, 1994
p121
sVHEIGHT
p122
V6-8
p123
sVPLAYER
p124
VMontrezl Harrell
p125
sVTeamID
p126
I1610612746
sVNUM
p127
g19
sVEXP
p128
g43
sVLeagueID
p129
V00
p130
sVPOSITION
p131
VF-C
p132
sVPLAYER_ID
p133
I1626149
ssI1626150
(dp134
VSCHOOL
p135
VKentucky
p136
sVWEIGHT
p137
V213
p138
sVSEASON
p139
V2017
p140
sVAGE
p141
F23.0
sVBIRTH_DATE
p142
VOCT 28, 1994
p143
sVHEIGHT
p144
V6-6
p145
sVPLAYER
p146
VAndrew Harrison
p147
sVTeamID
p148
I1610612763
sVNUM
p149
g19
sVEXP
p150
g87
sVLeagueID
p151
V00
p152
sVPOSITION
p153
g69
sVPLAYER_ID
p154
I1626150
ssI1626153
(dp155
VSCHOOL
p156
VUtah
p157
sVWEIGHT
p158
V190
p159
sVSEASON
p160
V2017
p161
sVAGE
p162
F25.0
sVBIRTH_DATE
p163
VAPR 26, 1992
p164
sVHEIGHT
p165
V6-5
p166
sVPLAYER
p167
VDelon Wright
p168
sVTeamID
p169
I1610612761
sVNUM
p170
V55
p171
sVEXP
p172
g43
sVLeagueID
p173
V00
p174
sVPOSITION
p175
g69
sVPLAYER_ID
p176
I1626153
ssI200746
(dp177
VSCHOOL
p178
VTexas
p179
sVWEIGHT
p180
V260
p181
sVSEASON
p182
V2017
p183
sVAGE
p184
F32.0
sVBIRTH_DATE
p185
VJUL 19, 1985
p186
sVHEIGHT
p187
V6-11
p188
sVPLAYER
p189
VLaMarcus Aldridge
p190
sVTeamID
p191
I1610612759
sVNUM
p192
V12
p193
sVEXP
p194
V11
p195
sVLeagueID
p196
V00
p197
sVPOSITION
p198
g111
sVPLAYER_ID
p199
I200746
ssI1626155
(dp200
g113
VWisconsin
p201
sg115
V230
p202
sg117
V2017
p203
sg119
F23.0
sg120
VMAY 08, 1994
p204
sg122
V6-9
p205
sg124
VSam Dekker
p206
sg126
I1610612746
sg127
V7
p207
sg128
g43
sg129
V00
p208
sg131
g111
sg133
I1626155
ssI1626156
(dp209
VSCHOOL
p210
VOhio State
p211
sVWEIGHT
p212
V195
p213
sVSEASON
p214
V2017
p215
sVAGE
p216
F21.0
sVBIRTH_DATE
p217
VFEB 23, 1996
p218
sVHEIGHT
p219
V6-5
p220
sVPLAYER
p221
VD'Angelo Russell
p222
sVTeamID
p223
I1610612751
sVNUM
p224
g87
sVEXP
p225
g43
sVLeagueID
p226
V00
p227
sVPOSITION
p228
g69
sVPLAYER_ID
p229
I1626156
ssI1626157
(dp230
g72
VKentucky
p231
sg74
V248
p232
sg76
V2017
p233
sg78
F21.0
sg79
VNOV 15, 1995
p234
sg81
V7-0
p235
sg83
VKarl-Anthony Towns
p236
sg85
I1610612750
sg86
V32
p237
sg88
g43
sg89
V00
p238
sg91
g47
sg92
I1626157
ssI1626158
(dp239
g26
VBowling Green
p240
sg28
V235
p241
sg30
V2017
p242
sg32
F24.0
sg33
VOCT 15, 1993
p243
sg35
V6-10
p244
sg37
VRichaun Holmes
p245
sg39
I1610612755
sg40
V22
p246
sg42
g43
sg44
V00
p247
sg46
VF-C
p248
sg48
I1626158
ssI1626159
(dp249
VSCHOOL
p250
VDuke
p251
sVWEIGHT
p252
V225
p253
sVSEASON
p254
V2017
p255
sVAGE
p256
F21.0
sVBIRTH_DATE
p257
VMAR 26, 1996
p258
sVHEIGHT
p259
V6-7
p260
sVPLAYER
p261
VJustise Winslow
p262
sVTeamID
p263
I1610612748
sVNUM
p264
V20
p265
sVEXP
p266
g43
sVLeagueID
p267
V00
p268
sVPOSITION
p269
g111
sVPLAYER_ID
p270
I1626159
ssI200752
(dp271
g178
VConnecticut
p272
sg180
V230
p273
sg182
V2017
p274
sg184
F31.0
sg185
VAUG 17, 1986
p275
sg187
V6-8
p276
sg189
VRudy Gay
p277
sg191
I1610612759
sg192
V22
p278
sg194
V11
p279
sg196
V00
p280
sg198
g111
sg199
I200752
ssI1626161
(dp281
VSCHOOL
p282
VKentucky
p283
sVWEIGHT
p284
V240
p285
sVSEASON
p286
V2017
p287
sVAGE
p288
F24.0
sVBIRTH_DATE
p289
VAUG 18, 1993
p290
sVHEIGHT
p291
V7-0
p292
sVPLAYER
p293
VWillie Cauley-Stein
p294
sVTeamID
p295
I1610612758
sVNUM
p296
V00
p297
sVEXP
p298
g43
sVLeagueID
p299
V00
p300
sVPOSITION
p301
g47
sVPLAYER_ID
p302
I1626161
ssI1627763
(dp303
VSCHOOL
p304
VVirginia
p305
sVWEIGHT
p306
V215
p307
sVSEASON
p308
V2017
p309
sVAGE
p310
F24.0
sVBIRTH_DATE
p311
VDEC 11, 1992
p312
sVHEIGHT
p313
V6-5
p314
sVPLAYER
p315
VMalcolm Brogdon
p316
sVTeamID
p317
I1610612749
sVNUM
p318
V13
p319
sVEXP
p320
g87
sVLeagueID
p321
V00
p322
sVPOSITION
p323
g69
sVPLAYER_ID
p324
I1627763
ssI200757
(dp325
VSCHOOL
p326
VVevey, Switzerland
p327
sVWEIGHT
p328
V220
p329
sVSEASON
p330
V2017
p331
sVAGE
p332
F33.0
sVBIRTH_DATE
p333
VMAY 02, 1984
p334
sVHEIGHT
p335
V6-7
p336
sVPLAYER
p337
VThabo Sefolosha
p338
sVTeamID
p339
I1610612762
sVNUM
p340
V22
p341
sVEXP
p342
V11
p343
sVLeagueID
p344
V00
p345
sVPOSITION
p346
g111
sVPLAYER_ID
p347
I200757
ssI1626166
(dp348
VSCHOOL
p349
VMurray State
p350
sVWEIGHT
p351
V185
p352
sVSEASON
p353
V2017
p354
sVAGE
p355
F23.0
sVBIRTH_DATE
p356
VAUG 08, 1994
p357
sVHEIGHT
p358
V6-3
p359
sVPLAYER
p360
VCameron Payne
p361
sVTeamID
p362
I1610612741
sVNUM
p363
V22
p364
sVEXP
p365
g43
sVLeagueID
p366
V00
p367
sVPOSITION
p368
g69
sVPLAYER_ID
p369
I1626166
ssI1626168
(dp370
g50
VKentucky
p371
sg51
V234
p372
sg53
V2017
p373
sg55
F22.0
sg56
VNOV 05, 1995
p374
sg58
V6-10
p375
sg60
VTrey Lyles
p376
sg62
I1610612743
sg63
g207
sg65
g43
sg66
V00
p377
sg68
g111
sg70
I1626168
ssI1626170
(dp378
g349
VNotre Dame
p379
sg351
V198
p380
sg353
V2017
p381
sg355
F25.0
sg356
VOCT 09, 1992
p382
sg358
V6-4
p383
sg360
VJerian Grant
p384
sg362
I1610612741
sg363
g43
sg365
g43
sg366
V00
p385
sg368
g69
sg369
I1626170
ssI1626171
(dp386
g349
VArkansas
p387
sg351
V248
p388
sg353
V2017
p389
sg355
F22.0
sg356
VFEB 10, 1995
p390
sg358
V6-11
p391
sg360
VBobby Portis
p392
sg362
I1610612741
sg363
g19
sg365
g43
sg366
V00
p393
sg368
g111
sg369
I1626171
ssI1626172
(dp394
VSCHOOL
p395
VUCLA
p396
sVWEIGHT
p397
V220
p398
sVSEASON
p399
V2017
p400
sVAGE
p401
F21.0
sVBIRTH_DATE
p402
VFEB 06, 1996
p403
sVHEIGHT
p404
V6-9
p405
sVPLAYER
p406
VKevon Looney
p407
sVTeamID
p408
I1610612744
sVNUM
p409
g19
sVEXP
p410
g43
sVLeagueID
p411
V00
p412
sVPOSITION
p413
g111
sVPLAYER_ID
p414
I1626172
ssI1626173
(dp415
g304
VUNLV
p416
sg306
V202
p417
sg308
V2017
p418
sg310
F21.0
sg311
VAUG 16, 1996
p419
sg313
V6-6
p420
sg315
VRashad Vaughn
p421
sg317
I1610612749
sg318
V20
p422
sg320
g43
sg321
V00
p423
sg323
g69
sg324
I1626173
ssI1626175
(dp424
g250
VLouisiana State
p425
sg252
V235
p426
sg254
V2017
p427
sg256
F23.0
sg257
VJUL 09, 1994
p428
sg259
V6-8
p429
sg261
VJordan Mickey
p430
sg263
I1610612748
sg264
V25
p431
sg266
g43
sg267
V00
p432
sg269
VC-F
p433
sg270
I1626175
ssI200768
(dp434
g156
VVillanova
p435
sg158
V205
p436
sg160
V2017
p437
sg162
F31.0
sg163
VMAR 25, 1986
p438
sg165
V6-0
p439
sg167
VKyle Lowry
p440
sg169
I1610612761
sg170
g207
sg172
V11
p441
sg173
V00
p442
sg175
g69
sg176
I200768
ssI1626177
(dp443
VSCHOOL
p444
VKentucky
p445
sVWEIGHT
p446
V255
p447
sVSEASON
p448
V2017
p449
sVAGE
p450
F22.0
sVBIRTH_DATE
p451
VSEP 22, 1995
p452
sVHEIGHT
p453
V7-0
p454
sVPLAYER
p455
VDakari Johnson
p456
sVTeamID
p457
I1610612760
sVNUM
p458
V44
p459
sVEXP
p460
VR
p461
sVLeagueID
p462
V00
p463
sVPOSITION
p464
g47
sVPLAYER_ID
p465
I1626177
ssI1626178
(dp466
g210
VArizona
p467
sg212
V214
p468
sg214
V2017
p469
sg216
F22.0
sg217
VJAN 03, 1995
p470
sg219
V6-7
p471
sg221
VRondae Hollis-Jefferson
p472
sg223
I1610612751
sg224
V24
p473
sg225
g43
sg226
V00
p474
sg228
g111
sg229
I1626178
ssI1626179
(dp475
VSCHOOL
p476
VLouisville
p477
sVWEIGHT
p478
V190
p479
sVSEASON
p480
V2017
p481
sVAGE
p482
F23.0
sVBIRTH_DATE
p483
VMAR 17, 1994
p484
sVHEIGHT
p485
V6-2
p486
sVPLAYER
p487
VTerry Rozier
p488
sVTeamID
p489
I1610612738
sVNUM
p490
V12
p491
sVEXP
p492
g43
sVLeagueID
p493
V00
p494
sVPOSITION
p495
g69
sVPLAYER_ID
p496
I1626179
ssI1626181
(dp497
g156
VUCLA
p498
sg158
V215
p499
sg160
V2017
p500
sg162
F24.0
sg163
VMAY 25, 1993
p501
sg165
V6-4
p502
sg167
VNorman Powell
p503
sg169
I1610612761
sg170
V24
p504
sg172
g43
sg173
V00
p505
sg175
VF-G
p506
sg176
I1626181
ssI1626185
(dp507
g135
VLouisiana State
p508
sg137
V239
p509
sg139
V2017
p510
sg141
F23.0
sg142
VMAY 24, 1994
p511
sg144
V6-10
p512
sg146
VJarell Martin
p513
sg148
I1610612763
sg149
g87
sg150
g43
sg151
V00
p514
sg153
g111
sg154
I1626185
ssI1626188
(dp515
g395
VDuke
p516
sg397
V179
p517
sg399
V2017
p518
sg401
F24.0
sg402
VMAR 23, 1993
p519
sg404
V6-2
p520
sg406
VQuinn Cook
p521
sg408
I1610612744
sg409
V4
p522
sg410
g87
sg411
V00
p523
sg413
g69
sg414
I1626188
ssI200782
(dp524
VSCHOOL
p525
VTexas
p526
sVWEIGHT
p527
V245
p528
sVSEASON
p529
V2017
p530
sVAGE
p531
F32.0
sVBIRTH_DATE
p532
VMAY 05, 1985
p533
sVHEIGHT
p534
V6-6
p535
sVPLAYER
p536
VPJ Tucker
p537
sVTeamID
p538
I1610612745
sVNUM
p539
g522
sVEXP
p540
V6
p541
sVLeagueID
p542
V00
p543
sVPOSITION
p544
g111
sVPLAYER_ID
p545
I200782
ssI1626195
(dp546
VSCHOOL
p547
VSpain
p548
sVWEIGHT
p549
V240
p550
sVSEASON
p551
V2017
p552
sVAGE
p553
F23.0
sVBIRTH_DATE
p554
VMAY 27, 1994
p555
sVHEIGHT
p556
V6-11
p557
sVPLAYER
p558
VWilly Hernangomez
p559
sVTeamID
p560
I1610612752
sVNUM
p561
V14
p562
sVEXP
p563
g87
sVLeagueID
p564
V00
p565
sVPOSITION
p566
g47
sVPLAYER_ID
p567
I1626195
ssI1626196
(dp568
g250
VTennessee
p569
sg252
V200
p570
sg254
V2017
p571
sg256
F24.0
sg257
VSEP 15, 1993
p572
sg259
V6-6
p573
sg261
VJosh Richardson
p574
sg263
I1610612748
sg264
g64
sg266
g43
sg267
V00
p575
sg269
g111
sg270
I1626196
ssI1626199
(dp576
g178
VVillanova
p577
sg180
V220
p578
sg182
V2017
p579
sg184
F24.0
sg185
VAPR 13, 1993
p580
sg187
V6-6
p581
sg189
VDarrun Hilliard
p582
sg191
I1610612759
sg192
V24
p583
sg194
g43
sg196
V00
p584
sg198
g69
sg199
I1626199
ssI200794
(dp585
g50
VLouisiana Tech
p586
sg51
V246
p587
sg53
V2017
p588
sg55
F32.0
sg56
VFEB 10, 1985
p589
sg58
V6-8
p590
sg60
VPaul Millsap
p591
sg62
I1610612743
sg63
g522
sg65
V11
p592
sg66
V00
p593
sg68
g111
sg70
I200794
ssI1626204
(dp594
VSCHOOL
p595
VWyoming
p596
sVWEIGHT
p597
V230
p598
sVSEASON
p599
V2017
p600
sVAGE
p601
F24.0
sVBIRTH_DATE
p602
VJAN 01, 1993
p603
sVHEIGHT
p604
V6-9
p605
sVPLAYER
p606
VLarry Nance Jr.
p607
sVTeamID
p608
I1610612747
sVNUM
p609
g207
sVEXP
p610
g43
sVLeagueID
p611
V00
p612
sVPOSITION
p613
g111
sVPLAYER_ID
p614
I1626204
ssI1626205
(dp615
g135
VTexas-El Paso
p616
sg137
V208
p617
sg139
V2017
p618
sg141
F23.0
sg142
VAUG 05, 1994
p619
sg144
V6-8
p620
sg146
VVincent Hunter
p621
sg148
I1610612763
sg149
V32
p622
sg150
g461
sg151
V00
p623
sg153
g111
sg154
I1626205
ssI1626209
(dp624
g2
VCroatia
p625
sg4
V218
p626
sg6
V2017
p627
sg8
F22.0
sg9
VFEB 25, 1995
p628
sg11
V6-8
p629
sg13
VMario Hezonja
p630
sg15
I1610612753
sg16
g41
sg18
g43
sg20
V00
p631
sg22
VG-F
p632
sg24
I1626209
ssI1626220
(dp633
g326
VBaylor
p634
sg328
V226
p635
sg330
V2017
p636
sg332
F24.0
sg333
VJUN 05, 1993
p637
sg335
V6-6
p638
sg337
VRoyce O'Neale
p639
sg339
I1610612762
sg340
V23
p640
sg342
g461
sg344
V00
p641
sg346
g111
sg347
I1626220
ssI1626224
(dp642
VSCHOOL
p643
VAnadolu Efes
p644
sVWEIGHT
p645
V215
p646
sVSEASON
p647
V2017
p648
sVAGE
p649
F22.0
sVBIRTH_DATE
p650
VAPR 08, 1995
p651
sVHEIGHT
p652
V6-8
p653
sVPLAYER
p654
VCedi Osman
p655
sVTeamID
p656
I1610612739
sVNUM
p657
V16
p658
sVEXP
p659
g461
sVLeagueID
p660
V00
p661
sVPOSITION
p662
g111
sVPLAYER_ID
p663
I1626224
ssI200826
(dp664
VSCHOOL
p665
VNortheastern
p666
sVWEIGHT
p667
V185
p668
sVSEASON
p669
V2017
p670
sVAGE
p671
F33.0
sVBIRTH_DATE
p672
VJUN 26, 1984
p673
sVHEIGHT
p674
V6-0
p675
sVPLAYER
p676
VJ.J. Barea
p677
sVTeamID
p678
I1610612742
sVNUM
p679
g19
sVEXP
p680
V11
p681
sVLeagueID
p682
V00
p683
sVPOSITION
p684
g69
sVPLAYER_ID
p685
I200826
ssI1626245
(dp686
g349
Nsg351
V280
p687
sg353
V2017
p688
sg355
F25.0
sg356
VJUL 07, 1992
p689
sg358
V6-9
p690
sg360
VCristiano Felicio
p691
sg362
I1610612741
sg363
g541
sg365
g43
sg366
V00
p692
sg368
VC-F
p693
sg369
I1626245
ssI1626257
(dp694
g665
Nsg667
V235
p695
sg669
V2017
p696
sg671
F31.0
sg672
VJUN 15, 1986
p697
sg674
V7-2
p698
sg676
VSalah Mejri
p699
sg678
I1610612742
sg679
V50
p700
sg680
g43
sg682
V00
p701
sg684
g47
sg685
I1626257
ssI1626259
(dp702
g156
VHoly Cross
p703
sg158
V210
p704
sg160
V2017
p705
sg162
F24.0
sg163
VMAR 06, 1993
p706
sg165
V6-7
p707
sg167
VMalcolm Miller
p708
sg169
I1610612761
sg170
V13
p709
sg172
g461
sg173
V00
p710
sg175
g111
sg176
I1626259
ssI2200
(dp711
g178
VBarcelona, Spain
p712
sg180
V250
p713
sg182
V2017
p714
sg184
F37.0
sg185
VJUL 06, 1980
p715
sg187
V7-0
p716
sg189
VPau Gasol
p717
sg191
I1610612759
sg192
V16
p718
sg194
V16
p719
sg196
V00
p720
sg198
g47
sg199
I2200
ssI2207
(dp721
g326
VArkansas
p722
sg328
V240
p723
sg330
V2017
p724
sg332
F36.0
sg333
VJUN 29, 1981
p725
sg335
V6-7
p726
sg337
VJoe Johnson
p727
sg339
I1610612762
sg340
g541
sg342
V16
p728
sg344
V00
p729
sg346
VG-F
p730
sg347
I2207
ssI2210
(dp731
g50
VArizona
p732
sg51
V233
p733
sg53
V2017
p734
sg55
F37.0
sg56
VJUN 21, 1980
p735
sg58
V6-7
p736
sg60
VRichard Jefferson
p737
sg62
I1610612743
sg63
V22
p738
sg65
V16
p739
sg66
V00
p740
sg68
g111
sg70
I2210
ssI2216
(dp741
g282
VMichigan State
p742
sg284
V250
p743
sg286
V2017
p744
sg288
F36.0
sg289
VJUL 16, 1981
p745
sg291
V6-9
p746
sg293
VZach Randolph
p747
sg295
I1610612758
sg296
V50
p748
sg298
V16
p749
sg299
V00
p750
sg301
g111
sg302
I2216
ssI2225
(dp751
g178
VParis, France
p752
sg180
V185
p753
sg182
V2017
p754
sg184
F35.0
sg185
VMAY 17, 1982
p755
sg187
V6-2
p756
sg189
VTony Parker
p757
sg191
I1610612759
sg192
V9
p758
sg194
V16
p759
sg196
V00
p760
sg198
g69
sg199
I2225
ssI1628365
(dp761
g26
VWashington
p762
sg28
V200
p763
sg30
V2017
p764
sg32
F19.0
sg33
VMAY 29, 1998
p765
sg35
V6-4
p766
sg37
VMarkelle Fultz
p767
sg39
I1610612755
sg40
V20
p768
sg42
g461
sg44
V00
p769
sg46
g69
sg48
I1628365
ssI1628366
(dp770
g595
VCalifornia-Los Angeles
p771
sg597
V190
p772
sg599
V2017
p773
sg601
F20.0
sg602
VOCT 27, 1997
p774
sg604
V6-6
p775
sg606
VLonzo Ball
p776
sg608
I1610612747
sg609
g43
sg610
g461
sg611
V00
p777
sg613
g69
sg614
I1628366
ssI1628368
(dp778
g282
VKentucky
p779
sg284
V175
p780
sg286
V2017
p781
sg288
F19.0
sg289
VDEC 20, 1997
p782
sg291
V6-3
p783
sg293
VDe'Aaron Fox
p784
sg295
I1610612758
sg296
g19
sg298
g461
sg299
V00
p785
sg301
g69
sg302
I1628368
ssI1628369
(dp786
g476
VDuke
p787
sg478
V205
p788
sg480
V2017
p789
sg482
F19.0
sg483
VMAR 03, 1998
p790
sg485
V6-8
p791
sg487
VJayson Tatum
p792
sg489
I1610612738
sg490
g64
sg492
g461
sg493
V00
p793
sg495
g111
sg496
I1628369
ssI1628371
(dp794
g2
VFlorida State
p795
sg4
V210
p796
sg6
V2017
p797
sg8
F20.0
sg9
VOCT 03, 1997
p798
sg11
V6-10
p799
sg13
VJonathan Isaac
p800
sg15
I1610612753
sg16
g87
sg18
g461
sg20
V00
p801
sg22
g111
sg24
I1628371
ssI1628372
(dp802
g665
VNorth Carolina State
p803
sg667
V195
p804
sg669
V2017
p805
sg671
F19.0
sg672
VNOV 25, 1997
p806
sg674
V6-3
p807
sg676
VDennis Smith Jr.
p808
sg678
I1610612742
sg679
g87
sg680
g461
sg682
V00
p809
sg684
g69
sg685
I1628372
ssI1628373
(dp810
g547
Nsg549
V190
p811
sg551
V2017
p812
sg553
F19.0
sg554
VJUL 28, 1998
p813
sg556
V6-5
p814
sg558
VFrank Ntilikina
p815
sg560
I1610612752
sg561
V11
p816
sg563
g461
sg564
V00
p817
sg566
g69
sg567
I1628373
ssI1628374
(dp818
g349
VArizona
p819
sg351
V230
p820
sg353
V2017
p821
sg355
F20.0
sg356
VMAY 22, 1997
p822
sg358
V7-0
p823
sg360
VLauri Markkanen
p824
sg362
I1610612741
sg363
V24
p825
sg365
g461
sg366
V00
p826
sg368
g111
sg369
I1628374
ssI1628378
(dp827
g326
VLouisville
p828
sg328
V215
p829
sg330
V2017
p830
sg332
F21.0
sg333
VSEP 07, 1996
p831
sg335
V6-3
p832
sg337
VDonovan Mitchell
p833
sg339
I1610612762
sg340
V45
p834
sg342
g461
sg344
V00
p835
sg346
g69
sg347
I1628378
ssI1628381
(dp836
VSCHOOL
p837
VWake Forest
p838
sVWEIGHT
p839
V235
p840
sVSEASON
p841
V2017
p842
sVAGE
p843
F20.0
sVBIRTH_DATE
p844
VSEP 23, 1997
p845
sVHEIGHT
p846
V6-10
p847
sVPLAYER
p848
VJohn Collins
p849
sVTeamID
p850
I1610612737
sVNUM
p851
V20
p852
sVEXP
p853
g461
sVLeagueID
p854
V00
p855
sVPOSITION
p856
VF-C
p857
sVPLAYER_ID
p858
I1628381
ssI1628382
(dp859
g282
VNorth Carolina
p860
sg284
V210
p861
sg286
V2017
p862
sg288
F22.0
sg289
VMAR 28, 1995
p863
sg291
V6-8
p864
sg293
VJustin Jackson
p865
sg295
I1610612758
sg296
V25
p866
sg298
g461
sg299
V00
p867
sg301
g111
sg302
I1628382
ssI1628383
(dp868
g72
VCreighton
p869
sg74
V236
p870
sg76
V2017
p871
sg78
F20.0
sg79
VJUN 14, 1997
p872
sg81
V7-0
p873
sg83
VJustin Patton
p874
sg85
I1610612750
sg86
V24
p875
sg88
g461
sg89
V00
p876
sg91
g47
sg92
I1628383
ssI1628384
(dp877
g156
VIndiana
p878
sg158
V235
p879
sg160
V2017
p880
sg162
F20.0
sg163
VJUL 17, 1997
p881
sg165
V6-8
p882
sg167
VOG Anunoby
p883
sg169
I1610612761
sg170
g109
sg172
g461
sg173
V00
p884
sg175
g111
sg176
I1628384
ssI1628385
(dp885
g282
VDuke
p886
sg284
V240
p887
sg286
V2017
p888
sg288
F19.0
sg289
VAPR 22, 1998
p889
sg291
V6-10
p890
sg293
VHarry Giles
p891
sg295
I1610612758
sg296
V20
p892
sg298
g461
sg299
V00
p893
sg301
VF-C
p894
sg302
I1628385
ssI1628386
(dp895
g210
VTexas
p896
sg212
V234
p897
sg214
V2017
p898
sg216
F19.0
sg217
VAPR 21, 1998
p899
sg219
V6-11
p900
sg221
VJarrett Allen
p901
sg223
I1610612751
sg224
V31
p902
sg225
g461
sg226
V00
p903
sg228
g47
sg229
I1628386
ssI1628389
(dp904
g250
VKentucky
p905
sg252
V255
p906
sg254
V2017
p907
sg256
F20.0
sg257
VJUL 18, 1997
p908
sg259
V6-10
p909
sg261
VBam Adebayo
p910
sg263
I1610612748
sg264
V13
p911
sg266
g461
sg267
V00
p912
sg269
VC-F
p913
sg270
I1628389
ssI1628390
(dp914
g444
Nsg446
V184
p915
sg448
V2017
p916
sg450
F19.0
sg451
VMAY 17, 1998
p917
sg453
V6-7
p918
sg455
VTerrance Ferguson
p919
sg457
I1610612760
sg458
V23
p920
sg460
g461
sg462
V00
p921
sg464
g69
sg465
I1628390
ssI1628391
(dp922
g304
VMichigan
p923
sg306
V236
p924
sg308
V2017
p925
sg310
F21.0
sg311
VFEB 19, 1996
p926
sg313
V6-10
p927
sg315
VD.J. Wilson
p928
sg317
I1610612749
sg318
g19
sg320
g461
sg321
V00
p929
sg323
g111
sg324
I1628391
ssI1628393
(dp930
g113
VOklahoma State
p931
sg115
V190
p932
sg117
V2017
p933
sg119
F21.0
sg120
VJUL 26, 1996
p934
sg122
V6-0
p935
sg124
VJawun Evans
p936
sg126
I1610612746
sg127
g87
sg128
g461
sg129
V00
p937
sg131
g69
sg133
I1628393
ssI1628395
(dp938
g395
VOregon
p939
sg397
V224
p940
sg399
V2017
p941
sg401
F22.0
sg402
VJAN 07, 1995
p942
sg404
V6-9
p943
sg406
VJordan Bell
p944
sg408
I1610612744
sg409
g43
sg410
g461
sg411
V00
p945
sg413
g111
sg414
I1628395
ssI1628396
(dp946
g326
VNorth Carolina
p947
sg328
V248
p948
sg330
V2017
p949
sg332
F19.0
sg333
VJAN 08, 1998
p950
sg335
V6-10
p951
sg337
VTony Bradley
p952
sg339
I1610612762
sg340
V13
p953
sg342
g461
sg344
V00
p954
sg346
g47
sg347
I1628396
ssI1628397
(dp955
g135
VCalifornia
p956
sg137
V220
p957
sg139
V2017
p958
sg141
F20.0
sg142
VFEB 04, 1997
p959
sg144
V6-10
p960
sg146
VIvan Rabb
p961
sg148
I1610612763
sg149
V10
p962
sg150
g461
sg151
V00
p963
sg153
g111
sg154
I1628397
ssI1628398
(dp964
g595
VUtah
p965
sg597
V220
p966
sg599
V2017
p967
sg601
F22.0
sg602
VJUL 24, 1995
p968
sg604
V6-9
p969
sg606
VKyle Kuzma
p970
sg608
I1610612747
sg609
g64
sg610
g461
sg611
V00
p971
sg613
g111
sg614
I1628398
ssI1628399
(dp972
g50
VSyracuse
p973
sg51
V220
p974
sg53
V2017
p975
sg55
F21.0
sg56
VAPR 09, 1996
p976
sg58
V6-9
p977
sg60
VTyler Lydon
p978
sg62
I1610612743
sg63
V20
p979
sg65
g461
sg66
V00
p980
sg68
g111
sg70
I1628399
ssI1628400
(dp981
g476
VSouthern Methodist
p982
sg478
V235
p983
sg480
V2017
p984
sg482
F22.0
sg483
VDEC 05, 1994
p985
sg485
V6-7
p986
sg487
VSemi Ojeleye
p987
sg489
I1610612738
sg490
V37
p988
sg492
g461
sg493
V00
p989
sg495
g111
sg496
I1628400
ssI1628401
(dp990
g178
VColorado
p991
sg180
V190
p992
sg182
V2017
p993
sg184
F23.0
sg185
VJUL 02, 1994
p994
sg187
V6-4
p995
sg189
VDerrick White
p996
sg191
I1610612759
sg192
g522
sg194
g461
sg196
V00
p997
sg198
g69
sg199
I1628401
ssI1628402
(dp998
VSCHOOL
p999
VDuke
p1000
sVWEIGHT
p1001
V205
p1002
sVSEASON
p1003
V2017
p1004
sVAGE
p1005
F19.0
sVBIRTH_DATE
p1006
VMAY 04, 1998
p1007
sVHEIGHT
p1008
V6-3
p1009
sVPLAYER
p1010
VFrank Jackson
p1011
sVTeamID
p1012
I1610612740
sVNUM
p1013
V15
p1014
sVEXP
p1015
g461
sVLeagueID
p1016
V00
p1017
sVPOSITION
p1018
g69
sVPLAYER_ID
p1019
I1628402
ssI1628404
(dp1020
g595
VVillanova
p1021
sg597
V215
p1022
sg599
V2017
p1023
sg601
F22.0
sg602
VMAR 06, 1995
p1024
sg604
V6-5
p1025
sg606
VJosh Hart
p1026
sg608
I1610612747
sg609
g19
sg610
g461
sg611
V00
p1027
sg613
g69
sg614
I1628404
ssI1628405
(dp1028
g665
VBaylor
p1029
sg667
V230
p1030
sg669
V2017
p1031
sg671
F22.0
sg672
VMAY 04, 1995
p1032
sg674
V6-10
p1033
sg676
VJohnathan Motley
p1034
sg678
I1610612742
sg679
g541
sg680
g461
sg682
V00
p1035
sg684
g111
sg685
I1628405
ssI1628408
(dp1036
g444
VSouth Carolina
p1037
sg446
V205
p1038
sg448
V2017
p1039
sg450
F21.0
sg451
VOCT 25, 1996
p1040
sg453
V6-6
p1041
sg455
VPJ Dozier
p1042
sg457
I1610612760
sg458
V35
p1043
sg460
g461
sg462
V00
p1044
sg464
g69
sg465
I1628408
ssI203476
(dp1045
g72
VLouisville
p1046
sg74
V251
p1047
sg76
V2017
p1048
sg78
F27.0
sg79
VJAN 18, 1990
p1049
sg81
V6-11
p1050
sg83
VGorgui Dieng
p1051
sg85
I1610612750
sg86
g19
sg88
g522
sg89
V00
p1052
sg91
g47
sg92
I203476
ssI1628411
(dp1053
g2
VKansas State
p1054
sg4
V195
p1055
sg6
V2017
p1056
sg8
F22.0
sg9
VDEC 20, 1994
p1057
sg11
V6-7
p1058
sg13
VWes Iwundu
p1059
sg15
I1610612753
sg16
V25
p1060
sg18
g461
sg20
V00
p1061
sg22
g111
sg24
I1628411
ssI1628412
(dp1062
g282
VKansas
p1063
sg284
V190
p1064
sg286
V2017
p1065
sg288
F23.0
sg289
VAPR 03, 1994
p1066
sg291
V5-11
p1067
sg293
VFrank Mason
p1068
sg295
I1610612758
sg296
V10
p1069
sg298
g461
sg299
V00
p1070
sg301
g69
sg302
I1628412
ssI1628414
(dp1071
g113
VSouth Carolina
p1072
sg115
V215
p1073
sg117
V2017
p1074
sg119
F22.0
sg120
VNOV 15, 1994
p1075
sg122
V6-5
p1076
sg124
VSindarius Thornwell
p1077
sg126
I1610612746
sg127
g64
sg128
g461
sg129
V00
p1078
sg131
g69
sg133
I1628414
ssI1628415
(dp1079
g135
VOregon
p1080
sg137
V220
p1081
sg139
V2017
p1082
sg141
F21.0
sg142
VJAN 22, 1996
p1083
sg144
V6-6
p1084
sg146
VDillon Brooks
p1085
sg148
I1610612763
sg149
V24
p1086
sg150
g461
sg151
V00
p1087
sg153
VF-G
p1088
sg154
I1628415
ssI1628416
(dp1089
g837
VOregon
p1090
sg839
V183
p1091
sg841
V2017
p1092
sg843
F21.0
sg844
VFEB 18, 1996
p1093
sg846
V6-4
p1094
sg848
VTyler Dorsey
p1095
sg850
I1610612737
sg851
g43
sg853
g461
sg854
V00
p1096
sg856
g69
sg858
I1628416
ssI1628418
(dp1097
g595
VIndiana
p1098
sg597
V248
p1099
sg599
V2017
p1100
sg601
F20.0
sg602
VJUL 31, 1997
p1101
sg604
V6-10
p1102
sg606
VThomas Bryant
p1103
sg608
I1610612747
sg609
V31
p1104
sg610
g461
sg611
V00
p1105
sg613
g47
sg614
I1628418
ssI1628420
(dp1106
g50
VIowa State
p1107
sg51
V175
p1108
sg53
V2017
p1109
sg55
F22.0
sg56
VJUN 27, 1995
p1110
sg58
V6-3
p1111
sg60
VMonte Morris
p1112
sg62
I1610612743
sg63
V11
p1113
sg65
g461
sg66
V00
p1114
sg68
g69
sg70
I1628420
ssI1628422
(dp1115
g547
VHouston
p1116
sg549
V210
p1117
sg551
V2017
p1118
sg553
F23.0
sg554
VMAY 06, 1994
p1119
sg556
V6-5
p1120
sg558
VDamyean Dotson
p1121
sg560
I1610612752
sg561
V21
p1122
sg563
g461
sg564
V00
p1123
sg566
g69
sg567
I1628422
ssI1628424
(dp1124
g135
VArizona
p1125
sg137
V170
p1126
sg139
V2017
p1127
sg141
F20.0
sg142
VJUL 04, 1997
p1128
sg144
V6-4
p1129
sg146
VKobi Simmons
p1130
sg148
I1610612763
sg149
g43
sg150
g461
sg151
V00
p1131
sg153
g69
sg154
I1628424
ssI1628425
(dp1132
g304
VSouthern Methodist
p1133
sg306
V230
p1134
sg308
V2017
p1135
sg310
F22.0
sg311
VFEB 10, 1995
p1136
sg313
V6-6
p1137
sg315
VSterling Brown
p1138
sg317
I1610612749
sg318
V23
p1139
sg320
g461
sg321
V00
p1140
sg323
g69
sg324
I1628425
ssI1628429
(dp1141
g999
VDayton
p1142
sg1001
V196
p1143
sg1003
V2017
p1144
sg1005
F23.0
sg1006
VJUL 01, 1994
p1145
sg1008
V6-5
p1146
sg1010
VCharles Cooke
p1147
sg1012
I1610612740
sg1013
g522
sg1015
g461
sg1016
V00
p1148
sg1018
g69
sg1019
I1628429
ssI1628436
(dp1149
g547
VVanderbilt
p1150
sg549
V250
p1151
sg551
V2017
p1152
sg553
F22.0
sg554
VJUL 15, 1995
p1153
sg556
V7-1
p1154
sg558
VLuke Kornet
p1155
sg560
I1610612752
sg561
g43
sg563
g461
sg564
V00
p1156
sg566
VF-C
p1157
sg567
I1628436
ssI1628439
(dp1158
g547
VNorth Carolina
p1159
sg549
V242
p1160
sg551
V2017
p1161
sg553
F23.0
sg554
VJUL 24, 1994
p1162
sg556
V6-9
p1163
sg558
VIsaiah Hicks
p1164
sg560
I1610612752
sg561
g522
sg563
g461
sg564
V00
p1165
sg566
g111
sg567
I1628439
ssI1628443
(dp1166
g476
VArizona
p1167
sg478
V200
p1168
sg480
V2017
p1169
sg482
F24.0
sg483
VJAN 15, 1993
p1170
sg485
V6-3
p1171
sg487
VKadeem Allen
p1172
sg489
I1610612738
sg490
V45
p1173
sg492
g461
sg493
V00
p1174
sg495
g69
sg496
I1628443
ssI1628444
(dp1175
g476
VCalifornia
p1176
sg478
V198
p1177
sg480
V2017
p1178
sg482
F23.0
sg483
VJUL 03, 1994
p1179
sg485
V6-6
p1180
sg487
VJabari Bird
p1181
sg489
I1610612738
sg490
V26
p1182
sg492
g461
sg493
V00
p1183
sg495
g69
sg496
I1628444
ssI1628449
(dp1184
g395
VOregon
p1185
sg397
V200
p1186
sg399
V2017
p1187
sg401
F24.0
sg402
VJAN 11, 1993
p1188
sg404
V6-10
p1189
sg406
VChris Boucher
p1190
sg408
I1610612744
sg409
V25
p1191
sg410
g461
sg411
V00
p1192
sg413
g111
sg414
I1628449
ssI1628451
(dp1193
g210
VEastern Washington
p1194
sg212
V223
p1195
sg214
V2017
p1196
sg216
F23.0
sg217
VSEP 04, 1994
p1197
sg219
V6-8
p1198
sg221
VJacob Wiley
p1199
sg223
I1610612751
sg224
V21
p1200
sg225
g461
sg226
V00
p1201
sg228
g111
sg229
I1628451
ssI1628462
(dp1202
g113
Nsg115
V196
p1203
sg117
V2017
p1204
sg119
F30.0
sg120
VMAR 19, 1987
p1205
sg122
V6-5
p1206
sg124
VMilos Teodosic
p1207
sg126
I1610612746
sg127
g522
sg128
g461
sg129
V00
p1208
sg131
g69
sg133
I1628462
ssI1628463
(dp1209
g837
VGeorge Washington
p1210
sg839
V238
p1211
sg841
V2017
p1212
sg843
F23.0
sg844
VFEB 09, 1994
p1213
sg846
V6-9
p1214
sg848
VTyler Cavanaugh
p1215
sg850
I1610612737
sg851
V34
p1216
sg853
g461
sg854
V00
p1217
sg856
g111
sg858
I1628463
ssI1628464
(dp1218
g476
Nsg478
V243
p1219
sg480
V2017
p1220
sg482
F25.0
sg483
VAPR 04, 1992
p1221
sg485
V6-9
p1222
sg487
VDaniel Theis
p1223
sg489
I1610612738
sg490
V27
p1224
sg492
g461
sg493
V00
p1225
sg495
VF-C
p1226
sg496
I1628464
ssI1628467
(dp1227
g665
Nsg667
V220
p1228
sg669
V2017
p1229
sg671
F25.0
sg672
VJAN 29, 1992
p1230
sg674
V6-11
p1231
sg676
VMaxi Kleber
p1232
sg678
I1610612742
sg679
V42
p1233
sg680
g461
sg682
V00
p1234
sg684
g111
sg685
I1628467
ssI1628469
(dp1235
g349
VLouisiana State
p1236
sg351
V197
p1237
sg353
V2017
p1238
sg355
F21.0
sg356
VOCT 04, 1996
p1239
sg358
V6-4
p1240
sg360
VAntonio Blakeney
p1241
sg362
I1610612741
sg363
g758
sg365
g461
sg366
V00
p1242
sg368
g69
sg369
I1628469
ssI1628470
(dp1243
g50
VSouth Carolina Upstate
p1244
sg51
V215
p1245
sg53
V2017
p1246
sg55
F26.0
sg56
VDEC 19, 1990
p1247
sg58
V6-6
p1248
sg60
VTorrey Craig
p1249
sg62
I1610612743
sg63
g109
sg65
g461
sg66
V00
p1250
sg68
VG-F
p1251
sg70
I1628470
ssI1628473
(dp1252
g210
Nsg212
V220
p1253
sg214
V2017
p1254
sg216
F25.0
sg217
VJAN 24, 1992
p1255
sg219
V6-4
p1256
sg221
VYakuba Ouattara
p1257
sg223
I1610612751
sg224
V00
p1258
sg225
g461
sg226
V00
p1259
sg228
g69
sg229
I1628473
ssI1628475
(dp1260
g250
VCentral Florida
p1261
sg252
V210
p1262
sg254
V2017
p1263
sg256
F24.0
sg257
VOCT 14, 1993
p1264
sg259
V6-5
p1265
sg261
VMatt Williams Jr.
p1266
sg263
I1610612748
sg264
V12
p1267
sg266
g461
sg267
V00
p1268
sg269
g69
sg270
I1628475
ssI1628476
(dp1269
g250
VMichigan
p1270
sg252
V185
p1271
sg254
V2017
p1272
sg256
F22.0
sg257
VAPR 03, 1995
p1273
sg259
V6-1
p1274
sg261
VDerrick Walton Jr.
p1275
sg263
I1610612748
sg264
V14
p1276
sg266
g461
sg267
V00
p1277
sg269
g69
sg270
I1628476
ssI203076
(dp1278
g999
VKentucky
p1279
sg1001
V253
p1280
sg1003
V2017
p1281
sg1005
F24.0
sg1006
VMAR 11, 1993
p1282
sg1008
V6-10
p1283
sg1010
VAnthony Davis
p1284
sg1012
I1610612740
sg1013
V23
p1285
sg1015
g19
sg1016
V00
p1286
sg1018
VF-C
p1287
sg1019
I203076
ssI203079
(dp1288
g250
VSyracuse
p1289
sg252
V215
p1290
sg254
V2017
p1291
sg256
F25.0
sg257
VDEC 10, 1991
p1292
sg259
V6-4
p1293
sg261
VDion Waiters
p1294
sg263
I1610612748
sg264
V11
p1295
sg266
g19
sg267
V00
p1296
sg269
g69
sg270
I203079
ssI203082
(dp1297
g2
VWashington
p1298
sg4
V206
p1299
sg6
V2017
p1300
sg8
F26.0
sg9
VFEB 05, 1991
p1301
sg11
V6-7
p1302
sg13
VTerrence Ross
p1303
sg15
I1610612753
sg16
V31
p1304
sg18
g19
sg20
V00
p1305
sg22
VG-F
p1306
sg24
I203082
ssI1628492
(dp1307
g665
VColorado State
p1308
sg667
V185
p1309
sg669
V2017
p1310
sg671
F23.0
sg672
VNOV 26, 1993
p1311
sg674
V6-4
p1312
sg676
VGian Clavell
p1313
sg678
I1610612742
sg679
g41
sg680
g461
sg682
V00
p1314
sg684
g69
sg685
I1628492
ssI203085
(dp1315
g113
VDuke
p1316
sg115
V200
p1317
sg117
V2017
p1318
sg119
F25.0
sg120
VAUG 01, 1992
p1319
sg122
V6-4
p1320
sg124
VAustin Rivers
p1321
sg126
I1610612746
sg127
V25
p1322
sg128
g19
sg129
V00
p1323
sg131
g69
sg133
I203085
ssI203089
(dp1324
g304
VNorth Carolina
p1325
sg306
V229
p1326
sg308
V2017
p1327
sg310
F26.0
sg311
VDEC 28, 1990
p1328
sg313
V6-11
p1329
sg315
VJohn Henson
p1330
sg317
I1610612749
sg318
V31
p1331
sg320
g19
sg321
V00
p1332
sg323
VF-C
p1333
sg324
I203089
ssI203092
(dp1334
g210
VNorth Carolina
p1335
sg212
V250
p1336
sg214
V2017
p1337
sg216
F27.0
sg217
VJAN 17, 1990
p1338
sg219
V7-0
p1339
sg221
VTyler Zeller
p1340
sg223
I1610612751
sg224
V44
p1341
sg225
g19
sg226
V00
p1342
sg228
g47
sg229
I203092
ssI1628503
(dp1343
g2
VPittsburgh
p1344
sg4
V213
p1345
sg6
V2017
p1346
sg8
F24.0
sg9
VJAN 12, 1993
p1347
sg11
V6-7
p1348
sg13
VJamel Artis
p1349
sg15
I1610612753
sg16
g64
sg18
g461
sg20
V00
p1350
sg22
g69
sg24
I1628503
ssI1628506
(dp1351
g643
VVirginia
p1352
sg645
V190
p1353
sg647
V2017
p1354
sg649
F23.0
sg650
VOCT 03, 1994
p1355
sg652
V6-2
p1356
sg654
VLondon Perrantes
p1357
sg656
I1610612739
sg657
V15
p1358
sg659
g461
sg660
V00
p1359
sg662
g69
sg663
I1628506
ssI203101
(dp1360
g837
VDuke
p1361
sg839
V249
p1362
sg841
V2017
p1363
sg843
F29.0
sg844
VSEP 01, 1988
p1364
sg846
V6-11
p1365
sg848
VMiles Plumlee
p1366
sg850
I1610612737
sg851
V18
p1367
sg853
g19
sg854
V00
p1368
sg856
g47
sg858
I203101
ssI2403
(dp1369
g525
VSao Carlos, Brazil
p1370
sg527
V250
p1371
sg529
V2017
p1372
sg531
F35.0
sg532
VSEP 13, 1982
p1373
sg534
V6-11
p1374
sg536
VNene
p1375
sg538
I1610612745
sg539
V42
p1376
sg540
V15
p1377
sg542
V00
p1378
sg544
VC-F
p1379
sg545
I2403
ssI203109
(dp1380
g643
VMarquette
p1381
sg645
V235
p1382
sg647
V2017
p1383
sg649
F27.0
sg650
VJUL 06, 1990
p1384
sg652
V6-6
p1385
sg654
VJae Crowder
p1386
sg656
I1610612739
sg657
V99
p1387
sg659
g19
sg660
V00
p1388
sg662
g111
sg663
I203109
ssI203110
(dp1389
g395
VMichigan State
p1390
sg397
V230
p1391
sg399
V2017
p1392
sg401
F27.0
sg402
VMAR 04, 1990
p1393
sg404
V6-7
p1394
sg406
VDraymond Green
p1395
sg408
I1610612744
sg409
V23
p1396
sg410
g19
sg411
V00
p1397
sg413
g111
sg414
I203110
ssI203112
(dp1398
g210
VBaylor
p1399
sg212
V240
p1400
sg214
V2017
p1401
sg216
F27.0
sg217
VOCT 06, 1990
p1402
sg219
V6-7
p1403
sg221
VQuincy Acy
p1404
sg223
I1610612751
sg224
V13
p1405
sg225
g19
sg226
V00
p1406
sg228
g111
sg229
I203112
ssI203114
(dp1407
g304
VTexas A&M
p1408
sg306
V234
p1409
sg308
V2017
p1410
sg310
F26.0
sg311
VAUG 12, 1991
p1411
sg313
V6-8
p1412
sg315
VKhris Middleton
p1413
sg317
I1610612749
sg318
V22
p1414
sg320
g19
sg321
V00
p1415
sg323
g111
sg324
I203114
ssI203115
(dp1416
g50
VMemphis
p1417
sg51
V190
p1418
sg53
V2017
p1419
sg55
F26.0
sg56
VJAN 06, 1991
p1420
sg58
V6-6
p1421
sg60
VWill Barton
p1422
sg62
I1610612743
sg63
g19
sg65
g19
sg66
V00
p1423
sg68
VG-F
p1424
sg70
I203115
ssI200765
(dp1425
g999
VKentucky
p1426
sg1001
V186
p1427
sg1003
V2017
p1428
sg1005
F31.0
sg1006
VFEB 22, 1986
p1429
sg1008
V6-1
p1430
sg1010
VRajon Rondo
p1431
sg1012
I1610612740
sg1013
g758
sg1015
V11
p1432
sg1016
V00
p1433
sg1018
g69
sg1019
I200765
ssI203121
(dp1434
g999
VKentucky
p1435
sg1001
V225
p1436
sg1003
V2017
p1437
sg1005
F27.0
sg1006
VMAR 21, 1990
p1438
sg1008
V6-8
p1439
sg1010
VDarius Miller
p1440
sg1012
I1610612740
sg1013
V21
p1441
sg1015
g109
sg1016
V00
p1442
sg1018
g111
sg1019
I203121
ssI203124
(dp1443
g547
VNorfolk State
p1444
sg549
V250
p1445
sg551
V2017
p1446
sg553
F27.0
sg554
VMAR 26, 1990
p1447
sg556
V6-10
p1448
sg558
VKyle O'Quinn
p1449
sg560
I1610612752
sg561
g758
sg563
g19
sg564
V00
p1450
sg566
VC-F
p1451
sg567
I203124
ssI203141
(dp1452
g304
VBosnia
p1453
sg306
V242
p1454
sg308
V2017
p1455
sg310
F32.0
sg311
VSEP 17, 1985
p1456
sg313
V6-9
p1457
sg315
VMirza Teletovic
p1458
sg317
I1610612749
sg318
V35
p1459
sg320
g19
sg321
V00
p1460
sg323
g111
sg324
I203141
ssI203145
(dp1461
g837
VOld Dominion
p1462
sg839
V201
p1463
sg841
V2017
p1464
sg843
F28.0
sg844
VJUL 01, 1989
p1465
sg846
V6-5
p1466
sg848
VKent Bazemore
p1467
sg850
I1610612737
sg851
V24
p1468
sg853
g19
sg854
V00
p1469
sg856
g69
sg858
I203145
ssI203186
(dp1470
g113
VSaint Louis
p1471
sg115
V245
p1472
sg117
V2017
p1473
sg119
F27.0
sg120
VMAY 16, 1990
p1474
sg122
V6-11
p1475
sg124
VWillie Reed
p1476
sg126
I1610612746
sg127
V35
p1477
sg128
g43
sg129
V00
p1478
sg131
g47
sg133
I203186
ssI201142
(dp1479
g395
VTexas
p1480
sg397
V240
p1481
sg399
V2017
p1482
sg401
F29.0
sg402
VSEP 29, 1988
p1483
sg404
V6-9
p1484
sg406
VKevin Durant
p1485
sg408
I1610612744
sg409
V35
p1486
sg410
V10
p1487
sg411
V00
p1488
sg413
g111
sg414
I201142
ssI201143
(dp1489
g476
VFlorida
p1490
sg478
V245
p1491
sg480
V2017
p1492
sg482
F31.0
sg483
VJUN 03, 1986
p1493
sg485
V6-10
p1494
sg487
VAl Horford
p1495
sg489
I1610612738
sg490
V42
p1496
sg492
V10
p1497
sg493
V00
p1498
sg495
VF-C
p1499
sg496
I201143
ssI201144
(dp1500
g135
VOhio State
p1501
sg137
V175
p1502
sg139
V2017
p1503
sg141
F30.0
sg142
VOCT 11, 1987
p1504
sg144
V6-1
p1505
sg146
VMike Conley
p1506
sg148
I1610612763
sg149
V11
p1507
sg150
V10
p1508
sg151
V00
p1509
sg153
g69
sg154
I201144
ssI201145
(dp1510
g643
VGeorgetown
p1511
sg645
V235
p1512
sg647
V2017
p1513
sg649
F31.0
sg650
VAUG 28, 1986
p1514
sg652
V6-9
p1515
sg654
VJeff Green
p1516
sg656
I1610612739
sg657
V32
p1517
sg659
g758
sg660
V00
p1518
sg662
g111
sg663
I201145
ssI201147
(dp1519
g595
VFlorida
p1520
sg597
V186
p1521
sg599
V2017
p1522
sg601
F31.0
sg602
VMAR 05, 1986
p1523
sg604
V6-9
p1524
sg606
VCorey Brewer
p1525
sg608
I1610612747
sg609
g109
sg610
V10
p1526
sg611
V00
p1527
sg613
g111
sg614
I201147
ssI201148
(dp1528
g135
VNorth Carolina
p1529
sg137
V235
p1530
sg139
V2017
p1531
sg141
F30.0
sg142
VOCT 05, 1987
p1532
sg144
V6-10
p1533
sg146
VBrandan Wright
p1534
sg148
I1610612763
sg149
V34
p1535
sg150
g758
sg151
V00
p1536
sg153
VF-C
p1537
sg154
I201148
ssI201149
(dp1538
g547
VFlorida
p1539
sg549
V230
p1540
sg551
V2017
p1541
sg553
F32.0
sg554
VFEB 25, 1985
p1542
sg556
V6-11
p1543
sg558
VJoakim Noah
p1544
sg560
I1610612752
sg561
V13
p1545
sg563
V10
p1546
sg564
V00
p1547
sg566
g47
sg567
I201149
ssI203200
(dp1548
g349
VWashington
p1549
sg351
V185
p1550
sg353
V2017
p1551
sg355
F28.0
sg356
VAPR 05, 1989
p1552
sg358
V6-6
p1553
sg360
VJustin Holiday
p1554
sg362
I1610612741
sg363
g207
sg365
g522
sg366
V00
p1555
sg368
g69
sg369
I203200
ssI201156
(dp1556
g395
VSouthern California
p1557
sg397
V210
p1558
sg399
V2017
p1559
sg401
F32.0
sg402
VJUN 01, 1985
p1560
sg404
V6-7
p1561
sg406
VNick Young
p1562
sg408
I1610612744
sg409
g541
sg410
V10
p1563
sg411
V00
p1564
sg413
VG-F
p1565
sg414
I201156
ssI201158
(dp1566
g837
VBologna, Italy
p1567
sg839
V210
p1568
sg841
V2017
p1569
sg843
F31.0
sg844
VMAR 25, 1986
p1570
sg846
V6-5
p1571
sg848
VMarco Belinelli
p1572
sg850
I1610612737
sg851
g109
sg853
V10
p1573
sg854
V00
p1574
sg856
VG-F
p1575
sg858
I201158
ssI203210
(dp1576
g135
VAlabama
p1577
sg137
V227
p1578
sg139
V2017
p1579
sg141
F27.0
sg142
VJUN 21, 1990
p1580
sg144
V6-9
p1581
sg146
VJaMychal Green
p1582
sg148
I1610612763
sg149
g64
sg150
g109
sg151
V00
p1583
sg153
g111
sg154
I203210
ssI201163
(dp1584
g50
VDePaul
p1585
sg51
V225
p1586
sg53
V2017
p1587
sg55
F30.0
sg56
VMAY 10, 1987
p1588
sg58
V6-9
p1589
sg60
VWilson Chandler
p1590
sg62
I1610612743
sg63
V21
p1591
sg65
g758
sg66
V00
p1592
sg68
g111
sg70
I201163
ssI201166
(dp1593
g72
VOregon
p1594
sg74
V161
p1595
sg76
V2017
p1596
sg78
F32.0
sg79
VJAN 14, 1985
p1597
sg81
V6-0
p1598
sg83
VAaron Brooks
p1599
sg85
I1610612750
sg86
V30
p1600
sg88
g758
sg89
V00
p1601
sg91
g69
sg92
I201166
ssI201167
(dp1602
g2
VUCLA
p1603
sg4
V210
p1604
sg6
V2017
p1605
sg8
F32.0
sg9
VOCT 15, 1985
p1606
sg11
V6-5
p1607
sg13
VArron Afflalo
p1608
sg15
I1610612753
sg16
g522
sg18
V10
p1609
sg20
V00
p1610
sg22
g69
sg24
I201167
ssI101112
(dp1611
g643
VArizona
p1612
sg645
V255
p1613
sg647
V2017
p1614
sg649
F34.0
sg650
VMAY 17, 1983
p1615
sg652
V6-11
p1616
sg654
VChanning Frye
p1617
sg656
I1610612739
sg657
g41
sg659
V11
p1618
sg660
V00
p1619
sg662
g111
sg663
I101112
ssI201177
(dp1620
g665
VDuke
p1621
sg667
V240
p1622
sg669
V2017
p1623
sg671
F30.0
sg672
VFEB 28, 1987
p1624
sg674
V6-10
p1625
sg676
VJosh McRoberts
p1626
sg678
I1610612742
sg679
V13
p1627
sg680
V10
p1628
sg682
V00
p1629
sg684
VF-C
p1630
sg685
I201177
ssI201188
(dp1631
g135
VBarcelona, Spain
p1632
sg137
V255
p1633
sg139
V2017
p1634
sg141
F32.0
sg142
VJAN 29, 1985
p1635
sg144
V7-1
p1636
sg146
VMarc Gasol
p1637
sg148
I1610612763
sg149
V33
p1638
sg150
g758
sg151
V00
p1639
sg153
g47
sg154
I201188
ssI201196
(dp1640
g547
VNevada
p1641
sg549
V190
p1642
sg551
V2017
p1643
sg553
F31.0
sg554
VAPR 11, 1986
p1644
sg556
V6-3
p1645
sg558
VRamon Sessions
p1646
sg560
I1610612752
sg561
g87
sg563
V10
p1647
sg564
V00
p1648
sg566
g69
sg567
I201196
ssI2544
(dp1649
g643
VSt. Vincent-St. Mary HS (OH)
p1650
sg645
V250
p1651
sg647
V2017
p1652
sg649
F32.0
sg650
VDEC 30, 1984
p1653
sg652
V6-8
p1654
sg654
VLeBron James
p1655
sg656
I1610612739
sg657
V23
p1656
sg659
V14
p1657
sg660
V00
p1658
sg662
VF-G
p1659
sg663
I2544
ssI2546
(dp1660
g444
VSyracuse
p1661
sg446
V240
p1662
sg448
V2017
p1663
sg450
F33.0
sg451
VMAY 29, 1984
p1664
sg453
V6-8
p1665
sg455
VCarmelo Anthony
p1666
sg457
I1610612760
sg458
g207
sg460
V14
p1667
sg462
V00
p1668
sg464
g111
sg465
I2546
ssI2548
(dp1669
g643
VMarquette
p1670
sg645
V220
p1671
sg647
V2017
p1672
sg649
F35.0
sg650
VJAN 17, 1982
p1673
sg652
V6-4
p1674
sg654
VDwyane Wade
p1675
sg656
I1610612739
sg657
g758
sg659
V14
p1676
sg660
V00
p1677
sg662
g69
sg663
I2548
ssI2555
(dp1678
g444
VKansas
p1679
sg446
V255
p1680
sg448
V2017
p1681
sg450
F37.0
sg451
VOCT 26, 1980
p1682
sg453
V6-10
p1683
sg455
VNick Collison
p1684
sg457
I1610612760
sg458
g522
sg460
V13
p1685
sg462
V00
p1686
sg464
g111
sg465
I2555
ssI2561
(dp1687
g395
VXavier
p1688
sg397
V250
p1689
sg399
V2017
p1690
sg401
F37.0
sg402
VAUG 29, 1980
p1691
sg404
V6-9
p1692
sg406
VDavid West
p1693
sg408
I1610612744
sg409
g109
sg410
V14
p1694
sg411
V00
p1695
sg413
g111
sg414
I2561
ssI1626643
(dp1696
g26
VKansas State
p1697
sg28
V200
p1698
sg30
V2017
p1699
sg32
F28.0
sg33
VNOV 10, 1989
p1700
sg35
V6-1
p1701
sg37
VJacob Pullen
p1702
sg39
I1610612755
sg40
V00
p1703
sg42
g461
sg44
V00
p1704
sg46
g69
sg48
I1626643
ssI2585
(dp1705
g395
VTbilisi, Georgia
p1706
sg397
V270
p1707
sg399
V2017
p1708
sg401
F33.0
sg402
VFEB 10, 1984
p1709
sg404
V6-11
p1710
sg406
VZaza Pachulia
p1711
sg408
I1610612744
sg409
V27
p1712
sg410
V14
p1713
sg411
V00
p1714
sg413
g47
sg414
I2585
ssI2594
(dp1715
g643
VCreighton
p1716
sg645
V212
p1717
sg647
V2017
p1718
sg649
F36.0
sg650
VMAR 17, 1981
p1719
sg652
V6-7
p1720
sg654
VKyle Korver
p1721
sg656
I1610612739
sg657
V26
p1722
sg659
V14
p1723
sg660
V00
p1724
sg662
g69
sg663
I2594
ssI2617
(dp1725
g250
VFlorida
p1726
sg252
V235
p1727
sg254
V2017
p1728
sg256
F37.0
sg257
VJUN 09, 1980
p1729
sg259
V6-8
p1730
sg261
VUdonis Haslem
p1731
sg263
I1610612748
sg264
V40
p1732
sg266
V14
p1733
sg267
V00
p1734
sg269
g111
sg270
I2617
ssI203382
(dp1735
g476
VWashington State
p1736
sg478
V260
p1737
sg480
V2017
p1738
sg482
F30.0
sg483
VDEC 09, 1986
p1739
sg485
V6-10
p1740
sg487
VAron Baynes
p1741
sg489
I1610612738
sg490
V46
p1742
sg492
g19
sg493
V00
p1743
sg495
g47
sg496
I203382
ssI2733
(dp1744
g395
VPeoria Central HS (IL)
p1745
sg397
V192
p1746
sg399
V2017
p1747
sg401
F32.0
sg402
VSEP 11, 1985
p1748
sg404
V6-7
p1749
sg406
VShaun Livingston
p1750
sg408
I1610612744
sg409
V34
p1751
sg410
V12
p1752
sg411
V00
p1753
sg413
g69
sg414
I2733
ssI2734
(dp1754
g665
VWisconsin
p1755
sg667
V185
p1756
sg669
V2017
p1757
sg671
F34.0
sg672
VFEB 27, 1983
p1758
sg674
V6-3
p1759
sg676
VDevin Harris
p1760
sg678
I1610612742
sg679
V34
p1761
sg680
V13
p1762
sg682
V00
p1763
sg684
g69
sg685
I2734
ssI2736
(dp1764
g595
VDuke
p1765
sg597
V220
p1766
sg599
V2017
p1767
sg601
F32.0
sg602
VAPR 16, 1985
p1768
sg604
V6-9
p1769
sg606
VLuol Deng
p1770
sg608
I1610612747
sg609
g758
sg610
V13
p1771
sg611
V00
p1772
sg613
g111
sg614
I2736
ssI2738
(dp1773
g395
VArizona
p1774
sg397
V215
p1775
sg399
V2017
p1776
sg401
F33.0
sg402
VJAN 28, 1984
p1777
sg404
V6-6
p1778
sg406
VAndre Iguodala
p1779
sg408
I1610612744
sg409
g758
sg410
V13
p1780
sg411
V00
p1781
sg413
VG-F
p1782
sg414
I2738
ssI2747
(dp1783
g643
VSt. Benedict's Prep (NJ)
p1784
sg645
V225
p1785
sg647
V2017
p1786
sg649
F32.0
sg650
VSEP 09, 1985
p1787
sg652
V6-6
p1788
sg654
VJR Smith
p1789
sg656
I1610612739
sg657
g19
sg659
V13
p1790
sg660
V00
p1791
sg662
VG-F
p1792
sg663
I2747
ssI2749
(dp1793
g999
VSaint Joseph's
p1794
sg1001
V190
p1795
sg1003
V2017
p1796
sg1005
F35.0
sg1006
VFEB 09, 1982
p1797
sg1008
V6-0
p1798
sg1010
VJameer Nelson
p1799
sg1012
I1610612740
sg1013
V14
p1800
sg1015
V13
p1801
sg1016
V00
p1802
sg1018
g69
sg1019
I2749
ssI203457
(dp1803
g665
VKentucky
p1804
sg667
V220
p1805
sg669
V2017
p1806
sg671
F23.0
sg672
VAPR 10, 1994
p1807
sg674
V6-11
p1808
sg676
VNerlens Noel
p1809
sg678
I1610612742
sg679
g109
sg680
g109
sg682
V00
p1810
sg684
g47
sg685
I203457
ssI2754
(dp1811
g999
VOklahoma State
p1812
sg1001
V213
p1813
sg1003
V2017
p1814
sg1005
F35.0
sg1006
VJAN 11, 1982
p1815
sg1008
V6-4
p1816
sg1010
VTony Allen
p1817
sg1012
I1610612740
sg1013
V24
p1818
sg1015
V13
p1819
sg1016
V00
p1820
sg1018
VG-F
p1821
sg1019
I2754
ssI203459
(dp1822
g210
VCalifornia
p1823
sg212
V215
p1824
sg214
V2017
p1825
sg216
F25.0
sg217
VAPR 09, 1992
p1826
sg219
V6-6
p1827
sg221
VAllen Crabbe
p1828
sg223
I1610612751
sg224
V33
p1829
sg225
g522
sg226
V00
p1830
sg228
VG-F
p1831
sg229
I203459
ssI203460
(dp1832
g444
VColorado
p1833
sg446
V210
p1834
sg448
V2017
p1835
sg450
F25.0
sg451
VDEC 04, 1991
p1836
sg453
V6-7
p1837
sg455
VAndre Roberson
p1838
sg457
I1610612760
sg458
V21
p1839
sg460
g522
sg462
V00
p1840
sg464
g69
sg465
I203460
ssI203463
(dp1841
g135
VKansas
p1842
sg137
V195
p1843
sg139
V2017
p1844
sg141
F24.0
sg142
VFEB 11, 1993
p1845
sg144
V6-5
p1846
sg146
VBen McLemore
p1847
sg148
I1610612763
sg149
V23
p1848
sg150
g522
sg151
V00
p1849
sg153
g69
sg154
I203463
ssI203464
(dp1850
g178
Nsg180
V200
p1851
sg182
V2017
p1852
sg184
F26.0
sg185
VAPR 30, 1991
p1853
sg187
V6-4
p1854
sg189
VBrandon Paul
p1855
sg191
I1610612759
sg192
g109
sg194
g461
sg196
V00
p1856
sg198
g69
sg199
I203464
ssI203471
(dp1857
g837
VGermany
p1858
sg839
V172
p1859
sg841
V2017
p1860
sg843
F24.0
sg844
VSEP 15, 1993
p1861
sg846
V6-1
p1862
sg848
VDennis Schroder
p1863
sg850
I1610612737
sg851
V17
p1864
sg853
g522
sg854
V00
p1865
sg856
g69
sg858
I203471
ssI203473
(dp1866
g837
VSouthern California
p1867
sg839
V245
p1868
sg841
V2017
p1869
sg843
F28.0
sg844
VAUG 12, 1989
p1870
sg846
V7-0
p1871
sg848
VDewayne Dedmon
p1872
sg850
I1610612737
sg851
V14
p1873
sg853
g522
sg854
V00
p1874
sg856
g47
sg858
I203473
ssI2772
(dp1875
g525
VUCLA
p1876
sg527
V215
p1877
sg529
V2017
p1878
sg531
F32.0
sg532
VJUN 30, 1985
p1879
sg534
V6-8
p1880
sg536
VTrevor Ariza
p1881
sg538
I1610612745
sg539
g87
sg540
V13
p1882
sg542
V00
p1883
sg544
VF-G
p1884
sg545
I2772
ssI203481
(dp1885
g665
VKansas
p1886
sg667
V230
p1887
sg669
V2017
p1888
sg671
F27.0
sg672
VMAR 07, 1990
p1889
sg674
V7-0
p1890
sg676
VJeff Withey
p1891
sg678
I1610612742
sg679
V17
p1892
sg680
g522
sg682
V00
p1893
sg684
g47
sg685
I203481
ssI203482
(dp1894
g250
VGonzaga
p1895
sg252
V245
p1896
sg254
V2017
p1897
sg256
F26.0
sg257
VAPR 19, 1991
p1898
sg259
V7-0
p1899
sg261
VKelly Olynyk
p1900
sg263
I1610612748
sg264
g758
sg266
g522
sg267
V00
p1901
sg269
VC-F
p1902
sg270
I203482
ssI203484
(dp1903
g595
VGeorgia
p1904
sg597
V205
p1905
sg599
V2017
p1906
sg601
F24.0
sg602
VFEB 18, 1993
p1907
sg604
V6-5
p1908
sg606
VKentavious Caldwell-Pope
p1909
sg608
I1610612747
sg609
g87
sg610
g522
sg611
V00
p1910
sg613
g69
sg614
I203484
ssI203485
(dp1911
g156
VNorth Carolina State
p1912
sg158
V189
p1913
sg160
V2017
p1914
sg162
F27.0
sg163
VAUG 26, 1990
p1915
sg165
V6-5
p1916
sg167
VLorenzo Brown
p1917
sg169
I1610612761
sg170
g522
sg172
g109
sg173
V00
p1918
sg175
g69
sg176
I203485
ssI203486
(dp1919
g50
VDuke
p1920
sg51
V255
p1921
sg53
V2017
p1922
sg55
F27.0
sg56
VMAR 05, 1990
p1923
sg58
V6-11
p1924
sg60
VMason Plumlee
p1925
sg62
I1610612743
sg63
V24
p1926
sg65
g522
sg66
V00
p1927
sg68
VC-F
p1928
sg70
I203486
ssI203488
(dp1929
g837
VBucknell
p1930
sg839
V240
p1931
sg841
V2017
p1932
sg843
F26.0
sg844
VJUL 01, 1991
p1933
sg846
V6-11
p1934
sg848
VMike Muscala
p1935
sg850
I1610612737
sg851
V31
p1936
sg853
g522
sg854
V00
p1937
sg856
VF-C
p1938
sg858
I203488
ssI203489
(dp1939
g326
VSouth Dakota State
p1940
sg328
V190
p1941
sg330
V2017
p1942
sg332
F26.0
sg333
VMAY 15, 1991
p1943
sg335
V6-4
p1944
sg337
VNate Wolters
p1945
sg339
I1610612762
sg340
V16
p1946
sg342
g43
sg344
V00
p1947
sg346
g69
sg347
I203489
ssI203496
(dp1948
g26
VTennessee State
p1949
sg28
V225
p1950
sg30
V2017
p1951
sg32
F26.0
sg33
VDEC 14, 1990
p1952
sg35
V6-9
p1953
sg37
VRobert Covington
p1954
sg39
I1610612755
sg40
V33
p1955
sg42
g522
sg44
V00
p1956
sg46
g111
sg48
I203496
ssI203497
(dp1957
g326
VFrance
p1958
sg328
V245
p1959
sg330
V2017
p1960
sg332
F25.0
sg333
VJUN 26, 1992
p1961
sg335
V7-1
p1962
sg337
VRudy Gobert
p1963
sg339
I1610612762
sg340
V27
p1964
sg342
g522
sg344
V00
p1965
sg346
g47
sg347
I203497
ssI203498
(dp1966
g72
VUCLA
p1967
sg74
V221
p1968
sg76
V2017
p1969
sg78
F24.0
sg79
VNOV 13, 1992
p1970
sg81
V6-6
p1971
sg83
VShabazz Muhammad
p1972
sg85
I1610612750
sg86
V15
p1973
sg88
g522
sg89
V00
p1974
sg91
VG-F
p1975
sg92
I203498
ssI203499
(dp1976
g476
VMiami (FL)
p1977
sg478
V175
p1978
sg480
V2017
p1979
sg482
F25.0
sg483
VOCT 02, 1992
p1980
sg485
V5-11
p1981
sg487
VShane Larkin
p1982
sg489
I1610612738
sg490
g41
sg492
g109
sg493
V00
p1983
sg495
g69
sg496
I203499
ssI203500
(dp1984
g444
VPittsburgh
p1985
sg446
V255
p1986
sg448
V2017
p1987
sg450
F24.0
sg451
VJUL 20, 1993
p1988
sg453
V7-0
p1989
sg455
VSteven Adams
p1990
sg457
I1610612760
sg458
V12
p1991
sg460
g522
sg462
V00
p1992
sg464
g47
sg465
I203500
ssI203501
(dp1993
g547
VMichigan
p1994
sg549
V205
p1995
sg551
V2017
p1996
sg553
F25.0
sg554
VMAR 16, 1992
p1997
sg556
V6-6
p1998
sg558
VTim Hardaway Jr.
p1999
sg560
I1610612752
sg561
g109
sg563
g522
sg564
V00
p2000
sg566
VF-G
p2001
sg567
I203501
ssI203503
(dp2002
g304
VNew Mexico
p2003
sg306
V221
p2004
sg308
V2017
p2005
sg310
F26.0
sg311
VNOV 10, 1991
p2006
sg313
V6-7
p2007
sg315
VTony Snell
p2008
sg317
I1610612749
sg318
V21
p2009
sg320
g522
sg321
V00
p2010
sg323
g69
sg324
I203503
ssI203505
(dp2011
g595
VMarquette
p2012
sg597
V200
p2013
sg599
V2017
p2014
sg601
F25.0
sg602
VJUL 17, 1992
p2015
sg604
V6-5
p2016
sg606
VVander Blue
p2017
sg608
I1610612747
sg609
V17
p2018
sg610
g43
sg611
V00
p2019
sg613
g69
sg614
I203505
ssI101106
(dp2020
g595
VUtah
p2021
sg597
V260
p2022
sg599
V2017
p2023
sg601
F32.0
sg602
VNOV 28, 1984
p2024
sg604
V7-0
p2025
sg606
VAndrew Bogut
p2026
sg608
I1610612747
sg609
V66
p2027
sg610
V12
p2028
sg611
V00
p2029
sg613
g47
sg614
I101106
ssI203507
(dp2030
g304
VGreece
p2031
sg306
V222
p2032
sg308
V2017
p2033
sg310
F22.0
sg311
VDEC 06, 1994
p2034
sg313
V6-11
p2035
sg315
VGiannis Antetokounmpo
p2036
sg317
I1610612749
sg318
V34
p2037
sg320
g522
sg321
V00
p2038
sg323
g111
sg324
I203507
ssI101108
(dp2039
g525
VWake Forest
p2040
sg527
V175
p2041
sg529
V2017
p2042
sg531
F32.0
sg532
VMAY 06, 1985
p2043
sg534
V6-0
p2044
sg536
VChris Paul
p2045
sg538
I1610612745
sg539
g109
sg540
V12
p2046
sg542
V00
p2047
sg544
g69
sg545
I101108
ssI101109
(dp2048
g444
VNorth Carolina
p2049
sg446
V205
p2050
sg448
V2017
p2051
sg450
F33.0
sg451
VJUN 26, 1984
p2052
sg453
V6-1
p2053
sg455
VRaymond Felton
p2054
sg457
I1610612760
sg458
g43
sg460
V12
p2055
sg462
V00
p2056
sg464
g69
sg465
I101109
ssI203512
(dp2057
g156
Nsg158
V220
p2058
sg160
V2017
p2059
sg162
F25.0
sg163
VJUL 26, 1992
p2060
sg165
V7-0
p2061
sg167
VLucas Nogueira
p2062
sg169
I1610612761
sg170
V92
p2063
sg172
g109
sg173
V00
p2064
sg175
g47
sg176
I203512
ssI203516
(dp2065
g135
VLong Beach State
p2066
sg137
V210
p2067
sg139
V2017
p2068
sg141
F27.0
sg142
VJUL 01, 1990
p2069
sg144
V6-7
p2070
sg146
VJames Ennis III
p2071
sg148
I1610612763
sg149
g41
sg150
g109
sg151
V00
p2072
sg153
g111
sg154
I203516
ssI203518
(dp2073
g444
Nsg446
V190
p2074
sg448
V2017
p2075
sg450
F24.0
sg451
VAUG 01, 1993
p2076
sg453
V6-6
p2077
sg455
VAlex Abrines
p2078
sg457
I1610612760
sg458
g41
sg460
g87
sg462
V00
p2079
sg464
g69
sg465
I203518
ssI203521
(dp2080
g304
VSaint Mary's (CA)
p2081
sg306
V198
p2082
sg308
V2017
p2083
sg310
F27.0
sg311
VSEP 08, 1990
p2084
sg313
V6-4
p2085
sg315
VMatthew Dellavedova
p2086
sg317
I1610612749
sg318
g41
sg320
g522
sg321
V00
p2087
sg323
g69
sg324
I203521
ssI203524
(dp2088
g999
VArizona
p2089
sg1001
V225
p2090
sg1003
V2017
p2091
sg1005
F26.0
sg1006
VMAR 18, 1991
p2092
sg1008
V6-7
p2093
sg1010
VSolomon Hill
p2094
sg1012
I1610612740
sg1013
V44
p2095
sg1015
g522
sg1016
V00
p2096
sg1018
g111
sg1019
I203524
ssI203526
(dp2097
g326
Nsg328
V179
p2098
sg330
V2017
p2099
sg332
F25.0
sg333
VMAY 19, 1992
p2100
sg335
V6-1
p2101
sg337
VRaul Neto
p2102
sg339
I1610612762
sg340
V25
p2103
sg342
g43
sg344
V00
p2104
sg346
g69
sg347
I203526
ssI101127
(dp2105
g547
VGeorgia Tech
p2106
sg549
V200
p2107
sg551
V2017
p2108
sg553
F34.0
sg554
VOCT 28, 1983
p2109
sg556
V6-3
p2110
sg558
VJarrett Jack
p2111
sg560
I1610612752
sg561
V55
p2112
sg563
V12
p2113
sg564
V00
p2114
sg566
g69
sg567
I101127
ssI203530
(dp2115
g178
Nsg180
V260
p2116
sg182
V2017
p2117
sg184
F26.0
sg185
VSEP 30, 1991
p2118
sg187
V6-11
p2119
sg189
VJoffrey Lauvergne
p2120
sg191
I1610612759
sg192
V77
p2121
sg194
g109
sg196
V00
p2122
sg198
g47
sg199
I203530
ssI101139
(dp2123
g156
VSkyline HS (TX)
p2124
sg158
V225
p2125
sg160
V2017
p2126
sg162
F30.0
sg163
VMAR 18, 1987
p2127
sg165
V6-6
p2128
sg167
VCJ Miles
p2129
sg169
I1610612761
sg170
g64
sg172
V12
p2130
sg173
V00
p2131
sg175
VF-G
p2132
sg176
I101139
ssI101141
(dp2133
g837
VEskisehir, Turkey
p2134
sg839
V235
p2135
sg841
V2017
p2136
sg843
F30.0
sg844
VMAY 15, 1987
p2137
sg846
V6-10
p2138
sg848
VErsan Ilyasova
p2139
sg850
I1610612737
sg851
g207
sg853
g758
sg854
V00
p2140
sg856
g111
sg858
I101141
ssI203546
(dp2141
g999
VBelmont
p2142
sg1001
V175
p2143
sg1003
V2017
p2144
sg1005
F26.0
sg1006
VMAR 07, 1991
p2145
sg1008
V6-3
p2146
sg1010
VIan Clark
p2147
sg1012
I1610612740
sg1013
g43
sg1015
g522
sg1016
V00
p2148
sg1018
g69
sg1019
I203546
ssI203547
(dp2149
g326
VCampbell
p2150
sg328
V205
p2151
sg330
V2017
p2152
sg332
F27.0
sg333
VMAY 26, 1990
p2153
sg335
V6-8
p2154
sg337
VEric Griffin
p2155
sg339
I1610612762
sg340
V17
p2156
sg342
g461
sg344
V00
p2157
sg346
VC-F
p2158
sg347
I203547
ssI101150
(dp2159
g113
VSouth Gwinnett HS (GA)
p2160
sg115
V175
p2161
sg117
V2017
p2162
sg119
F31.0
sg120
VOCT 27, 1986
p2163
sg122
V6-1
p2164
sg124
VLou Williams
p2165
sg126
I1610612746
sg127
V23
p2166
sg128
V12
p2167
sg129
V00
p2168
sg131
g69
sg133
I101150
ssI203552
(dp2169
g665
VDuke
p2170
sg667
V185
p2171
sg669
V2017
p2172
sg671
F27.0
sg672
VAUG 23, 1990
p2173
sg674
V6-2
p2174
sg676
VSeth Curry
p2175
sg678
I1610612742
sg679
V30
p2176
sg680
g522
sg682
V00
p2177
sg684
g69
sg685
I203552
ssI101161
(dp2178
g26
VWestchester HS (Los Angeles)
p2179
sg28
V240
p2180
sg30
V2017
p2181
sg32
F30.0
sg33
VMAY 01, 1987
p2182
sg35
V6-9
p2183
sg37
VAmir Johnson
p2184
sg39
I1610612755
sg40
g19
sg42
V12
p2185
sg44
V00
p2186
sg46
VF-C
p2187
sg48
I101161
ssI101181
(dp2188
g643
VVillanueva de la Serena, Spain
p2189
sg645
V200
p2190
sg647
V2017
p2191
sg649
F36.0
sg650
VSEP 28, 1981
p2192
sg652
V6-3
p2193
sg654
VJose Calderon
p2194
sg656
I1610612739
sg657
V81
p2195
sg659
V12
p2196
sg660
V00
p2197
sg662
g69
sg663
I101181
ssI203585
(dp2198
g250
VKansas State
p2199
sg252
V200
p2200
sg254
V2017
p2201
sg256
F26.0
sg257
VJUL 29, 1991
p2202
sg259
V6-4
p2203
sg261
VRodney McGruder
p2204
sg263
I1610612748
sg264
V17
p2205
sg266
g87
sg267
V00
p2206
sg269
VG-F
p2207
sg270
I203585
ssI201563
(dp2208
g547
VKansas State
p2209
sg549
V235
p2210
sg551
V2017
p2211
sg553
F28.0
sg554
VJAN 09, 1989
p2212
sg556
V6-9
p2213
sg558
VMichael Beasley
p2214
sg560
I1610612752
sg561
g41
sg563
g758
sg564
V00
p2215
sg566
g111
sg567
I201563
ssI201565
(dp2216
g643
VMemphis
p2217
sg645
V190
p2218
sg647
V2017
p2219
sg649
F29.0
sg650
VOCT 04, 1988
p2220
sg652
V6-3
p2221
sg654
VDerrick Rose
p2222
sg656
I1610612739
sg657
g87
sg659
g41
sg660
V00
p2223
sg662
g69
sg663
I201565
ssI201566
(dp2224
g444
VUCLA
p2225
sg446
V200
p2226
sg448
V2017
p2227
sg450
F28.0
sg451
VNOV 12, 1988
p2228
sg453
V6-3
p2229
sg455
VRussell Westbrook
p2230
sg457
I1610612760
sg458
g64
sg460
g758
sg462
V00
p2231
sg464
g69
sg465
I201566
ssI201567
(dp2232
g643
VUCLA
p2233
sg645
V251
p2234
sg647
V2017
p2235
sg649
F29.0
sg650
VSEP 07, 1988
p2236
sg652
V6-10
p2237
sg654
VKevin Love
p2238
sg656
I1610612739
sg657
g64
sg659
g758
sg660
V00
p2239
sg662
VF-C
p2240
sg663
I201567
ssI201568
(dp2241
g113
VSant'Angelo Lodigiano, Italy
p2242
sg115
V225
p2243
sg117
V2017
p2244
sg119
F29.0
sg120
VAUG 08, 1988
p2245
sg122
V6-10
p2246
sg124
VDanilo Gallinari
p2247
sg126
I1610612746
sg127
g41
sg128
g41
sg129
V00
p2248
sg131
g111
sg133
I201568
ssI201569
(dp2249
g525
VIndiana
p2250
sg527
V215
p2251
sg529
V2017
p2252
sg531
F28.0
sg532
VDEC 25, 1988
p2253
sg534
V6-4
p2254
sg536
VEric Gordon
p2255
sg538
I1610612745
sg539
V10
p2256
sg540
g758
sg542
V00
p2257
sg544
g69
sg545
I201569
ssI201571
(dp2258
g2
VTexas
p2259
sg4
V183
p2260
sg6
V2017
p2261
sg8
F30.0
sg9
VNOV 10, 1987
p2262
sg11
V6-0
p2263
sg13
VD.J. Augustin
p2264
sg15
I1610612753
sg16
V14
p2265
sg18
g758
sg20
V00
p2266
sg22
g69
sg24
I201571
ssI201572
(dp2267
g595
VStanford
p2268
sg597
V268
p2269
sg599
V2017
p2270
sg601
F29.0
sg602
VAPR 01, 1988
p2271
sg604
V7-0
p2272
sg606
VBrook Lopez
p2273
sg608
I1610612747
sg609
V11
p2274
sg610
g758
sg611
V00
p2275
sg613
g47
sg614
I201572
ssI201573
(dp2276
g26
VArizona
p2277
sg28
V200
p2278
sg30
V2017
p2279
sg32
F29.0
sg33
VAUG 20, 1988
p2280
sg35
V6-3
p2281
sg37
VJerryd Bayless
p2282
sg39
I1610612755
sg40
g64
sg42
g758
sg44
V00
p2283
sg46
g69
sg48
I201573
ssI201577
(dp2284
g349
VStanford
p2285
sg351
V277
p2286
sg353
V2017
p2287
sg355
F29.0
sg356
VAPR 01, 1988
p2288
sg358
V7-0
p2289
sg360
VRobin Lopez
p2290
sg362
I1610612741
sg363
V42
p2291
sg365
g758
sg366
V00
p2292
sg368
g47
sg369
I201577
ssI201578
(dp2293
g2
VFlorida
p2294
sg4
V255
p2295
sg6
V2017
p2296
sg8
F30.0
sg9
VAUG 04, 1987
p2297
sg11
V6-10
p2298
sg13
VMarreese Speights
p2299
sg15
I1610612753
sg16
g19
sg18
g758
sg20
V00
p2300
sg22
VF-C
p2301
sg24
I201578
ssI201580
(dp2302
g395
VNevada
p2303
sg397
V270
p2304
sg399
V2017
p2305
sg401
F29.0
sg402
VJAN 19, 1988
p2306
sg404
V7-0
p2307
sg406
VJaVale McGee
p2308
sg408
I1610612744
sg409
g87
sg410
g758
sg411
V00
p2309
sg413
g47
sg414
I201580
ssI201582
(dp2310
g999
VSaint Etienne, France
p2311
sg1001
V248
p2312
sg1003
V2017
p2313
sg1005
F29.0
sg1006
VMAY 06, 1988
p2314
sg1008
V7-2
p2315
sg1010
VAlexis Ajinca
p2316
sg1012
I1610612740
sg1013
V42
p2317
sg1015
g207
sg1016
V00
p2318
sg1018
g47
sg1019
I201582
ssI201583
(dp2319
g525
VCalifornia
p2320
sg527
V240
p2321
sg529
V2017
p2322
sg531
F29.0
sg532
VMAY 06, 1988
p2323
sg534
V6-10
p2324
sg536
VRyan Anderson
p2325
sg538
I1610612745
sg539
V33
p2326
sg540
g758
sg542
V00
p2327
sg544
g111
sg545
I201583
ssI201584
(dp2328
g547
VWestern Kentucky
p2329
sg549
V200
p2330
sg551
V2017
p2331
sg553
F32.0
sg554
VOCT 03, 1985
p2332
sg556
V6-5
p2333
sg558
VCourtney Lee
p2334
sg560
I1610612752
sg561
g19
sg563
g758
sg564
V00
p2335
sg566
g69
sg567
I201584
ssI201585
(dp2336
g282
VOhio State
p2337
sg284
V265
p2338
sg286
V2017
p2339
sg288
F28.0
sg289
VFEB 24, 1989
p2340
sg291
V7-0
p2341
sg293
VKosta Koufos
p2342
sg295
I1610612758
sg296
V41
p2343
sg298
g758
sg299
V00
p2344
sg301
g47
sg302
I201585
ssI201586
(dp2345
g156
VBrazzaville, Rep. of Congo
p2346
sg158
V235
p2347
sg160
V2017
p2348
sg162
F28.0
sg163
VSEP 18, 1989
p2349
sg165
V6-10
p2350
sg167
VSerge Ibaka
p2351
sg169
I1610612761
sg170
g758
sg172
g41
sg173
V00
p2352
sg175
g111
sg176
I201586
ssI201588
(dp2353
g282
VIndiana Purdue-Indianapolis
p2354
sg284
V188
p2355
sg286
V2017
p2356
sg288
F31.0
sg289
VMAY 04, 1986
p2357
sg291
V6-3
p2358
sg293
VGeorge Hill
p2359
sg295
I1610612758
sg296
g109
sg298
g758
sg299
V00
p2360
sg301
g69
sg302
I201588
ssI201589
(dp2361
g50
VKansas
p2362
sg51
V235
p2363
sg53
V2017
p2364
sg55
F29.0
sg56
VMAR 25, 1988
p2365
sg58
V6-9
p2366
sg60
VDarrell Arthur
p2367
sg62
I1610612743
sg63
V00
p2368
sg65
g41
sg66
V00
p2369
sg68
g111
sg70
I201589
ssI201596
(dp2370
g135
VKansas
p2371
sg137
V190
p2372
sg139
V2017
p2373
sg141
F31.0
sg142
VMAY 19, 1986
p2374
sg144
V6-2
p2375
sg146
VMario Chalmers
p2376
sg148
I1610612763
sg149
g541
sg150
g41
sg151
V00
p2377
sg153
g69
sg154
I201596
ssI201599
(dp2378
g113
VTexas A&M
p2379
sg115
V265
p2380
sg117
V2017
p2381
sg119
F29.0
sg120
VJUL 21, 1988
p2382
sg122
V6-11
p2383
sg124
VDeAndre Jordan
p2384
sg126
I1610612746
sg127
g541
sg128
g758
sg129
V00
p2385
sg131
g47
sg133
I201599
ssI201600
(dp2386
g999
VTurkey
p2387
sg1001
V255
p2388
sg1003
V2017
p2389
sg1005
F31.0
sg1006
VJUL 04, 1986
p2390
sg1008
V7-0
p2391
sg1010
VOmer Asik
p2392
sg1012
I1610612740
sg1013
g109
sg1015
g207
sg1016
V00
p2393
sg1018
g47
sg1019
I201600
ssI201601
(dp2394
g525
VUCLA
p2395
sg527
V230
p2396
sg529
V2017
p2397
sg531
F31.0
sg532
VSEP 09, 1986
p2398
sg534
V6-8
p2399
sg536
VLuc Mbah a Moute
p2400
sg538
I1610612745
sg539
V12
p2401
sg540
g758
sg542
V00
p2402
sg544
g111
sg545
I201601
ssI201609
(dp2403
g250
VLjubljana, Slovenia
p2404
sg252
V190
p2405
sg254
V2017
p2406
sg256
F31.0
sg257
VMAY 06, 1986
p2407
sg259
V6-3
p2408
sg261
VGoran Dragic
p2409
sg263
I1610612748
sg264
g207
sg266
g758
sg267
V00
p2410
sg269
g69
sg270
I201609
ssI201628
(dp2411
g525
VCal State-Fullerton
p2412
sg527
V175
p2413
sg529
V2017
p2414
sg531
F33.0
sg532
VSEP 24, 1984
p2415
sg534
V6-2
p2416
sg536
VBobby Brown
p2417
sg538
I1610612745
sg539
g541
sg540
g109
sg542
V00
p2418
sg544
g69
sg545
I201628
ssI203705
(dp2419
g837
VAlabama-Huntsville
p2420
sg839
V160
p2421
sg841
V2017
p2422
sg843
F27.0
sg844
VNOV 28, 1989
p2423
sg846
V6-1
p2424
sg848
VJosh Magette
p2425
sg850
I1610612737
sg851
V11
p2426
sg853
g461
sg854
V00
p2427
sg856
g69
sg858
I203705
ssI203710
(dp2428
g113
VNorth Carolina State
p2429
sg115
V230
p2430
sg117
V2017
p2431
sg119
F27.0
sg120
VFEB 06, 1990
p2432
sg122
V6-5
p2433
sg124
VC.J. Williams
p2434
sg126
I1610612746
sg127
g758
sg128
g461
sg129
V00
p2435
sg131
g69
sg133
I203710
ssI1627098
(dp2436
g837
VVirginia Tech
p2437
sg839
V190
p2438
sg841
V2017
p2439
sg843
F28.0
sg844
VMAR 11, 1989
p2440
sg846
V6-3
p2441
sg848
VMalcolm Delaney
p2442
sg850
I1610612737
sg851
g19
sg853
g87
sg854
V00
p2443
sg856
g69
sg858
I1627098
ssI203613
(dp2444
g2
VHouston
p2445
sg4
V195
p2446
sg6
V2017
p2447
sg8
F28.0
sg9
VSEP 14, 1989
p2448
sg11
V6-6
p2449
sg13
VJonathon Simmons
p2450
sg15
I1610612753
sg16
V17
p2451
sg18
g43
sg20
V00
p2452
sg22
g111
sg24
I203613
ssI203897
(dp2453
g349
VUCLA
p2454
sg351
V185
p2455
sg353
V2017
p2456
sg355
F22.0
sg356
VMAR 10, 1995
p2457
sg358
V6-5
p2458
sg360
VZach LaVine
p2459
sg362
I1610612741
sg363
g41
sg365
g109
sg366
V00
p2460
sg368
g69
sg369
I203897
ssI203898
(dp2461
g595
VSyracuse
p2462
sg597
V194
p2463
sg599
V2017
p2464
sg601
F23.0
sg602
VAUG 24, 1994
p2465
sg604
V6-3
p2466
sg606
VTyler Ennis
p2467
sg608
I1610612747
sg609
V10
p2468
sg610
g109
sg611
V00
p2469
sg613
g69
sg614
I203898
ssI203901
(dp2470
g2
VLouisiana-Lafayette
p2471
sg4
V185
p2472
sg6
V2017
p2473
sg8
F23.0
sg9
VFEB 22, 1994
p2474
sg11
V6-4
p2475
sg13
VElfrid Payton
p2476
sg15
I1610612753
sg16
g43
sg18
g109
sg20
V00
p2477
sg22
g69
sg24
I203901
ssI203903
(dp2478
g595
VMissouri
p2479
sg597
V194
p2480
sg599
V2017
p2481
sg601
F25.0
sg602
VJUN 07, 1992
p2482
sg604
V6-5
p2483
sg606
VJordan Clarkson
p2484
sg608
I1610612747
sg609
g541
sg610
g109
sg611
V00
p2485
sg613
g69
sg614
I203903
ssI203914
(dp2486
g50
VMichigan State
p2487
sg51
V210
p2488
sg53
V2017
p2489
sg55
F23.0
sg56
VSEP 14, 1994
p2490
sg58
V6-4
p2491
sg60
VGary Harris
p2492
sg62
I1610612743
sg63
V14
p2493
sg65
g109
sg66
V00
p2494
sg68
g69
sg70
I203914
ssI203915
(dp2495
g210
VColorado
p2496
sg212
V200
p2497
sg214
V2017
p2498
sg216
F24.0
sg217
VAPR 06, 1993
p2499
sg219
V6-6
p2500
sg221
VSpencer Dinwiddie
p2501
sg223
I1610612751
sg224
g41
sg225
g109
sg226
V00
p2502
sg228
g69
sg229
I203915
ssI203917
(dp2503
g26
VMichigan
p2504
sg28
V205
p2505
sg30
V2017
p2506
sg32
F24.0
sg33
VOCT 07, 1993
p2507
sg35
V6-6
p2508
sg37
VNik Stauskas
p2509
sg39
I1610612755
sg40
V11
p2510
sg42
g109
sg44
V00
p2511
sg46
g69
sg48
I203917
ssI203918
(dp2512
g326
VDuke
p2513
sg328
V206
p2514
sg330
V2017
p2515
sg332
F25.0
sg333
VOCT 20, 1992
p2516
sg335
V6-8
p2517
sg337
VRodney Hood
p2518
sg339
I1610612762
sg340
g19
sg342
g109
sg344
V00
p2519
sg346
g69
sg347
I203918
ssI203920
(dp2520
g2
VNevada-Las Vegas
p2521
sg4
V220
p2522
sg6
V2017
p2523
sg8
F25.0
sg9
VSEP 28, 1992
p2524
sg11
V6-9
p2525
sg13
VKhem Birch
p2526
sg15
I1610612753
sg16
V24
p2527
sg18
g461
sg20
V00
p2528
sg22
g47
sg24
I203920
ssI203924
(dp2529
g444
VSyracuse
p2530
sg446
V220
p2531
sg448
V2017
p2532
sg450
F23.0
sg451
VMAR 12, 1994
p2533
sg453
V6-9
p2534
sg455
VJerami Grant
p2535
sg457
I1610612760
sg458
g758
sg460
g109
sg462
V00
p2536
sg464
g111
sg465
I203924
ssI203925
(dp2537
g210
VVirginia
p2538
sg212
V219
p2539
sg214
V2017
p2540
sg216
F26.0
sg217
VSEP 06, 1991
p2541
sg219
V6-6
p2542
sg221
VJoe Harris
p2543
sg223
I1610612751
sg224
V12
p2544
sg225
g109
sg226
V00
p2545
sg228
g69
sg229
I203925
ssI203926
(dp2546
g547
VCreighton
p2547
sg549
V219
p2548
sg551
V2017
p2549
sg553
F25.0
sg554
VJAN 03, 1992
p2550
sg556
V6-8
p2551
sg558
VDoug McDermott
p2552
sg560
I1610612752
sg561
V20
p2553
sg563
g109
sg564
V00
p2554
sg566
g111
sg567
I203926
ssI203930
(dp2555
g210
VCincinnati
p2556
sg212
V212
p2557
sg214
V2017
p2558
sg216
F27.0
sg217
VJAN 06, 1990
p2559
sg219
V6-4
p2560
sg221
VSean Kilpatrick
p2561
sg223
I1610612751
sg224
g541
sg225
g109
sg226
V00
p2562
sg228
g69
sg229
I203930
ssI203932
(dp2563
g2
VArizona
p2564
sg4
V220
p2565
sg6
V2017
p2566
sg8
F22.0
sg9
VSEP 16, 1995
p2567
sg11
V6-9
p2568
sg13
VAaron Gordon
p2569
sg15
I1610612753
sg16
V00
p2570
sg18
g109
sg20
V00
p2571
sg22
g111
sg24
I203932
ssI203935
(dp2572
g476
VOklahoma State
p2573
sg478
V220
p2574
sg480
V2017
p2575
sg482
F23.0
sg483
VMAR 06, 1994
p2576
sg485
V6-4
p2577
sg487
VMarcus Smart
p2578
sg489
I1610612738
sg490
V36
p2579
sg492
g109
sg493
V00
p2580
sg495
g69
sg496
I203935
ssI203937
(dp2581
g178
VUCLA
p2582
sg180
V230
p2583
sg182
V2017
p2584
sg184
F24.0
sg185
VSEP 20, 1993
p2585
sg187
V6-9
p2586
sg189
VKyle Anderson
p2587
sg191
I1610612759
sg192
g87
sg194
g109
sg196
V00
p2588
sg198
g111
sg199
I203937
ssI203939
(dp2589
g665
VStanford
p2590
sg667
V240
p2591
sg669
V2017
p2592
sg671
F26.0
sg672
VJUL 20, 1991
p2593
sg674
V6-11
p2594
sg676
VDwight Powell
p2595
sg678
I1610612742
sg679
g207
sg680
g109
sg682
V00
p2596
sg684
VF-C
p2597
sg685
I203939
ssI203940
(dp2598
g2
VMichigan State
p2599
sg4
V237
p2600
sg6
V2017
p2601
sg8
F26.0
sg9
VFEB 19, 1991
p2602
sg11
V6-10
p2603
sg13
VAdreian Payne
p2604
sg15
I1610612753
sg16
V33
p2605
sg18
g109
sg20
V00
p2606
sg22
g111
sg24
I203940
ssI203944
(dp2607
g595
VKentucky
p2608
sg597
V250
p2609
sg599
V2017
p2610
sg601
F22.0
sg602
VNOV 29, 1994
p2611
sg604
V6-9
p2612
sg606
VJulius Randle
p2613
sg608
I1610612747
sg609
V30
p2614
sg610
g109
sg611
V00
p2615
sg613
VF-C
p2616
sg614
I203944
ssI203949
(dp2617
g26
VNorth Carolina
p2618
sg28
V230
p2619
sg30
V2017
p2620
sg32
F24.0
sg33
VJAN 04, 1993
p2621
sg35
V6-9
p2622
sg37
VJames Michael McAdoo
p2623
sg39
I1610612755
sg40
V14
p2624
sg42
g109
sg44
V00
p2625
sg46
g111
sg48
I203949
ssI203952
(dp2626
g72
VKansas
p2627
sg74
V202
p2628
sg76
V2017
p2629
sg78
F22.0
sg79
VFEB 23, 1995
p2630
sg81
V6-8
p2631
sg83
VAndrew Wiggins
p2632
sg85
I1610612750
sg86
V22
p2633
sg88
g109
sg89
V00
p2634
sg91
g111
sg92
I203952
ssI203953
(dp2635
g304
VDuke
p2636
sg306
V250
p2637
sg308
V2017
p2638
sg310
F22.0
sg311
VMAR 15, 1995
p2639
sg313
V6-8
p2640
sg315
VJabari Parker
p2641
sg317
I1610612749
sg318
V12
p2642
sg320
g109
sg321
V00
p2643
sg323
g111
sg324
I203953
ssI203954
(dp2644
g26
VKansas
p2645
sg28
V250
p2646
sg30
V2017
p2647
sg32
F23.0
sg33
VMAR 16, 1994
p2648
sg35
V7-0
p2649
sg37
VJoel Embiid
p2650
sg39
I1610612755
sg40
V21
p2651
sg42
g87
sg44
V00
p2652
sg46
g47
sg48
I203954
ssI203957
(dp2653
g326
Nsg328
V190
p2654
sg330
V2017
p2655
sg332
F22.0
sg333
VJUL 13, 1995
p2656
sg335
V6-6
p2657
sg337
VDante Exum
p2658
sg339
I1610612762
sg340
V11
p2659
sg342
g43
sg344
V00
p2660
sg346
g69
sg347
I203957
ssI203960
(dp2661
g282
VSt. John's (NY)
p2662
sg284
V207
p2663
sg286
V2017
p2664
sg288
F24.0
sg289
VMAR 20, 1993
p2665
sg291
V6-9
p2666
sg293
VJaKarr Sampson
p2667
sg295
I1610612758
sg296
V29
p2668
sg298
g43
sg299
V00
p2669
sg301
g111
sg302
I203960
ssI203962
(dp2670
g444
VStanford
p2671
sg446
V230
p2672
sg448
V2017
p2673
sg450
F25.0
sg451
VDEC 19, 1991
p2674
sg453
V6-7
p2675
sg455
VJosh Huestis
p2676
sg457
I1610612760
sg458
V34
p2677
sg460
g43
sg462
V00
p2678
sg464
g111
sg465
I203962
ssI203966
(dp2679
g113
VMarquette
p2680
sg115
V229
p2681
sg117
V2017
p2682
sg119
F26.0
sg120
VNOV 21, 1990
p2683
sg122
V6-7
p2684
sg124
VJamil Wilson
p2685
sg126
I1610612746
sg127
V13
p2686
sg128
g461
sg129
V00
p2687
sg131
g111
sg133
I203966
ssI203967
(dp2688
g26
Nsg28
V223
p2689
sg30
V2017
p2690
sg32
F23.0
sg33
VAPR 08, 1994
p2691
sg35
V6-10
p2692
sg37
VDario Saric
p2693
sg39
I1610612755
sg40
g758
sg42
g87
sg44
V00
p2694
sg46
g111
sg48
I203967
ssI201933
(dp2695
g113
VOklahoma
p2696
sg115
V251
p2697
sg117
V2017
p2698
sg119
F28.0
sg120
VMAR 16, 1989
p2699
sg122
V6-10
p2700
sg124
VBlake Griffin
p2701
sg126
I1610612746
sg127
V32
p2702
sg128
g207
sg129
V00
p2703
sg131
g111
sg133
I201933
ssI201935
(dp2704
g525
VArizona State
p2705
sg527
V220
p2706
sg529
V2017
p2707
sg531
F28.0
sg532
VAUG 26, 1989
p2708
sg534
V6-5
p2709
sg536
VJames Harden
p2710
sg538
I1610612745
sg539
V13
p2711
sg540
g41
sg542
V00
p2712
sg544
g69
sg545
I201935
ssI201936
(dp2713
g135
VMemphis
p2714
sg137
V220
p2715
sg139
V2017
p2716
sg141
F28.0
sg142
VSEP 19, 1989
p2717
sg144
V6-6
p2718
sg146
VTyreke Evans
p2719
sg148
I1610612763
sg149
V12
p2720
sg150
g41
sg151
V00
p2721
sg153
VG-F
p2722
sg154
I201936
ssI201937
(dp2723
g326
VEl Masnou, Spain
p2724
sg328
V190
p2725
sg330
V2017
p2726
sg332
F27.0
sg333
VOCT 21, 1990
p2727
sg335
V6-4
p2728
sg337
VRicky Rubio
p2729
sg339
I1610612762
sg340
g109
sg342
g541
sg344
V00
p2730
sg346
g69
sg347
I201937
ssI201939
(dp2731
g395
VDavidson
p2732
sg397
V190
p2733
sg399
V2017
p2734
sg401
F29.0
sg402
VMAR 14, 1988
p2735
sg404
V6-3
p2736
sg406
VStephen Curry
p2737
sg408
I1610612744
sg409
V30
p2738
sg410
g41
sg411
V00
p2739
sg413
g69
sg414
I201939
ssI201942
(dp2740
g156
VSouthern California
p2741
sg158
V220
p2742
sg160
V2017
p2743
sg162
F28.0
sg163
VAUG 07, 1989
p2744
sg165
V6-7
p2745
sg167
VDeMar DeRozan
p2746
sg169
I1610612761
sg170
V10
p2747
sg172
g41
sg173
V00
p2748
sg175
g69
sg176
I201942
ssI203991
(dp2749
g525
Nsg527
V240
p2750
sg529
V2017
p2751
sg531
F23.0
sg532
VMAY 18, 1994
p2752
sg534
V6-10
p2753
sg536
VClint Capela
p2754
sg538
I1610612745
sg539
V15
p2755
sg540
g109
sg542
V00
p2756
sg544
g47
sg545
I203991
ssI203992
(dp2757
g282
Nsg284
V205
p2758
sg286
V2017
p2759
sg288
F25.0
sg289
VAUG 18, 1992
p2760
sg291
V6-6
p2761
sg293
VBogdan Bogdanovic
p2762
sg295
I1610612758
sg296
g41
sg298
g461
sg299
V00
p2763
sg301
g69
sg302
I203992
ssI201949
(dp2764
g250
VWake Forest
p2765
sg252
V240
p2766
sg254
V2017
p2767
sg256
F30.0
sg257
VFEB 20, 1987
p2768
sg259
V6-8
p2769
sg261
VJames Johnson
p2770
sg263
I1610612748
sg264
V16
p2771
sg266
g41
sg267
V00
p2772
sg269
g111
sg270
I201949
ssI201950
(dp2773
g999
VUCLA
p2774
sg1001
V205
p2775
sg1003
V2017
p2776
sg1005
F27.0
sg1006
VJUN 12, 1990
p2777
sg1008
V6-4
p2778
sg1010
VJrue Holiday
p2779
sg1012
I1610612740
sg1013
V11
p2780
sg1015
g41
sg1016
V00
p2781
sg1018
g69
sg1019
I201950
ssI203999
(dp2782
g50
Nsg51
V250
p2783
sg53
V2017
p2784
sg55
F22.0
sg56
VFEB 19, 1995
p2785
sg58
V6-10
p2786
sg60
VNikola Jokic
p2787
sg62
I1610612743
sg63
V15
p2788
sg65
g43
sg66
V00
p2789
sg68
g47
sg70
I203999
ssI201952
(dp2790
g72
VWake Forest
p2791
sg74
V189
p2792
sg76
V2017
p2793
sg78
F29.0
sg79
VJUN 10, 1988
p2794
sg81
V6-2
p2795
sg83
VJeff Teague
p2796
sg85
I1610612750
sg86
g64
sg88
g41
sg89
V00
p2797
sg91
g69
sg92
I201952
ssI204001
(dp2798
g547
Nsg549
V240
p2799
sg551
V2017
p2800
sg553
F22.0
sg554
VAUG 02, 1995
p2801
sg556
V7-3
p2802
sg558
VKristaps Porzingis
p2803
sg560
I1610612752
sg561
g541
sg563
g43
sg564
V00
p2804
sg566
VF-C
p2805
sg567
I204001
ssI1627362
(dp2806
g525
VVirginia Commonwealth
p2807
sg527
V165
p2808
sg529
V2017
p2809
sg531
F24.0
sg532
VDEC 29, 1992
p2810
sg534
V6-2
p2811
sg536
VBriante Weber
p2812
sg538
I1610612745
sg539
g64
sg540
g43
sg542
V00
p2813
sg544
g69
sg545
I1627362
ssI201956
(dp2814
g395
VYavne, Israel
p2815
sg397
V225
p2816
sg399
V2017
p2817
sg401
F29.0
sg402
VJUN 22, 1988
p2818
sg404
V6-9
p2819
sg406
VOmri Casspi
p2820
sg408
I1610612744
sg409
V18
p2821
sg410
g41
sg411
V00
p2822
sg413
g111
sg414
I201956
ssI201959
(dp2823
g72
VSouthern California
p2824
sg74
V235
p2825
sg76
V2017
p2826
sg78
F32.0
sg79
VJUN 24, 1985
p2827
sg81
V6-9
p2828
sg83
VTaj Gibson
p2829
sg85
I1610612750
sg86
V67
p2830
sg88
g41
sg89
V00
p2831
sg91
g111
sg92
I201959
ssI201960
(dp2832
g210
VMissouri
p2833
sg212
V215
p2834
sg214
V2017
p2835
sg216
F31.0
sg217
VJUL 27, 1986
p2836
sg219
V6-8
p2837
sg221
VDeMarre Carroll
p2838
sg223
I1610612751
sg224
g758
sg225
g41
sg226
V00
p2839
sg228
g111
sg229
I201960
ssI201961
(dp2840
g250
VNorth Carolina
p2841
sg252
V200
p2842
sg254
V2017
p2843
sg256
F29.0
sg257
VNOV 29, 1987
p2844
sg259
V6-5
p2845
sg261
VWayne Ellington
p2846
sg263
I1610612748
sg264
g43
sg266
g41
sg267
V00
p2847
sg269
g69
sg270
I201961
ssI201967
(dp2848
g999
VVillanova
p2849
sg1001
V230
p2850
sg1003
V2017
p2851
sg1005
F30.0
sg1006
VAPR 22, 1987
p2852
sg1008
V6-8
p2853
sg1010
VDante Cunningham
p2854
sg1012
I1610612740
sg1013
V33
p2855
sg1015
g41
sg1016
V00
p2856
sg1018
g111
sg1019
I201967
ssI204020
(dp2857
g250
VFresno State
p2858
sg252
V190
p2859
sg254
V2017
p2860
sg256
F25.0
sg257
VMAY 07, 1992
p2861
sg259
V6-4
p2862
sg261
VTyler Johnson
p2863
sg263
I1610612748
sg264
g41
sg266
g109
sg267
V00
p2864
sg269
g69
sg270
I204020
ssI201973
(dp2865
g326
VKinna, Sweden
p2866
sg328
V231
p2867
sg330
V2017
p2868
sg332
F30.0
sg333
VMAR 02, 1987
p2869
sg335
V6-10
p2870
sg337
VJonas Jerebko
p2871
sg339
I1610612762
sg340
g41
sg342
g207
sg344
V00
p2872
sg346
g111
sg347
I201973
ssI204022
(dp2873
g282
VNotre Dame
p2874
sg284
V274
p2875
sg286
V2017
p2876
sg288
F26.0
sg289
VAPR 12, 1991
p2877
sg291
V6-10
p2878
sg293
VJack Cooley
p2879
sg295
I1610612758
sg296
V45
p2880
sg298
g87
sg299
V00
p2881
sg301
g47
sg302
I204022
ssI201976
(dp2882
g113
VArkansas
p2883
sg115
V185
p2884
sg117
V2017
p2885
sg119
F29.0
sg120
VJUL 12, 1988
p2886
sg122
V6-1
p2887
sg124
VPatrick Beverley
p2888
sg126
I1610612746
sg127
V21
p2889
sg128
g19
sg129
V00
p2890
sg131
g69
sg133
I201976
ssI201980
(dp2891
g178
VNorth Carolina
p2892
sg180
V215
p2893
sg182
V2017
p2894
sg184
F30.0
sg185
VJUN 22, 1987
p2895
sg187
V6-6
p2896
sg189
VDanny Green
p2897
sg191
I1610612759
sg192
V14
p2898
sg194
g41
sg196
V00
p2899
sg198
VG-F
p2900
sg199
I201980
ssI201988
(dp2901
g178
VSaint Mary's (CA)
p2902
sg180
V185
p2903
sg182
V2017
p2904
sg184
F29.0
sg185
VAUG 11, 1988
p2905
sg187
V6-0
p2906
sg189
VPatty Mills
p2907
sg191
I1610612759
sg192
g41
sg194
g41
sg196
V00
p2908
sg198
g69
sg199
I201988
ssI204060
(dp2909
g326
Nsg328
V226
p2910
sg330
V2017
p2911
sg332
F30.0
sg333
VOCT 02, 1987
p2912
sg335
V6-8
p2913
sg337
VJoe Ingles
p2914
sg339
I1610612762
sg340
g43
sg342
g109
sg344
V00
p2915
sg346
g111
sg347
I204060
ssI204066
(dp2916
g643
VBoston U.
p2917
sg645
V205
p2918
sg647
V2017
p2919
sg649
F29.0
sg650
VNOV 06, 1988
p2920
sg652
V6-5
p2921
sg654
VJohn Holland
p2922
sg656
I1610612739
sg657
V10
p2923
sg659
g87
sg660
V00
p2924
sg662
VG-F
p2925
sg663
I204066
ssI203998
(dp2926
g156
Nsg158
V205
p2927
sg160
V2017
p2928
sg162
F22.0
sg163
VSEP 21, 1995
p2929
sg165
V6-9
p2930
sg167
VBruno Caboclo
p2931
sg169
I1610612761
sg170
g19
sg172
g109
sg173
V00
p2932
sg175
g111
sg176
I203998
ssI202066
(dp2933
g282
VLouisiana State
p2934
sg284
V195
p2935
sg286
V2017
p2936
sg288
F31.0
sg289
VMAY 08, 1986
p2937
sg291
V6-6
p2938
sg293
VGarrett Temple
p2939
sg295
I1610612758
sg296
V17
p2940
sg298
g207
sg299
V00
p2941
sg301
g69
sg302
I202066
ssI202083
(dp2942
g665
VMarquette
p2943
sg667
V220
p2944
sg669
V2017
p2945
sg671
F31.0
sg672
VOCT 14, 1986
p2946
sg674
V6-5
p2947
sg676
VWesley Matthews
p2948
sg678
I1610612742
sg679
V23
p2949
sg680
g41
sg682
V00
p2950
sg684
VG-F
p2951
sg685
I202083
ssI204028
(dp2952
g525
VKansas
p2953
sg527
V250
p2954
sg529
V2017
p2955
sg531
F25.0
sg532
VNOV 22, 1991
p2956
sg534
V6-9
p2957
sg536
VTarik Black
p2958
sg538
I1610612745
sg539
V28
p2959
sg540
g109
sg542
V00
p2960
sg544
VF-C
p2961
sg545
I204028
ssI1627732
(dp2962
g26
VLouisiana State
p2963
sg28
V230
p2964
sg30
V2017
p2965
sg32
F21.0
sg33
VJUL 20, 1996
p2966
sg35
V6-10
p2967
sg37
VBen Simmons
p2968
sg39
I1610612755
sg40
V25
p2969
sg42
g461
sg44
V00
p2970
sg46
VG-F
p2971
sg48
I1627732
ssI202330
(dp2972
g476
VButler
p2973
sg478
V226
p2974
sg480
V2017
p2975
sg482
F27.0
sg483
VMAR 23, 1990
p2976
sg485
V6-8
p2977
sg487
VGordon Hayward
p2978
sg489
I1610612738
sg490
V20
p2979
sg492
g207
sg493
V00
p2980
sg495
g111
sg496
I202330
ssI202331
(dp2981
g444
VFresno State
p2982
sg446
V220
p2983
sg448
V2017
p2984
sg450
F27.0
sg451
VMAY 02, 1990
p2985
sg453
V6-9
p2986
sg455
VPaul George
p2987
sg457
I1610612760
sg458
V13
p2988
sg460
g207
sg462
V00
p2989
sg464
g111
sg465
I202331
ssI1627743
(dp2990
g525
VNotre Dame
p2991
sg527
V201
p2992
sg529
V2017
p2993
sg531
F23.0
sg532
VSEP 07, 1994
p2994
sg534
V6-1
p2995
sg536
VDemetrius Jackson
p2996
sg538
I1610612745
sg539
g43
sg540
g87
sg542
V00
p2997
sg544
g69
sg545
I1627743
ssI1627745
(dp2998
g395
VVanderbilt
p2999
sg397
V245
p3000
sg399
V2017
p3001
sg401
F22.0
sg402
VJUN 30, 1995
p3002
sg404
V7-0
p3003
sg406
VDamian Jones
p3004
sg408
I1610612744
sg409
V15
p3005
sg410
g87
sg411
V00
p3006
sg413
g47
sg414
I1627745
ssI1627747
(dp3007
g210
VMichigan
p3008
sg212
V203
p3009
sg214
V2017
p3010
sg216
F23.0
sg217
VAUG 25, 1994
p3011
sg219
V6-7
p3012
sg221
VCaris LeVert
p3013
sg223
I1610612751
sg224
V22
p3014
sg225
g87
sg226
V00
p3015
sg228
VG-F
p3016
sg229
I1627747
ssI202324
(dp3017
g326
VGeorgia Tech
p3018
sg328
V265
p3019
sg330
V2017
p3020
sg332
F26.0
sg333
VJUL 15, 1991
p3021
sg335
V6-10
p3022
sg337
VDerrick Favors
p3023
sg339
I1610612762
sg340
V15
p3024
sg342
g207
sg344
V00
p3025
sg346
VF-C
p3026
sg347
I202324
ssI202325
(dp3027
g113
VSyracuse
p3028
sg115
V215
p3029
sg117
V2017
p3030
sg119
F30.0
sg120
VJUL 11, 1987
p3031
sg122
V6-7
p3032
sg124
VWesley Johnson
p3033
sg126
I1610612746
sg127
V33
p3034
sg128
g207
sg129
V00
p3035
sg131
g111
sg133
I202325
ssI202326
(dp3036
g999
VKentucky
p3037
sg1001
V270
p3038
sg1003
V2017
p3039
sg1005
F27.0
sg1006
VAUG 13, 1990
p3040
sg1008
V6-11
p3041
sg1010
VDeMarcus Cousins
p3042
sg1012
I1610612740
sg1013
g64
sg1015
g207
sg1016
V00
p3043
sg1018
g47
sg1019
I202326
ssI202327
(dp3044
g326
VBaylor
p3045
sg328
V245
p3046
sg330
V2017
p3047
sg332
F30.0
sg333
VMAY 20, 1987
p3048
sg335
V6-10
p3049
sg337
VEkpe Udoh
p3050
sg339
I1610612762
sg340
V33
p3051
sg342
g19
sg344
V00
p3052
sg346
VC-F
p3053
sg347
I202327
ssI1627736
(dp3054
g50
VFlorida State
p3055
sg51
V196
p3056
sg53
V2017
p3057
sg55
F20.0
sg56
VNOV 26, 1996
p3058
sg58
V6-5
p3059
sg60
VMalik Beasley
p3060
sg62
I1610612743
sg63
V25
p3061
sg65
g87
sg66
V00
p3062
sg68
g69
sg70
I1627736
ssI1627738
(dp3063
g135
VMichigan State
p3064
sg137
V237
p3065
sg139
V2017
p3066
sg141
F20.0
sg142
VDEC 02, 1996
p3067
sg144
V6-11
p3068
sg146
VDeyonta Davis
p3069
sg148
I1610612763
sg149
V21
p3070
sg150
g87
sg151
V00
p3071
sg153
VC-F
p3072
sg154
I1627738
ssI1627739
(dp3073
g349
VProvidence
p3074
sg351
V210
p3075
sg353
V2017
p3076
sg355
F23.0
sg356
VMAR 18, 1994
p3077
sg358
V6-4
p3078
sg360
VKris Dunn
p3079
sg362
I1610612741
sg363
V32
p3080
sg365
g87
sg366
V00
p3081
sg368
g69
sg369
I1627739
ssI202332
(dp3082
g72
VKansas
p3083
sg74
V253
p3084
sg76
V2017
p3085
sg78
F29.0
sg79
VOCT 31, 1988
p3086
sg81
V6-11
p3087
sg83
VCole Aldrich
p3088
sg85
I1610612750
sg86
V45
p3089
sg88
g207
sg89
V00
p3090
sg91
g47
sg92
I202332
ssI1627741
(dp3091
g282
VOklahoma
p3092
sg284
V214
p3093
sg286
V2017
p3094
sg288
F23.0
sg289
VDEC 17, 1993
p3095
sg291
V6-4
p3096
sg293
VBuddy Hield
p3097
sg295
I1610612758
sg296
V24
p3098
sg298
g87
sg299
V00
p3099
sg301
g69
sg302
I1627741
ssI1627742
(dp3100
g595
VDuke
p3101
sg597
V190
p3102
sg599
V2017
p3103
sg601
F20.0
sg602
VSEP 02, 1997
p3104
sg604
V6-9
p3105
sg606
VBrandon Ingram
p3106
sg608
I1610612747
sg609
V14
p3107
sg610
g87
sg611
V00
p3108
sg613
VF-G
p3109
sg614
I1627742
ssI202335
(dp3110
g444
VKentucky
p3111
sg446
V230
p3112
sg448
V2017
p3113
sg450
F28.0
sg451
VMAR 14, 1989
p3114
sg453
V6-9
p3115
sg455
VPatrick Patterson
p3116
sg457
I1610612760
sg458
V54
p3117
sg460
g207
sg462
V00
p3118
sg464
g111
sg465
I202335
ssI1627744
(dp3119
g113
VNorth Carolina
p3120
sg115
V230
p3121
sg117
V2017
p3122
sg119
F23.0
sg120
VJUN 27, 1994
p3123
sg122
V6-10
p3124
sg124
VBrice Johnson
p3125
sg126
I1610612746
sg127
V11
p3126
sg128
g87
sg129
V00
p3127
sg131
g111
sg133
I1627744
ssI202337
(dp3128
g837
VNevada
p3129
sg839
V225
p3130
sg841
V2017
p3131
sg843
F28.0
sg844
VJUN 20, 1989
p3132
sg846
V6-9
p3133
sg848
VLuke Babbitt
p3134
sg850
I1610612737
sg851
g41
sg853
g207
sg854
V00
p3135
sg856
g111
sg858
I202337
ssI1627746
(dp3136
g282
VKentucky
p3137
sg284
V225
p3138
sg286
V2017
p3139
sg288
F21.0
sg289
VMAR 18, 1996
p3140
sg291
V6-11
p3141
sg293
VSkal Labissiere
p3142
sg295
I1610612758
sg296
g207
sg298
g87
sg299
V00
p3143
sg301
VF-C
p3144
sg302
I1627746
ssI202339
(dp3145
g304
VKentucky
p3146
sg306
V205
p3147
sg308
V2017
p3148
sg310
F27.0
sg311
VDEC 09, 1989
p3149
sg313
V6-1
p3150
sg315
VEric Bledsoe
p3151
sg317
I1610612749
sg318
g541
sg320
g207
sg321
V00
p3152
sg323
g69
sg324
I202339
ssI1627748
(dp3153
g304
Nsg306
V223
p3154
sg308
V2017
p3155
sg310
F20.0
sg311
VFEB 25, 1997
p3156
sg313
V7-1
p3157
sg315
VThon Maker
p3158
sg317
I1610612749
sg318
g207
sg320
g87
sg321
V00
p3159
sg323
VC-F
p3160
sg324
I1627748
ssI1627749
(dp3161
g178
VWashington
p3162
sg180
V170
p3163
sg182
V2017
p3164
sg184
F21.0
sg185
VSEP 19, 1996
p3165
sg187
V6-5
p3166
sg189
VDejounte Murray
p3167
sg191
I1610612759
sg192
g19
sg194
g87
sg196
V00
p3168
sg198
g69
sg199
I1627749
ssI1627750
(dp3169
g50
VKentucky
p3170
sg51
V207
p3171
sg53
V2017
p3172
sg55
F20.0
sg56
VFEB 23, 1997
p3173
sg58
V6-4
p3174
sg60
VJamal Murray
p3175
sg62
I1610612743
sg63
V27
p3176
sg65
g87
sg66
V00
p3177
sg68
g69
sg70
I1627750
ssI1627751
(dp3178
g156
VUtah
p3179
sg158
V230
p3180
sg160
V2017
p3181
sg162
F22.0
sg163
VOCT 15, 1995
p3182
sg165
V7-0
p3183
sg167
VJakob Poeltl
p3184
sg169
I1610612761
sg170
V42
p3185
sg172
g87
sg173
V00
p3186
sg175
g47
sg176
I1627751
ssI1627752
(dp3187
g837
VBaylor
p3188
sg839
V220
p3189
sg841
V2017
p3190
sg843
F23.0
sg844
VMAR 22, 1994
p3191
sg846
V6-8
p3192
sg848
VTaurean Prince
p3193
sg850
I1610612737
sg851
V12
p3194
sg853
g87
sg854
V00
p3195
sg856
g111
sg858
I1627752
ssI1627753
(dp3196
g525
Nsg527
V210
p3197
sg529
V2017
p3198
sg531
F21.0
sg532
VJAN 16, 1996
p3199
sg534
V7-1
p3200
sg536
VQi Qi
p3201
sg538
I1610612745
sg539
g758
sg540
g461
sg542
V00
p3202
sg544
VF-C
p3203
sg545
I1627753
ssI202347
(dp3204
g349
VWashington
p3205
sg351
V225
p3206
sg353
V2017
p3207
sg355
F29.0
sg356
VMAR 10, 1988
p3208
sg358
V6-7
p3209
sg360
VQuincy Pondexter
p3210
sg362
I1610612741
sg363
V20
p3211
sg365
g19
sg366
V00
p3212
sg368
g69
sg369
I202347
ssI1627756
(dp3213
g349
VMichigan State
p3214
sg351
V214
p3215
sg353
V2017
p3216
sg355
F23.0
sg356
VNOV 16, 1993
p3217
sg358
V6-6
p3218
sg360
VDenzel Valentine
p3219
sg362
I1610612741
sg363
V45
p3220
sg365
g87
sg366
V00
p3221
sg368
g111
sg369
I1627756
ssI1627758
(dp3222
g547
VWichita State
p3223
sg549
V220
p3224
sg551
V2017
p3225
sg553
F24.0
sg554
VMAR 30, 1993
p3226
sg556
V6-4
p3227
sg558
VRon Baker
p3228
sg560
I1610612752
sg561
V31
p3229
sg563
g87
sg564
V00
p3230
sg566
g69
sg567
I1627758
ssI1627759
(dp3231
g476
VCalifornia
p3232
sg478
V225
p3233
sg480
V2017
p3234
sg482
F21.0
sg483
VOCT 24, 1996
p3235
sg485
V6-7
p3236
sg487
VJaylen Brown
p3237
sg489
I1610612738
sg490
g207
sg492
g87
sg493
V00
p3238
sg495
VG-F
p3239
sg496
I1627759
ssI202344
(dp3240
g210
VClemson
p3241
sg212
V228
p3242
sg214
V2017
p3243
sg216
F29.0
sg217
VNOV 25, 1987
p3244
sg219
V6-8
p3245
sg221
VTrevor Booker
p3246
sg223
I1610612751
sg224
V35
p3247
sg225
g207
sg226
V00
p3248
sg228
g111
sg229
I202344
ssI1627762
(dp3249
g304
VWeber State
p3250
sg306
V235
p3251
sg308
V2017
p3252
sg310
F23.0
sg311
VJAN 28, 1994
p3253
sg313
V6-9
p3254
sg315
VJoel Bolomboy
p3255
sg317
I1610612749
sg318
V24
p3256
sg320
g87
sg321
V00
p3257
sg323
VF-C
p3258
sg324
I1627762
ssI202355
(dp3259
g250
VMarshall
p3260
sg252
V265
p3261
sg254
V2017
p3262
sg256
F28.0
sg257
VJUN 13, 1989
p3263
sg259
V7-0
p3264
sg261
VHassan Whiteside
p3265
sg263
I1610612748
sg264
V21
p3266
sg266
g19
sg267
V00
p3267
sg269
g47
sg270
I202355
ssI202357
(dp3268
g72
Nsg74
V230
p3269
sg76
V2017
p3270
sg78
F29.0
sg79
VMAY 09, 1988
p3271
sg81
V6-10
p3272
sg83
VNemanja Bjelica
p3273
sg85
I1610612750
sg86
g41
sg88
g43
sg89
V00
p3274
sg91
g111
sg92
I202357
ssI1627767
(dp3275
g999
VKansas
p3276
sg1001
V220
p3277
sg1003
V2017
p3278
sg1005
F21.0
sg1006
VSEP 13, 1996
p3279
sg1008
V6-9
p3280
sg1010
VCheick Diallo
p3281
sg1012
I1610612740
sg1013
V13
p3282
sg1015
g87
sg1016
V00
p3283
sg1018
g111
sg1019
I1627767
ssI1627770
(dp3284
g349
VOakland
p3285
sg351
V176
p3286
sg353
V2017
p3287
sg355
F22.0
sg356
VMAR 29, 1995
p3288
sg358
V5-9
p3289
sg360
VKay Felder
p3290
sg362
I1610612741
sg363
g109
sg365
g87
sg366
V00
p3291
sg368
g69
sg369
I1627770
ssI1627772
(dp3292
g444
VConnecticut
p3293
sg446
V195
p3294
sg448
V2017
p3295
sg450
F22.0
sg451
VAUG 08, 1995
p3296
sg453
V6-7
p3297
sg455
VDaniel Hamilton
p3298
sg457
I1610612760
sg458
V25
p3299
sg460
g461
sg462
V00
p3300
sg464
g69
sg465
I1627772
ssI1627773
(dp3301
g250
VPurdue
p3302
sg252
V260
p3303
sg254
V2017
p3304
sg256
F25.0
sg257
VAUG 27, 1992
p3305
sg259
V7-0
p3306
sg261
VAJ Hammons
p3307
sg263
I1610612748
sg264
g522
sg266
g87
sg267
V00
p3308
sg269
g47
sg270
I1627773
ssI1627775
(dp3309
g395
VNevada-Las Vegas
p3310
sg397
V185
p3311
sg399
V2017
p3312
sg401
F22.0
sg402
VOCT 25, 1995
p3313
sg404
V6-7
p3314
sg406
VPatrick McCaw
p3315
sg408
I1610612744
sg409
g64
sg410
g87
sg411
V00
p3316
sg413
g69
sg414
I1627775
ssI200755
(dp3317
g26
VDuke
p3318
sg28
V200
p3319
sg30
V2017
p3320
sg32
F33.0
sg33
VJUN 24, 1984
p3321
sg35
V6-4
p3322
sg37
VJJ Redick
p3323
sg39
I1610612755
sg40
V17
p3324
sg42
V11
p3325
sg44
V00
p3326
sg46
VF-G
p3327
sg48
I200755
ssI1627778
(dp3328
g525
VLouisville
p3329
sg527
V245
p3330
sg529
V2017
p3331
sg531
F21.0
sg532
VNOV 01, 1996
p3332
sg534
V6-10
p3333
sg536
VChinanu Onuaku
p3334
sg538
I1610612745
sg539
V21
p3335
sg540
g87
sg542
V00
p3336
sg544
g47
sg545
I1627778
ssI1627780
(dp3337
g304
VOregon State
p3338
sg306
V190
p3339
sg308
V2017
p3340
sg310
F24.0
sg311
VDEC 01, 1992
p3341
sg313
V6-3
p3342
sg315
VGary Payton II
p3343
sg317
I1610612749
sg318
g64
sg320
g87
sg321
V00
p3344
sg323
g69
sg324
I1627780
ssI1627781
(dp3345
g282
VSyracuse
p3346
sg284
V205
p3347
sg286
V2017
p3348
sg288
F21.0
sg289
VJAN 05, 1996
p3349
sg291
V6-6
p3350
sg293
VMalachi Richardson
p3351
sg295
I1610612758
sg296
V23
p3352
sg298
g87
sg299
V00
p3353
sg301
g69
sg302
I1627781
ssI1627782
(dp3354
g135
VKansas
p3355
sg137
V230
p3356
sg139
V2017
p3357
sg141
F23.0
sg142
VSEP 30, 1994
p3358
sg144
V6-5
p3359
sg146
VWayne Selden
p3360
sg148
I1610612763
sg149
g207
sg150
g87
sg151
V00
p3361
sg153
VG-F
p3362
sg154
I1627782
ssI1627783
(dp3363
g156
VNew Mexico State
p3364
sg158
V230
p3365
sg160
V2017
p3366
sg162
F23.0
sg163
VAPR 02, 1994
p3367
sg165
V6-9
p3368
sg167
VPascal Siakam
p3369
sg169
I1610612761
sg170
V43
p3370
sg172
g87
sg173
V00
p3371
sg175
g111
sg176
I1627783
ssI1627785
(dp3372
g210
VSeton Hall
p3373
sg212
V213
p3374
sg214
V2017
p3375
sg216
F22.0
sg217
VMAR 08, 1995
p3376
sg219
V6-4
p3377
sg221
VIsaiah Whitehead
p3378
sg223
I1610612751
sg224
V15
p3379
sg225
g87
sg226
V00
p3380
sg228
g69
sg229
I1627785
ssI1627786
(dp3381
g525
VIndiana
p3382
sg527
V218
p3383
sg529
V2017
p3384
sg531
F22.0
sg532
VDEC 30, 1994
p3385
sg534
V6-7
p3386
sg536
VTroy Williams
p3387
sg538
I1610612745
sg539
g19
sg540
g87
sg542
V00
p3388
sg544
g111
sg545
I1627786
ssI1627788
(dp3389
g26
Nsg28
V190
p3390
sg30
V2017
p3391
sg32
F20.0
sg33
VJUL 24, 1997
p3392
sg35
V6-7
p3393
sg37
VFurkan Korkmaz
p3394
sg39
I1610612755
sg40
V30
p3395
sg42
g461
sg44
V00
p3396
sg46
VG-F
p3397
sg48
I1627788
ssI1627789
(dp3398
g26
Nsg28
V200
p3399
sg30
V2017
p3400
sg32
F22.0
sg33
VMAY 09, 1995
p3401
sg35
V6-6
p3402
sg37
VTimothe Luwawu-Cabarrot
p3403
sg39
I1610612755
sg40
g207
sg42
g87
sg44
V00
p3404
sg46
VG-F
p3405
sg48
I1627789
ssI1627790
(dp3406
g643
Nsg645
V250
p3407
sg647
V2017
p3408
sg649
F20.0
sg650
VJAN 04, 1997
p3409
sg652
V6-11
p3410
sg654
VAnte Zizic
p3411
sg656
I1610612739
sg657
V41
p3412
sg659
g461
sg660
V00
p3413
sg662
VF-C
p3414
sg663
I1627790
ssI202389
(dp3415
g210
VSt. Petersburg, Russia
p3416
sg212
V275
p3417
sg214
V2017
p3418
sg216
F31.0
sg217
VJUL 16, 1986
p3419
sg219
V7-1
p3420
sg221
VTimofey Mozgov
p3421
sg223
I1610612751
sg224
V20
p3422
sg225
g207
sg226
V00
p3423
sg228
g47
sg229
I202389
ssI202391
(dp3424
g210
VHarvard
p3425
sg212
V200
p3426
sg214
V2017
p3427
sg216
F29.0
sg217
VAUG 23, 1988
p3428
sg219
V6-3
p3429
sg221
VJeremy Lin
p3430
sg223
I1610612751
sg224
g207
sg225
g207
sg226
V00
p3431
sg228
g69
sg229
I202391
ssI1627812
(dp3432
g665
VIndiana
p3433
sg667
V180
p3434
sg669
V2017
p3435
sg671
F24.0
sg672
VMAY 09, 1993
p3436
sg674
V6-0
p3437
sg676
VYogi Ferrell
p3438
sg678
I1610612742
sg679
V11
p3439
sg680
g87
sg682
V00
p3440
sg684
g69
sg685
I1627812
ssI1627761
(dp3441
g837
VSaint Joseph's
p3442
sg839
V210
p3443
sg841
V2017
p3444
sg843
F23.0
sg844
VJUL 04, 1994
p3445
sg846
V6-6
p3446
sg848
VDeAndre' Bembry
p3447
sg850
I1610612737
sg851
V95
p3448
sg853
g87
sg854
V00
p3449
sg856
VF-G
p3450
sg858
I1627761
ssI204456
(dp3451
g26
VArizona
p3452
sg28
V190
p3453
sg30
V2017
p3454
sg32
F25.0
sg33
VMAR 25, 1992
p3455
sg35
V6-2
p3456
sg37
VT.J. McConnell
p3457
sg39
I1610612755
sg40
V12
p3458
sg42
g43
sg44
V00
p3459
sg46
g69
sg48
I204456
ssI1627819
(dp3460
g837
VTexas
p3461
sg839
V170
p3462
sg841
V2017
p3463
sg843
F23.0
sg844
VJUL 11, 1994
p3464
sg846
V6-3
p3465
sg848
VIsaiah Taylor
p3466
sg850
I1610612737
sg851
V22
p3467
sg853
g87
sg854
V00
p3468
sg856
g69
sg858
I1627819
ssI1627823
(dp3469
g50
Nsg51
V230
p3470
sg53
V2017
p3471
sg55
F22.0
sg56
VSEP 28, 1995
p3472
sg58
V6-9
p3473
sg60
VJuan Hernangomez
p3474
sg62
I1610612743
sg63
V41
p3475
sg65
g87
sg66
V00
p3476
sg68
g111
sg70
I1627823
ssI1627824
(dp3477
g476
Nsg478
V260
p3478
sg480
V2017
p3479
sg482
F21.0
sg483
VDEC 17, 1995
p3480
sg485
V6-8
p3481
sg487
VGuerschon Yabusele
p3482
sg489
I1610612738
sg490
V30
p3483
sg492
g461
sg493
V00
p3484
sg495
g111
sg496
I1627824
ssI1713
(dp3485
g282
VNorth Carolina
p3486
sg284
V220
p3487
sg286
V2017
p3488
sg288
F40.0
sg289
VJAN 26, 1977
p3489
sg291
V6-6
p3490
sg293
VVince Carter
p3491
sg295
I1610612758
sg296
V15
p3492
sg298
V19
p3493
sg299
V00
p3494
sg301
VG-F
p3495
sg302
I1713
ssI1627826
(dp3496
g595
Nsg597
V240
p3497
sg599
V2017
p3498
sg601
F20.0
sg602
VMAR 18, 1997
p3499
sg604
V7-1
p3500
sg606
VIvica Zubac
p3501
sg608
I1610612747
sg609
V40
p3502
sg610
g87
sg611
V00
p3503
sg613
g47
sg614
I1627826
ssI1627827
(dp3504
g665
VFlorida
p3505
sg667
V220
p3506
sg669
V2017
p3507
sg671
F24.0
sg672
VMAY 04, 1993
p3508
sg674
V6-8
p3509
sg676
VDorian Finney-Smith
p3510
sg678
I1610612742
sg679
V10
p3511
sg680
g87
sg682
V00
p3512
sg684
g111
sg685
I1627827
ssI1717
(dp3513
g665
VWurzburg, Germany
p3514
sg667
V245
p3515
sg669
V2017
p3516
sg671
F39.0
sg672
VJUN 19, 1978
p3517
sg674
V7-0
p3518
sg676
VDirk Nowitzki
p3519
sg678
I1610612742
sg679
V41
p3520
sg680
V19
p3521
sg682
V00
p3522
sg684
VF-C
p3523
sg685
I1717
ssI1627832
(dp3524
g156
VWichita State
p3525
sg158
V195
p3526
sg160
V2017
p3527
sg162
F23.0
sg163
VFEB 25, 1994
p3528
sg165
V6-0
p3529
sg167
VFred VanVleet
p3530
sg169
I1610612761
sg170
V23
p3531
sg172
g87
sg173
V00
p3532
sg175
g69
sg176
I1627832
ssI1627834
(dp3533
g282
Nsg284
V240
p3534
sg286
V2017
p3535
sg288
F20.0
sg289
VJUL 03, 1997
p3536
sg291
V7-1
p3537
sg293
VGeorgios Papagiannis
p3538
sg295
I1610612758
sg296
V13
p3539
sg298
g87
sg299
V00
p3540
sg301
g47
sg302
I1627834
ssI1627835
(dp3541
g349
Nsg351
V226
p3542
sg353
V2017
p3543
sg355
F23.0
sg356
VFEB 18, 1994
p3544
sg358
V6-8
p3545
sg360
VPaul Zipser
p3546
sg362
I1610612741
sg363
V16
p3547
sg365
g87
sg366
V00
p3548
sg368
g111
sg369
I1627835
ssI1627846
(dp3549
g476
VIowa State
p3550
sg478
V230
p3551
sg480
V2017
p3552
sg482
F24.0
sg483
VSEP 25, 1993
p3553
sg485
V6-6
p3554
sg487
VAbdel Nader
p3555
sg489
I1610612738
sg490
V28
p3556
sg492
g461
sg493
V00
p3557
sg495
g111
sg496
I1627846
ssI1627851
(dp3558
g547
Nsg549
V215
p3559
sg551
V2017
p3560
sg553
F28.0
sg554
VOCT 19, 1989
p3561
sg556
V6-9
p3562
sg558
VMindaugas Kuzminskas
p3563
sg560
I1610612752
sg561
V91
p3564
sg563
g87
sg564
V00
p3565
sg566
g111
sg567
I1627851
ssI1627852
(dp3566
g837
Nsg839
V195
p3567
sg841
V2017
p3568
sg843
F24.0
sg844
VMAR 02, 1993
p3569
sg846
V6-8
p3570
sg848
VNicolas Brussino
p3571
sg850
I1610612737
sg851
V16
p3572
sg853
g87
sg854
V00
p3573
sg856
g111
sg858
I1627852
ssI1627853
(dp3574
g349
VVillanova
p3575
sg351
V195
p3576
sg353
V2017
p3577
sg355
F23.0
sg356
VMAR 26, 1994
p3578
sg358
V6-3
p3579
sg360
VRyan Arcidiacono
p3580
sg362
I1610612741
sg363
V15
p3581
sg365
g461
sg366
V00
p3582
sg368
g69
sg369
I1627853
ssI1627854
(dp3583
g178
VMichigan State
p3584
sg180
V190
p3585
sg182
V2017
p3586
sg184
F24.0
sg185
VJUL 23, 1993
p3587
sg187
V6-3
p3588
sg189
VBryn Forbes
p3589
sg191
I1610612759
sg192
V11
p3590
sg194
g87
sg196
V00
p3591
sg198
g69
sg199
I1627854
ssI1627855
(dp3592
g250
VFlorida State
p3593
sg252
V215
p3594
sg254
V2017
p3595
sg256
F25.0
sg257
VAUG 13, 1992
p3596
sg259
V6-8
p3597
sg261
VOkaro White
p3598
sg263
I1610612748
sg264
V15
p3599
sg266
g87
sg267
V00
p3600
sg269
g111
sg270
I1627855
ssI1627856
(dp3601
g178
VMichigan State
p3602
sg180
V240
p3603
sg182
V2017
p3604
sg184
F24.0
sg185
VAUG 05, 1993
p3605
sg187
V6-10
p3606
sg189
VMatt Costello
p3607
sg191
I1610612759
sg192
V10
p3608
sg194
g461
sg196
V00
p3609
sg198
VF-C
p3610
sg199
I1627856
ssI1627875
(dp3611
g72
VGeorgia Tech
p3612
sg74
V226
p3613
sg76
V2017
p3614
sg78
F23.0
sg79
VMAR 28, 1994
p3615
sg81
V6-5
p3616
sg83
VMarcus Georges-Hunt
p3617
sg85
I1610612750
sg86
V13
p3618
sg88
g87
sg89
V00
p3619
sg91
g69
sg92
I1627875
ssI1627883
(dp3620
g999
VTexas A&M
p3621
sg1001
V220
p3622
sg1003
V2017
p3623
sg1005
F24.0
sg1006
VMAY 27, 1993
p3624
sg1008
V6-7
p3625
sg1010
VJalen Jones
p3626
sg1012
I1610612740
sg1013
V12
p3627
sg1015
g461
sg1016
V00
p3628
sg1018
g111
sg1019
I1627883
ssI202498
(dp3629
g547
VDuke
p3630
sg549
V235
p3631
sg551
V2017
p3632
sg553
F29.0
sg554
VAPR 24, 1988
p3633
sg556
V6-8
p3634
sg558
VLance Thomas
p3635
sg560
I1610612752
sg561
V42
p3636
sg563
g541
sg564
V00
p3637
sg566
g111
sg567
I202498
ssI1627936
(dp3638
g595
VTexas A&M
p3639
sg597
V186
p3640
sg599
V2017
p3641
sg601
F23.0
sg602
VFEB 28, 1994
p3642
sg604
V6-5
p3643
sg606
VAlex Caruso
p3644
sg608
I1610612747
sg609
g522
sg610
g461
sg611
V00
p3645
sg613
g69
sg614
I1627936
ssI1891
(dp3646
g304
VArizona
p3647
sg306
V185
p3648
sg308
V2017
p3649
sg310
F40.0
sg311
VSEP 15, 1977
p3650
sg313
V6-2
p3651
sg315
VJason Terry
p3652
sg317
I1610612749
sg318
g109
sg320
V18
p3653
sg321
V00
p3654
sg323
g69
sg324
I1891
ssI1628021
(dp3655
g349
VCal Poly-S.L.O.
p3656
sg351
V209
p3657
sg353
V2017
p3658
sg355
F24.0
sg356
VJAN 14, 1993
p3659
sg358
V6-4
p3660
sg360
VDavid Nwaba
p3661
sg362
I1610612741
sg363
V11
p3662
sg365
g87
sg366
V00
p3663
sg368
g69
sg369
I1628021
ssI1628035
(dp3664
g156
VWisc.-Green Bay
p3665
sg158
V215
p3666
sg160
V2017
p3667
sg162
F25.0
sg163
VSEP 17, 1992
p3668
sg165
V6-8
p3669
sg167
VAlfonzo McKinnie
p3670
sg169
I1610612761
sg170
V34
p3671
sg172
g461
sg173
V00
p3672
sg175
g111
sg176
I1628035
ssI1938
(dp3673
g178
VBahia Blanca, Argentina
p3674
sg180
V205
p3675
sg182
V2017
p3676
sg184
F40.0
sg185
VJUL 28, 1977
p3677
sg187
V6-6
p3678
sg189
VManu Ginobili
p3679
sg191
I1610612759
sg192
V20
p3680
sg194
V15
p3681
sg196
V00
p3682
sg198
g69
sg199
I1938
ssI203084
(dp3683
g665
VNorth Carolina
p3684
sg667
V225
p3685
sg669
V2017
p3686
sg671
F25.0
sg672
VMAY 30, 1992
p3687
sg674
V6-8
p3688
sg676
VHarrison Barnes
p3689
sg678
I1610612742
sg679
V40
p3690
sg680
g19
sg682
V00
p3691
sg684
g111
sg685
I203084
ssI202681
(dp3692
g476
VDuke
p3693
sg478
V193
p3694
sg480
V2017
p3695
sg482
F25.0
sg483
VMAR 23, 1992
p3696
sg485
V6-3
p3697
sg487
VKyrie Irving
p3698
sg489
I1610612738
sg490
V11
p3699
sg492
g541
sg493
V00
p3700
sg495
g69
sg496
I202681
ssI202683
(dp3701
g547
VKentucky
p3702
sg549
V245
p3703
sg551
V2017
p3704
sg553
F25.0
sg554
VMAY 20, 1992
p3705
sg556
V6-11
p3706
sg558
VEnes Kanter
p3707
sg560
I1610612752
sg561
V00
p3708
sg563
g541
sg564
V00
p3709
sg566
g47
sg567
I202683
ssI202684
(dp3710
g643
VTexas
p3711
sg645
V238
p3712
sg647
V2017
p3713
sg649
F26.0
sg650
VMAR 13, 1991
p3714
sg652
V6-9
p3715
sg654
VTristan Thompson
p3716
sg656
I1610612739
sg657
V13
p3717
sg659
g541
sg660
V00
p3718
sg662
VC-F
p3719
sg663
I202684
ssI202685
(dp3720
g156
VUtena, Lithuania
p3721
sg158
V255
p3722
sg160
V2017
p3723
sg162
F25.0
sg163
VMAY 06, 1992
p3724
sg165
V7-0
p3725
sg167
VJonas Valanciunas
p3726
sg169
I1610612761
sg170
V17
p3727
sg172
g19
sg173
V00
p3728
sg175
g47
sg176
I202685
ssI202687
(dp3729
g2
VLubumbashi, DR Congo
p3730
sg4
V255
p3731
sg6
V2017
p3732
sg8
F25.0
sg9
VAUG 28, 1992
p3733
sg11
V6-9
p3734
sg13
VBismack Biyombo
p3735
sg15
I1610612753
sg16
V11
p3736
sg18
g541
sg20
V00
p3737
sg22
g47
sg24
I202687
ssI202691
(dp3738
g395
VWashington State
p3739
sg397
V215
p3740
sg399
V2017
p3741
sg401
F27.0
sg402
VFEB 08, 1990
p3742
sg404
V6-7
p3743
sg406
VKlay Thompson
p3744
sg408
I1610612744
sg409
V11
p3745
sg410
g541
sg411
V00
p3746
sg413
g69
sg414
I202691
ssI202692
(dp3747
g326
VColorado
p3748
sg328
V214
p3749
sg330
V2017
p3750
sg332
F26.0
sg333
VJUL 20, 1991
p3751
sg335
V6-6
p3752
sg337
VAlec Burks
p3753
sg339
I1610612762
sg340
V10
p3754
sg342
g541
sg344
V00
p3755
sg346
g69
sg347
I202692
ssI202694
(dp3756
g476
VKansas
p3757
sg478
V235
p3758
sg480
V2017
p3759
sg482
F28.0
sg483
VSEP 02, 1989
p3760
sg485
V6-9
p3761
sg487
VMarcus Morris
p3762
sg489
I1610612738
sg490
V13
p3763
sg492
g541
sg493
V00
p3764
sg495
g111
sg496
I202694
ssI202695
(dp3765
g178
VSan Diego State
p3766
sg180
V230
p3767
sg182
V2017
p3768
sg184
F26.0
sg185
VJUN 29, 1991
p3769
sg187
V6-7
p3770
sg189
VKawhi Leonard
p3771
sg191
I1610612759
sg192
g43
sg194
g541
sg196
V00
p3772
sg198
g111
sg199
I202695
ssI202696
(dp3773
g2
VSouthern California
p3774
sg4
V260
p3775
sg6
V2017
p3776
sg8
F27.0
sg9
VOCT 24, 1990
p3777
sg11
V7-0
p3778
sg13
VNikola Vucevic
p3779
sg15
I1610612753
sg16
g758
sg18
g541
sg20
V00
p3780
sg22
g47
sg24
I202696
ssI202697
(dp3781
g643
VGeorgia Tech
p3782
sg645
V220
p3783
sg647
V2017
p3784
sg649
F27.0
sg650
VJUN 26, 1990
p3785
sg652
V6-5
p3786
sg654
VIman Shumpert
p3787
sg656
I1610612739
sg657
g522
sg659
g541
sg660
V00
p3788
sg662
g69
sg663
I202697
ssI202702
(dp3789
g50
VMorehead State
p3790
sg51
V228
p3791
sg53
V2017
p3792
sg55
F27.0
sg56
VNOV 19, 1989
p3793
sg58
V6-8
p3794
sg60
VKenneth Faried
p3795
sg62
I1610612743
sg63
V35
p3796
sg65
g541
sg66
V00
p3797
sg68
g111
sg70
I202702
ssI202703
(dp3798
g349
Nsg351
V238
p3799
sg353
V2017
p3800
sg355
F26.0
sg356
VFEB 11, 1991
p3801
sg358
V6-10
p3802
sg360
VNikola Mirotic
p3803
sg362
I1610612741
sg363
V44
p3804
sg365
g109
sg366
V00
p3805
sg368
g111
sg369
I202703
ssI202710
(dp3806
g72
VMarquette
p3807
sg74
V236
p3808
sg76
V2017
p3809
sg78
F28.0
sg79
VSEP 14, 1989
p3810
sg81
V6-8
p3811
sg83
VJimmy Butler
p3812
sg85
I1610612750
sg86
V23
p3813
sg88
g541
sg89
V00
p3814
sg91
g69
sg92
I202710
ssI202713
(dp3815
g444
VDuke
p3816
sg446
V228
p3817
sg448
V2017
p3818
sg450
F29.0
sg451
VMAY 04, 1988
p3819
sg453
V6-8
p3820
sg455
VKyle Singler
p3821
sg457
I1610612760
sg458
V15
p3822
sg460
g19
sg462
V00
p3823
sg464
g111
sg465
I202713
ssI202714
(dp3824
g2
VButler
p3825
sg4
V203
p3826
sg6
V2017
p3827
sg8
F27.0
sg9
VAPR 22, 1990
p3828
sg11
V6-3
p3829
sg13
VShelvin Mack
p3830
sg15
I1610612753
sg16
g207
sg18
g541
sg20
V00
p3831
sg22
g69
sg24
I202714
ssI202718
(dp3832
g135
VFlorida
p3833
sg137
V230
p3834
sg139
V2017
p3835
sg141
F29.0
sg142
VOCT 25, 1988
p3836
sg144
V6-10
p3837
sg146
VChandler Parsons
p3838
sg148
I1610612763
sg149
V25
p3839
sg150
g541
sg151
V00
p3840
sg153
g111
sg154
I202718
ssI202722
(dp3841
g178
Nsg180
V210
p3842
sg182
V2017
p3843
sg184
F24.0
sg185
VNOV 12, 1992
p3844
sg187
V6-10
p3845
sg189
VDavis Bertans
p3846
sg191
I1610612759
sg192
V42
p3847
sg194
g87
sg196
V00
p3848
sg198
g111
sg199
I202722
ssI202732
(dp3849
g304
VKentucky
p3850
sg306
V209
p3851
sg308
V2017
p3852
sg310
F29.0
sg311
VMAR 31, 1988
p3853
sg313
V6-6
p3854
sg315
VDeAndre Liggins
p3855
sg317
I1610612749
sg318
V25
p3856
sg320
g522
sg321
V00
p3857
sg323
g69
sg324
I202732
ssI202734
(dp3858
g999
VPurdue
p3859
sg1001
V191
p3860
sg1003
V2017
p3861
sg1005
F28.0
sg1006
VFEB 25, 1989
p3862
sg1008
V6-4
p3863
sg1010
VE'Twaun Moore
p3864
sg1012
I1610612740
sg1013
V55
p3865
sg1015
g541
sg1016
V00
p3866
sg1018
g69
sg1019
I202734
ssI202738
(dp3867
g643
VWashington
p3868
sg645
V185
p3869
sg647
V2017
p3870
sg649
F28.0
sg650
VFEB 07, 1989
p3871
sg652
V5-9
p3872
sg654
VIsaiah Thomas
p3873
sg656
I1610612739
sg657
g109
sg659
g541
sg660
V00
p3874
sg662
g69
sg663
I202738
ssI2037
(dp3875
g72
VMichigan
p3876
sg74
V185
p3877
sg76
V2017
p3878
sg78
F37.0
sg79
VMAR 20, 1980
p3879
sg81
V6-5
p3880
sg83
VJamal Crawford
p3881
sg85
I1610612750
sg86
V11
p3882
sg88
V17
p3883
sg89
V00
p3884
sg91
g69
sg92
I2037
ss.