(dp0
I203524
(dp1
VSCHOOL
p2
VArizona
p3
sVWEIGHT
p4
V225
p5
sVSEASON
p6
V2017
p7
sVAGE
p8
F26.0
sVBIRTH_DATE
p9
VMAR 18, 1991
p10
sVHEIGHT
p11
V6-7
p12
sVPLAYER
p13
VSolomon Hill
p14
sVTeamID
p15
I1610612740
sVNUM
p16
V44
p17
sVEXP
p18
V4
p19
sVLeagueID
p20
V00
p21
sVPOSITION
p22
VF
p23
sVPLAYER_ID
p24
I203524
ssI200794
(dp25
VSCHOOL
p26
VLouisiana Tech
p27
sVWEIGHT
p28
V246
p29
sVSEASON
p30
V2017
p31
sVAGE
p32
F32.0
sVBIRTH_DATE
p33
VFEB 10, 1985
p34
sVHEIGHT
p35
V6-8
p36
sVPLAYER
p37
VPaul Millsap
p38
sVTeamID
p39
I1610612743
sVNUM
p40
g19
sVEXP
p41
V11
p42
sVLeagueID
p43
V00
p44
sVPOSITION
p45
g23
sVPLAYER_ID
p46
I200794
ssI1626144
(dp47
g26
Nsg28
V200
p48
sg30
V2017
p49
sg32
F21.0
sg33
VMAR 05, 1996
p50
sg35
V6-5
p51
sg37
VEmmanuel Mudiay
p52
sg39
I1610612743
sg40
V0
p53
sg41
V2
p54
sg43
V00
p55
sg45
VG
p56
sg46
I1626144
ssI1627739
(dp57
VSCHOOL
p58
VProvidence
p59
sVWEIGHT
p60
V210
p61
sVSEASON
p62
V2017
p63
sVAGE
p64
F23.0
sVBIRTH_DATE
p65
VMAR 18, 1994
p66
sVHEIGHT
p67
V6-4
p68
sVPLAYER
p69
VKris Dunn
p70
sVTeamID
p71
I1610612741
sVNUM
p72
V32
p73
sVEXP
p74
V1
p75
sVLeagueID
p76
V00
p77
sVPOSITION
p78
g56
sVPLAYER_ID
p79
I1627739
ssI1626150
(dp80
VSCHOOL
p81
VKentucky
p82
sVWEIGHT
p83
V213
p84
sVSEASON
p85
V2017
p86
sVAGE
p87
F23.0
sVBIRTH_DATE
p88
VOCT 28, 1994
p89
sVHEIGHT
p90
V6-6
p91
sVPLAYER
p92
VAndrew Harrison
p93
sVTeamID
p94
I1610612763
sVNUM
p95
V5
p96
sVEXP
p97
g75
sVLeagueID
p98
V00
p99
sVPOSITION
p100
g56
sVPLAYER_ID
p101
I1626150
ssI1626153
(dp102
VSCHOOL
p103
VUtah
p104
sVWEIGHT
p105
V190
p106
sVSEASON
p107
V2017
p108
sVAGE
p109
F25.0
sVBIRTH_DATE
p110
VAPR 26, 1992
p111
sVHEIGHT
p112
V6-5
p113
sVPLAYER
p114
VDelon Wright
p115
sVTeamID
p116
I1610612761
sVNUM
p117
V55
p118
sVEXP
p119
g54
sVLeagueID
p120
V00
p121
sVPOSITION
p122
g56
sVPLAYER_ID
p123
I1626153
ssI1626159
(dp124
VSCHOOL
p125
VDuke
p126
sVWEIGHT
p127
V225
p128
sVSEASON
p129
V2017
p130
sVAGE
p131
F21.0
sVBIRTH_DATE
p132
VMAR 26, 1996
p133
sVHEIGHT
p134
V6-7
p135
sVPLAYER
p136
VJustise Winslow
p137
sVTeamID
p138
I1610612748
sVNUM
p139
V20
p140
sVEXP
p141
g54
sVLeagueID
p142
V00
p143
sVPOSITION
p144
g23
sVPLAYER_ID
p145
I1626159
ssI201967
(dp146
g2
VVillanova
p147
sg4
V230
p148
sg6
V2017
p149
sg8
F30.0
sg9
VAPR 22, 1987
p150
sg11
V6-8
p151
sg13
VDante Cunningham
p152
sg15
I1610612740
sg16
V33
p153
sg18
V8
p154
sg20
V00
p155
sg22
g23
sg24
I201967
ssI1627827
(dp156
VSCHOOL
p157
VFlorida
p158
sVWEIGHT
p159
V220
p160
sVSEASON
p161
V2017
p162
sVAGE
p163
F24.0
sVBIRTH_DATE
p164
VMAY 04, 1993
p165
sVHEIGHT
p166
V6-8
p167
sVPLAYER
p168
VDorian Finney-Smith
p169
sVTeamID
p170
I1610612742
sVNUM
p171
V10
p172
sVEXP
p173
g75
sVLeagueID
p174
V00
p175
sVPOSITION
p176
g23
sVPLAYER_ID
p177
I1627827
ssI200757
(dp178
VSCHOOL
p179
VVevey, Switzerland
p180
sVWEIGHT
p181
V220
p182
sVSEASON
p183
V2017
p184
sVAGE
p185
F33.0
sVBIRTH_DATE
p186
VMAY 02, 1984
p187
sVHEIGHT
p188
V6-7
p189
sVPLAYER
p190
VThabo Sefolosha
p191
sVTeamID
p192
I1610612762
sVNUM
p193
V22
p194
sVEXP
p195
V11
p196
sVLeagueID
p197
V00
p198
sVPOSITION
p199
g23
sVPLAYER_ID
p200
I200757
ssI1626166
(dp201
g58
VMurray State
p202
sg60
V185
p203
sg62
V2017
p204
sg64
F23.0
sg65
VAUG 08, 1994
p205
sg67
V6-3
p206
sg69
VCameron Payne
p207
sg71
I1610612741
sg72
V22
p208
sg74
g54
sg76
V00
p209
sg78
g56
sg79
I1626166
ssI1626168
(dp210
g26
VKentucky
p211
sg28
V234
p212
sg30
V2017
p213
sg32
F22.0
sg33
VNOV 05, 1995
p214
sg35
V6-10
p215
sg37
VTrey Lyles
p216
sg39
I1610612743
sg40
V7
p217
sg41
g54
sg43
V00
p218
sg45
g23
sg46
I1626168
ssI2617
(dp219
g125
VFlorida
p220
sg127
V235
p221
sg129
V2017
p222
sg131
F37.0
sg132
VJUN 09, 1980
p223
sg134
V6-8
p224
sg136
VUdonis Haslem
p225
sg138
I1610612748
sg139
V40
p226
sg141
V14
p227
sg142
V00
p228
sg144
g23
sg145
I2617
ssI1626170
(dp229
g58
VNotre Dame
p230
sg60
V198
p231
sg62
V2017
p232
sg64
F25.0
sg65
VOCT 09, 1992
p233
sg67
V6-4
p234
sg69
VJerian Grant
p235
sg71
I1610612741
sg72
g54
sg74
g54
sg76
V00
p236
sg78
g56
sg79
I1626170
ssI1626171
(dp237
g58
VArkansas
p238
sg60
V248
p239
sg62
V2017
p240
sg64
F22.0
sg65
VFEB 10, 1995
p241
sg67
V6-11
p242
sg69
VBobby Portis
p243
sg71
I1610612741
sg72
g96
sg74
g54
sg76
V00
p244
sg78
g23
sg79
I1626171
ssI1626173
(dp245
VSCHOOL
p246
VUNLV
p247
sVWEIGHT
p248
V202
p249
sVSEASON
p250
V2017
p251
sVAGE
p252
F21.0
sVBIRTH_DATE
p253
VAUG 16, 1996
p254
sVHEIGHT
p255
V6-6
p256
sVPLAYER
p257
VRashad Vaughn
p258
sVTeamID
p259
I1610612749
sVNUM
p260
V20
p261
sVEXP
p262
g54
sVLeagueID
p263
V00
p264
sVPOSITION
p265
g56
sVPLAYER_ID
p266
I1626173
ssI1626175
(dp267
g125
VLouisiana State
p268
sg127
V235
p269
sg129
V2017
p270
sg131
F23.0
sg132
VJUL 09, 1994
p271
sg134
V6-8
p272
sg136
VJordan Mickey
p273
sg138
I1610612748
sg139
V25
p274
sg141
g54
sg142
V00
p275
sg144
VC-F
p276
sg145
I1626175
ssI200768
(dp277
g103
VVillanova
p278
sg105
V205
p279
sg107
V2017
p280
sg109
F31.0
sg110
VMAR 25, 1986
p281
sg112
V6-0
p282
sg114
VKyle Lowry
p283
sg116
I1610612761
sg117
g217
sg119
V11
p284
sg120
V00
p285
sg122
g56
sg123
I200768
ssI1626177
(dp286
VSCHOOL
p287
VKentucky
p288
sVWEIGHT
p289
V255
p290
sVSEASON
p291
V2017
p292
sVAGE
p293
F22.0
sVBIRTH_DATE
p294
VSEP 22, 1995
p295
sVHEIGHT
p296
V7-0
p297
sVPLAYER
p298
VDakari Johnson
p299
sVTeamID
p300
I1610612760
sVNUM
p301
V44
p302
sVEXP
p303
VR
p304
sVLeagueID
p305
V00
p306
sVPOSITION
p307
VC
p308
sVPLAYER_ID
p309
I1626177
ssI1626181
(dp310
g103
VUCLA
p311
sg105
V215
p312
sg107
V2017
p313
sg109
F24.0
sg110
VMAY 25, 1993
p314
sg112
V6-4
p315
sg114
VNorman Powell
p316
sg116
I1610612761
sg117
V24
p317
sg119
g54
sg120
V00
p318
sg122
VF-G
p319
sg123
I1626181
ssI1626185
(dp320
g81
VLouisiana State
p321
sg83
V239
p322
sg85
V2017
p323
sg87
F23.0
sg88
VMAY 24, 1994
p324
sg90
V6-10
p325
sg92
VJarell Martin
p326
sg94
I1610612763
sg95
g75
sg97
g54
sg98
V00
p327
sg100
g23
sg101
I1626185
ssI202083
(dp328
g157
VMarquette
p329
sg159
V220
p330
sg161
V2017
p331
sg163
F31.0
sg164
VOCT 14, 1986
p332
sg166
V6-5
p333
sg168
VWesley Matthews
p334
sg170
I1610612742
sg171
V23
p335
sg173
g154
sg174
V00
p336
sg176
VG-F
p337
sg177
I202083
ssI202324
(dp338
g179
VGeorgia Tech
p339
sg181
V265
p340
sg183
V2017
p341
sg185
F26.0
sg186
VJUL 15, 1991
p342
sg188
V6-10
p343
sg190
VDerrick Favors
p344
sg192
I1610612762
sg193
V15
p345
sg195
g217
sg197
V00
p346
sg199
VF-C
p347
sg200
I202324
ssI202326
(dp348
g2
VKentucky
p349
sg4
V270
p350
sg6
V2017
p351
sg8
F27.0
sg9
VAUG 13, 1990
p352
sg11
V6-11
p353
sg13
VDeMarcus Cousins
p354
sg15
I1610612740
sg16
g53
sg18
g217
sg20
V00
p355
sg22
g308
sg24
I202326
ssI202327
(dp356
g179
VBaylor
p357
sg181
V245
p358
sg183
V2017
p359
sg185
F30.0
sg186
VMAY 20, 1987
p360
sg188
V6-10
p361
sg190
VEkpe Udoh
p362
sg192
I1610612762
sg193
V33
p363
sg195
g96
sg197
V00
p364
sg199
VC-F
p365
sg200
I202327
ssI1627736
(dp366
g26
VFlorida State
p367
sg28
V196
p368
sg30
V2017
p369
sg32
F20.0
sg33
VNOV 26, 1996
p370
sg35
V6-5
p371
sg37
VMalik Beasley
p372
sg39
I1610612743
sg40
V25
p373
sg41
g75
sg43
V00
p374
sg45
g56
sg46
I1627736
ssI1627738
(dp375
g81
VMichigan State
p376
sg83
V237
p377
sg85
V2017
p378
sg87
F20.0
sg88
VDEC 02, 1996
p379
sg90
V6-11
p380
sg92
VDeyonta Davis
p381
sg94
I1610612763
sg95
V21
p382
sg97
g75
sg98
V00
p383
sg100
VC-F
p384
sg101
I1627738
ssI202331
(dp385
g287
VFresno State
p386
sg289
V220
p387
sg291
V2017
p388
sg293
F27.0
sg294
VMAY 02, 1990
p389
sg296
V6-9
p390
sg298
VPaul George
p391
sg300
I1610612760
sg301
V13
p392
sg303
g217
sg305
V00
p393
sg307
g23
sg309
I202331
ssI1626205
(dp394
g81
VTexas-El Paso
p395
sg83
V208
p396
sg85
V2017
p397
sg87
F23.0
sg88
VAUG 05, 1994
p398
sg90
V6-8
p399
sg92
VVincent Hunter
p400
sg94
I1610612763
sg95
V32
p401
sg97
g304
sg98
V00
p402
sg100
g23
sg101
I1626205
ssI202335
(dp403
g287
VKentucky
p404
sg289
V230
p405
sg291
V2017
p406
sg293
F28.0
sg294
VMAR 14, 1989
p407
sg296
V6-9
p408
sg298
VPatrick Patterson
p409
sg300
I1610612760
sg301
V54
p410
sg303
g217
sg305
V00
p411
sg307
g23
sg309
I202335
ssI202339
(dp412
g246
VKentucky
p413
sg248
V205
p414
sg250
V2017
p415
sg252
F27.0
sg253
VDEC 09, 1989
p416
sg255
V6-1
p417
sg257
VEric Bledsoe
p418
sg259
I1610612749
sg260
V6
p419
sg262
g217
sg263
V00
p420
sg265
g56
sg266
I202339
ssI1627748
(dp421
g246
Nsg248
V223
p422
sg250
V2017
p423
sg252
F20.0
sg253
VFEB 25, 1997
p424
sg255
V7-1
p425
sg257
VThon Maker
p426
sg259
I1610612749
sg260
g217
sg262
g75
sg263
V00
p427
sg265
VC-F
p428
sg266
I1627748
ssI1627750
(dp429
g26
VKentucky
p430
sg28
V207
p431
sg30
V2017
p432
sg32
F20.0
sg33
VFEB 23, 1997
p433
sg35
V6-4
p434
sg37
VJamal Murray
p435
sg39
I1610612743
sg40
V27
p436
sg41
g75
sg43
V00
p437
sg45
g56
sg46
I1627750
ssI1627751
(dp438
g103
VUtah
p439
sg105
V230
p440
sg107
V2017
p441
sg109
F22.0
sg110
VOCT 15, 1995
p442
sg112
V7-0
p443
sg114
VJakob Poeltl
p444
sg116
I1610612761
sg117
V42
p445
sg119
g75
sg120
V00
p446
sg122
g308
sg123
I1627751
ssI202347
(dp447
g58
VWashington
p448
sg60
V225
p449
sg62
V2017
p450
sg64
F29.0
sg65
VMAR 10, 1988
p451
sg67
V6-7
p452
sg69
VQuincy Pondexter
p453
sg71
I1610612741
sg72
V20
p454
sg74
g96
sg76
V00
p455
sg78
g56
sg79
I202347
ssI1626220
(dp456
g179
VBaylor
p457
sg181
V226
p458
sg183
V2017
p459
sg185
F24.0
sg186
VJUN 05, 1993
p460
sg188
V6-6
p461
sg190
VRoyce O'Neale
p462
sg192
I1610612762
sg193
V23
p463
sg195
g304
sg197
V00
p464
sg199
g23
sg200
I1626220
ssI1627762
(dp465
g246
VWeber State
p466
sg248
V235
p467
sg250
V2017
p468
sg252
F23.0
sg253
VJAN 28, 1994
p469
sg255
V6-9
p470
sg257
VJoel Bolomboy
p471
sg259
I1610612749
sg260
V24
p472
sg262
g75
sg263
V00
p473
sg265
VF-C
p474
sg266
I1627762
ssI202355
(dp475
g125
VMarshall
p476
sg127
V265
p477
sg129
V2017
p478
sg131
F28.0
sg132
VJUN 13, 1989
p479
sg134
V7-0
p480
sg136
VHassan Whiteside
p481
sg138
I1610612748
sg139
V21
p482
sg141
g96
sg142
V00
p483
sg144
g308
sg145
I202355
ssI1627767
(dp484
g2
VKansas
p485
sg4
V220
p486
sg6
V2017
p487
sg8
F21.0
sg9
VSEP 13, 1996
p488
sg11
V6-9
p489
sg13
VCheick Diallo
p490
sg15
I1610612740
sg16
V13
p491
sg18
g75
sg20
V00
p492
sg22
g23
sg24
I1627767
ssI203897
(dp493
g58
VUCLA
p494
sg60
V185
p495
sg62
V2017
p496
sg64
F22.0
sg65
VMAR 10, 1995
p497
sg67
V6-5
p498
sg69
VZach LaVine
p499
sg71
I1610612741
sg72
g154
sg74
V3
p500
sg76
V00
p501
sg78
g56
sg79
I203897
ssI200826
(dp502
g157
VNortheastern
p503
sg159
V185
p504
sg161
V2017
p505
sg163
F33.0
sg164
VJUN 26, 1984
p506
sg166
V6-0
p507
sg168
VJ.J. Barea
p508
sg170
I1610612742
sg171
g96
sg173
V11
p509
sg174
V00
p510
sg176
g56
sg177
I200826
ssI1627772
(dp511
g287
VConnecticut
p512
sg289
V195
p513
sg291
V2017
p514
sg293
F22.0
sg294
VAUG 08, 1995
p515
sg296
V6-7
p516
sg298
VDaniel Hamilton
p517
sg300
I1610612760
sg301
V25
p518
sg303
g304
sg305
V00
p519
sg307
g56
sg309
I1627772
ssI1627773
(dp520
g125
VPurdue
p521
sg127
V260
p522
sg129
V2017
p523
sg131
F25.0
sg132
VAUG 27, 1992
p524
sg134
V7-0
p525
sg136
VAJ Hammons
p526
sg138
I1610612748
sg139
g19
sg141
g75
sg142
V00
p527
sg144
g308
sg145
I1627773
ssI1627780
(dp528
g246
VOregon State
p529
sg248
V190
p530
sg250
V2017
p531
sg252
F24.0
sg253
VDEC 01, 1992
p532
sg255
V6-3
p533
sg257
VGary Payton II
p534
sg259
I1610612749
sg260
g53
sg262
g75
sg263
V00
p535
sg265
g56
sg266
I1627780
ssI203500
(dp536
g287
VPittsburgh
p537
sg289
V255
p538
sg291
V2017
p539
sg293
F24.0
sg294
VJUL 20, 1993
p540
sg296
V7-0
p541
sg298
VSteven Adams
p542
sg300
I1610612760
sg301
V12
p543
sg303
g19
sg305
V00
p544
sg307
g308
sg309
I203500
ssI1627782
(dp545
g81
VKansas
p546
sg83
V230
p547
sg85
V2017
p548
sg87
F23.0
sg88
VSEP 30, 1994
p549
sg90
V6-5
p550
sg92
VWayne Selden
p551
sg94
I1610612763
sg95
g217
sg97
g75
sg98
V00
p552
sg100
VG-F
p553
sg101
I1627782
ssI1627783
(dp554
g103
VNew Mexico State
p555
sg105
V230
p556
sg107
V2017
p557
sg109
F23.0
sg110
VAPR 02, 1994
p558
sg112
V6-9
p559
sg114
VPascal Siakam
p560
sg116
I1610612761
sg117
V43
p561
sg119
g75
sg120
V00
p562
sg122
g23
sg123
I1627783
ssI1627756
(dp563
g58
VMichigan State
p564
sg60
V214
p565
sg62
V2017
p566
sg64
F23.0
sg65
VNOV 16, 1993
p567
sg67
V6-6
p568
sg69
VDenzel Valentine
p569
sg71
I1610612741
sg72
V45
p570
sg74
g75
sg76
V00
p571
sg78
g23
sg79
I1627756
ssI203914
(dp572
g26
VMichigan State
p573
sg28
V210
p574
sg30
V2017
p575
sg32
F23.0
sg33
VSEP 14, 1994
p576
sg35
V6-4
p577
sg37
VGary Harris
p578
sg39
I1610612743
sg40
V14
p579
sg41
g500
sg43
V00
p580
sg45
g56
sg46
I203914
ssI203918
(dp581
g179
VDuke
p582
sg181
V206
p583
sg183
V2017
p584
sg185
F25.0
sg186
VOCT 20, 1992
p585
sg188
V6-8
p586
sg190
VRodney Hood
p587
sg192
I1610612762
sg193
g96
sg195
g500
sg197
V00
p588
sg199
g56
sg200
I203918
ssI1626257
(dp589
g157
Nsg159
V235
p590
sg161
V2017
p591
sg163
F31.0
sg164
VJUN 15, 1986
p592
sg166
V7-2
p593
sg168
VSalah Mejri
p594
sg170
I1610612742
sg171
V50
p595
sg173
g54
sg174
V00
p596
sg176
g308
sg177
I1626257
ssI1626259
(dp597
g103
VHoly Cross
p598
sg105
V210
p599
sg107
V2017
p600
sg109
F24.0
sg110
VMAR 06, 1993
p601
sg112
V6-7
p602
sg114
VMalcolm Miller
p603
sg116
I1610612761
sg117
V13
p604
sg119
g304
sg120
V00
p605
sg122
g23
sg123
I1626259
ssI203924
(dp606
g287
VSyracuse
p607
sg289
V220
p608
sg291
V2017
p609
sg293
F23.0
sg294
VMAR 12, 1994
p610
sg296
V6-9
p611
sg298
VJerami Grant
p612
sg300
I1610612760
sg301
V9
p613
sg303
g500
sg305
V00
p614
sg307
g23
sg309
I203924
ssI2207
(dp615
g179
VArkansas
p616
sg181
V240
p617
sg183
V2017
p618
sg185
F36.0
sg186
VJUN 29, 1981
p619
sg188
V6-7
p620
sg190
VJoe Johnson
p621
sg192
I1610612762
sg193
g419
sg195
V16
p622
sg197
V00
p623
sg199
VG-F
p624
sg200
I2207
ssI2210
(dp625
g26
VArizona
p626
sg28
V233
p627
sg30
V2017
p628
sg32
F37.0
sg33
VJUN 21, 1980
p629
sg35
V6-7
p630
sg37
VRichard Jefferson
p631
sg39
I1610612743
sg40
V22
p632
sg41
V16
p633
sg43
V00
p634
sg45
g23
sg46
I2210
ssI203939
(dp635
g157
VStanford
p636
sg159
V240
p637
sg161
V2017
p638
sg163
F26.0
sg164
VJUL 20, 1991
p639
sg166
V6-11
p640
sg168
VDwight Powell
p641
sg170
I1610612742
sg171
g217
sg173
g500
sg174
V00
p642
sg176
VF-C
p643
sg177
I203939
ssI1627812
(dp644
g157
VIndiana
p645
sg159
V180
p646
sg161
V2017
p647
sg163
F24.0
sg164
VMAY 09, 1993
p648
sg166
V6-0
p649
sg168
VYogi Ferrell
p650
sg170
I1610612742
sg171
V11
p651
sg173
g75
sg174
V00
p652
sg176
g56
sg177
I1627812
ssI203121
(dp653
g2
VKentucky
p654
sg4
V225
p655
sg6
V2017
p656
sg8
F27.0
sg9
VMAR 21, 1990
p657
sg11
V6-8
p658
sg13
VDarius Miller
p659
sg15
I1610612740
sg16
V21
p660
sg18
g500
sg20
V00
p661
sg22
g23
sg24
I203121
ssI2734
(dp662
g157
VWisconsin
p663
sg159
V185
p664
sg161
V2017
p665
sg163
F34.0
sg164
VFEB 27, 1983
p666
sg166
V6-3
p667
sg168
VDevin Harris
p668
sg170
I1610612742
sg171
V34
p669
sg173
V13
p670
sg174
V00
p671
sg176
g56
sg177
I2734
ssI1627823
(dp672
g26
Nsg28
V230
p673
sg30
V2017
p674
sg32
F22.0
sg33
VSEP 28, 1995
p675
sg35
V6-9
p676
sg37
VJuan Hernangomez
p677
sg39
I1610612743
sg40
V41
p678
sg41
g75
sg43
V00
p679
sg45
g23
sg46
I1627823
ssI201950
(dp680
g2
VUCLA
p681
sg4
V205
p682
sg6
V2017
p683
sg8
F27.0
sg9
VJUN 12, 1990
p684
sg11
V6-4
p685
sg13
VJrue Holiday
p686
sg15
I1610612740
sg16
V11
p687
sg18
g154
sg20
V00
p688
sg22
g56
sg24
I201950
ssI203953
(dp689
g246
VDuke
p690
sg248
V250
p691
sg250
V2017
p692
sg252
F22.0
sg253
VMAR 15, 1995
p693
sg255
V6-8
p694
sg257
VJabari Parker
p695
sg259
I1610612749
sg260
V12
p696
sg262
g500
sg263
V00
p697
sg265
g23
sg266
I203953
ssI1627763
(dp698
g246
VVirginia
p699
sg248
V215
p700
sg250
V2017
p701
sg252
F24.0
sg253
VDEC 11, 1992
p702
sg255
V6-5
p703
sg257
VMalcolm Brogdon
p704
sg259
I1610612749
sg260
V13
p705
sg262
g75
sg263
V00
p706
sg265
g56
sg266
I1627763
ssI203957
(dp707
g179
Nsg181
V190
p708
sg183
V2017
p709
sg185
F22.0
sg186
VJUL 13, 1995
p710
sg188
V6-6
p711
sg190
VDante Exum
p712
sg192
I1610612762
sg193
V11
p713
sg195
g54
sg197
V00
p714
sg199
g56
sg200
I203957
ssI1627832
(dp715
g103
VWichita State
p716
sg105
V195
p717
sg107
V2017
p718
sg109
F23.0
sg110
VFEB 25, 1994
p719
sg112
V6-0
p720
sg114
VFred VanVleet
p721
sg116
I1610612761
sg117
V23
p722
sg119
g75
sg120
V00
p723
sg122
g56
sg123
I1627832
ssI203962
(dp724
g287
VStanford
p725
sg289
V230
p726
sg291
V2017
p727
sg293
F25.0
sg294
VDEC 19, 1991
p728
sg296
V6-7
p729
sg298
VJosh Huestis
p730
sg300
I1610612760
sg301
V34
p731
sg303
g54
sg305
V00
p732
sg307
g23
sg309
I203962
ssI1627835
(dp733
g58
Nsg60
V226
p734
sg62
V2017
p735
sg64
F23.0
sg65
VFEB 18, 1994
p736
sg67
V6-8
p737
sg69
VPaul Zipser
p738
sg71
I1610612741
sg72
V16
p739
sg74
g75
sg76
V00
p740
sg78
g23
sg79
I1627835
ssI2749
(dp741
g2
VSaint Joseph's
p742
sg4
V190
p743
sg6
V2017
p744
sg8
F35.0
sg9
VFEB 09, 1982
p745
sg11
V6-0
p746
sg13
VJameer Nelson
p747
sg15
I1610612740
sg16
V14
p748
sg18
V13
p749
sg20
V00
p750
sg22
g56
sg24
I2749
ssI1628021
(dp751
g58
VCal Poly-S.L.O.
p752
sg60
V209
p753
sg62
V2017
p754
sg64
F24.0
sg65
VJAN 14, 1993
p755
sg67
V6-4
p756
sg69
VDavid Nwaba
p757
sg71
I1610612741
sg72
V11
p758
sg74
g75
sg76
V00
p759
sg78
g56
sg79
I1628021
ssI203457
(dp760
g157
VKentucky
p761
sg159
V220
p762
sg161
V2017
p763
sg163
F23.0
sg164
VAPR 10, 1994
p764
sg166
V6-11
p765
sg168
VNerlens Noel
p766
sg170
I1610612742
sg171
g500
sg173
g500
sg174
V00
p767
sg176
g308
sg177
I203457
ssI2754
(dp768
g2
VOklahoma State
p769
sg4
V213
p770
sg6
V2017
p771
sg8
F35.0
sg9
VJAN 11, 1982
p772
sg11
V6-4
p773
sg13
VTony Allen
p774
sg15
I1610612740
sg16
V24
p775
sg18
V13
p776
sg20
V00
p777
sg22
VG-F
p778
sg24
I2754
ssI203460
(dp779
g287
VColorado
p780
sg289
V210
p781
sg291
V2017
p782
sg293
F25.0
sg294
VDEC 04, 1991
p783
sg296
V6-7
p784
sg298
VAndre Roberson
p785
sg300
I1610612760
sg301
V21
p786
sg303
g19
sg305
V00
p787
sg307
g56
sg309
I203460
ssI203463
(dp788
g81
VKansas
p789
sg83
V195
p790
sg85
V2017
p791
sg87
F24.0
sg88
VFEB 11, 1993
p792
sg90
V6-5
p793
sg92
VBen McLemore
p794
sg94
I1610612763
sg95
V23
p795
sg97
g19
sg98
V00
p796
sg100
g56
sg101
I203463
ssI1627853
(dp797
g58
VVillanova
p798
sg60
V195
p799
sg62
V2017
p800
sg64
F23.0
sg65
VMAR 26, 1994
p801
sg67
V6-3
p802
sg69
VRyan Arcidiacono
p803
sg71
I1610612741
sg72
V15
p804
sg74
g304
sg76
V00
p805
sg78
g56
sg79
I1627853
ssI1627855
(dp806
g125
VFlorida State
p807
sg127
V215
p808
sg129
V2017
p809
sg131
F25.0
sg132
VAUG 13, 1992
p810
sg134
V6-8
p811
sg136
VOkaro White
p812
sg138
I1610612748
sg139
V15
p813
sg141
g75
sg142
V00
p814
sg144
g23
sg145
I1627855
ssI201936
(dp815
g81
VMemphis
p816
sg83
V220
p817
sg85
V2017
p818
sg87
F28.0
sg88
VSEP 19, 1989
p819
sg90
V6-6
p820
sg92
VTyreke Evans
p821
sg94
I1610612763
sg95
V12
p822
sg97
g154
sg98
V00
p823
sg100
VG-F
p824
sg101
I201936
ssI201937
(dp825
g179
VEl Masnou, Spain
p826
sg181
V190
p827
sg183
V2017
p828
sg185
F27.0
sg186
VOCT 21, 1990
p829
sg188
V6-4
p830
sg190
VRicky Rubio
p831
sg192
I1610612762
sg193
g500
sg195
g419
sg197
V00
p832
sg199
g56
sg200
I201937
ssI1628372
(dp833
g157
VNorth Carolina State
p834
sg159
V195
p835
sg161
V2017
p836
sg163
F19.0
sg164
VNOV 25, 1997
p837
sg166
V6-3
p838
sg168
VDennis Smith Jr.
p839
sg170
I1610612742
sg171
g75
sg173
g304
sg174
V00
p840
sg176
g56
sg177
I1628372
ssI201942
(dp841
g103
VSouthern California
p842
sg105
V220
p843
sg107
V2017
p844
sg109
F28.0
sg110
VAUG 07, 1989
p845
sg112
V6-7
p846
sg114
VDeMar DeRozan
p847
sg116
I1610612761
sg117
V10
p848
sg119
g154
sg120
V00
p849
sg122
g56
sg123
I201942
ssI203481
(dp850
g157
VKansas
p851
sg159
V230
p852
sg161
V2017
p853
sg163
F27.0
sg164
VMAR 07, 1990
p854
sg166
V7-0
p855
sg168
VJeff Withey
p856
sg170
I1610612742
sg171
V17
p857
sg173
g19
sg174
V00
p858
sg176
g308
sg177
I203481
ssI1628378
(dp859
g179
VLouisville
p860
sg181
V215
p861
sg183
V2017
p862
sg185
F21.0
sg186
VSEP 07, 1996
p863
sg188
V6-3
p864
sg190
VDonovan Mitchell
p865
sg192
I1610612762
sg193
V45
p866
sg195
g304
sg197
V00
p867
sg199
g56
sg200
I1628378
ssI201949
(dp868
g125
VWake Forest
p869
sg127
V240
p870
sg129
V2017
p871
sg131
F30.0
sg132
VFEB 20, 1987
p872
sg134
V6-8
p873
sg136
VJames Johnson
p874
sg138
I1610612748
sg139
V16
p875
sg141
g154
sg142
V00
p876
sg144
g23
sg145
I201949
ssI203998
(dp877
g103
Nsg105
V205
p878
sg107
V2017
p879
sg109
F22.0
sg110
VSEP 21, 1995
p880
sg112
V6-9
p881
sg114
VBruno Caboclo
p882
sg116
I1610612761
sg117
g96
sg119
g500
sg120
V00
p883
sg122
g23
sg123
I203998
ssI203999
(dp884
g26
Nsg28
V250
p885
sg30
V2017
p886
sg32
F22.0
sg33
VFEB 19, 1995
p887
sg35
V6-10
p888
sg37
VNikola Jokic
p889
sg39
I1610612743
sg40
V15
p890
sg41
g54
sg43
V00
p891
sg45
g308
sg46
I203999
ssI1628384
(dp892
g103
VIndiana
p893
sg105
V235
p894
sg107
V2017
p895
sg109
F20.0
sg110
VJUL 17, 1997
p896
sg112
V6-8
p897
sg114
VOG Anunoby
p898
sg116
I1610612761
sg117
g500
sg119
g304
sg120
V00
p899
sg122
g23
sg123
I1628384
ssI203489
(dp900
g179
VSouth Dakota State
p901
sg181
V190
p902
sg183
V2017
p903
sg185
F26.0
sg186
VMAY 15, 1991
p904
sg188
V6-4
p905
sg190
VNate Wolters
p906
sg192
I1610612762
sg193
V16
p907
sg195
g54
sg197
V00
p908
sg199
g56
sg200
I203489
ssI1628389
(dp909
g125
VKentucky
p910
sg127
V255
p911
sg129
V2017
p912
sg131
F20.0
sg132
VJUL 18, 1997
p913
sg134
V6-10
p914
sg136
VBam Adebayo
p915
sg138
I1610612748
sg139
V13
p916
sg141
g304
sg142
V00
p917
sg144
VC-F
p918
sg145
I1628389
ssI1628390
(dp919
g287
Nsg289
V184
p920
sg291
V2017
p921
sg293
F19.0
sg294
VMAY 17, 1998
p922
sg296
V6-7
p923
sg298
VTerrance Ferguson
p924
sg300
I1610612760
sg301
V23
p925
sg303
g304
sg305
V00
p926
sg307
g56
sg309
I1628390
ssI1628391
(dp927
g246
VMichigan
p928
sg248
V236
p929
sg250
V2017
p930
sg252
F21.0
sg253
VFEB 19, 1996
p931
sg255
V6-10
p932
sg257
VD.J. Wilson
p933
sg259
I1610612749
sg260
g96
sg262
g304
sg263
V00
p934
sg265
g23
sg266
I1628391
ssI203497
(dp935
g179
VFrance
p936
sg181
V245
p937
sg183
V2017
p938
sg185
F25.0
sg186
VJUN 26, 1992
p939
sg188
V7-1
p940
sg190
VRudy Gobert
p941
sg192
I1610612762
sg193
V27
p942
sg195
g19
sg197
V00
p943
sg199
g308
sg200
I203497
ssI1627883
(dp944
g2
VTexas A&M
p945
sg4
V220
p946
sg6
V2017
p947
sg8
F24.0
sg9
VMAY 27, 1993
p948
sg11
V6-7
p949
sg13
VJalen Jones
p950
sg15
I1610612740
sg16
V12
p951
sg18
g304
sg20
V00
p952
sg22
g23
sg24
I1627883
ssI1628396
(dp953
g179
VNorth Carolina
p954
sg181
V248
p955
sg183
V2017
p956
sg185
F19.0
sg186
VJAN 08, 1998
p957
sg188
V6-10
p958
sg190
VTony Bradley
p959
sg192
I1610612762
sg193
V13
p960
sg195
g304
sg197
V00
p961
sg199
g308
sg200
I1628396
ssI1628397
(dp962
g81
VCalifornia
p963
sg83
V220
p964
sg85
V2017
p965
sg87
F20.0
sg88
VFEB 04, 1997
p966
sg90
V6-10
p967
sg92
VIvan Rabb
p968
sg94
I1610612763
sg95
V10
p969
sg97
g304
sg98
V00
p970
sg100
g23
sg101
I1628397
ssI203503
(dp971
g246
VNew Mexico
p972
sg248
V221
p973
sg250
V2017
p974
sg252
F26.0
sg253
VNOV 10, 1991
p975
sg255
V6-7
p976
sg257
VTony Snell
p977
sg259
I1610612749
sg260
V21
p978
sg262
g19
sg263
V00
p979
sg265
g56
sg266
I203503
ssI1628402
(dp980
g2
VDuke
p981
sg4
V205
p982
sg6
V2017
p983
sg8
F19.0
sg9
VMAY 04, 1998
p984
sg11
V6-3
p985
sg13
VFrank Jackson
p986
sg15
I1610612740
sg16
V15
p987
sg18
g304
sg20
V00
p988
sg22
g56
sg24
I1628402
ssI203507
(dp989
g246
VGreece
p990
sg248
V222
p991
sg250
V2017
p992
sg252
F22.0
sg253
VDEC 06, 1994
p993
sg255
V6-11
p994
sg257
VGiannis Antetokounmpo
p995
sg259
I1610612749
sg260
V34
p996
sg262
g19
sg263
V00
p997
sg265
g23
sg266
I203507
ssI204020
(dp998
g125
VFresno State
p999
sg127
V190
p1000
sg129
V2017
p1001
sg131
F25.0
sg132
VMAY 07, 1992
p1002
sg134
V6-4
p1003
sg136
VTyler Johnson
p1004
sg138
I1610612748
sg139
g154
sg141
g500
sg142
V00
p1005
sg144
g56
sg145
I204020
ssI201973
(dp1006
g179
VKinna, Sweden
p1007
sg181
V231
p1008
sg183
V2017
p1009
sg185
F30.0
sg186
VMAR 02, 1987
p1010
sg188
V6-10
p1011
sg190
VJonas Jerebko
p1012
sg192
I1610612762
sg193
g154
sg195
g217
sg197
V00
p1013
sg199
g23
sg200
I201973
ssI203512
(dp1014
g103
Nsg105
V220
p1015
sg107
V2017
p1016
sg109
F25.0
sg110
VJUL 26, 1992
p1017
sg112
V7-0
p1018
sg114
VLucas Nogueira
p1019
sg116
I1610612761
sg117
V92
p1020
sg119
g500
sg120
V00
p1021
sg122
g308
sg123
I203512
ssI203516
(dp1022
g81
VLong Beach State
p1023
sg83
V210
p1024
sg85
V2017
p1025
sg87
F27.0
sg88
VJUL 01, 1990
p1026
sg90
V6-7
p1027
sg92
VJames Ennis III
p1028
sg94
I1610612763
sg95
g154
sg97
g500
sg98
V00
p1029
sg100
g23
sg101
I203516
ssI203518
(dp1030
g287
Nsg289
V190
p1031
sg291
V2017
p1032
sg293
F24.0
sg294
VAUG 01, 1993
p1033
sg296
V6-6
p1034
sg298
VAlex Abrines
p1035
sg300
I1610612760
sg301
g154
sg303
g75
sg305
V00
p1036
sg307
g56
sg309
I203518
ssI1628415
(dp1037
g81
VOregon
p1038
sg83
V220
p1039
sg85
V2017
p1040
sg87
F21.0
sg88
VJAN 22, 1996
p1041
sg90
V6-6
p1042
sg92
VDillon Brooks
p1043
sg94
I1610612763
sg95
V24
p1044
sg97
g304
sg98
V00
p1045
sg100
VF-G
p1046
sg101
I1628415
ssI203521
(dp1047
g246
VSaint Mary's (CA)
p1048
sg248
V198
p1049
sg250
V2017
p1050
sg252
F27.0
sg253
VSEP 08, 1990
p1051
sg255
V6-4
p1052
sg257
VMatthew Dellavedova
p1053
sg259
I1610612749
sg260
g154
sg262
g19
sg263
V00
p1054
sg265
g56
sg266
I203521
ssI1628420
(dp1055
g26
VIowa State
p1056
sg28
V175
p1057
sg30
V2017
p1058
sg32
F22.0
sg33
VJUN 27, 1995
p1059
sg35
V6-3
p1060
sg37
VMonte Morris
p1061
sg39
I1610612743
sg40
V11
p1062
sg41
g304
sg43
V00
p1063
sg45
g56
sg46
I1628420
ssI1627770
(dp1064
g58
VOakland
p1065
sg60
V176
p1066
sg62
V2017
p1067
sg64
F22.0
sg65
VMAR 29, 1995
p1068
sg67
V5-9
p1069
sg69
VKay Felder
p1070
sg71
I1610612741
sg72
g500
sg74
g75
sg76
V00
p1071
sg78
g56
sg79
I1627770
ssI203526
(dp1072
g179
Nsg181
V179
p1073
sg183
V2017
p1074
sg185
F25.0
sg186
VMAY 19, 1992
p1075
sg188
V6-1
p1076
sg190
VRaul Neto
p1077
sg192
I1610612762
sg193
V25
p1078
sg195
g54
sg197
V00
p1079
sg199
g56
sg200
I203526
ssI1628424
(dp1080
g81
VArizona
p1081
sg83
V170
p1082
sg85
V2017
p1083
sg87
F20.0
sg88
VJUL 04, 1997
p1084
sg90
V6-4
p1085
sg92
VKobi Simmons
p1086
sg94
I1610612763
sg95
g54
sg97
g304
sg98
V00
p1087
sg100
g56
sg101
I1628424
ssI1628425
(dp1088
g246
VSouthern Methodist
p1089
sg248
V230
p1090
sg250
V2017
p1091
sg252
F22.0
sg253
VFEB 10, 1995
p1092
sg255
V6-6
p1093
sg257
VSterling Brown
p1094
sg259
I1610612749
sg260
V23
p1095
sg262
g304
sg263
V00
p1096
sg265
g56
sg266
I1628425
ssI1628429
(dp1097
g2
VDayton
p1098
sg4
V196
p1099
sg6
V2017
p1100
sg8
F23.0
sg9
VJUL 01, 1994
p1101
sg11
V6-5
p1102
sg13
VCharles Cooke
p1103
sg15
I1610612740
sg16
g19
sg18
g304
sg20
V00
p1104
sg22
g56
sg24
I1628429
ssI101139
(dp1105
g103
VSkyline HS (TX)
p1106
sg105
V225
p1107
sg107
V2017
p1108
sg109
F30.0
sg110
VMAR 18, 1987
p1109
sg112
V6-6
p1110
sg114
VCJ Miles
p1111
sg116
I1610612761
sg117
g53
sg119
V12
p1112
sg120
V00
p1113
sg122
VF-G
p1114
sg123
I101139
ssI201177
(dp1115
g157
VDuke
p1116
sg159
V240
p1117
sg161
V2017
p1118
sg163
F30.0
sg164
VFEB 28, 1987
p1119
sg166
V6-10
p1120
sg168
VJosh McRoberts
p1121
sg170
I1610612742
sg171
V13
p1122
sg173
V10
p1123
sg174
V00
p1124
sg176
VF-C
p1125
sg177
I201177
ssI203546
(dp1126
g2
VBelmont
p1127
sg4
V175
p1128
sg6
V2017
p1129
sg8
F26.0
sg9
VMAR 07, 1991
p1130
sg11
V6-3
p1131
sg13
VIan Clark
p1132
sg15
I1610612740
sg16
g54
sg18
g19
sg20
V00
p1133
sg22
g56
sg24
I203546
ssI203547
(dp1134
g179
VCampbell
p1135
sg181
V205
p1136
sg183
V2017
p1137
sg185
F27.0
sg186
VMAY 26, 1990
p1138
sg188
V6-8
p1139
sg190
VEric Griffin
p1140
sg192
I1610612762
sg193
V17
p1141
sg195
g304
sg197
V00
p1142
sg199
VC-F
p1143
sg200
I203547
ssI204060
(dp1144
g179
Nsg181
V226
p1145
sg183
V2017
p1146
sg185
F30.0
sg186
VOCT 02, 1987
p1147
sg188
V6-8
p1148
sg190
VJoe Ingles
p1149
sg192
I1610612762
sg193
g54
sg195
g500
sg197
V00
p1150
sg199
g23
sg200
I204060
ssI203482
(dp1151
g125
VGonzaga
p1152
sg127
V245
p1153
sg129
V2017
p1154
sg131
F26.0
sg132
VAPR 19, 1991
p1155
sg134
V7-0
p1156
sg136
VKelly Olynyk
p1157
sg138
I1610612748
sg139
g613
sg141
g19
sg142
V00
p1158
sg144
VC-F
p1159
sg145
I203482
ssI1626245
(dp1160
g58
Nsg60
V280
p1161
sg62
V2017
p1162
sg64
F25.0
sg65
VJUL 07, 1992
p1163
sg67
V6-9
p1164
sg69
VCristiano Felicio
p1165
sg71
I1610612741
sg72
g419
sg74
g54
sg76
V00
p1166
sg78
VC-F
p1167
sg79
I1626245
ssI203552
(dp1168
g157
VDuke
p1169
sg159
V185
p1170
sg161
V2017
p1171
sg163
F27.0
sg164
VAUG 23, 1990
p1172
sg166
V6-2
p1173
sg168
VSeth Curry
p1174
sg170
I1610612742
sg171
V30
p1175
sg173
g19
sg174
V00
p1176
sg176
g56
sg177
I203552
ssI203485
(dp1177
g103
VNorth Carolina State
p1178
sg105
V189
p1179
sg107
V2017
p1180
sg109
F27.0
sg110
VAUG 26, 1990
p1181
sg112
V6-5
p1182
sg114
VLorenzo Brown
p1183
sg116
I1610612761
sg117
g19
sg119
g500
sg120
V00
p1184
sg122
g56
sg123
I203485
ssI1628467
(dp1185
g157
Nsg159
V220
p1186
sg161
V2017
p1187
sg163
F25.0
sg164
VJAN 29, 1992
p1188
sg166
V6-11
p1189
sg168
VMaxi Kleber
p1190
sg170
I1610612742
sg171
V42
p1191
sg173
g304
sg174
V00
p1192
sg176
g23
sg177
I1628467
ssI203486
(dp1193
g26
VDuke
p1194
sg28
V255
p1195
sg30
V2017
p1196
sg32
F27.0
sg33
VMAR 05, 1990
p1197
sg35
V6-11
p1198
sg37
VMason Plumlee
p1199
sg39
I1610612743
sg40
V24
p1200
sg41
g19
sg43
V00
p1201
sg45
VC-F
p1202
sg46
I203486
ssI1628470
(dp1203
g26
VSouth Carolina Upstate
p1204
sg28
V215
p1205
sg30
V2017
p1206
sg32
F26.0
sg33
VDEC 19, 1990
p1207
sg35
V6-6
p1208
sg37
VTorrey Craig
p1209
sg39
I1610612743
sg40
g500
sg41
g304
sg43
V00
p1210
sg45
VG-F
p1211
sg46
I1628470
ssI1628475
(dp1212
g125
VCentral Florida
p1213
sg127
V210
p1214
sg129
V2017
p1215
sg131
F24.0
sg132
VOCT 14, 1993
p1216
sg134
V6-5
p1217
sg136
VMatt Williams Jr.
p1218
sg138
I1610612748
sg139
V12
p1219
sg141
g304
sg142
V00
p1220
sg144
g56
sg145
I1628475
ssI1628476
(dp1221
g125
VMichigan
p1222
sg127
V185
p1223
sg129
V2017
p1224
sg131
F22.0
sg132
VAPR 03, 1995
p1225
sg134
V6-1
p1226
sg136
VDerrick Walton Jr.
p1227
sg138
I1610612748
sg139
V14
p1228
sg141
g304
sg142
V00
p1229
sg144
g56
sg145
I1628476
ssI1628469
(dp1230
g58
VLouisiana State
p1231
sg60
V197
p1232
sg62
V2017
p1233
sg64
F21.0
sg65
VOCT 04, 1996
p1234
sg67
V6-4
p1235
sg69
VAntonio Blakeney
p1236
sg71
I1610612741
sg72
g613
sg74
g304
sg76
V00
p1237
sg78
g56
sg79
I1628469
ssI203585
(dp1238
g125
VKansas State
p1239
sg127
V200
p1240
sg129
V2017
p1241
sg131
F26.0
sg132
VJUL 29, 1991
p1242
sg134
V6-4
p1243
sg136
VRodney McGruder
p1244
sg138
I1610612748
sg139
V17
p1245
sg141
g75
sg142
V00
p1246
sg144
VG-F
p1247
sg145
I203585
ssI203076
(dp1248
g2
VKentucky
p1249
sg4
V253
p1250
sg6
V2017
p1251
sg8
F24.0
sg9
VMAR 11, 1993
p1252
sg11
V6-10
p1253
sg13
VAnthony Davis
p1254
sg15
I1610612740
sg16
V23
p1255
sg18
g96
sg20
V00
p1256
sg22
VF-C
p1257
sg24
I203076
ssI203079
(dp1258
g125
VSyracuse
p1259
sg127
V215
p1260
sg129
V2017
p1261
sg131
F25.0
sg132
VDEC 10, 1991
p1262
sg134
V6-4
p1263
sg136
VDion Waiters
p1264
sg138
I1610612748
sg139
V11
p1265
sg141
g96
sg142
V00
p1266
sg144
g56
sg145
I203079
ssI1628492
(dp1267
g157
VColorado State
p1268
sg159
V185
p1269
sg161
V2017
p1270
sg163
F23.0
sg164
VNOV 26, 1993
p1271
sg166
V6-4
p1272
sg168
VGian Clavell
p1273
sg170
I1610612742
sg171
g154
sg173
g304
sg174
V00
p1274
sg176
g56
sg177
I1628492
ssI203089
(dp1275
g246
VNorth Carolina
p1276
sg248
V229
p1277
sg250
V2017
p1278
sg252
F26.0
sg253
VDEC 28, 1990
p1279
sg255
V6-11
p1280
sg257
VJohn Henson
p1281
sg259
I1610612749
sg260
V31
p1282
sg262
g96
sg263
V00
p1283
sg265
VF-C
p1284
sg266
I203089
ssI201566
(dp1285
g287
VUCLA
p1286
sg289
V200
p1287
sg291
V2017
p1288
sg293
F28.0
sg294
VNOV 12, 1988
p1289
sg296
V6-3
p1290
sg298
VRussell Westbrook
p1291
sg300
I1610612760
sg301
g53
sg303
g613
sg305
V00
p1292
sg307
g56
sg309
I201566
ssI1891
(dp1293
g246
VArizona
p1294
sg248
V185
p1295
sg250
V2017
p1296
sg252
F40.0
sg253
VSEP 15, 1977
p1297
sg255
V6-2
p1298
sg257
VJason Terry
p1299
sg259
I1610612749
sg260
g500
sg262
V18
p1300
sg263
V00
p1301
sg265
g56
sg266
I1891
ssI201577
(dp1302
g58
VStanford
p1303
sg60
V277
p1304
sg62
V2017
p1305
sg64
F29.0
sg65
VAPR 01, 1988
p1306
sg67
V7-0
p1307
sg69
VRobin Lopez
p1308
sg71
I1610612741
sg72
V42
p1309
sg74
g613
sg76
V00
p1310
sg78
g308
sg79
I201577
ssI203114
(dp1311
g246
VTexas A&M
p1312
sg248
V234
p1313
sg250
V2017
p1314
sg252
F26.0
sg253
VAUG 12, 1991
p1315
sg255
V6-8
p1316
sg257
VKhris Middleton
p1317
sg259
I1610612749
sg260
V22
p1318
sg262
g96
sg263
V00
p1319
sg265
g23
sg266
I203114
ssI203115
(dp1320
g26
VMemphis
p1321
sg28
V190
p1322
sg30
V2017
p1323
sg32
F26.0
sg33
VJAN 06, 1991
p1324
sg35
V6-6
p1325
sg37
VWill Barton
p1326
sg39
I1610612743
sg40
g96
sg41
g96
sg43
V00
p1327
sg45
VG-F
p1328
sg46
I203115
ssI201582
(dp1329
g2
VSaint Etienne, France
p1330
sg4
V248
p1331
sg6
V2017
p1332
sg8
F29.0
sg9
VMAY 06, 1988
p1333
sg11
V7-2
p1334
sg13
VAlexis Ajinca
p1335
sg15
I1610612740
sg16
V42
p1336
sg18
g217
sg20
V00
p1337
sg22
g308
sg24
I201582
ssI200765
(dp1338
g2
VKentucky
p1339
sg4
V186
p1340
sg6
V2017
p1341
sg8
F31.0
sg9
VFEB 22, 1986
p1342
sg11
V6-1
p1343
sg13
VRajon Rondo
p1344
sg15
I1610612740
sg16
g613
sg18
V11
p1345
sg20
V00
p1346
sg22
g56
sg24
I200765
ssI1717
(dp1347
g157
VWurzburg, Germany
p1348
sg159
V245
p1349
sg161
V2017
p1350
sg163
F39.0
sg164
VJUN 19, 1978
p1351
sg166
V7-0
p1352
sg168
VDirk Nowitzki
p1353
sg170
I1610612742
sg171
V41
p1354
sg173
V19
p1355
sg174
V00
p1356
sg176
VF-C
p1357
sg177
I1717
ssI201586
(dp1358
g103
VBrazzaville, Rep. of Congo
p1359
sg105
V235
p1360
sg107
V2017
p1361
sg109
F28.0
sg110
VSEP 18, 1989
p1362
sg112
V6-10
p1363
sg114
VSerge Ibaka
p1364
sg116
I1610612761
sg117
g613
sg119
g154
sg120
V00
p1365
sg122
g23
sg123
I201586
ssI201589
(dp1366
g26
VKansas
p1367
sg28
V235
p1368
sg30
V2017
p1369
sg32
F29.0
sg33
VMAR 25, 1988
p1370
sg35
V6-9
p1371
sg37
VDarrell Arthur
p1372
sg39
I1610612743
sg40
V00
p1373
sg41
g154
sg43
V00
p1374
sg45
g23
sg46
I201589
ssI201961
(dp1375
g125
VNorth Carolina
p1376
sg127
V200
p1377
sg129
V2017
p1378
sg131
F29.0
sg132
VNOV 29, 1987
p1379
sg134
V6-5
p1380
sg136
VWayne Ellington
p1381
sg138
I1610612748
sg139
g54
sg141
g154
sg142
V00
p1382
sg144
g56
sg145
I201961
ssI201596
(dp1383
g81
VKansas
p1384
sg83
V190
p1385
sg85
V2017
p1386
sg87
F31.0
sg88
VMAY 19, 1986
p1387
sg90
V6-2
p1388
sg92
VMario Chalmers
p1389
sg94
I1610612763
sg95
g419
sg97
g154
sg98
V00
p1390
sg100
g56
sg101
I201596
ssI201600
(dp1391
g2
VTurkey
p1392
sg4
V255
p1393
sg6
V2017
p1394
sg8
F31.0
sg9
VJUL 04, 1986
p1395
sg11
V7-0
p1396
sg13
VOmer Asik
p1397
sg15
I1610612740
sg16
g500
sg18
g217
sg20
V00
p1398
sg22
g308
sg24
I201600
ssI1628035
(dp1399
g103
VWisc.-Green Bay
p1400
sg105
V215
p1401
sg107
V2017
p1402
sg109
F25.0
sg110
VSEP 17, 1992
p1403
sg112
V6-8
p1404
sg114
VAlfonzo McKinnie
p1405
sg116
I1610612761
sg117
V34
p1406
sg119
g304
sg120
V00
p1407
sg122
g23
sg123
I1628035
ssI203141
(dp1408
g246
VBosnia
p1409
sg248
V242
p1410
sg250
V2017
p1411
sg252
F32.0
sg253
VSEP 17, 1985
p1412
sg255
V6-9
p1413
sg257
VMirza Teletovic
p1414
sg259
I1610612749
sg260
V35
p1415
sg262
g96
sg263
V00
p1416
sg265
g23
sg266
I203141
ssI201609
(dp1417
g125
VLjubljana, Slovenia
p1418
sg127
V190
p1419
sg129
V2017
p1420
sg131
F31.0
sg132
VMAY 06, 1986
p1421
sg134
V6-3
p1422
sg136
VGoran Dragic
p1423
sg138
I1610612748
sg139
g217
sg141
g613
sg142
V00
p1424
sg144
g56
sg145
I201609
ssI1628399
(dp1425
g26
VSyracuse
p1426
sg28
V220
p1427
sg30
V2017
p1428
sg32
F21.0
sg33
VAPR 09, 1996
p1429
sg35
V6-9
p1430
sg37
VTyler Lydon
p1431
sg39
I1610612743
sg40
V20
p1432
sg41
g304
sg43
V00
p1433
sg45
g23
sg46
I1628399
ssI201144
(dp1434
g81
VOhio State
p1435
sg83
V175
p1436
sg85
V2017
p1437
sg87
F30.0
sg88
VOCT 11, 1987
p1438
sg90
V6-1
p1439
sg92
VMike Conley
p1440
sg94
I1610612763
sg95
V11
p1441
sg97
V10
p1442
sg98
V00
p1443
sg100
g56
sg101
I201144
ssI201148
(dp1444
g81
VNorth Carolina
p1445
sg83
V235
p1446
sg85
V2017
p1447
sg87
F30.0
sg88
VOCT 05, 1987
p1448
sg90
V6-10
p1449
sg92
VBrandan Wright
p1450
sg94
I1610612763
sg95
V34
p1451
sg97
g613
sg98
V00
p1452
sg100
VF-C
p1453
sg101
I201148
ssI202685
(dp1454
g103
VUtena, Lithuania
p1455
sg105
V255
p1456
sg107
V2017
p1457
sg109
F25.0
sg110
VMAY 06, 1992
p1458
sg112
V7-0
p1459
sg114
VJonas Valanciunas
p1460
sg116
I1610612761
sg117
V17
p1461
sg119
g96
sg120
V00
p1462
sg122
g308
sg123
I202685
ssI101109
(dp1463
g287
VNorth Carolina
p1464
sg289
V205
p1465
sg291
V2017
p1466
sg293
F33.0
sg294
VJUN 26, 1984
p1467
sg296
V6-1
p1468
sg298
VRaymond Felton
p1469
sg300
I1610612760
sg301
g54
sg303
V12
p1470
sg305
V00
p1471
sg307
g56
sg309
I101109
ssI203200
(dp1472
g58
VWashington
p1473
sg60
V185
p1474
sg62
V2017
p1475
sg64
F28.0
sg65
VAPR 05, 1989
p1476
sg67
V6-6
p1477
sg69
VJustin Holiday
p1478
sg71
I1610612741
sg72
g217
sg74
g19
sg76
V00
p1479
sg78
g56
sg79
I203200
ssI202692
(dp1480
g179
VColorado
p1481
sg181
V214
p1482
sg183
V2017
p1483
sg185
F26.0
sg186
VJUL 20, 1991
p1484
sg188
V6-6
p1485
sg190
VAlec Burks
p1486
sg192
I1610612762
sg193
V10
p1487
sg195
g419
sg197
V00
p1488
sg199
g56
sg200
I202692
ssI1628405
(dp1489
g157
VBaylor
p1490
sg159
V230
p1491
sg161
V2017
p1492
sg163
F22.0
sg164
VMAY 04, 1995
p1493
sg166
V6-10
p1494
sg168
VJohnathan Motley
p1495
sg170
I1610612742
sg171
g419
sg173
g304
sg174
V00
p1496
sg176
g23
sg177
I1628405
ssI203084
(dp1497
g157
VNorth Carolina
p1498
sg159
V225
p1499
sg161
V2017
p1500
sg163
F25.0
sg164
VMAY 30, 1992
p1501
sg166
V6-8
p1502
sg168
VHarrison Barnes
p1503
sg170
I1610612742
sg171
V40
p1504
sg173
g96
sg174
V00
p1505
sg176
g23
sg177
I203084
ssI203210
(dp1506
g81
VAlabama
p1507
sg83
V227
p1508
sg85
V2017
p1509
sg87
F27.0
sg88
VJUN 21, 1990
p1510
sg90
V6-9
p1511
sg92
VJaMychal Green
p1512
sg94
I1610612763
sg95
g53
sg97
g500
sg98
V00
p1513
sg100
g23
sg101
I203210
ssI201163
(dp1514
g26
VDePaul
p1515
sg28
V225
p1516
sg30
V2017
p1517
sg32
F30.0
sg33
VMAY 10, 1987
p1518
sg35
V6-9
p1519
sg37
VWilson Chandler
p1520
sg39
I1610612743
sg40
V21
p1521
sg41
g613
sg43
V00
p1522
sg45
g23
sg46
I201163
ssI202702
(dp1523
g26
VMorehead State
p1524
sg28
V228
p1525
sg30
V2017
p1526
sg32
F27.0
sg33
VNOV 19, 1989
p1527
sg35
V6-8
p1528
sg37
VKenneth Faried
p1529
sg39
I1610612743
sg40
V35
p1530
sg41
g419
sg43
V00
p1531
sg45
g23
sg46
I202702
ssI202703
(dp1532
g58
Nsg60
V238
p1533
sg62
V2017
p1534
sg64
F26.0
sg65
VFEB 11, 1991
p1535
sg67
V6-10
p1536
sg69
VNikola Mirotic
p1537
sg71
I1610612741
sg72
V44
p1538
sg74
g500
sg76
V00
p1539
sg78
g23
sg79
I202703
ssI1628408
(dp1540
g287
VSouth Carolina
p1541
sg289
V205
p1542
sg291
V2017
p1543
sg293
F21.0
sg294
VOCT 25, 1996
p1544
sg296
V6-6
p1545
sg298
VPJ Dozier
p1546
sg300
I1610612760
sg301
V35
p1547
sg303
g304
sg305
V00
p1548
sg307
g56
sg309
I1628408
ssI202713
(dp1549
g287
VDuke
p1550
sg289
V228
p1551
sg291
V2017
p1552
sg293
F29.0
sg294
VMAY 04, 1988
p1553
sg296
V6-8
p1554
sg298
VKyle Singler
p1555
sg300
I1610612760
sg301
V15
p1556
sg303
g96
sg305
V00
p1557
sg307
g23
sg309
I202713
ssI202718
(dp1558
g81
VFlorida
p1559
sg83
V230
p1560
sg85
V2017
p1561
sg87
F29.0
sg88
VOCT 25, 1988
p1562
sg90
V6-10
p1563
sg92
VChandler Parsons
p1564
sg94
I1610612763
sg95
V25
p1565
sg97
g419
sg98
V00
p1566
sg100
g23
sg101
I202718
ssI1628374
(dp1567
g58
VArizona
p1568
sg60
V230
p1569
sg62
V2017
p1570
sg64
F20.0
sg65
VMAY 22, 1997
p1571
sg67
V7-0
p1572
sg69
VLauri Markkanen
p1573
sg71
I1610612741
sg72
V24
p1574
sg74
g304
sg76
V00
p1575
sg78
g23
sg79
I1628374
ssI201188
(dp1576
g81
VBarcelona, Spain
p1577
sg83
V255
p1578
sg85
V2017
p1579
sg87
F32.0
sg88
VJAN 29, 1985
p1580
sg90
V7-1
p1581
sg92
VMarc Gasol
p1582
sg94
I1610612763
sg95
V33
p1583
sg97
g613
sg98
V00
p1584
sg100
g308
sg101
I201188
ssI202732
(dp1585
g246
VKentucky
p1586
sg248
V209
p1587
sg250
V2017
p1588
sg252
F29.0
sg253
VMAR 31, 1988
p1589
sg255
V6-6
p1590
sg257
VDeAndre Liggins
p1591
sg259
I1610612749
sg260
V25
p1592
sg262
g19
sg263
V00
p1593
sg265
g56
sg266
I202732
ssI202734
(dp1594
g2
VPurdue
p1595
sg4
V191
p1596
sg6
V2017
p1597
sg8
F28.0
sg9
VFEB 25, 1989
p1598
sg11
V6-4
p1599
sg13
VE'Twaun Moore
p1600
sg15
I1610612740
sg16
V55
p1601
sg18
g419
sg20
V00
p1602
sg22
g56
sg24
I202734
ssI2546
(dp1603
g287
VSyracuse
p1604
sg289
V240
p1605
sg291
V2017
p1606
sg293
F33.0
sg294
VMAY 29, 1984
p1607
sg296
V6-8
p1608
sg298
VCarmelo Anthony
p1609
sg300
I1610612760
sg301
g217
sg303
V14
p1610
sg305
V00
p1611
sg307
g23
sg309
I2546
ssI1626196
(dp1612
g125
VTennessee
p1613
sg127
V200
p1614
sg129
V2017
p1615
sg131
F24.0
sg132
VSEP 15, 1993
p1616
sg134
V6-6
p1617
sg136
VJosh Richardson
p1618
sg138
I1610612748
sg139
g53
sg141
g54
sg142
V00
p1619
sg144
g23
sg145
I1626196
ssI2555
(dp1620
g287
VKansas
p1621
sg289
V255
p1622
sg291
V2017
p1623
sg293
F37.0
sg294
VOCT 26, 1980
p1624
sg296
V6-10
p1625
sg298
VNick Collison
p1626
sg300
I1610612760
sg301
g19
sg303
V13
p1627
sg305
V00
p1628
sg307
g23
sg309
I2555
ss.