(dp0
I1626144
(dp1
VSCHOOL
p2
NsVWEIGHT
p3
V200
p4
sVSEASON
p5
V2017
p6
sVAGE
p7
F21.0
sVBIRTH_DATE
p8
VMAR 05, 1996
p9
sVHEIGHT
p10
V6-5
p11
sVPLAYER
p12
VEmmanuel Mudiay
p13
sVTeamID
p14
I1610612743
sVNUM
p15
V0
p16
sVEXP
p17
V2
p18
sVLeagueID
p19
V00
p20
sVPOSITION
p21
VG
p22
sVPLAYER_ID
p23
I1626144
ssI1626145
(dp24
VSCHOOL
p25
VDuke
p26
sVWEIGHT
p27
V184
p28
sVSEASON
p29
V2017
p30
sVAGE
p31
F21.0
sVBIRTH_DATE
p32
VMAY 10, 1996
p33
sVHEIGHT
p34
V6-2
p35
sVPLAYER
p36
VTyus Jones
p37
sVTeamID
p38
I1610612750
sVNUM
p39
V1
p40
sVEXP
p41
g18
sVLeagueID
p42
V00
p43
sVPOSITION
p44
g22
sVPLAYER_ID
p45
I1626145
ssI1626148
(dp46
g25
VStanford
p47
sg27
V224
p48
sg29
V2017
p49
sg31
F25.0
sg32
VOCT 10, 1992
p50
sg34
V6-7
p51
sg36
VAnthony Brown
p52
sg38
I1610612750
sg39
V3
p53
sg41
g18
sg42
V00
p54
sg44
VF
p55
sg45
I1626148
ssI1626149
(dp56
VSCHOOL
p57
VLouisville
p58
sVWEIGHT
p59
V240
p60
sVSEASON
p61
V2017
p62
sVAGE
p63
F23.0
sVBIRTH_DATE
p64
VJAN 26, 1994
p65
sVHEIGHT
p66
V6-8
p67
sVPLAYER
p68
VMontrezl Harrell
p69
sVTeamID
p70
I1610612746
sVNUM
p71
V5
p72
sVEXP
p73
g18
sVLeagueID
p74
V00
p75
sVPOSITION
p76
VF-C
p77
sVPLAYER_ID
p78
I1626149
ssI1626150
(dp79
VSCHOOL
p80
VKentucky
p81
sVWEIGHT
p82
V213
p83
sVSEASON
p84
V2017
p85
sVAGE
p86
F23.0
sVBIRTH_DATE
p87
VOCT 28, 1994
p88
sVHEIGHT
p89
V6-6
p90
sVPLAYER
p91
VAndrew Harrison
p92
sVTeamID
p93
I1610612763
sVNUM
p94
g72
sVEXP
p95
g40
sVLeagueID
p96
V00
p97
sVPOSITION
p98
g22
sVPLAYER_ID
p99
I1626150
ssI1626153
(dp100
VSCHOOL
p101
VUtah
p102
sVWEIGHT
p103
V190
p104
sVSEASON
p105
V2017
p106
sVAGE
p107
F25.0
sVBIRTH_DATE
p108
VAPR 26, 1992
p109
sVHEIGHT
p110
V6-5
p111
sVPLAYER
p112
VDelon Wright
p113
sVTeamID
p114
I1610612761
sVNUM
p115
V55
p116
sVEXP
p117
g18
sVLeagueID
p118
V00
p119
sVPOSITION
p120
g22
sVPLAYER_ID
p121
I1626153
ssI200746
(dp122
VSCHOOL
p123
VTexas
p124
sVWEIGHT
p125
V260
p126
sVSEASON
p127
V2017
p128
sVAGE
p129
F32.0
sVBIRTH_DATE
p130
VJUL 19, 1985
p131
sVHEIGHT
p132
V6-11
p133
sVPLAYER
p134
VLaMarcus Aldridge
p135
sVTeamID
p136
I1610612759
sVNUM
p137
V12
p138
sVEXP
p139
V11
p140
sVLeagueID
p141
V00
p142
sVPOSITION
p143
g55
sVPLAYER_ID
p144
I200746
ssI1626155
(dp145
g57
VWisconsin
p146
sg59
V230
p147
sg61
V2017
p148
sg63
F23.0
sg64
VMAY 08, 1994
p149
sg66
V6-9
p150
sg68
VSam Dekker
p151
sg70
I1610612746
sg71
V7
p152
sg73
g18
sg74
V00
p153
sg76
g55
sg78
I1626155
ssI1626156
(dp154
VSCHOOL
p155
VOhio State
p156
sVWEIGHT
p157
V195
p158
sVSEASON
p159
V2017
p160
sVAGE
p161
F21.0
sVBIRTH_DATE
p162
VFEB 23, 1996
p163
sVHEIGHT
p164
V6-5
p165
sVPLAYER
p166
VD'Angelo Russell
p167
sVTeamID
p168
I1610612751
sVNUM
p169
g40
sVEXP
p170
g18
sVLeagueID
p171
V00
p172
sVPOSITION
p173
g22
sVPLAYER_ID
p174
I1626156
ssI1626157
(dp175
g25
VKentucky
p176
sg27
V248
p177
sg29
V2017
p178
sg31
F21.0
sg32
VNOV 15, 1995
p179
sg34
V7-0
p180
sg36
VKarl-Anthony Towns
p181
sg38
I1610612750
sg39
V32
p182
sg41
g18
sg42
V00
p183
sg44
VC
p184
sg45
I1626157
ssI1626159
(dp185
VSCHOOL
p186
VDuke
p187
sVWEIGHT
p188
V225
p189
sVSEASON
p190
V2017
p191
sVAGE
p192
F21.0
sVBIRTH_DATE
p193
VMAR 26, 1996
p194
sVHEIGHT
p195
V6-7
p196
sVPLAYER
p197
VJustise Winslow
p198
sVTeamID
p199
I1610612748
sVNUM
p200
V20
p201
sVEXP
p202
g18
sVLeagueID
p203
V00
p204
sVPOSITION
p205
g55
sVPLAYER_ID
p206
I1626159
ssI200752
(dp207
g123
VConnecticut
p208
sg125
V230
p209
sg127
V2017
p210
sg129
F31.0
sg130
VAUG 17, 1986
p211
sg132
V6-8
p212
sg134
VRudy Gay
p213
sg136
I1610612759
sg137
V22
p214
sg139
V11
p215
sg141
V00
p216
sg143
g55
sg144
I200752
ssI1626161
(dp217
VSCHOOL
p218
VKentucky
p219
sVWEIGHT
p220
V240
p221
sVSEASON
p222
V2017
p223
sVAGE
p224
F24.0
sVBIRTH_DATE
p225
VAUG 18, 1993
p226
sVHEIGHT
p227
V7-0
p228
sVPLAYER
p229
VWillie Cauley-Stein
p230
sVTeamID
p231
I1610612758
sVNUM
p232
V00
p233
sVEXP
p234
g18
sVLeagueID
p235
V00
p236
sVPOSITION
p237
g184
sVPLAYER_ID
p238
I1626161
ssI1627763
(dp239
VSCHOOL
p240
VVirginia
p241
sVWEIGHT
p242
V215
p243
sVSEASON
p244
V2017
p245
sVAGE
p246
F24.0
sVBIRTH_DATE
p247
VDEC 11, 1992
p248
sVHEIGHT
p249
V6-5
p250
sVPLAYER
p251
VMalcolm Brogdon
p252
sVTeamID
p253
I1610612749
sVNUM
p254
V13
p255
sVEXP
p256
g40
sVLeagueID
p257
V00
p258
sVPOSITION
p259
g22
sVPLAYER_ID
p260
I1627763
ssI200757
(dp261
VSCHOOL
p262
VVevey, Switzerland
p263
sVWEIGHT
p264
V220
p265
sVSEASON
p266
V2017
p267
sVAGE
p268
F33.0
sVBIRTH_DATE
p269
VMAY 02, 1984
p270
sVHEIGHT
p271
V6-7
p272
sVPLAYER
p273
VThabo Sefolosha
p274
sVTeamID
p275
I1610612762
sVNUM
p276
V22
p277
sVEXP
p278
V11
p279
sVLeagueID
p280
V00
p281
sVPOSITION
p282
g55
sVPLAYER_ID
p283
I200757
ssI1626166
(dp284
VSCHOOL
p285
VMurray State
p286
sVWEIGHT
p287
V185
p288
sVSEASON
p289
V2017
p290
sVAGE
p291
F23.0
sVBIRTH_DATE
p292
VAUG 08, 1994
p293
sVHEIGHT
p294
V6-3
p295
sVPLAYER
p296
VCameron Payne
p297
sVTeamID
p298
I1610612741
sVNUM
p299
V22
p300
sVEXP
p301
g18
sVLeagueID
p302
V00
p303
sVPOSITION
p304
g22
sVPLAYER_ID
p305
I1626166
ssI1626168
(dp306
g2
VKentucky
p307
sg3
V234
p308
sg5
V2017
p309
sg7
F22.0
sg8
VNOV 05, 1995
p310
sg10
V6-10
p311
sg12
VTrey Lyles
p312
sg14
I1610612743
sg15
g152
sg17
g18
sg19
V00
p313
sg21
g55
sg23
I1626168
ssI1626170
(dp314
g285
VNotre Dame
p315
sg287
V198
p316
sg289
V2017
p317
sg291
F25.0
sg292
VOCT 09, 1992
p318
sg294
V6-4
p319
sg296
VJerian Grant
p320
sg298
I1610612741
sg299
g18
sg301
g18
sg302
V00
p321
sg304
g22
sg305
I1626170
ssI1626171
(dp322
g285
VArkansas
p323
sg287
V248
p324
sg289
V2017
p325
sg291
F22.0
sg292
VFEB 10, 1995
p326
sg294
V6-11
p327
sg296
VBobby Portis
p328
sg298
I1610612741
sg299
g72
sg301
g18
sg302
V00
p329
sg304
g55
sg305
I1626171
ssI1626172
(dp330
VSCHOOL
p331
VUCLA
p332
sVWEIGHT
p333
V220
p334
sVSEASON
p335
V2017
p336
sVAGE
p337
F21.0
sVBIRTH_DATE
p338
VFEB 06, 1996
p339
sVHEIGHT
p340
V6-9
p341
sVPLAYER
p342
VKevon Looney
p343
sVTeamID
p344
I1610612744
sVNUM
p345
g72
sVEXP
p346
g18
sVLeagueID
p347
V00
p348
sVPOSITION
p349
g55
sVPLAYER_ID
p350
I1626172
ssI1626173
(dp351
g240
VUNLV
p352
sg242
V202
p353
sg244
V2017
p354
sg246
F21.0
sg247
VAUG 16, 1996
p355
sg249
V6-6
p356
sg251
VRashad Vaughn
p357
sg253
I1610612749
sg254
V20
p358
sg256
g18
sg257
V00
p359
sg259
g22
sg260
I1626173
ssI1626175
(dp360
g186
VLouisiana State
p361
sg188
V235
p362
sg190
V2017
p363
sg192
F23.0
sg193
VJUL 09, 1994
p364
sg195
V6-8
p365
sg197
VJordan Mickey
p366
sg199
I1610612748
sg200
V25
p367
sg202
g18
sg203
V00
p368
sg205
VC-F
p369
sg206
I1626175
ssI200768
(dp370
g101
VVillanova
p371
sg103
V205
p372
sg105
V2017
p373
sg107
F31.0
sg108
VMAR 25, 1986
p374
sg110
V6-0
p375
sg112
VKyle Lowry
p376
sg114
I1610612761
sg115
g152
sg117
V11
p377
sg118
V00
p378
sg120
g22
sg121
I200768
ssI1626177
(dp379
VSCHOOL
p380
VKentucky
p381
sVWEIGHT
p382
V255
p383
sVSEASON
p384
V2017
p385
sVAGE
p386
F22.0
sVBIRTH_DATE
p387
VSEP 22, 1995
p388
sVHEIGHT
p389
V7-0
p390
sVPLAYER
p391
VDakari Johnson
p392
sVTeamID
p393
I1610612760
sVNUM
p394
V44
p395
sVEXP
p396
VR
p397
sVLeagueID
p398
V00
p399
sVPOSITION
p400
g184
sVPLAYER_ID
p401
I1626177
ssI1626178
(dp402
g155
VArizona
p403
sg157
V214
p404
sg159
V2017
p405
sg161
F22.0
sg162
VJAN 03, 1995
p406
sg164
V6-7
p407
sg166
VRondae Hollis-Jefferson
p408
sg168
I1610612751
sg169
V24
p409
sg170
g18
sg171
V00
p410
sg173
g55
sg174
I1626178
ssI1626179
(dp411
VSCHOOL
p412
VLouisville
p413
sVWEIGHT
p414
V190
p415
sVSEASON
p416
V2017
p417
sVAGE
p418
F23.0
sVBIRTH_DATE
p419
VMAR 17, 1994
p420
sVHEIGHT
p421
V6-2
p422
sVPLAYER
p423
VTerry Rozier
p424
sVTeamID
p425
I1610612738
sVNUM
p426
V12
p427
sVEXP
p428
g18
sVLeagueID
p429
V00
p430
sVPOSITION
p431
g22
sVPLAYER_ID
p432
I1626179
ssI1626181
(dp433
g101
VUCLA
p434
sg103
V215
p435
sg105
V2017
p436
sg107
F24.0
sg108
VMAY 25, 1993
p437
sg110
V6-4
p438
sg112
VNorman Powell
p439
sg114
I1610612761
sg115
V24
p440
sg117
g18
sg118
V00
p441
sg120
VF-G
p442
sg121
I1626181
ssI1626185
(dp443
g80
VLouisiana State
p444
sg82
V239
p445
sg84
V2017
p446
sg86
F23.0
sg87
VMAY 24, 1994
p447
sg89
V6-10
p448
sg91
VJarell Martin
p449
sg93
I1610612763
sg94
g40
sg95
g18
sg96
V00
p450
sg98
g55
sg99
I1626185
ssI1626188
(dp451
g331
VDuke
p452
sg333
V179
p453
sg335
V2017
p454
sg337
F24.0
sg338
VMAR 23, 1993
p455
sg340
V6-2
p456
sg342
VQuinn Cook
p457
sg344
I1610612744
sg345
V4
p458
sg346
g40
sg347
V00
p459
sg349
g22
sg350
I1626188
ssI200782
(dp460
VSCHOOL
p461
VTexas
p462
sVWEIGHT
p463
V245
p464
sVSEASON
p465
V2017
p466
sVAGE
p467
F32.0
sVBIRTH_DATE
p468
VMAY 05, 1985
p469
sVHEIGHT
p470
V6-6
p471
sVPLAYER
p472
VPJ Tucker
p473
sVTeamID
p474
I1610612745
sVNUM
p475
g458
sVEXP
p476
V6
p477
sVLeagueID
p478
V00
p479
sVPOSITION
p480
g55
sVPLAYER_ID
p481
I200782
ssI1626196
(dp482
g186
VTennessee
p483
sg188
V200
p484
sg190
V2017
p485
sg192
F24.0
sg193
VSEP 15, 1993
p486
sg195
V6-6
p487
sg197
VJosh Richardson
p488
sg199
I1610612748
sg200
g16
sg202
g18
sg203
V00
p489
sg205
g55
sg206
I1626196
ssI1626199
(dp490
g123
VVillanova
p491
sg125
V220
p492
sg127
V2017
p493
sg129
F24.0
sg130
VAPR 13, 1993
p494
sg132
V6-6
p495
sg134
VDarrun Hilliard
p496
sg136
I1610612759
sg137
V24
p497
sg139
g18
sg141
V00
p498
sg143
g22
sg144
I1626199
ssI200794
(dp499
g2
VLouisiana Tech
p500
sg3
V246
p501
sg5
V2017
p502
sg7
F32.0
sg8
VFEB 10, 1985
p503
sg10
V6-8
p504
sg12
VPaul Millsap
p505
sg14
I1610612743
sg15
g458
sg17
V11
p506
sg19
V00
p507
sg21
g55
sg23
I200794
ssI1626204
(dp508
VSCHOOL
p509
VWyoming
p510
sVWEIGHT
p511
V230
p512
sVSEASON
p513
V2017
p514
sVAGE
p515
F24.0
sVBIRTH_DATE
p516
VJAN 01, 1993
p517
sVHEIGHT
p518
V6-9
p519
sVPLAYER
p520
VLarry Nance Jr.
p521
sVTeamID
p522
I1610612747
sVNUM
p523
g152
sVEXP
p524
g18
sVLeagueID
p525
V00
p526
sVPOSITION
p527
g55
sVPLAYER_ID
p528
I1626204
ssI1626205
(dp529
g80
VTexas-El Paso
p530
sg82
V208
p531
sg84
V2017
p532
sg86
F23.0
sg87
VAUG 05, 1994
p533
sg89
V6-8
p534
sg91
VVincent Hunter
p535
sg93
I1610612763
sg94
V32
p536
sg95
g397
sg96
V00
p537
sg98
g55
sg99
I1626205
ssI1626220
(dp538
g262
VBaylor
p539
sg264
V226
p540
sg266
V2017
p541
sg268
F24.0
sg269
VJUN 05, 1993
p542
sg271
V6-6
p543
sg273
VRoyce O'Neale
p544
sg275
I1610612762
sg276
V23
p545
sg278
g397
sg280
V00
p546
sg282
g55
sg283
I1626220
ssI1626224
(dp547
VSCHOOL
p548
VAnadolu Efes
p549
sVWEIGHT
p550
V215
p551
sVSEASON
p552
V2017
p553
sVAGE
p554
F22.0
sVBIRTH_DATE
p555
VAPR 08, 1995
p556
sVHEIGHT
p557
V6-8
p558
sVPLAYER
p559
VCedi Osman
p560
sVTeamID
p561
I1610612739
sVNUM
p562
V16
p563
sVEXP
p564
g397
sVLeagueID
p565
V00
p566
sVPOSITION
p567
g55
sVPLAYER_ID
p568
I1626224
ssI200826
(dp569
VSCHOOL
p570
VNortheastern
p571
sVWEIGHT
p572
V185
p573
sVSEASON
p574
V2017
p575
sVAGE
p576
F33.0
sVBIRTH_DATE
p577
VJUN 26, 1984
p578
sVHEIGHT
p579
V6-0
p580
sVPLAYER
p581
VJ.J. Barea
p582
sVTeamID
p583
I1610612742
sVNUM
p584
g72
sVEXP
p585
V11
p586
sVLeagueID
p587
V00
p588
sVPOSITION
p589
g22
sVPLAYER_ID
p590
I200826
ssI1626245
(dp591
g285
Nsg287
V280
p592
sg289
V2017
p593
sg291
F25.0
sg292
VJUL 07, 1992
p594
sg294
V6-9
p595
sg296
VCristiano Felicio
p596
sg298
I1610612741
sg299
g477
sg301
g18
sg302
V00
p597
sg304
VC-F
p598
sg305
I1626245
ssI1626257
(dp599
g570
Nsg572
V235
p600
sg574
V2017
p601
sg576
F31.0
sg577
VJUN 15, 1986
p602
sg579
V7-2
p603
sg581
VSalah Mejri
p604
sg583
I1610612742
sg584
V50
p605
sg585
g18
sg587
V00
p606
sg589
g184
sg590
I1626257
ssI1626259
(dp607
g101
VHoly Cross
p608
sg103
V210
p609
sg105
V2017
p610
sg107
F24.0
sg108
VMAR 06, 1993
p611
sg110
V6-7
p612
sg112
VMalcolm Miller
p613
sg114
I1610612761
sg115
V13
p614
sg117
g397
sg118
V00
p615
sg120
g55
sg121
I1626259
ssI2200
(dp616
g123
VBarcelona, Spain
p617
sg125
V250
p618
sg127
V2017
p619
sg129
F37.0
sg130
VJUL 06, 1980
p620
sg132
V7-0
p621
sg134
VPau Gasol
p622
sg136
I1610612759
sg137
V16
p623
sg139
V16
p624
sg141
V00
p625
sg143
g184
sg144
I2200
ssI2207
(dp626
g262
VArkansas
p627
sg264
V240
p628
sg266
V2017
p629
sg268
F36.0
sg269
VJUN 29, 1981
p630
sg271
V6-7
p631
sg273
VJoe Johnson
p632
sg275
I1610612762
sg276
g477
sg278
V16
p633
sg280
V00
p634
sg282
VG-F
p635
sg283
I2207
ssI2210
(dp636
g2
VArizona
p637
sg3
V233
p638
sg5
V2017
p639
sg7
F37.0
sg8
VJUN 21, 1980
p640
sg10
V6-7
p641
sg12
VRichard Jefferson
p642
sg14
I1610612743
sg15
V22
p643
sg17
V16
p644
sg19
V00
p645
sg21
g55
sg23
I2210
ssI2216
(dp646
g218
VMichigan State
p647
sg220
V250
p648
sg222
V2017
p649
sg224
F36.0
sg225
VJUL 16, 1981
p650
sg227
V6-9
p651
sg229
VZach Randolph
p652
sg231
I1610612758
sg232
V50
p653
sg234
V16
p654
sg235
V00
p655
sg237
g55
sg238
I2216
ssI2225
(dp656
g123
VParis, France
p657
sg125
V185
p658
sg127
V2017
p659
sg129
F35.0
sg130
VMAY 17, 1982
p660
sg132
V6-2
p661
sg134
VTony Parker
p662
sg136
I1610612759
sg137
V9
p663
sg139
V16
p664
sg141
V00
p665
sg143
g22
sg144
I2225
ssI1628366
(dp666
g509
VCalifornia-Los Angeles
p667
sg511
V190
p668
sg513
V2017
p669
sg515
F20.0
sg516
VOCT 27, 1997
p670
sg518
V6-6
p671
sg520
VLonzo Ball
p672
sg522
I1610612747
sg523
g18
sg524
g397
sg525
V00
p673
sg527
g22
sg528
I1628366
ssI1628368
(dp674
g218
VKentucky
p675
sg220
V175
p676
sg222
V2017
p677
sg224
F19.0
sg225
VDEC 20, 1997
p678
sg227
V6-3
p679
sg229
VDe'Aaron Fox
p680
sg231
I1610612758
sg232
g72
sg234
g397
sg235
V00
p681
sg237
g22
sg238
I1628368
ssI1628369
(dp682
g412
VDuke
p683
sg414
V205
p684
sg416
V2017
p685
sg418
F19.0
sg419
VMAR 03, 1998
p686
sg421
V6-8
p687
sg423
VJayson Tatum
p688
sg425
I1610612738
sg426
g16
sg428
g397
sg429
V00
p689
sg431
g55
sg432
I1628369
ssI1628372
(dp690
g570
VNorth Carolina State
p691
sg572
V195
p692
sg574
V2017
p693
sg576
F19.0
sg577
VNOV 25, 1997
p694
sg579
V6-3
p695
sg581
VDennis Smith Jr.
p696
sg583
I1610612742
sg584
g40
sg585
g397
sg587
V00
p697
sg589
g22
sg590
I1628372
ssI1628374
(dp698
g285
VArizona
p699
sg287
V230
p700
sg289
V2017
p701
sg291
F20.0
sg292
VMAY 22, 1997
p702
sg294
V7-0
p703
sg296
VLauri Markkanen
p704
sg298
I1610612741
sg299
V24
p705
sg301
g397
sg302
V00
p706
sg304
g55
sg305
I1628374
ssI1628378
(dp707
g262
VLouisville
p708
sg264
V215
p709
sg266
V2017
p710
sg268
F21.0
sg269
VSEP 07, 1996
p711
sg271
V6-3
p712
sg273
VDonovan Mitchell
p713
sg275
I1610612762
sg276
V45
p714
sg278
g397
sg280
V00
p715
sg282
g22
sg283
I1628378
ssI1628381
(dp716
VSCHOOL
p717
VWake Forest
p718
sVWEIGHT
p719
V235
p720
sVSEASON
p721
V2017
p722
sVAGE
p723
F20.0
sVBIRTH_DATE
p724
VSEP 23, 1997
p725
sVHEIGHT
p726
V6-10
p727
sVPLAYER
p728
VJohn Collins
p729
sVTeamID
p730
I1610612737
sVNUM
p731
V20
p732
sVEXP
p733
g397
sVLeagueID
p734
V00
p735
sVPOSITION
p736
VF-C
p737
sVPLAYER_ID
p738
I1628381
ssI1628382
(dp739
g218
VNorth Carolina
p740
sg220
V210
p741
sg222
V2017
p742
sg224
F22.0
sg225
VMAR 28, 1995
p743
sg227
V6-8
p744
sg229
VJustin Jackson
p745
sg231
I1610612758
sg232
V25
p746
sg234
g397
sg235
V00
p747
sg237
g55
sg238
I1628382
ssI1628383
(dp748
g25
VCreighton
p749
sg27
V236
p750
sg29
V2017
p751
sg31
F20.0
sg32
VJUN 14, 1997
p752
sg34
V7-0
p753
sg36
VJustin Patton
p754
sg38
I1610612750
sg39
V24
p755
sg41
g397
sg42
V00
p756
sg44
g184
sg45
I1628383
ssI1628384
(dp757
g101
VIndiana
p758
sg103
V235
p759
sg105
V2017
p760
sg107
F20.0
sg108
VJUL 17, 1997
p761
sg110
V6-8
p762
sg112
VOG Anunoby
p763
sg114
I1610612761
sg115
g53
sg117
g397
sg118
V00
p764
sg120
g55
sg121
I1628384
ssI1628385
(dp765
g218
VDuke
p766
sg220
V240
p767
sg222
V2017
p768
sg224
F19.0
sg225
VAPR 22, 1998
p769
sg227
V6-10
p770
sg229
VHarry Giles
p771
sg231
I1610612758
sg232
V20
p772
sg234
g397
sg235
V00
p773
sg237
VF-C
p774
sg238
I1628385
ssI1628386
(dp775
g155
VTexas
p776
sg157
V234
p777
sg159
V2017
p778
sg161
F19.0
sg162
VAPR 21, 1998
p779
sg164
V6-11
p780
sg166
VJarrett Allen
p781
sg168
I1610612751
sg169
V31
p782
sg170
g397
sg171
V00
p783
sg173
g184
sg174
I1628386
ssI1628389
(dp784
g186
VKentucky
p785
sg188
V255
p786
sg190
V2017
p787
sg192
F20.0
sg193
VJUL 18, 1997
p788
sg195
V6-10
p789
sg197
VBam Adebayo
p790
sg199
I1610612748
sg200
V13
p791
sg202
g397
sg203
V00
p792
sg205
VC-F
p793
sg206
I1628389
ssI1628390
(dp794
g380
Nsg382
V184
p795
sg384
V2017
p796
sg386
F19.0
sg387
VMAY 17, 1998
p797
sg389
V6-7
p798
sg391
VTerrance Ferguson
p799
sg393
I1610612760
sg394
V23
p800
sg396
g397
sg398
V00
p801
sg400
g22
sg401
I1628390
ssI1628391
(dp802
g240
VMichigan
p803
sg242
V236
p804
sg244
V2017
p805
sg246
F21.0
sg247
VFEB 19, 1996
p806
sg249
V6-10
p807
sg251
VD.J. Wilson
p808
sg253
I1610612749
sg254
g72
sg256
g397
sg257
V00
p809
sg259
g55
sg260
I1628391
ssI1628393
(dp810
g57
VOklahoma State
p811
sg59
V190
p812
sg61
V2017
p813
sg63
F21.0
sg64
VJUL 26, 1996
p814
sg66
V6-0
p815
sg68
VJawun Evans
p816
sg70
I1610612746
sg71
g40
sg73
g397
sg74
V00
p817
sg76
g22
sg78
I1628393
ssI1628395
(dp818
g331
VOregon
p819
sg333
V224
p820
sg335
V2017
p821
sg337
F22.0
sg338
VJAN 07, 1995
p822
sg340
V6-9
p823
sg342
VJordan Bell
p824
sg344
I1610612744
sg345
g18
sg346
g397
sg347
V00
p825
sg349
g55
sg350
I1628395
ssI1628396
(dp826
g262
VNorth Carolina
p827
sg264
V248
p828
sg266
V2017
p829
sg268
F19.0
sg269
VJAN 08, 1998
p830
sg271
V6-10
p831
sg273
VTony Bradley
p832
sg275
I1610612762
sg276
V13
p833
sg278
g397
sg280
V00
p834
sg282
g184
sg283
I1628396
ssI1628397
(dp835
g80
VCalifornia
p836
sg82
V220
p837
sg84
V2017
p838
sg86
F20.0
sg87
VFEB 04, 1997
p839
sg89
V6-10
p840
sg91
VIvan Rabb
p841
sg93
I1610612763
sg94
V10
p842
sg95
g397
sg96
V00
p843
sg98
g55
sg99
I1628397
ssI1628398
(dp844
g509
VUtah
p845
sg511
V220
p846
sg513
V2017
p847
sg515
F22.0
sg516
VJUL 24, 1995
p848
sg518
V6-9
p849
sg520
VKyle Kuzma
p850
sg522
I1610612747
sg523
g16
sg524
g397
sg525
V00
p851
sg527
g55
sg528
I1628398
ssI1628399
(dp852
g2
VSyracuse
p853
sg3
V220
p854
sg5
V2017
p855
sg7
F21.0
sg8
VAPR 09, 1996
p856
sg10
V6-9
p857
sg12
VTyler Lydon
p858
sg14
I1610612743
sg15
V20
p859
sg17
g397
sg19
V00
p860
sg21
g55
sg23
I1628399
ssI1628400
(dp861
g412
VSouthern Methodist
p862
sg414
V235
p863
sg416
V2017
p864
sg418
F22.0
sg419
VDEC 05, 1994
p865
sg421
V6-7
p866
sg423
VSemi Ojeleye
p867
sg425
I1610612738
sg426
V37
p868
sg428
g397
sg429
V00
p869
sg431
g55
sg432
I1628400
ssI1628401
(dp870
g123
VColorado
p871
sg125
V190
p872
sg127
V2017
p873
sg129
F23.0
sg130
VJUL 02, 1994
p874
sg132
V6-4
p875
sg134
VDerrick White
p876
sg136
I1610612759
sg137
g458
sg139
g397
sg141
V00
p877
sg143
g22
sg144
I1628401
ssI1628402
(dp878
VSCHOOL
p879
VDuke
p880
sVWEIGHT
p881
V205
p882
sVSEASON
p883
V2017
p884
sVAGE
p885
F19.0
sVBIRTH_DATE
p886
VMAY 04, 1998
p887
sVHEIGHT
p888
V6-3
p889
sVPLAYER
p890
VFrank Jackson
p891
sVTeamID
p892
I1610612740
sVNUM
p893
V15
p894
sVEXP
p895
g397
sVLeagueID
p896
V00
p897
sVPOSITION
p898
g22
sVPLAYER_ID
p899
I1628402
ssI1628404
(dp900
g509
VVillanova
p901
sg511
V215
p902
sg513
V2017
p903
sg515
F22.0
sg516
VMAR 06, 1995
p904
sg518
V6-5
p905
sg520
VJosh Hart
p906
sg522
I1610612747
sg523
g72
sg524
g397
sg525
V00
p907
sg527
g22
sg528
I1628404
ssI1628405
(dp908
g570
VBaylor
p909
sg572
V230
p910
sg574
V2017
p911
sg576
F22.0
sg577
VMAY 04, 1995
p912
sg579
V6-10
p913
sg581
VJohnathan Motley
p914
sg583
I1610612742
sg584
g477
sg585
g397
sg587
V00
p915
sg589
g55
sg590
I1628405
ssI1628408
(dp916
g380
VSouth Carolina
p917
sg382
V205
p918
sg384
V2017
p919
sg386
F21.0
sg387
VOCT 25, 1996
p920
sg389
V6-6
p921
sg391
VPJ Dozier
p922
sg393
I1610612760
sg394
V35
p923
sg396
g397
sg398
V00
p924
sg400
g22
sg401
I1628408
ssI203476
(dp925
g25
VLouisville
p926
sg27
V251
p927
sg29
V2017
p928
sg31
F27.0
sg32
VJAN 18, 1990
p929
sg34
V6-11
p930
sg36
VGorgui Dieng
p931
sg38
I1610612750
sg39
g72
sg41
g458
sg42
V00
p932
sg44
g184
sg45
I203476
ssI1628412
(dp933
g218
VKansas
p934
sg220
V190
p935
sg222
V2017
p936
sg224
F23.0
sg225
VAPR 03, 1994
p937
sg227
V5-11
p938
sg229
VFrank Mason
p939
sg231
I1610612758
sg232
V10
p940
sg234
g397
sg235
V00
p941
sg237
g22
sg238
I1628412
ssI1628414
(dp942
g57
VSouth Carolina
p943
sg59
V215
p944
sg61
V2017
p945
sg63
F22.0
sg64
VNOV 15, 1994
p946
sg66
V6-5
p947
sg68
VSindarius Thornwell
p948
sg70
I1610612746
sg71
g16
sg73
g397
sg74
V00
p949
sg76
g22
sg78
I1628414
ssI1628415
(dp950
g80
VOregon
p951
sg82
V220
p952
sg84
V2017
p953
sg86
F21.0
sg87
VJAN 22, 1996
p954
sg89
V6-6
p955
sg91
VDillon Brooks
p956
sg93
I1610612763
sg94
V24
p957
sg95
g397
sg96
V00
p958
sg98
VF-G
p959
sg99
I1628415
ssI1628416
(dp960
g717
VOregon
p961
sg719
V183
p962
sg721
V2017
p963
sg723
F21.0
sg724
VFEB 18, 1996
p964
sg726
V6-4
p965
sg728
VTyler Dorsey
p966
sg730
I1610612737
sg731
g18
sg733
g397
sg734
V00
p967
sg736
g22
sg738
I1628416
ssI1628418
(dp968
g509
VIndiana
p969
sg511
V248
p970
sg513
V2017
p971
sg515
F20.0
sg516
VJUL 31, 1997
p972
sg518
V6-10
p973
sg520
VThomas Bryant
p974
sg522
I1610612747
sg523
V31
p975
sg524
g397
sg525
V00
p976
sg527
g184
sg528
I1628418
ssI1628420
(dp977
g2
VIowa State
p978
sg3
V175
p979
sg5
V2017
p980
sg7
F22.0
sg8
VJUN 27, 1995
p981
sg10
V6-3
p982
sg12
VMonte Morris
p983
sg14
I1610612743
sg15
V11
p984
sg17
g397
sg19
V00
p985
sg21
g22
sg23
I1628420
ssI1628424
(dp986
g80
VArizona
p987
sg82
V170
p988
sg84
V2017
p989
sg86
F20.0
sg87
VJUL 04, 1997
p990
sg89
V6-4
p991
sg91
VKobi Simmons
p992
sg93
I1610612763
sg94
g18
sg95
g397
sg96
V00
p993
sg98
g22
sg99
I1628424
ssI1628425
(dp994
g240
VSouthern Methodist
p995
sg242
V230
p996
sg244
V2017
p997
sg246
F22.0
sg247
VFEB 10, 1995
p998
sg249
V6-6
p999
sg251
VSterling Brown
p1000
sg253
I1610612749
sg254
V23
p1001
sg256
g397
sg257
V00
p1002
sg259
g22
sg260
I1628425
ssI1628429
(dp1003
g879
VDayton
p1004
sg881
V196
p1005
sg883
V2017
p1006
sg885
F23.0
sg886
VJUL 01, 1994
p1007
sg888
V6-5
p1008
sg890
VCharles Cooke
p1009
sg892
I1610612740
sg893
g458
sg895
g397
sg896
V00
p1010
sg898
g22
sg899
I1628429
ssI1628443
(dp1011
g412
VArizona
p1012
sg414
V200
p1013
sg416
V2017
p1014
sg418
F24.0
sg419
VJAN 15, 1993
p1015
sg421
V6-3
p1016
sg423
VKadeem Allen
p1017
sg425
I1610612738
sg426
V45
p1018
sg428
g397
sg429
V00
p1019
sg431
g22
sg432
I1628443
ssI1628444
(dp1020
g412
VCalifornia
p1021
sg414
V198
p1022
sg416
V2017
p1023
sg418
F23.0
sg419
VJUL 03, 1994
p1024
sg421
V6-6
p1025
sg423
VJabari Bird
p1026
sg425
I1610612738
sg426
V26
p1027
sg428
g397
sg429
V00
p1028
sg431
g22
sg432
I1628444
ssI1628449
(dp1029
g331
VOregon
p1030
sg333
V200
p1031
sg335
V2017
p1032
sg337
F24.0
sg338
VJAN 11, 1993
p1033
sg340
V6-10
p1034
sg342
VChris Boucher
p1035
sg344
I1610612744
sg345
V25
p1036
sg346
g397
sg347
V00
p1037
sg349
g55
sg350
I1628449
ssI1628451
(dp1038
g155
VEastern Washington
p1039
sg157
V223
p1040
sg159
V2017
p1041
sg161
F23.0
sg162
VSEP 04, 1994
p1042
sg164
V6-8
p1043
sg166
VJacob Wiley
p1044
sg168
I1610612751
sg169
V21
p1045
sg170
g397
sg171
V00
p1046
sg173
g55
sg174
I1628451
ssI1628462
(dp1047
g57
Nsg59
V196
p1048
sg61
V2017
p1049
sg63
F30.0
sg64
VMAR 19, 1987
p1050
sg66
V6-5
p1051
sg68
VMilos Teodosic
p1052
sg70
I1610612746
sg71
g458
sg73
g397
sg74
V00
p1053
sg76
g22
sg78
I1628462
ssI1628463
(dp1054
g717
VGeorge Washington
p1055
sg719
V238
p1056
sg721
V2017
p1057
sg723
F23.0
sg724
VFEB 09, 1994
p1058
sg726
V6-9
p1059
sg728
VTyler Cavanaugh
p1060
sg730
I1610612737
sg731
V34
p1061
sg733
g397
sg734
V00
p1062
sg736
g55
sg738
I1628463
ssI1628464
(dp1063
g412
Nsg414
V243
p1064
sg416
V2017
p1065
sg418
F25.0
sg419
VAPR 04, 1992
p1066
sg421
V6-9
p1067
sg423
VDaniel Theis
p1068
sg425
I1610612738
sg426
V27
p1069
sg428
g397
sg429
V00
p1070
sg431
VF-C
p1071
sg432
I1628464
ssI1628467
(dp1072
g570
Nsg572
V220
p1073
sg574
V2017
p1074
sg576
F25.0
sg577
VJAN 29, 1992
p1075
sg579
V6-11
p1076
sg581
VMaxi Kleber
p1077
sg583
I1610612742
sg584
V42
p1078
sg585
g397
sg587
V00
p1079
sg589
g55
sg590
I1628467
ssI1628469
(dp1080
g285
VLouisiana State
p1081
sg287
V197
p1082
sg289
V2017
p1083
sg291
F21.0
sg292
VOCT 04, 1996
p1084
sg294
V6-4
p1085
sg296
VAntonio Blakeney
p1086
sg298
I1610612741
sg299
g663
sg301
g397
sg302
V00
p1087
sg304
g22
sg305
I1628469
ssI1628470
(dp1088
g2
VSouth Carolina Upstate
p1089
sg3
V215
p1090
sg5
V2017
p1091
sg7
F26.0
sg8
VDEC 19, 1990
p1092
sg10
V6-6
p1093
sg12
VTorrey Craig
p1094
sg14
I1610612743
sg15
g53
sg17
g397
sg19
V00
p1095
sg21
VG-F
p1096
sg23
I1628470
ssI1628473
(dp1097
g155
Nsg157
V220
p1098
sg159
V2017
p1099
sg161
F25.0
sg162
VJAN 24, 1992
p1100
sg164
V6-4
p1101
sg166
VYakuba Ouattara
p1102
sg168
I1610612751
sg169
V00
p1103
sg170
g397
sg171
V00
p1104
sg173
g22
sg174
I1628473
ssI1628475
(dp1105
g186
VCentral Florida
p1106
sg188
V210
p1107
sg190
V2017
p1108
sg192
F24.0
sg193
VOCT 14, 1993
p1109
sg195
V6-5
p1110
sg197
VMatt Williams Jr.
p1111
sg199
I1610612748
sg200
V12
p1112
sg202
g397
sg203
V00
p1113
sg205
g22
sg206
I1628475
ssI1628476
(dp1114
g186
VMichigan
p1115
sg188
V185
p1116
sg190
V2017
p1117
sg192
F22.0
sg193
VAPR 03, 1995
p1118
sg195
V6-1
p1119
sg197
VDerrick Walton Jr.
p1120
sg199
I1610612748
sg200
V14
p1121
sg202
g397
sg203
V00
p1122
sg205
g22
sg206
I1628476
ssI203076
(dp1123
g879
VKentucky
p1124
sg881
V253
p1125
sg883
V2017
p1126
sg885
F24.0
sg886
VMAR 11, 1993
p1127
sg888
V6-10
p1128
sg890
VAnthony Davis
p1129
sg892
I1610612740
sg893
V23
p1130
sg895
g72
sg896
V00
p1131
sg898
VF-C
p1132
sg899
I203076
ssI203079
(dp1133
g186
VSyracuse
p1134
sg188
V215
p1135
sg190
V2017
p1136
sg192
F25.0
sg193
VDEC 10, 1991
p1137
sg195
V6-4
p1138
sg197
VDion Waiters
p1139
sg199
I1610612748
sg200
V11
p1140
sg202
g72
sg203
V00
p1141
sg205
g22
sg206
I203079
ssI1628492
(dp1142
g570
VColorado State
p1143
sg572
V185
p1144
sg574
V2017
p1145
sg576
F23.0
sg577
VNOV 26, 1993
p1146
sg579
V6-4
p1147
sg581
VGian Clavell
p1148
sg583
I1610612742
sg584
V8
p1149
sg585
g397
sg587
V00
p1150
sg589
g22
sg590
I1628492
ssI203085
(dp1151
g57
VDuke
p1152
sg59
V200
p1153
sg61
V2017
p1154
sg63
F25.0
sg64
VAUG 01, 1992
p1155
sg66
V6-4
p1156
sg68
VAustin Rivers
p1157
sg70
I1610612746
sg71
V25
p1158
sg73
g72
sg74
V00
p1159
sg76
g22
sg78
I203085
ssI203089
(dp1160
g240
VNorth Carolina
p1161
sg242
V229
p1162
sg244
V2017
p1163
sg246
F26.0
sg247
VDEC 28, 1990
p1164
sg249
V6-11
p1165
sg251
VJohn Henson
p1166
sg253
I1610612749
sg254
V31
p1167
sg256
g72
sg257
V00
p1168
sg259
VF-C
p1169
sg260
I203089
ssI203092
(dp1170
g155
VNorth Carolina
p1171
sg157
V250
p1172
sg159
V2017
p1173
sg161
F27.0
sg162
VJAN 17, 1990
p1174
sg164
V7-0
p1175
sg166
VTyler Zeller
p1176
sg168
I1610612751
sg169
V44
p1177
sg170
g72
sg171
V00
p1178
sg173
g184
sg174
I203092
ssI1628506
(dp1179
g548
VVirginia
p1180
sg550
V190
p1181
sg552
V2017
p1182
sg554
F23.0
sg555
VOCT 03, 1994
p1183
sg557
V6-2
p1184
sg559
VLondon Perrantes
p1185
sg561
I1610612739
sg562
V15
p1186
sg564
g397
sg565
V00
p1187
sg567
g22
sg568
I1628506
ssI203101
(dp1188
g717
VDuke
p1189
sg719
V249
p1190
sg721
V2017
p1191
sg723
F29.0
sg724
VSEP 01, 1988
p1192
sg726
V6-11
p1193
sg728
VMiles Plumlee
p1194
sg730
I1610612737
sg731
V18
p1195
sg733
g72
sg734
V00
p1196
sg736
g184
sg738
I203101
ssI2403
(dp1197
g461
VSao Carlos, Brazil
p1198
sg463
V250
p1199
sg465
V2017
p1200
sg467
F35.0
sg468
VSEP 13, 1982
p1201
sg470
V6-11
p1202
sg472
VNene
p1203
sg474
I1610612745
sg475
V42
p1204
sg476
V15
p1205
sg478
V00
p1206
sg480
VC-F
p1207
sg481
I2403
ssI203109
(dp1208
g548
VMarquette
p1209
sg550
V235
p1210
sg552
V2017
p1211
sg554
F27.0
sg555
VJUL 06, 1990
p1212
sg557
V6-6
p1213
sg559
VJae Crowder
p1214
sg561
I1610612739
sg562
V99
p1215
sg564
g72
sg565
V00
p1216
sg567
g55
sg568
I203109
ssI203110
(dp1217
g331
VMichigan State
p1218
sg333
V230
p1219
sg335
V2017
p1220
sg337
F27.0
sg338
VMAR 04, 1990
p1221
sg340
V6-7
p1222
sg342
VDraymond Green
p1223
sg344
I1610612744
sg345
V23
p1224
sg346
g72
sg347
V00
p1225
sg349
g55
sg350
I203110
ssI203112
(dp1226
g155
VBaylor
p1227
sg157
V240
p1228
sg159
V2017
p1229
sg161
F27.0
sg162
VOCT 06, 1990
p1230
sg164
V6-7
p1231
sg166
VQuincy Acy
p1232
sg168
I1610612751
sg169
V13
p1233
sg170
g72
sg171
V00
p1234
sg173
g55
sg174
I203112
ssI203114
(dp1235
g240
VTexas A&M
p1236
sg242
V234
p1237
sg244
V2017
p1238
sg246
F26.0
sg247
VAUG 12, 1991
p1239
sg249
V6-8
p1240
sg251
VKhris Middleton
p1241
sg253
I1610612749
sg254
V22
p1242
sg256
g72
sg257
V00
p1243
sg259
g55
sg260
I203114
ssI203115
(dp1244
g2
VMemphis
p1245
sg3
V190
p1246
sg5
V2017
p1247
sg7
F26.0
sg8
VJAN 06, 1991
p1248
sg10
V6-6
p1249
sg12
VWill Barton
p1250
sg14
I1610612743
sg15
g72
sg17
g72
sg19
V00
p1251
sg21
VG-F
p1252
sg23
I203115
ssI200765
(dp1253
g879
VKentucky
p1254
sg881
V186
p1255
sg883
V2017
p1256
sg885
F31.0
sg886
VFEB 22, 1986
p1257
sg888
V6-1
p1258
sg890
VRajon Rondo
p1259
sg892
I1610612740
sg893
g663
sg895
V11
p1260
sg896
V00
p1261
sg898
g22
sg899
I200765
ssI203121
(dp1262
g879
VKentucky
p1263
sg881
V225
p1264
sg883
V2017
p1265
sg885
F27.0
sg886
VMAR 21, 1990
p1266
sg888
V6-8
p1267
sg890
VDarius Miller
p1268
sg892
I1610612740
sg893
V21
p1269
sg895
g53
sg896
V00
p1270
sg898
g55
sg899
I203121
ssI203141
(dp1271
g240
VBosnia
p1272
sg242
V242
p1273
sg244
V2017
p1274
sg246
F32.0
sg247
VSEP 17, 1985
p1275
sg249
V6-9
p1276
sg251
VMirza Teletovic
p1277
sg253
I1610612749
sg254
V35
p1278
sg256
g72
sg257
V00
p1279
sg259
g55
sg260
I203141
ssI203145
(dp1280
g717
VOld Dominion
p1281
sg719
V201
p1282
sg721
V2017
p1283
sg723
F28.0
sg724
VJUL 01, 1989
p1284
sg726
V6-5
p1285
sg728
VKent Bazemore
p1286
sg730
I1610612737
sg731
V24
p1287
sg733
g72
sg734
V00
p1288
sg736
g22
sg738
I203145
ssI203186
(dp1289
g57
VSaint Louis
p1290
sg59
V245
p1291
sg61
V2017
p1292
sg63
F27.0
sg64
VMAY 16, 1990
p1293
sg66
V6-11
p1294
sg68
VWillie Reed
p1295
sg70
I1610612746
sg71
V35
p1296
sg73
g18
sg74
V00
p1297
sg76
g184
sg78
I203186
ssI201142
(dp1298
g331
VTexas
p1299
sg333
V240
p1300
sg335
V2017
p1301
sg337
F29.0
sg338
VSEP 29, 1988
p1302
sg340
V6-9
p1303
sg342
VKevin Durant
p1304
sg344
I1610612744
sg345
V35
p1305
sg346
V10
p1306
sg347
V00
p1307
sg349
g55
sg350
I201142
ssI201143
(dp1308
g412
VFlorida
p1309
sg414
V245
p1310
sg416
V2017
p1311
sg418
F31.0
sg419
VJUN 03, 1986
p1312
sg421
V6-10
p1313
sg423
VAl Horford
p1314
sg425
I1610612738
sg426
V42
p1315
sg428
V10
p1316
sg429
V00
p1317
sg431
VF-C
p1318
sg432
I201143
ssI201144
(dp1319
g80
VOhio State
p1320
sg82
V175
p1321
sg84
V2017
p1322
sg86
F30.0
sg87
VOCT 11, 1987
p1323
sg89
V6-1
p1324
sg91
VMike Conley
p1325
sg93
I1610612763
sg94
V11
p1326
sg95
V10
p1327
sg96
V00
p1328
sg98
g22
sg99
I201144
ssI201145
(dp1329
g548
VGeorgetown
p1330
sg550
V235
p1331
sg552
V2017
p1332
sg554
F31.0
sg555
VAUG 28, 1986
p1333
sg557
V6-9
p1334
sg559
VJeff Green
p1335
sg561
I1610612739
sg562
V32
p1336
sg564
g663
sg565
V00
p1337
sg567
g55
sg568
I201145
ssI201147
(dp1338
g509
VFlorida
p1339
sg511
V186
p1340
sg513
V2017
p1341
sg515
F31.0
sg516
VMAR 05, 1986
p1342
sg518
V6-9
p1343
sg520
VCorey Brewer
p1344
sg522
I1610612747
sg523
g53
sg524
V10
p1345
sg525
V00
p1346
sg527
g55
sg528
I201147
ssI201148
(dp1347
g80
VNorth Carolina
p1348
sg82
V235
p1349
sg84
V2017
p1350
sg86
F30.0
sg87
VOCT 05, 1987
p1351
sg89
V6-10
p1352
sg91
VBrandan Wright
p1353
sg93
I1610612763
sg94
V34
p1354
sg95
g663
sg96
V00
p1355
sg98
VF-C
p1356
sg99
I201148
ssI203200
(dp1357
g285
VWashington
p1358
sg287
V185
p1359
sg289
V2017
p1360
sg291
F28.0
sg292
VAPR 05, 1989
p1361
sg294
V6-6
p1362
sg296
VJustin Holiday
p1363
sg298
I1610612741
sg299
g152
sg301
g458
sg302
V00
p1364
sg304
g22
sg305
I203200
ssI201156
(dp1365
g331
VSouthern California
p1366
sg333
V210
p1367
sg335
V2017
p1368
sg337
F32.0
sg338
VJUN 01, 1985
p1369
sg340
V6-7
p1370
sg342
VNick Young
p1371
sg344
I1610612744
sg345
g477
sg346
V10
p1372
sg347
V00
p1373
sg349
VG-F
p1374
sg350
I201156
ssI201158
(dp1375
g717
VBologna, Italy
p1376
sg719
V210
p1377
sg721
V2017
p1378
sg723
F31.0
sg724
VMAR 25, 1986
p1379
sg726
V6-5
p1380
sg728
VMarco Belinelli
p1381
sg730
I1610612737
sg731
g53
sg733
V10
p1382
sg734
V00
p1383
sg736
VG-F
p1384
sg738
I201158
ssI203210
(dp1385
g80
VAlabama
p1386
sg82
V227
p1387
sg84
V2017
p1388
sg86
F27.0
sg87
VJUN 21, 1990
p1389
sg89
V6-9
p1390
sg91
VJaMychal Green
p1391
sg93
I1610612763
sg94
g16
sg95
g53
sg96
V00
p1392
sg98
g55
sg99
I203210
ssI201163
(dp1393
g2
VDePaul
p1394
sg3
V225
p1395
sg5
V2017
p1396
sg7
F30.0
sg8
VMAY 10, 1987
p1397
sg10
V6-9
p1398
sg12
VWilson Chandler
p1399
sg14
I1610612743
sg15
V21
p1400
sg17
g663
sg19
V00
p1401
sg21
g55
sg23
I201163
ssI201166
(dp1402
g25
VOregon
p1403
sg27
V161
p1404
sg29
V2017
p1405
sg31
F32.0
sg32
VJAN 14, 1985
p1406
sg34
V6-0
p1407
sg36
VAaron Brooks
p1408
sg38
I1610612750
sg39
V30
p1409
sg41
g663
sg42
V00
p1410
sg44
g22
sg45
I201166
ssI101112
(dp1411
g548
VArizona
p1412
sg550
V255
p1413
sg552
V2017
p1414
sg554
F34.0
sg555
VMAY 17, 1983
p1415
sg557
V6-11
p1416
sg559
VChanning Frye
p1417
sg561
I1610612739
sg562
g1149
sg564
V11
p1418
sg565
V00
p1419
sg567
g55
sg568
I101112
ssI201177
(dp1420
g570
VDuke
p1421
sg572
V240
p1422
sg574
V2017
p1423
sg576
F30.0
sg577
VFEB 28, 1987
p1424
sg579
V6-10
p1425
sg581
VJosh McRoberts
p1426
sg583
I1610612742
sg584
V13
p1427
sg585
V10
p1428
sg587
V00
p1429
sg589
VF-C
p1430
sg590
I201177
ssI201188
(dp1431
g80
VBarcelona, Spain
p1432
sg82
V255
p1433
sg84
V2017
p1434
sg86
F32.0
sg87
VJAN 29, 1985
p1435
sg89
V7-1
p1436
sg91
VMarc Gasol
p1437
sg93
I1610612763
sg94
V33
p1438
sg95
g663
sg96
V00
p1439
sg98
g184
sg99
I201188
ssI2544
(dp1440
g548
VSt. Vincent-St. Mary HS (OH)
p1441
sg550
V250
p1442
sg552
V2017
p1443
sg554
F32.0
sg555
VDEC 30, 1984
p1444
sg557
V6-8
p1445
sg559
VLeBron James
p1446
sg561
I1610612739
sg562
V23
p1447
sg564
V14
p1448
sg565
V00
p1449
sg567
VF-G
p1450
sg568
I2544
ssI2546
(dp1451
g380
VSyracuse
p1452
sg382
V240
p1453
sg384
V2017
p1454
sg386
F33.0
sg387
VMAY 29, 1984
p1455
sg389
V6-8
p1456
sg391
VCarmelo Anthony
p1457
sg393
I1610612760
sg394
g152
sg396
V14
p1458
sg398
V00
p1459
sg400
g55
sg401
I2546
ssI2548
(dp1460
g548
VMarquette
p1461
sg550
V220
p1462
sg552
V2017
p1463
sg554
F35.0
sg555
VJAN 17, 1982
p1464
sg557
V6-4
p1465
sg559
VDwyane Wade
p1466
sg561
I1610612739
sg562
g663
sg564
V14
p1467
sg565
V00
p1468
sg567
g22
sg568
I2548
ssI2555
(dp1469
g380
VKansas
p1470
sg382
V255
p1471
sg384
V2017
p1472
sg386
F37.0
sg387
VOCT 26, 1980
p1473
sg389
V6-10
p1474
sg391
VNick Collison
p1475
sg393
I1610612760
sg394
g458
sg396
V13
p1476
sg398
V00
p1477
sg400
g55
sg401
I2555
ssI2561
(dp1478
g331
VXavier
p1479
sg333
V250
p1480
sg335
V2017
p1481
sg337
F37.0
sg338
VAUG 29, 1980
p1482
sg340
V6-9
p1483
sg342
VDavid West
p1484
sg344
I1610612744
sg345
g53
sg346
V14
p1485
sg347
V00
p1486
sg349
g55
sg350
I2561
ssI2585
(dp1487
g331
VTbilisi, Georgia
p1488
sg333
V270
p1489
sg335
V2017
p1490
sg337
F33.0
sg338
VFEB 10, 1984
p1491
sg340
V6-11
p1492
sg342
VZaza Pachulia
p1493
sg344
I1610612744
sg345
V27
p1494
sg346
V14
p1495
sg347
V00
p1496
sg349
g184
sg350
I2585
ssI2594
(dp1497
g548
VCreighton
p1498
sg550
V212
p1499
sg552
V2017
p1500
sg554
F36.0
sg555
VMAR 17, 1981
p1501
sg557
V6-7
p1502
sg559
VKyle Korver
p1503
sg561
I1610612739
sg562
V26
p1504
sg564
V14
p1505
sg565
V00
p1506
sg567
g22
sg568
I2594
ssI2617
(dp1507
g186
VFlorida
p1508
sg188
V235
p1509
sg190
V2017
p1510
sg192
F37.0
sg193
VJUN 09, 1980
p1511
sg195
V6-8
p1512
sg197
VUdonis Haslem
p1513
sg199
I1610612748
sg200
V40
p1514
sg202
V14
p1515
sg203
V00
p1516
sg205
g55
sg206
I2617
ssI203382
(dp1517
g412
VWashington State
p1518
sg414
V260
p1519
sg416
V2017
p1520
sg418
F30.0
sg419
VDEC 09, 1986
p1521
sg421
V6-10
p1522
sg423
VAron Baynes
p1523
sg425
I1610612738
sg426
V46
p1524
sg428
g72
sg429
V00
p1525
sg431
g184
sg432
I203382
ssI2733
(dp1526
g331
VPeoria Central HS (IL)
p1527
sg333
V192
p1528
sg335
V2017
p1529
sg337
F32.0
sg338
VSEP 11, 1985
p1530
sg340
V6-7
p1531
sg342
VShaun Livingston
p1532
sg344
I1610612744
sg345
V34
p1533
sg346
V12
p1534
sg347
V00
p1535
sg349
g22
sg350
I2733
ssI2734
(dp1536
g570
VWisconsin
p1537
sg572
V185
p1538
sg574
V2017
p1539
sg576
F34.0
sg577
VFEB 27, 1983
p1540
sg579
V6-3
p1541
sg581
VDevin Harris
p1542
sg583
I1610612742
sg584
V34
p1543
sg585
V13
p1544
sg587
V00
p1545
sg589
g22
sg590
I2734
ssI2736
(dp1546
g509
VDuke
p1547
sg511
V220
p1548
sg513
V2017
p1549
sg515
F32.0
sg516
VAPR 16, 1985
p1550
sg518
V6-9
p1551
sg520
VLuol Deng
p1552
sg522
I1610612747
sg523
g663
sg524
V13
p1553
sg525
V00
p1554
sg527
g55
sg528
I2736
ssI2738
(dp1555
g331
VArizona
p1556
sg333
V215
p1557
sg335
V2017
p1558
sg337
F33.0
sg338
VJAN 28, 1984
p1559
sg340
V6-6
p1560
sg342
VAndre Iguodala
p1561
sg344
I1610612744
sg345
g663
sg346
V13
p1562
sg347
V00
p1563
sg349
VG-F
p1564
sg350
I2738
ssI2747
(dp1565
g548
VSt. Benedict's Prep (NJ)
p1566
sg550
V225
p1567
sg552
V2017
p1568
sg554
F32.0
sg555
VSEP 09, 1985
p1569
sg557
V6-6
p1570
sg559
VJR Smith
p1571
sg561
I1610612739
sg562
g72
sg564
V13
p1572
sg565
V00
p1573
sg567
VG-F
p1574
sg568
I2747
ssI2749
(dp1575
g879
VSaint Joseph's
p1576
sg881
V190
p1577
sg883
V2017
p1578
sg885
F35.0
sg886
VFEB 09, 1982
p1579
sg888
V6-0
p1580
sg890
VJameer Nelson
p1581
sg892
I1610612740
sg893
V14
p1582
sg895
V13
p1583
sg896
V00
p1584
sg898
g22
sg899
I2749
ssI203457
(dp1585
g570
VKentucky
p1586
sg572
V220
p1587
sg574
V2017
p1588
sg576
F23.0
sg577
VAPR 10, 1994
p1589
sg579
V6-11
p1590
sg581
VNerlens Noel
p1591
sg583
I1610612742
sg584
g53
sg585
g53
sg587
V00
p1592
sg589
g184
sg590
I203457
ssI2754
(dp1593
g879
VOklahoma State
p1594
sg881
V213
p1595
sg883
V2017
p1596
sg885
F35.0
sg886
VJAN 11, 1982
p1597
sg888
V6-4
p1598
sg890
VTony Allen
p1599
sg892
I1610612740
sg893
V24
p1600
sg895
V13
p1601
sg896
V00
p1602
sg898
VG-F
p1603
sg899
I2754
ssI203459
(dp1604
g155
VCalifornia
p1605
sg157
V215
p1606
sg159
V2017
p1607
sg161
F25.0
sg162
VAPR 09, 1992
p1608
sg164
V6-6
p1609
sg166
VAllen Crabbe
p1610
sg168
I1610612751
sg169
V33
p1611
sg170
g458
sg171
V00
p1612
sg173
VG-F
p1613
sg174
I203459
ssI203460
(dp1614
g380
VColorado
p1615
sg382
V210
p1616
sg384
V2017
p1617
sg386
F25.0
sg387
VDEC 04, 1991
p1618
sg389
V6-7
p1619
sg391
VAndre Roberson
p1620
sg393
I1610612760
sg394
V21
p1621
sg396
g458
sg398
V00
p1622
sg400
g22
sg401
I203460
ssI203463
(dp1623
g80
VKansas
p1624
sg82
V195
p1625
sg84
V2017
p1626
sg86
F24.0
sg87
VFEB 11, 1993
p1627
sg89
V6-5
p1628
sg91
VBen McLemore
p1629
sg93
I1610612763
sg94
V23
p1630
sg95
g458
sg96
V00
p1631
sg98
g22
sg99
I203463
ssI203464
(dp1632
g123
Nsg125
V200
p1633
sg127
V2017
p1634
sg129
F26.0
sg130
VAPR 30, 1991
p1635
sg132
V6-4
p1636
sg134
VBrandon Paul
p1637
sg136
I1610612759
sg137
g53
sg139
g397
sg141
V00
p1638
sg143
g22
sg144
I203464
ssI203471
(dp1639
g717
VGermany
p1640
sg719
V172
p1641
sg721
V2017
p1642
sg723
F24.0
sg724
VSEP 15, 1993
p1643
sg726
V6-1
p1644
sg728
VDennis Schroder
p1645
sg730
I1610612737
sg731
V17
p1646
sg733
g458
sg734
V00
p1647
sg736
g22
sg738
I203471
ssI203473
(dp1648
g717
VSouthern California
p1649
sg719
V245
p1650
sg721
V2017
p1651
sg723
F28.0
sg724
VAUG 12, 1989
p1652
sg726
V7-0
p1653
sg728
VDewayne Dedmon
p1654
sg730
I1610612737
sg731
V14
p1655
sg733
g458
sg734
V00
p1656
sg736
g184
sg738
I203473
ssI2772
(dp1657
g461
VUCLA
p1658
sg463
V215
p1659
sg465
V2017
p1660
sg467
F32.0
sg468
VJUN 30, 1985
p1661
sg470
V6-8
p1662
sg472
VTrevor Ariza
p1663
sg474
I1610612745
sg475
g40
sg476
V13
p1664
sg478
V00
p1665
sg480
VF-G
p1666
sg481
I2772
ssI203481
(dp1667
g570
VKansas
p1668
sg572
V230
p1669
sg574
V2017
p1670
sg576
F27.0
sg577
VMAR 07, 1990
p1671
sg579
V7-0
p1672
sg581
VJeff Withey
p1673
sg583
I1610612742
sg584
V17
p1674
sg585
g458
sg587
V00
p1675
sg589
g184
sg590
I203481
ssI203482
(dp1676
g186
VGonzaga
p1677
sg188
V245
p1678
sg190
V2017
p1679
sg192
F26.0
sg193
VAPR 19, 1991
p1680
sg195
V7-0
p1681
sg197
VKelly Olynyk
p1682
sg199
I1610612748
sg200
g663
sg202
g458
sg203
V00
p1683
sg205
VC-F
p1684
sg206
I203482
ssI203484
(dp1685
g509
VGeorgia
p1686
sg511
V205
p1687
sg513
V2017
p1688
sg515
F24.0
sg516
VFEB 18, 1993
p1689
sg518
V6-5
p1690
sg520
VKentavious Caldwell-Pope
p1691
sg522
I1610612747
sg523
g40
sg524
g458
sg525
V00
p1692
sg527
g22
sg528
I203484
ssI203485
(dp1693
g101
VNorth Carolina State
p1694
sg103
V189
p1695
sg105
V2017
p1696
sg107
F27.0
sg108
VAUG 26, 1990
p1697
sg110
V6-5
p1698
sg112
VLorenzo Brown
p1699
sg114
I1610612761
sg115
g458
sg117
g53
sg118
V00
p1700
sg120
g22
sg121
I203485
ssI203486
(dp1701
g2
VDuke
p1702
sg3
V255
p1703
sg5
V2017
p1704
sg7
F27.0
sg8
VMAR 05, 1990
p1705
sg10
V6-11
p1706
sg12
VMason Plumlee
p1707
sg14
I1610612743
sg15
V24
p1708
sg17
g458
sg19
V00
p1709
sg21
VC-F
p1710
sg23
I203486
ssI203488
(dp1711
g717
VBucknell
p1712
sg719
V240
p1713
sg721
V2017
p1714
sg723
F26.0
sg724
VJUL 01, 1991
p1715
sg726
V6-11
p1716
sg728
VMike Muscala
p1717
sg730
I1610612737
sg731
V31
p1718
sg733
g458
sg734
V00
p1719
sg736
VF-C
p1720
sg738
I203488
ssI203489
(dp1721
g262
VSouth Dakota State
p1722
sg264
V190
p1723
sg266
V2017
p1724
sg268
F26.0
sg269
VMAY 15, 1991
p1725
sg271
V6-4
p1726
sg273
VNate Wolters
p1727
sg275
I1610612762
sg276
V16
p1728
sg278
g18
sg280
V00
p1729
sg282
g22
sg283
I203489
ssI203497
(dp1730
g262
VFrance
p1731
sg264
V245
p1732
sg266
V2017
p1733
sg268
F25.0
sg269
VJUN 26, 1992
p1734
sg271
V7-1
p1735
sg273
VRudy Gobert
p1736
sg275
I1610612762
sg276
V27
p1737
sg278
g458
sg280
V00
p1738
sg282
g184
sg283
I203497
ssI203498
(dp1739
g25
VUCLA
p1740
sg27
V221
p1741
sg29
V2017
p1742
sg31
F24.0
sg32
VNOV 13, 1992
p1743
sg34
V6-6
p1744
sg36
VShabazz Muhammad
p1745
sg38
I1610612750
sg39
V15
p1746
sg41
g458
sg42
V00
p1747
sg44
VG-F
p1748
sg45
I203498
ssI203499
(dp1749
g412
VMiami (FL)
p1750
sg414
V175
p1751
sg416
V2017
p1752
sg418
F25.0
sg419
VOCT 02, 1992
p1753
sg421
V5-11
p1754
sg423
VShane Larkin
p1755
sg425
I1610612738
sg426
g1149
sg428
g53
sg429
V00
p1756
sg431
g22
sg432
I203499
ssI203500
(dp1757
g380
VPittsburgh
p1758
sg382
V255
p1759
sg384
V2017
p1760
sg386
F24.0
sg387
VJUL 20, 1993
p1761
sg389
V7-0
p1762
sg391
VSteven Adams
p1763
sg393
I1610612760
sg394
V12
p1764
sg396
g458
sg398
V00
p1765
sg400
g184
sg401
I203500
ssI203503
(dp1766
g240
VNew Mexico
p1767
sg242
V221
p1768
sg244
V2017
p1769
sg246
F26.0
sg247
VNOV 10, 1991
p1770
sg249
V6-7
p1771
sg251
VTony Snell
p1772
sg253
I1610612749
sg254
V21
p1773
sg256
g458
sg257
V00
p1774
sg259
g22
sg260
I203503
ssI203505
(dp1775
g509
VMarquette
p1776
sg511
V200
p1777
sg513
V2017
p1778
sg515
F25.0
sg516
VJUL 17, 1992
p1779
sg518
V6-5
p1780
sg520
VVander Blue
p1781
sg522
I1610612747
sg523
V17
p1782
sg524
g18
sg525
V00
p1783
sg527
g22
sg528
I203505
ssI101106
(dp1784
g509
VUtah
p1785
sg511
V260
p1786
sg513
V2017
p1787
sg515
F32.0
sg516
VNOV 28, 1984
p1788
sg518
V7-0
p1789
sg520
VAndrew Bogut
p1790
sg522
I1610612747
sg523
V66
p1791
sg524
V12
p1792
sg525
V00
p1793
sg527
g184
sg528
I101106
ssI203507
(dp1794
g240
VGreece
p1795
sg242
V222
p1796
sg244
V2017
p1797
sg246
F22.0
sg247
VDEC 06, 1994
p1798
sg249
V6-11
p1799
sg251
VGiannis Antetokounmpo
p1800
sg253
I1610612749
sg254
V34
p1801
sg256
g458
sg257
V00
p1802
sg259
g55
sg260
I203507
ssI101108
(dp1803
g461
VWake Forest
p1804
sg463
V175
p1805
sg465
V2017
p1806
sg467
F32.0
sg468
VMAY 06, 1985
p1807
sg470
V6-0
p1808
sg472
VChris Paul
p1809
sg474
I1610612745
sg475
g53
sg476
V12
p1810
sg478
V00
p1811
sg480
g22
sg481
I101108
ssI101109
(dp1812
g380
VNorth Carolina
p1813
sg382
V205
p1814
sg384
V2017
p1815
sg386
F33.0
sg387
VJUN 26, 1984
p1816
sg389
V6-1
p1817
sg391
VRaymond Felton
p1818
sg393
I1610612760
sg394
g18
sg396
V12
p1819
sg398
V00
p1820
sg400
g22
sg401
I101109
ssI203512
(dp1821
g101
Nsg103
V220
p1822
sg105
V2017
p1823
sg107
F25.0
sg108
VJUL 26, 1992
p1824
sg110
V7-0
p1825
sg112
VLucas Nogueira
p1826
sg114
I1610612761
sg115
V92
p1827
sg117
g53
sg118
V00
p1828
sg120
g184
sg121
I203512
ssI203516
(dp1829
g80
VLong Beach State
p1830
sg82
V210
p1831
sg84
V2017
p1832
sg86
F27.0
sg87
VJUL 01, 1990
p1833
sg89
V6-7
p1834
sg91
VJames Ennis III
p1835
sg93
I1610612763
sg94
g1149
sg95
g53
sg96
V00
p1836
sg98
g55
sg99
I203516
ssI203518
(dp1837
g380
Nsg382
V190
p1838
sg384
V2017
p1839
sg386
F24.0
sg387
VAUG 01, 1993
p1840
sg389
V6-6
p1841
sg391
VAlex Abrines
p1842
sg393
I1610612760
sg394
g1149
sg396
g40
sg398
V00
p1843
sg400
g22
sg401
I203518
ssI203521
(dp1844
g240
VSaint Mary's (CA)
p1845
sg242
V198
p1846
sg244
V2017
p1847
sg246
F27.0
sg247
VSEP 08, 1990
p1848
sg249
V6-4
p1849
sg251
VMatthew Dellavedova
p1850
sg253
I1610612749
sg254
g1149
sg256
g458
sg257
V00
p1851
sg259
g22
sg260
I203521
ssI203524
(dp1852
g879
VArizona
p1853
sg881
V225
p1854
sg883
V2017
p1855
sg885
F26.0
sg886
VMAR 18, 1991
p1856
sg888
V6-7
p1857
sg890
VSolomon Hill
p1858
sg892
I1610612740
sg893
V44
p1859
sg895
g458
sg896
V00
p1860
sg898
g55
sg899
I203524
ssI203526
(dp1861
g262
Nsg264
V179
p1862
sg266
V2017
p1863
sg268
F25.0
sg269
VMAY 19, 1992
p1864
sg271
V6-1
p1865
sg273
VRaul Neto
p1866
sg275
I1610612762
sg276
V25
p1867
sg278
g18
sg280
V00
p1868
sg282
g22
sg283
I203526
ssI203530
(dp1869
g123
Nsg125
V260
p1870
sg127
V2017
p1871
sg129
F26.0
sg130
VSEP 30, 1991
p1872
sg132
V6-11
p1873
sg134
VJoffrey Lauvergne
p1874
sg136
I1610612759
sg137
V77
p1875
sg139
g53
sg141
V00
p1876
sg143
g184
sg144
I203530
ssI101139
(dp1877
g101
VSkyline HS (TX)
p1878
sg103
V225
p1879
sg105
V2017
p1880
sg107
F30.0
sg108
VMAR 18, 1987
p1881
sg110
V6-6
p1882
sg112
VCJ Miles
p1883
sg114
I1610612761
sg115
g16
sg117
V12
p1884
sg118
V00
p1885
sg120
VF-G
p1886
sg121
I101139
ssI101141
(dp1887
g717
VEskisehir, Turkey
p1888
sg719
V235
p1889
sg721
V2017
p1890
sg723
F30.0
sg724
VMAY 15, 1987
p1891
sg726
V6-10
p1892
sg728
VErsan Ilyasova
p1893
sg730
I1610612737
sg731
g152
sg733
g663
sg734
V00
p1894
sg736
g55
sg738
I101141
ssI203546
(dp1895
g879
VBelmont
p1896
sg881
V175
p1897
sg883
V2017
p1898
sg885
F26.0
sg886
VMAR 07, 1991
p1899
sg888
V6-3
p1900
sg890
VIan Clark
p1901
sg892
I1610612740
sg893
g18
sg895
g458
sg896
V00
p1902
sg898
g22
sg899
I203546
ssI203547
(dp1903
g262
VCampbell
p1904
sg264
V205
p1905
sg266
V2017
p1906
sg268
F27.0
sg269
VMAY 26, 1990
p1907
sg271
V6-8
p1908
sg273
VEric Griffin
p1909
sg275
I1610612762
sg276
V17
p1910
sg278
g397
sg280
V00
p1911
sg282
VC-F
p1912
sg283
I203547
ssI101150
(dp1913
g57
VSouth Gwinnett HS (GA)
p1914
sg59
V175
p1915
sg61
V2017
p1916
sg63
F31.0
sg64
VOCT 27, 1986
p1917
sg66
V6-1
p1918
sg68
VLou Williams
p1919
sg70
I1610612746
sg71
V23
p1920
sg73
V12
p1921
sg74
V00
p1922
sg76
g22
sg78
I101150
ssI203552
(dp1923
g570
VDuke
p1924
sg572
V185
p1925
sg574
V2017
p1926
sg576
F27.0
sg577
VAUG 23, 1990
p1927
sg579
V6-2
p1928
sg581
VSeth Curry
p1929
sg583
I1610612742
sg584
V30
p1930
sg585
g458
sg587
V00
p1931
sg589
g22
sg590
I203552
ssI101181
(dp1932
g548
VVillanueva de la Serena, Spain
p1933
sg550
V200
p1934
sg552
V2017
p1935
sg554
F36.0
sg555
VSEP 28, 1981
p1936
sg557
V6-3
p1937
sg559
VJose Calderon
p1938
sg561
I1610612739
sg562
V81
p1939
sg564
V12
p1940
sg565
V00
p1941
sg567
g22
sg568
I101181
ssI203585
(dp1942
g186
VKansas State
p1943
sg188
V200
p1944
sg190
V2017
p1945
sg192
F26.0
sg193
VJUL 29, 1991
p1946
sg195
V6-4
p1947
sg197
VRodney McGruder
p1948
sg199
I1610612748
sg200
V17
p1949
sg202
g40
sg203
V00
p1950
sg205
VG-F
p1951
sg206
I203585
ssI201565
(dp1952
g548
VMemphis
p1953
sg550
V190
p1954
sg552
V2017
p1955
sg554
F29.0
sg555
VOCT 04, 1988
p1956
sg557
V6-3
p1957
sg559
VDerrick Rose
p1958
sg561
I1610612739
sg562
g40
sg564
g1149
sg565
V00
p1959
sg567
g22
sg568
I201565
ssI201566
(dp1960
g380
VUCLA
p1961
sg382
V200
p1962
sg384
V2017
p1963
sg386
F28.0
sg387
VNOV 12, 1988
p1964
sg389
V6-3
p1965
sg391
VRussell Westbrook
p1966
sg393
I1610612760
sg394
g16
sg396
g663
sg398
V00
p1967
sg400
g22
sg401
I201566
ssI201567
(dp1968
g548
VUCLA
p1969
sg550
V251
p1970
sg552
V2017
p1971
sg554
F29.0
sg555
VSEP 07, 1988
p1972
sg557
V6-10
p1973
sg559
VKevin Love
p1974
sg561
I1610612739
sg562
g16
sg564
g663
sg565
V00
p1975
sg567
VF-C
p1976
sg568
I201567
ssI201568
(dp1977
g57
VSant'Angelo Lodigiano, Italy
p1978
sg59
V225
p1979
sg61
V2017
p1980
sg63
F29.0
sg64
VAUG 08, 1988
p1981
sg66
V6-10
p1982
sg68
VDanilo Gallinari
p1983
sg70
I1610612746
sg71
g1149
sg73
g1149
sg74
V00
p1984
sg76
g55
sg78
I201568
ssI201569
(dp1985
g461
VIndiana
p1986
sg463
V215
p1987
sg465
V2017
p1988
sg467
F28.0
sg468
VDEC 25, 1988
p1989
sg470
V6-4
p1990
sg472
VEric Gordon
p1991
sg474
I1610612745
sg475
V10
p1992
sg476
g663
sg478
V00
p1993
sg480
g22
sg481
I201569
ssI201572
(dp1994
g509
VStanford
p1995
sg511
V268
p1996
sg513
V2017
p1997
sg515
F29.0
sg516
VAPR 01, 1988
p1998
sg518
V7-0
p1999
sg520
VBrook Lopez
p2000
sg522
I1610612747
sg523
V11
p2001
sg524
g663
sg525
V00
p2002
sg527
g184
sg528
I201572
ssI201577
(dp2003
g285
VStanford
p2004
sg287
V277
p2005
sg289
V2017
p2006
sg291
F29.0
sg292
VAPR 01, 1988
p2007
sg294
V7-0
p2008
sg296
VRobin Lopez
p2009
sg298
I1610612741
sg299
V42
p2010
sg301
g663
sg302
V00
p2011
sg304
g184
sg305
I201577
ssI201580
(dp2012
g331
VNevada
p2013
sg333
V270
p2014
sg335
V2017
p2015
sg337
F29.0
sg338
VJAN 19, 1988
p2016
sg340
V7-0
p2017
sg342
VJaVale McGee
p2018
sg344
I1610612744
sg345
g40
sg346
g663
sg347
V00
p2019
sg349
g184
sg350
I201580
ssI201582
(dp2020
g879
VSaint Etienne, France
p2021
sg881
V248
p2022
sg883
V2017
p2023
sg885
F29.0
sg886
VMAY 06, 1988
p2024
sg888
V7-2
p2025
sg890
VAlexis Ajinca
p2026
sg892
I1610612740
sg893
V42
p2027
sg895
g152
sg896
V00
p2028
sg898
g184
sg899
I201582
ssI201583
(dp2029
g461
VCalifornia
p2030
sg463
V240
p2031
sg465
V2017
p2032
sg467
F29.0
sg468
VMAY 06, 1988
p2033
sg470
V6-10
p2034
sg472
VRyan Anderson
p2035
sg474
I1610612745
sg475
V33
p2036
sg476
g663
sg478
V00
p2037
sg480
g55
sg481
I201583
ssI201585
(dp2038
g218
VOhio State
p2039
sg220
V265
p2040
sg222
V2017
p2041
sg224
F28.0
sg225
VFEB 24, 1989
p2042
sg227
V7-0
p2043
sg229
VKosta Koufos
p2044
sg231
I1610612758
sg232
V41
p2045
sg234
g663
sg235
V00
p2046
sg237
g184
sg238
I201585
ssI201586
(dp2047
g101
VBrazzaville, Rep. of Congo
p2048
sg103
V235
p2049
sg105
V2017
p2050
sg107
F28.0
sg108
VSEP 18, 1989
p2051
sg110
V6-10
p2052
sg112
VSerge Ibaka
p2053
sg114
I1610612761
sg115
g663
sg117
g1149
sg118
V00
p2054
sg120
g55
sg121
I201586
ssI201588
(dp2055
g218
VIndiana Purdue-Indianapolis
p2056
sg220
V188
p2057
sg222
V2017
p2058
sg224
F31.0
sg225
VMAY 04, 1986
p2059
sg227
V6-3
p2060
sg229
VGeorge Hill
p2061
sg231
I1610612758
sg232
g53
sg234
g663
sg235
V00
p2062
sg237
g22
sg238
I201588
ssI201589
(dp2063
g2
VKansas
p2064
sg3
V235
p2065
sg5
V2017
p2066
sg7
F29.0
sg8
VMAR 25, 1988
p2067
sg10
V6-9
p2068
sg12
VDarrell Arthur
p2069
sg14
I1610612743
sg15
V00
p2070
sg17
g1149
sg19
V00
p2071
sg21
g55
sg23
I201589
ssI201596
(dp2072
g80
VKansas
p2073
sg82
V190
p2074
sg84
V2017
p2075
sg86
F31.0
sg87
VMAY 19, 1986
p2076
sg89
V6-2
p2077
sg91
VMario Chalmers
p2078
sg93
I1610612763
sg94
g477
sg95
g1149
sg96
V00
p2079
sg98
g22
sg99
I201596
ssI201599
(dp2080
g57
VTexas A&M
p2081
sg59
V265
p2082
sg61
V2017
p2083
sg63
F29.0
sg64
VJUL 21, 1988
p2084
sg66
V6-11
p2085
sg68
VDeAndre Jordan
p2086
sg70
I1610612746
sg71
g477
sg73
g663
sg74
V00
p2087
sg76
g184
sg78
I201599
ssI201600
(dp2088
g879
VTurkey
p2089
sg881
V255
p2090
sg883
V2017
p2091
sg885
F31.0
sg886
VJUL 04, 1986
p2092
sg888
V7-0
p2093
sg890
VOmer Asik
p2094
sg892
I1610612740
sg893
g53
sg895
g152
sg896
V00
p2095
sg898
g184
sg899
I201600
ssI201601
(dp2096
g461
VUCLA
p2097
sg463
V230
p2098
sg465
V2017
p2099
sg467
F31.0
sg468
VSEP 09, 1986
p2100
sg470
V6-8
p2101
sg472
VLuc Mbah a Moute
p2102
sg474
I1610612745
sg475
V12
p2103
sg476
g663
sg478
V00
p2104
sg480
g55
sg481
I201601
ssI201609
(dp2105
g186
VLjubljana, Slovenia
p2106
sg188
V190
p2107
sg190
V2017
p2108
sg192
F31.0
sg193
VMAY 06, 1986
p2109
sg195
V6-3
p2110
sg197
VGoran Dragic
p2111
sg199
I1610612748
sg200
g152
sg202
g663
sg203
V00
p2112
sg205
g22
sg206
I201609
ssI201628
(dp2113
g461
VCal State-Fullerton
p2114
sg463
V175
p2115
sg465
V2017
p2116
sg467
F33.0
sg468
VSEP 24, 1984
p2117
sg470
V6-2
p2118
sg472
VBobby Brown
p2119
sg474
I1610612745
sg475
g477
sg476
g53
sg478
V00
p2120
sg480
g22
sg481
I201628
ssI203705
(dp2121
g717
VAlabama-Huntsville
p2122
sg719
V160
p2123
sg721
V2017
p2124
sg723
F27.0
sg724
VNOV 28, 1989
p2125
sg726
V6-1
p2126
sg728
VJosh Magette
p2127
sg730
I1610612737
sg731
V11
p2128
sg733
g397
sg734
V00
p2129
sg736
g22
sg738
I203705
ssI203710
(dp2130
g57
VNorth Carolina State
p2131
sg59
V230
p2132
sg61
V2017
p2133
sg63
F27.0
sg64
VFEB 06, 1990
p2134
sg66
V6-5
p2135
sg68
VC.J. Williams
p2136
sg70
I1610612746
sg71
g663
sg73
g397
sg74
V00
p2137
sg76
g22
sg78
I203710
ssI1627098
(dp2138
g717
VVirginia Tech
p2139
sg719
V190
p2140
sg721
V2017
p2141
sg723
F28.0
sg724
VMAR 11, 1989
p2142
sg726
V6-3
p2143
sg728
VMalcolm Delaney
p2144
sg730
I1610612737
sg731
g72
sg733
g40
sg734
V00
p2145
sg736
g22
sg738
I1627098
ssI203897
(dp2146
g285
VUCLA
p2147
sg287
V185
p2148
sg289
V2017
p2149
sg291
F22.0
sg292
VMAR 10, 1995
p2150
sg294
V6-5
p2151
sg296
VZach LaVine
p2152
sg298
I1610612741
sg299
g1149
sg301
g53
sg302
V00
p2153
sg304
g22
sg305
I203897
ssI203898
(dp2154
g509
VSyracuse
p2155
sg511
V194
p2156
sg513
V2017
p2157
sg515
F23.0
sg516
VAUG 24, 1994
p2158
sg518
V6-3
p2159
sg520
VTyler Ennis
p2160
sg522
I1610612747
sg523
V10
p2161
sg524
g53
sg525
V00
p2162
sg527
g22
sg528
I203898
ssI203903
(dp2163
g509
VMissouri
p2164
sg511
V194
p2165
sg513
V2017
p2166
sg515
F25.0
sg516
VJUN 07, 1992
p2167
sg518
V6-5
p2168
sg520
VJordan Clarkson
p2169
sg522
I1610612747
sg523
g477
sg524
g53
sg525
V00
p2170
sg527
g22
sg528
I203903
ssI203914
(dp2171
g2
VMichigan State
p2172
sg3
V210
p2173
sg5
V2017
p2174
sg7
F23.0
sg8
VSEP 14, 1994
p2175
sg10
V6-4
p2176
sg12
VGary Harris
p2177
sg14
I1610612743
sg15
V14
p2178
sg17
g53
sg19
V00
p2179
sg21
g22
sg23
I203914
ssI203915
(dp2180
g155
VColorado
p2181
sg157
V200
p2182
sg159
V2017
p2183
sg161
F24.0
sg162
VAPR 06, 1993
p2184
sg164
V6-6
p2185
sg166
VSpencer Dinwiddie
p2186
sg168
I1610612751
sg169
g1149
sg170
g53
sg171
V00
p2187
sg173
g22
sg174
I203915
ssI203918
(dp2188
g262
VDuke
p2189
sg264
V206
p2190
sg266
V2017
p2191
sg268
F25.0
sg269
VOCT 20, 1992
p2192
sg271
V6-8
p2193
sg273
VRodney Hood
p2194
sg275
I1610612762
sg276
g72
sg278
g53
sg280
V00
p2195
sg282
g22
sg283
I203918
ssI203924
(dp2196
g380
VSyracuse
p2197
sg382
V220
p2198
sg384
V2017
p2199
sg386
F23.0
sg387
VMAR 12, 1994
p2200
sg389
V6-9
p2201
sg391
VJerami Grant
p2202
sg393
I1610612760
sg394
g663
sg396
g53
sg398
V00
p2203
sg400
g55
sg401
I203924
ssI203925
(dp2204
g155
VVirginia
p2205
sg157
V219
p2206
sg159
V2017
p2207
sg161
F26.0
sg162
VSEP 06, 1991
p2208
sg164
V6-6
p2209
sg166
VJoe Harris
p2210
sg168
I1610612751
sg169
V12
p2211
sg170
g53
sg171
V00
p2212
sg173
g22
sg174
I203925
ssI203930
(dp2213
g155
VCincinnati
p2214
sg157
V212
p2215
sg159
V2017
p2216
sg161
F27.0
sg162
VJAN 06, 1990
p2217
sg164
V6-4
p2218
sg166
VSean Kilpatrick
p2219
sg168
I1610612751
sg169
g477
sg170
g53
sg171
V00
p2220
sg173
g22
sg174
I203930
ssI203935
(dp2221
g412
VOklahoma State
p2222
sg414
V220
p2223
sg416
V2017
p2224
sg418
F23.0
sg419
VMAR 06, 1994
p2225
sg421
V6-4
p2226
sg423
VMarcus Smart
p2227
sg425
I1610612738
sg426
V36
p2228
sg428
g53
sg429
V00
p2229
sg431
g22
sg432
I203935
ssI203937
(dp2230
g123
VUCLA
p2231
sg125
V230
p2232
sg127
V2017
p2233
sg129
F24.0
sg130
VSEP 20, 1993
p2234
sg132
V6-9
p2235
sg134
VKyle Anderson
p2236
sg136
I1610612759
sg137
g40
sg139
g53
sg141
V00
p2237
sg143
g55
sg144
I203937
ssI203939
(dp2238
g570
VStanford
p2239
sg572
V240
p2240
sg574
V2017
p2241
sg576
F26.0
sg577
VJUL 20, 1991
p2242
sg579
V6-11
p2243
sg581
VDwight Powell
p2244
sg583
I1610612742
sg584
g152
sg585
g53
sg587
V00
p2245
sg589
VF-C
p2246
sg590
I203939
ssI203944
(dp2247
g509
VKentucky
p2248
sg511
V250
p2249
sg513
V2017
p2250
sg515
F22.0
sg516
VNOV 29, 1994
p2251
sg518
V6-9
p2252
sg520
VJulius Randle
p2253
sg522
I1610612747
sg523
V30
p2254
sg524
g53
sg525
V00
p2255
sg527
VF-C
p2256
sg528
I203944
ssI203952
(dp2257
g25
VKansas
p2258
sg27
V202
p2259
sg29
V2017
p2260
sg31
F22.0
sg32
VFEB 23, 1995
p2261
sg34
V6-8
p2262
sg36
VAndrew Wiggins
p2263
sg38
I1610612750
sg39
V22
p2264
sg41
g53
sg42
V00
p2265
sg44
g55
sg45
I203952
ssI203953
(dp2266
g240
VDuke
p2267
sg242
V250
p2268
sg244
V2017
p2269
sg246
F22.0
sg247
VMAR 15, 1995
p2270
sg249
V6-8
p2271
sg251
VJabari Parker
p2272
sg253
I1610612749
sg254
V12
p2273
sg256
g53
sg257
V00
p2274
sg259
g55
sg260
I203953
ssI203957
(dp2275
g262
Nsg264
V190
p2276
sg266
V2017
p2277
sg268
F22.0
sg269
VJUL 13, 1995
p2278
sg271
V6-6
p2279
sg273
VDante Exum
p2280
sg275
I1610612762
sg276
V11
p2281
sg278
g18
sg280
V00
p2282
sg282
g22
sg283
I203957
ssI203960
(dp2283
g218
VSt. John's (NY)
p2284
sg220
V207
p2285
sg222
V2017
p2286
sg224
F24.0
sg225
VMAR 20, 1993
p2287
sg227
V6-9
p2288
sg229
VJaKarr Sampson
p2289
sg231
I1610612758
sg232
V29
p2290
sg234
g18
sg235
V00
p2291
sg237
g55
sg238
I203960
ssI203962
(dp2292
g380
VStanford
p2293
sg382
V230
p2294
sg384
V2017
p2295
sg386
F25.0
sg387
VDEC 19, 1991
p2296
sg389
V6-7
p2297
sg391
VJosh Huestis
p2298
sg393
I1610612760
sg394
V34
p2299
sg396
g18
sg398
V00
p2300
sg400
g55
sg401
I203962
ssI203966
(dp2301
g57
VMarquette
p2302
sg59
V229
p2303
sg61
V2017
p2304
sg63
F26.0
sg64
VNOV 21, 1990
p2305
sg66
V6-7
p2306
sg68
VJamil Wilson
p2307
sg70
I1610612746
sg71
V13
p2308
sg73
g397
sg74
V00
p2309
sg76
g55
sg78
I203966
ssI201933
(dp2310
g57
VOklahoma
p2311
sg59
V251
p2312
sg61
V2017
p2313
sg63
F28.0
sg64
VMAR 16, 1989
p2314
sg66
V6-10
p2315
sg68
VBlake Griffin
p2316
sg70
I1610612746
sg71
V32
p2317
sg73
g152
sg74
V00
p2318
sg76
g55
sg78
I201933
ssI201935
(dp2319
g461
VArizona State
p2320
sg463
V220
p2321
sg465
V2017
p2322
sg467
F28.0
sg468
VAUG 26, 1989
p2323
sg470
V6-5
p2324
sg472
VJames Harden
p2325
sg474
I1610612745
sg475
V13
p2326
sg476
g1149
sg478
V00
p2327
sg480
g22
sg481
I201935
ssI201936
(dp2328
g80
VMemphis
p2329
sg82
V220
p2330
sg84
V2017
p2331
sg86
F28.0
sg87
VSEP 19, 1989
p2332
sg89
V6-6
p2333
sg91
VTyreke Evans
p2334
sg93
I1610612763
sg94
V12
p2335
sg95
g1149
sg96
V00
p2336
sg98
VG-F
p2337
sg99
I201936
ssI201937
(dp2338
g262
VEl Masnou, Spain
p2339
sg264
V190
p2340
sg266
V2017
p2341
sg268
F27.0
sg269
VOCT 21, 1990
p2342
sg271
V6-4
p2343
sg273
VRicky Rubio
p2344
sg275
I1610612762
sg276
g53
sg278
g477
sg280
V00
p2345
sg282
g22
sg283
I201937
ssI201939
(dp2346
g331
VDavidson
p2347
sg333
V190
p2348
sg335
V2017
p2349
sg337
F29.0
sg338
VMAR 14, 1988
p2350
sg340
V6-3
p2351
sg342
VStephen Curry
p2352
sg344
I1610612744
sg345
V30
p2353
sg346
g1149
sg347
V00
p2354
sg349
g22
sg350
I201939
ssI201942
(dp2355
g101
VSouthern California
p2356
sg103
V220
p2357
sg105
V2017
p2358
sg107
F28.0
sg108
VAUG 07, 1989
p2359
sg110
V6-7
p2360
sg112
VDeMar DeRozan
p2361
sg114
I1610612761
sg115
V10
p2362
sg117
g1149
sg118
V00
p2363
sg120
g22
sg121
I201942
ssI203991
(dp2364
g461
Nsg463
V240
p2365
sg465
V2017
p2366
sg467
F23.0
sg468
VMAY 18, 1994
p2367
sg470
V6-10
p2368
sg472
VClint Capela
p2369
sg474
I1610612745
sg475
V15
p2370
sg476
g53
sg478
V00
p2371
sg480
g184
sg481
I203991
ssI203992
(dp2372
g218
Nsg220
V205
p2373
sg222
V2017
p2374
sg224
F25.0
sg225
VAUG 18, 1992
p2375
sg227
V6-6
p2376
sg229
VBogdan Bogdanovic
p2377
sg231
I1610612758
sg232
g1149
sg234
g397
sg235
V00
p2378
sg237
g22
sg238
I203992
ssI201949
(dp2379
g186
VWake Forest
p2380
sg188
V240
p2381
sg190
V2017
p2382
sg192
F30.0
sg193
VFEB 20, 1987
p2383
sg195
V6-8
p2384
sg197
VJames Johnson
p2385
sg199
I1610612748
sg200
V16
p2386
sg202
g1149
sg203
V00
p2387
sg205
g55
sg206
I201949
ssI201950
(dp2388
g879
VUCLA
p2389
sg881
V205
p2390
sg883
V2017
p2391
sg885
F27.0
sg886
VJUN 12, 1990
p2392
sg888
V6-4
p2393
sg890
VJrue Holiday
p2394
sg892
I1610612740
sg893
V11
p2395
sg895
g1149
sg896
V00
p2396
sg898
g22
sg899
I201950
ssI203999
(dp2397
g2
Nsg3
V250
p2398
sg5
V2017
p2399
sg7
F22.0
sg8
VFEB 19, 1995
p2400
sg10
V6-10
p2401
sg12
VNikola Jokic
p2402
sg14
I1610612743
sg15
V15
p2403
sg17
g18
sg19
V00
p2404
sg21
g184
sg23
I203999
ssI201952
(dp2405
g25
VWake Forest
p2406
sg27
V189
p2407
sg29
V2017
p2408
sg31
F29.0
sg32
VJUN 10, 1988
p2409
sg34
V6-2
p2410
sg36
VJeff Teague
p2411
sg38
I1610612750
sg39
g16
sg41
g1149
sg42
V00
p2412
sg44
g22
sg45
I201952
ssI1627362
(dp2413
g461
VVirginia Commonwealth
p2414
sg463
V165
p2415
sg465
V2017
p2416
sg467
F24.0
sg468
VDEC 29, 1992
p2417
sg470
V6-2
p2418
sg472
VBriante Weber
p2419
sg474
I1610612745
sg475
g16
sg476
g18
sg478
V00
p2420
sg480
g22
sg481
I1627362
ssI201956
(dp2421
g331
VYavne, Israel
p2422
sg333
V225
p2423
sg335
V2017
p2424
sg337
F29.0
sg338
VJUN 22, 1988
p2425
sg340
V6-9
p2426
sg342
VOmri Casspi
p2427
sg344
I1610612744
sg345
V18
p2428
sg346
g1149
sg347
V00
p2429
sg349
g55
sg350
I201956
ssI201959
(dp2430
g25
VSouthern California
p2431
sg27
V235
p2432
sg29
V2017
p2433
sg31
F32.0
sg32
VJUN 24, 1985
p2434
sg34
V6-9
p2435
sg36
VTaj Gibson
p2436
sg38
I1610612750
sg39
V67
p2437
sg41
g1149
sg42
V00
p2438
sg44
g55
sg45
I201959
ssI201960
(dp2439
g155
VMissouri
p2440
sg157
V215
p2441
sg159
V2017
p2442
sg161
F31.0
sg162
VJUL 27, 1986
p2443
sg164
V6-8
p2444
sg166
VDeMarre Carroll
p2445
sg168
I1610612751
sg169
g663
sg170
g1149
sg171
V00
p2446
sg173
g55
sg174
I201960
ssI201961
(dp2447
g186
VNorth Carolina
p2448
sg188
V200
p2449
sg190
V2017
p2450
sg192
F29.0
sg193
VNOV 29, 1987
p2451
sg195
V6-5
p2452
sg197
VWayne Ellington
p2453
sg199
I1610612748
sg200
g18
sg202
g1149
sg203
V00
p2454
sg205
g22
sg206
I201961
ssI201967
(dp2455
g879
VVillanova
p2456
sg881
V230
p2457
sg883
V2017
p2458
sg885
F30.0
sg886
VAPR 22, 1987
p2459
sg888
V6-8
p2460
sg890
VDante Cunningham
p2461
sg892
I1610612740
sg893
V33
p2462
sg895
g1149
sg896
V00
p2463
sg898
g55
sg899
I201967
ssI204020
(dp2464
g186
VFresno State
p2465
sg188
V190
p2466
sg190
V2017
p2467
sg192
F25.0
sg193
VMAY 07, 1992
p2468
sg195
V6-4
p2469
sg197
VTyler Johnson
p2470
sg199
I1610612748
sg200
g1149
sg202
g53
sg203
V00
p2471
sg205
g22
sg206
I204020
ssI201973
(dp2472
g262
VKinna, Sweden
p2473
sg264
V231
p2474
sg266
V2017
p2475
sg268
F30.0
sg269
VMAR 02, 1987
p2476
sg271
V6-10
p2477
sg273
VJonas Jerebko
p2478
sg275
I1610612762
sg276
g1149
sg278
g152
sg280
V00
p2479
sg282
g55
sg283
I201973
ssI204022
(dp2480
g218
VNotre Dame
p2481
sg220
V274
p2482
sg222
V2017
p2483
sg224
F26.0
sg225
VAPR 12, 1991
p2484
sg227
V6-10
p2485
sg229
VJack Cooley
p2486
sg231
I1610612758
sg232
V45
p2487
sg234
g40
sg235
V00
p2488
sg237
g184
sg238
I204022
ssI201976
(dp2489
g57
VArkansas
p2490
sg59
V185
p2491
sg61
V2017
p2492
sg63
F29.0
sg64
VJUL 12, 1988
p2493
sg66
V6-1
p2494
sg68
VPatrick Beverley
p2495
sg70
I1610612746
sg71
V21
p2496
sg73
g72
sg74
V00
p2497
sg76
g22
sg78
I201976
ssI201980
(dp2498
g123
VNorth Carolina
p2499
sg125
V215
p2500
sg127
V2017
p2501
sg129
F30.0
sg130
VJUN 22, 1987
p2502
sg132
V6-6
p2503
sg134
VDanny Green
p2504
sg136
I1610612759
sg137
V14
p2505
sg139
g1149
sg141
V00
p2506
sg143
VG-F
p2507
sg144
I201980
ssI201988
(dp2508
g123
VSaint Mary's (CA)
p2509
sg125
V185
p2510
sg127
V2017
p2511
sg129
F29.0
sg130
VAUG 11, 1988
p2512
sg132
V6-0
p2513
sg134
VPatty Mills
p2514
sg136
I1610612759
sg137
g1149
sg139
g1149
sg141
V00
p2515
sg143
g22
sg144
I201988
ssI204060
(dp2516
g262
Nsg264
V226
p2517
sg266
V2017
p2518
sg268
F30.0
sg269
VOCT 02, 1987
p2519
sg271
V6-8
p2520
sg273
VJoe Ingles
p2521
sg275
I1610612762
sg276
g18
sg278
g53
sg280
V00
p2522
sg282
g55
sg283
I204060
ssI204066
(dp2523
g548
VBoston U.
p2524
sg550
V205
p2525
sg552
V2017
p2526
sg554
F29.0
sg555
VNOV 06, 1988
p2527
sg557
V6-5
p2528
sg559
VJohn Holland
p2529
sg561
I1610612739
sg562
V10
p2530
sg564
g40
sg565
V00
p2531
sg567
VG-F
p2532
sg568
I204066
ssI203998
(dp2533
g101
Nsg103
V205
p2534
sg105
V2017
p2535
sg107
F22.0
sg108
VSEP 21, 1995
p2536
sg110
V6-9
p2537
sg112
VBruno Caboclo
p2538
sg114
I1610612761
sg115
g72
sg117
g53
sg118
V00
p2539
sg120
g55
sg121
I203998
ssI202066
(dp2540
g218
VLouisiana State
p2541
sg220
V195
p2542
sg222
V2017
p2543
sg224
F31.0
sg225
VMAY 08, 1986
p2544
sg227
V6-6
p2545
sg229
VGarrett Temple
p2546
sg231
I1610612758
sg232
V17
p2547
sg234
g152
sg235
V00
p2548
sg237
g22
sg238
I202066
ssI202083
(dp2549
g570
VMarquette
p2550
sg572
V220
p2551
sg574
V2017
p2552
sg576
F31.0
sg577
VOCT 14, 1986
p2553
sg579
V6-5
p2554
sg581
VWesley Matthews
p2555
sg583
I1610612742
sg584
V23
p2556
sg585
g1149
sg587
V00
p2557
sg589
VG-F
p2558
sg590
I202083
ssI204028
(dp2559
g461
VKansas
p2560
sg463
V250
p2561
sg465
V2017
p2562
sg467
F25.0
sg468
VNOV 22, 1991
p2563
sg470
V6-9
p2564
sg472
VTarik Black
p2565
sg474
I1610612745
sg475
V28
p2566
sg476
g53
sg478
V00
p2567
sg480
VF-C
p2568
sg481
I204028
ssI202330
(dp2569
g412
VButler
p2570
sg414
V226
p2571
sg416
V2017
p2572
sg418
F27.0
sg419
VMAR 23, 1990
p2573
sg421
V6-8
p2574
sg423
VGordon Hayward
p2575
sg425
I1610612738
sg426
V20
p2576
sg428
g152
sg429
V00
p2577
sg431
g55
sg432
I202330
ssI202331
(dp2578
g380
VFresno State
p2579
sg382
V220
p2580
sg384
V2017
p2581
sg386
F27.0
sg387
VMAY 02, 1990
p2582
sg389
V6-9
p2583
sg391
VPaul George
p2584
sg393
I1610612760
sg394
V13
p2585
sg396
g152
sg398
V00
p2586
sg400
g55
sg401
I202331
ssI1627743
(dp2587
g461
VNotre Dame
p2588
sg463
V201
p2589
sg465
V2017
p2590
sg467
F23.0
sg468
VSEP 07, 1994
p2591
sg470
V6-1
p2592
sg472
VDemetrius Jackson
p2593
sg474
I1610612745
sg475
g18
sg476
g40
sg478
V00
p2594
sg480
g22
sg481
I1627743
ssI1627745
(dp2595
g331
VVanderbilt
p2596
sg333
V245
p2597
sg335
V2017
p2598
sg337
F22.0
sg338
VJUN 30, 1995
p2599
sg340
V7-0
p2600
sg342
VDamian Jones
p2601
sg344
I1610612744
sg345
V15
p2602
sg346
g40
sg347
V00
p2603
sg349
g184
sg350
I1627745
ssI1627747
(dp2604
g155
VMichigan
p2605
sg157
V203
p2606
sg159
V2017
p2607
sg161
F23.0
sg162
VAUG 25, 1994
p2608
sg164
V6-7
p2609
sg166
VCaris LeVert
p2610
sg168
I1610612751
sg169
V22
p2611
sg170
g40
sg171
V00
p2612
sg173
VG-F
p2613
sg174
I1627747
ssI202324
(dp2614
g262
VGeorgia Tech
p2615
sg264
V265
p2616
sg266
V2017
p2617
sg268
F26.0
sg269
VJUL 15, 1991
p2618
sg271
V6-10
p2619
sg273
VDerrick Favors
p2620
sg275
I1610612762
sg276
V15
p2621
sg278
g152
sg280
V00
p2622
sg282
VF-C
p2623
sg283
I202324
ssI202325
(dp2624
g57
VSyracuse
p2625
sg59
V215
p2626
sg61
V2017
p2627
sg63
F30.0
sg64
VJUL 11, 1987
p2628
sg66
V6-7
p2629
sg68
VWesley Johnson
p2630
sg70
I1610612746
sg71
V33
p2631
sg73
g152
sg74
V00
p2632
sg76
g55
sg78
I202325
ssI202326
(dp2633
g879
VKentucky
p2634
sg881
V270
p2635
sg883
V2017
p2636
sg885
F27.0
sg886
VAUG 13, 1990
p2637
sg888
V6-11
p2638
sg890
VDeMarcus Cousins
p2639
sg892
I1610612740
sg893
g16
sg895
g152
sg896
V00
p2640
sg898
g184
sg899
I202326
ssI202327
(dp2641
g262
VBaylor
p2642
sg264
V245
p2643
sg266
V2017
p2644
sg268
F30.0
sg269
VMAY 20, 1987
p2645
sg271
V6-10
p2646
sg273
VEkpe Udoh
p2647
sg275
I1610612762
sg276
V33
p2648
sg278
g72
sg280
V00
p2649
sg282
VC-F
p2650
sg283
I202327
ssI1627736
(dp2651
g2
VFlorida State
p2652
sg3
V196
p2653
sg5
V2017
p2654
sg7
F20.0
sg8
VNOV 26, 1996
p2655
sg10
V6-5
p2656
sg12
VMalik Beasley
p2657
sg14
I1610612743
sg15
V25
p2658
sg17
g40
sg19
V00
p2659
sg21
g22
sg23
I1627736
ssI1627738
(dp2660
g80
VMichigan State
p2661
sg82
V237
p2662
sg84
V2017
p2663
sg86
F20.0
sg87
VDEC 02, 1996
p2664
sg89
V6-11
p2665
sg91
VDeyonta Davis
p2666
sg93
I1610612763
sg94
V21
p2667
sg95
g40
sg96
V00
p2668
sg98
VC-F
p2669
sg99
I1627738
ssI1627739
(dp2670
g285
VProvidence
p2671
sg287
V210
p2672
sg289
V2017
p2673
sg291
F23.0
sg292
VMAR 18, 1994
p2674
sg294
V6-4
p2675
sg296
VKris Dunn
p2676
sg298
I1610612741
sg299
V32
p2677
sg301
g40
sg302
V00
p2678
sg304
g22
sg305
I1627739
ssI202332
(dp2679
g25
VKansas
p2680
sg27
V253
p2681
sg29
V2017
p2682
sg31
F29.0
sg32
VOCT 31, 1988
p2683
sg34
V6-11
p2684
sg36
VCole Aldrich
p2685
sg38
I1610612750
sg39
V45
p2686
sg41
g152
sg42
V00
p2687
sg44
g184
sg45
I202332
ssI1627741
(dp2688
g218
VOklahoma
p2689
sg220
V214
p2690
sg222
V2017
p2691
sg224
F23.0
sg225
VDEC 17, 1993
p2692
sg227
V6-4
p2693
sg229
VBuddy Hield
p2694
sg231
I1610612758
sg232
V24
p2695
sg234
g40
sg235
V00
p2696
sg237
g22
sg238
I1627741
ssI1627742
(dp2697
g509
VDuke
p2698
sg511
V190
p2699
sg513
V2017
p2700
sg515
F20.0
sg516
VSEP 02, 1997
p2701
sg518
V6-9
p2702
sg520
VBrandon Ingram
p2703
sg522
I1610612747
sg523
V14
p2704
sg524
g40
sg525
V00
p2705
sg527
VF-G
p2706
sg528
I1627742
ssI202335
(dp2707
g380
VKentucky
p2708
sg382
V230
p2709
sg384
V2017
p2710
sg386
F28.0
sg387
VMAR 14, 1989
p2711
sg389
V6-9
p2712
sg391
VPatrick Patterson
p2713
sg393
I1610612760
sg394
V54
p2714
sg396
g152
sg398
V00
p2715
sg400
g55
sg401
I202335
ssI1627744
(dp2716
g57
VNorth Carolina
p2717
sg59
V230
p2718
sg61
V2017
p2719
sg63
F23.0
sg64
VJUN 27, 1994
p2720
sg66
V6-10
p2721
sg68
VBrice Johnson
p2722
sg70
I1610612746
sg71
V11
p2723
sg73
g40
sg74
V00
p2724
sg76
g55
sg78
I1627744
ssI202337
(dp2725
g717
VNevada
p2726
sg719
V225
p2727
sg721
V2017
p2728
sg723
F28.0
sg724
VJUN 20, 1989
p2729
sg726
V6-9
p2730
sg728
VLuke Babbitt
p2731
sg730
I1610612737
sg731
g1149
sg733
g152
sg734
V00
p2732
sg736
g55
sg738
I202337
ssI1627746
(dp2733
g218
VKentucky
p2734
sg220
V225
p2735
sg222
V2017
p2736
sg224
F21.0
sg225
VMAR 18, 1996
p2737
sg227
V6-11
p2738
sg229
VSkal Labissiere
p2739
sg231
I1610612758
sg232
g152
sg234
g40
sg235
V00
p2740
sg237
VF-C
p2741
sg238
I1627746
ssI202339
(dp2742
g240
VKentucky
p2743
sg242
V205
p2744
sg244
V2017
p2745
sg246
F27.0
sg247
VDEC 09, 1989
p2746
sg249
V6-1
p2747
sg251
VEric Bledsoe
p2748
sg253
I1610612749
sg254
g477
sg256
g152
sg257
V00
p2749
sg259
g22
sg260
I202339
ssI1627748
(dp2750
g240
Nsg242
V223
p2751
sg244
V2017
p2752
sg246
F20.0
sg247
VFEB 25, 1997
p2753
sg249
V7-1
p2754
sg251
VThon Maker
p2755
sg253
I1610612749
sg254
g152
sg256
g40
sg257
V00
p2756
sg259
VC-F
p2757
sg260
I1627748
ssI1627749
(dp2758
g123
VWashington
p2759
sg125
V170
p2760
sg127
V2017
p2761
sg129
F21.0
sg130
VSEP 19, 1996
p2762
sg132
V6-5
p2763
sg134
VDejounte Murray
p2764
sg136
I1610612759
sg137
g72
sg139
g40
sg141
V00
p2765
sg143
g22
sg144
I1627749
ssI1627750
(dp2766
g2
VKentucky
p2767
sg3
V207
p2768
sg5
V2017
p2769
sg7
F20.0
sg8
VFEB 23, 1997
p2770
sg10
V6-4
p2771
sg12
VJamal Murray
p2772
sg14
I1610612743
sg15
V27
p2773
sg17
g40
sg19
V00
p2774
sg21
g22
sg23
I1627750
ssI1627751
(dp2775
g101
VUtah
p2776
sg103
V230
p2777
sg105
V2017
p2778
sg107
F22.0
sg108
VOCT 15, 1995
p2779
sg110
V7-0
p2780
sg112
VJakob Poeltl
p2781
sg114
I1610612761
sg115
V42
p2782
sg117
g40
sg118
V00
p2783
sg120
g184
sg121
I1627751
ssI1627752
(dp2784
g717
VBaylor
p2785
sg719
V220
p2786
sg721
V2017
p2787
sg723
F23.0
sg724
VMAR 22, 1994
p2788
sg726
V6-8
p2789
sg728
VTaurean Prince
p2790
sg730
I1610612737
sg731
V12
p2791
sg733
g40
sg734
V00
p2792
sg736
g55
sg738
I1627752
ssI1627753
(dp2793
g461
Nsg463
V210
p2794
sg465
V2017
p2795
sg467
F21.0
sg468
VJAN 16, 1996
p2796
sg470
V7-1
p2797
sg472
VQi Qi
p2798
sg474
I1610612745
sg475
g663
sg476
g397
sg478
V00
p2799
sg480
VF-C
p2800
sg481
I1627753
ssI202347
(dp2801
g285
VWashington
p2802
sg287
V225
p2803
sg289
V2017
p2804
sg291
F29.0
sg292
VMAR 10, 1988
p2805
sg294
V6-7
p2806
sg296
VQuincy Pondexter
p2807
sg298
I1610612741
sg299
V20
p2808
sg301
g72
sg302
V00
p2809
sg304
g22
sg305
I202347
ssI1627756
(dp2810
g285
VMichigan State
p2811
sg287
V214
p2812
sg289
V2017
p2813
sg291
F23.0
sg292
VNOV 16, 1993
p2814
sg294
V6-6
p2815
sg296
VDenzel Valentine
p2816
sg298
I1610612741
sg299
V45
p2817
sg301
g40
sg302
V00
p2818
sg304
g55
sg305
I1627756
ssI1627759
(dp2819
g412
VCalifornia
p2820
sg414
V225
p2821
sg416
V2017
p2822
sg418
F21.0
sg419
VOCT 24, 1996
p2823
sg421
V6-7
p2824
sg423
VJaylen Brown
p2825
sg425
I1610612738
sg426
g152
sg428
g40
sg429
V00
p2826
sg431
VG-F
p2827
sg432
I1627759
ssI202344
(dp2828
g155
VClemson
p2829
sg157
V228
p2830
sg159
V2017
p2831
sg161
F29.0
sg162
VNOV 25, 1987
p2832
sg164
V6-8
p2833
sg166
VTrevor Booker
p2834
sg168
I1610612751
sg169
V35
p2835
sg170
g152
sg171
V00
p2836
sg173
g55
sg174
I202344
ssI1627762
(dp2837
g240
VWeber State
p2838
sg242
V235
p2839
sg244
V2017
p2840
sg246
F23.0
sg247
VJAN 28, 1994
p2841
sg249
V6-9
p2842
sg251
VJoel Bolomboy
p2843
sg253
I1610612749
sg254
V24
p2844
sg256
g40
sg257
V00
p2845
sg259
VF-C
p2846
sg260
I1627762
ssI202355
(dp2847
g186
VMarshall
p2848
sg188
V265
p2849
sg190
V2017
p2850
sg192
F28.0
sg193
VJUN 13, 1989
p2851
sg195
V7-0
p2852
sg197
VHassan Whiteside
p2853
sg199
I1610612748
sg200
V21
p2854
sg202
g72
sg203
V00
p2855
sg205
g184
sg206
I202355
ssI202357
(dp2856
g25
Nsg27
V230
p2857
sg29
V2017
p2858
sg31
F29.0
sg32
VMAY 09, 1988
p2859
sg34
V6-10
p2860
sg36
VNemanja Bjelica
p2861
sg38
I1610612750
sg39
g1149
sg41
g18
sg42
V00
p2862
sg44
g55
sg45
I202357
ssI1627767
(dp2863
g879
VKansas
p2864
sg881
V220
p2865
sg883
V2017
p2866
sg885
F21.0
sg886
VSEP 13, 1996
p2867
sg888
V6-9
p2868
sg890
VCheick Diallo
p2869
sg892
I1610612740
sg893
V13
p2870
sg895
g40
sg896
V00
p2871
sg898
g55
sg899
I1627767
ssI1627770
(dp2872
g285
VOakland
p2873
sg287
V176
p2874
sg289
V2017
p2875
sg291
F22.0
sg292
VMAR 29, 1995
p2876
sg294
V5-9
p2877
sg296
VKay Felder
p2878
sg298
I1610612741
sg299
g53
sg301
g40
sg302
V00
p2879
sg304
g22
sg305
I1627770
ssI1627772
(dp2880
g380
VConnecticut
p2881
sg382
V195
p2882
sg384
V2017
p2883
sg386
F22.0
sg387
VAUG 08, 1995
p2884
sg389
V6-7
p2885
sg391
VDaniel Hamilton
p2886
sg393
I1610612760
sg394
V25
p2887
sg396
g397
sg398
V00
p2888
sg400
g22
sg401
I1627772
ssI1627773
(dp2889
g186
VPurdue
p2890
sg188
V260
p2891
sg190
V2017
p2892
sg192
F25.0
sg193
VAUG 27, 1992
p2893
sg195
V7-0
p2894
sg197
VAJ Hammons
p2895
sg199
I1610612748
sg200
g458
sg202
g40
sg203
V00
p2896
sg205
g184
sg206
I1627773
ssI1627775
(dp2897
g331
VNevada-Las Vegas
p2898
sg333
V185
p2899
sg335
V2017
p2900
sg337
F22.0
sg338
VOCT 25, 1995
p2901
sg340
V6-7
p2902
sg342
VPatrick McCaw
p2903
sg344
I1610612744
sg345
g16
sg346
g40
sg347
V00
p2904
sg349
g22
sg350
I1627775
ssI1627778
(dp2905
g461
VLouisville
p2906
sg463
V245
p2907
sg465
V2017
p2908
sg467
F21.0
sg468
VNOV 01, 1996
p2909
sg470
V6-10
p2910
sg472
VChinanu Onuaku
p2911
sg474
I1610612745
sg475
V21
p2912
sg476
g40
sg478
V00
p2913
sg480
g184
sg481
I1627778
ssI1627780
(dp2914
g240
VOregon State
p2915
sg242
V190
p2916
sg244
V2017
p2917
sg246
F24.0
sg247
VDEC 01, 1992
p2918
sg249
V6-3
p2919
sg251
VGary Payton II
p2920
sg253
I1610612749
sg254
g16
sg256
g40
sg257
V00
p2921
sg259
g22
sg260
I1627780
ssI1627781
(dp2922
g218
VSyracuse
p2923
sg220
V205
p2924
sg222
V2017
p2925
sg224
F21.0
sg225
VJAN 05, 1996
p2926
sg227
V6-6
p2927
sg229
VMalachi Richardson
p2928
sg231
I1610612758
sg232
V23
p2929
sg234
g40
sg235
V00
p2930
sg237
g22
sg238
I1627781
ssI1627782
(dp2931
g80
VKansas
p2932
sg82
V230
p2933
sg84
V2017
p2934
sg86
F23.0
sg87
VSEP 30, 1994
p2935
sg89
V6-5
p2936
sg91
VWayne Selden
p2937
sg93
I1610612763
sg94
g152
sg95
g40
sg96
V00
p2938
sg98
VG-F
p2939
sg99
I1627782
ssI1627783
(dp2940
g101
VNew Mexico State
p2941
sg103
V230
p2942
sg105
V2017
p2943
sg107
F23.0
sg108
VAPR 02, 1994
p2944
sg110
V6-9
p2945
sg112
VPascal Siakam
p2946
sg114
I1610612761
sg115
V43
p2947
sg117
g40
sg118
V00
p2948
sg120
g55
sg121
I1627783
ssI1627785
(dp2949
g155
VSeton Hall
p2950
sg157
V213
p2951
sg159
V2017
p2952
sg161
F22.0
sg162
VMAR 08, 1995
p2953
sg164
V6-4
p2954
sg166
VIsaiah Whitehead
p2955
sg168
I1610612751
sg169
V15
p2956
sg170
g40
sg171
V00
p2957
sg173
g22
sg174
I1627785
ssI1627786
(dp2958
g461
VIndiana
p2959
sg463
V218
p2960
sg465
V2017
p2961
sg467
F22.0
sg468
VDEC 30, 1994
p2962
sg470
V6-7
p2963
sg472
VTroy Williams
p2964
sg474
I1610612745
sg475
g72
sg476
g40
sg478
V00
p2965
sg480
g55
sg481
I1627786
ssI1627790
(dp2966
g548
Nsg550
V250
p2967
sg552
V2017
p2968
sg554
F20.0
sg555
VJAN 04, 1997
p2969
sg557
V6-11
p2970
sg559
VAnte Zizic
p2971
sg561
I1610612739
sg562
V41
p2972
sg564
g397
sg565
V00
p2973
sg567
VF-C
p2974
sg568
I1627790
ssI202389
(dp2975
g155
VSt. Petersburg, Russia
p2976
sg157
V275
p2977
sg159
V2017
p2978
sg161
F31.0
sg162
VJUL 16, 1986
p2979
sg164
V7-1
p2980
sg166
VTimofey Mozgov
p2981
sg168
I1610612751
sg169
V20
p2982
sg170
g152
sg171
V00
p2983
sg173
g184
sg174
I202389
ssI202391
(dp2984
g155
VHarvard
p2985
sg157
V200
p2986
sg159
V2017
p2987
sg161
F29.0
sg162
VAUG 23, 1988
p2988
sg164
V6-3
p2989
sg166
VJeremy Lin
p2990
sg168
I1610612751
sg169
g152
sg170
g152
sg171
V00
p2991
sg173
g22
sg174
I202391
ssI1627812
(dp2992
g570
VIndiana
p2993
sg572
V180
p2994
sg574
V2017
p2995
sg576
F24.0
sg577
VMAY 09, 1993
p2996
sg579
V6-0
p2997
sg581
VYogi Ferrell
p2998
sg583
I1610612742
sg584
V11
p2999
sg585
g40
sg587
V00
p3000
sg589
g22
sg590
I1627812
ssI1627761
(dp3001
g717
VSaint Joseph's
p3002
sg719
V210
p3003
sg721
V2017
p3004
sg723
F23.0
sg724
VJUL 04, 1994
p3005
sg726
V6-6
p3006
sg728
VDeAndre' Bembry
p3007
sg730
I1610612737
sg731
V95
p3008
sg733
g40
sg734
V00
p3009
sg736
VF-G
p3010
sg738
I1627761
ssI1627819
(dp3011
g717
VTexas
p3012
sg719
V170
p3013
sg721
V2017
p3014
sg723
F23.0
sg724
VJUL 11, 1994
p3015
sg726
V6-3
p3016
sg728
VIsaiah Taylor
p3017
sg730
I1610612737
sg731
V22
p3018
sg733
g40
sg734
V00
p3019
sg736
g22
sg738
I1627819
ssI1627823
(dp3020
g2
Nsg3
V230
p3021
sg5
V2017
p3022
sg7
F22.0
sg8
VSEP 28, 1995
p3023
sg10
V6-9
p3024
sg12
VJuan Hernangomez
p3025
sg14
I1610612743
sg15
V41
p3026
sg17
g40
sg19
V00
p3027
sg21
g55
sg23
I1627823
ssI1627824
(dp3028
g412
Nsg414
V260
p3029
sg416
V2017
p3030
sg418
F21.0
sg419
VDEC 17, 1995
p3031
sg421
V6-8
p3032
sg423
VGuerschon Yabusele
p3033
sg425
I1610612738
sg426
V30
p3034
sg428
g397
sg429
V00
p3035
sg431
g55
sg432
I1627824
ssI1713
(dp3036
g218
VNorth Carolina
p3037
sg220
V220
p3038
sg222
V2017
p3039
sg224
F40.0
sg225
VJAN 26, 1977
p3040
sg227
V6-6
p3041
sg229
VVince Carter
p3042
sg231
I1610612758
sg232
V15
p3043
sg234
V19
p3044
sg235
V00
p3045
sg237
VG-F
p3046
sg238
I1713
ssI1627826
(dp3047
g509
Nsg511
V240
p3048
sg513
V2017
p3049
sg515
F20.0
sg516
VMAR 18, 1997
p3050
sg518
V7-1
p3051
sg520
VIvica Zubac
p3052
sg522
I1610612747
sg523
V40
p3053
sg524
g40
sg525
V00
p3054
sg527
g184
sg528
I1627826
ssI1627827
(dp3055
g570
VFlorida
p3056
sg572
V220
p3057
sg574
V2017
p3058
sg576
F24.0
sg577
VMAY 04, 1993
p3059
sg579
V6-8
p3060
sg581
VDorian Finney-Smith
p3061
sg583
I1610612742
sg584
V10
p3062
sg585
g40
sg587
V00
p3063
sg589
g55
sg590
I1627827
ssI1717
(dp3064
g570
VWurzburg, Germany
p3065
sg572
V245
p3066
sg574
V2017
p3067
sg576
F39.0
sg577
VJUN 19, 1978
p3068
sg579
V7-0
p3069
sg581
VDirk Nowitzki
p3070
sg583
I1610612742
sg584
V41
p3071
sg585
V19
p3072
sg587
V00
p3073
sg589
VF-C
p3074
sg590
I1717
ssI1627832
(dp3075
g101
VWichita State
p3076
sg103
V195
p3077
sg105
V2017
p3078
sg107
F23.0
sg108
VFEB 25, 1994
p3079
sg110
V6-0
p3080
sg112
VFred VanVleet
p3081
sg114
I1610612761
sg115
V23
p3082
sg117
g40
sg118
V00
p3083
sg120
g22
sg121
I1627832
ssI1627834
(dp3084
g218
Nsg220
V240
p3085
sg222
V2017
p3086
sg224
F20.0
sg225
VJUL 03, 1997
p3087
sg227
V7-1
p3088
sg229
VGeorgios Papagiannis
p3089
sg231
I1610612758
sg232
V13
p3090
sg234
g40
sg235
V00
p3091
sg237
g184
sg238
I1627834
ssI1627835
(dp3092
g285
Nsg287
V226
p3093
sg289
V2017
p3094
sg291
F23.0
sg292
VFEB 18, 1994
p3095
sg294
V6-8
p3096
sg296
VPaul Zipser
p3097
sg298
I1610612741
sg299
V16
p3098
sg301
g40
sg302
V00
p3099
sg304
g55
sg305
I1627835
ssI1627846
(dp3100
g412
VIowa State
p3101
sg414
V230
p3102
sg416
V2017
p3103
sg418
F24.0
sg419
VSEP 25, 1993
p3104
sg421
V6-6
p3105
sg423
VAbdel Nader
p3106
sg425
I1610612738
sg426
V28
p3107
sg428
g397
sg429
V00
p3108
sg431
g55
sg432
I1627846
ssI1627852
(dp3109
g717
Nsg719
V195
p3110
sg721
V2017
p3111
sg723
F24.0
sg724
VMAR 02, 1993
p3112
sg726
V6-8
p3113
sg728
VNicolas Brussino
p3114
sg730
I1610612737
sg731
V16
p3115
sg733
g40
sg734
V00
p3116
sg736
g55
sg738
I1627852
ssI1627853
(dp3117
g285
VVillanova
p3118
sg287
V195
p3119
sg289
V2017
p3120
sg291
F23.0
sg292
VMAR 26, 1994
p3121
sg294
V6-3
p3122
sg296
VRyan Arcidiacono
p3123
sg298
I1610612741
sg299
V15
p3124
sg301
g397
sg302
V00
p3125
sg304
g22
sg305
I1627853
ssI1627854
(dp3126
g123
VMichigan State
p3127
sg125
V190
p3128
sg127
V2017
p3129
sg129
F24.0
sg130
VJUL 23, 1993
p3130
sg132
V6-3
p3131
sg134
VBryn Forbes
p3132
sg136
I1610612759
sg137
V11
p3133
sg139
g40
sg141
V00
p3134
sg143
g22
sg144
I1627854
ssI1627855
(dp3135
g186
VFlorida State
p3136
sg188
V215
p3137
sg190
V2017
p3138
sg192
F25.0
sg193
VAUG 13, 1992
p3139
sg195
V6-8
p3140
sg197
VOkaro White
p3141
sg199
I1610612748
sg200
V15
p3142
sg202
g40
sg203
V00
p3143
sg205
g55
sg206
I1627855
ssI1627856
(dp3144
g123
VMichigan State
p3145
sg125
V240
p3146
sg127
V2017
p3147
sg129
F24.0
sg130
VAUG 05, 1993
p3148
sg132
V6-10
p3149
sg134
VMatt Costello
p3150
sg136
I1610612759
sg137
V10
p3151
sg139
g397
sg141
V00
p3152
sg143
VF-C
p3153
sg144
I1627856
ssI1627875
(dp3154
g25
VGeorgia Tech
p3155
sg27
V226
p3156
sg29
V2017
p3157
sg31
F23.0
sg32
VMAR 28, 1994
p3158
sg34
V6-5
p3159
sg36
VMarcus Georges-Hunt
p3160
sg38
I1610612750
sg39
V13
p3161
sg41
g40
sg42
V00
p3162
sg44
g22
sg45
I1627875
ssI1627883
(dp3163
g879
VTexas A&M
p3164
sg881
V220
p3165
sg883
V2017
p3166
sg885
F24.0
sg886
VMAY 27, 1993
p3167
sg888
V6-7
p3168
sg890
VJalen Jones
p3169
sg892
I1610612740
sg893
V12
p3170
sg895
g397
sg896
V00
p3171
sg898
g55
sg899
I1627883
ssI1627936
(dp3172
g509
VTexas A&M
p3173
sg511
V186
p3174
sg513
V2017
p3175
sg515
F23.0
sg516
VFEB 28, 1994
p3176
sg518
V6-5
p3177
sg520
VAlex Caruso
p3178
sg522
I1610612747
sg523
g458
sg524
g397
sg525
V00
p3179
sg527
g22
sg528
I1627936
ssI1891
(dp3180
g240
VArizona
p3181
sg242
V185
p3182
sg244
V2017
p3183
sg246
F40.0
sg247
VSEP 15, 1977
p3184
sg249
V6-2
p3185
sg251
VJason Terry
p3186
sg253
I1610612749
sg254
g53
sg256
V18
p3187
sg257
V00
p3188
sg259
g22
sg260
I1891
ssI1628021
(dp3189
g285
VCal Poly-S.L.O.
p3190
sg287
V209
p3191
sg289
V2017
p3192
sg291
F24.0
sg292
VJAN 14, 1993
p3193
sg294
V6-4
p3194
sg296
VDavid Nwaba
p3195
sg298
I1610612741
sg299
V11
p3196
sg301
g40
sg302
V00
p3197
sg304
g22
sg305
I1628021
ssI1628035
(dp3198
g101
VWisc.-Green Bay
p3199
sg103
V215
p3200
sg105
V2017
p3201
sg107
F25.0
sg108
VSEP 17, 1992
p3202
sg110
V6-8
p3203
sg112
VAlfonzo McKinnie
p3204
sg114
I1610612761
sg115
V34
p3205
sg117
g397
sg118
V00
p3206
sg120
g55
sg121
I1628035
ssI1938
(dp3207
g123
VBahia Blanca, Argentina
p3208
sg125
V205
p3209
sg127
V2017
p3210
sg129
F40.0
sg130
VJUL 28, 1977
p3211
sg132
V6-6
p3212
sg134
VManu Ginobili
p3213
sg136
I1610612759
sg137
V20
p3214
sg139
V15
p3215
sg141
V00
p3216
sg143
g22
sg144
I1938
ssI203084
(dp3217
g570
VNorth Carolina
p3218
sg572
V225
p3219
sg574
V2017
p3220
sg576
F25.0
sg577
VMAY 30, 1992
p3221
sg579
V6-8
p3222
sg581
VHarrison Barnes
p3223
sg583
I1610612742
sg584
V40
p3224
sg585
g72
sg587
V00
p3225
sg589
g55
sg590
I203084
ssI202681
(dp3226
g412
VDuke
p3227
sg414
V193
p3228
sg416
V2017
p3229
sg418
F25.0
sg419
VMAR 23, 1992
p3230
sg421
V6-3
p3231
sg423
VKyrie Irving
p3232
sg425
I1610612738
sg426
V11
p3233
sg428
g477
sg429
V00
p3234
sg431
g22
sg432
I202681
ssI202684
(dp3235
g548
VTexas
p3236
sg550
V238
p3237
sg552
V2017
p3238
sg554
F26.0
sg555
VMAR 13, 1991
p3239
sg557
V6-9
p3240
sg559
VTristan Thompson
p3241
sg561
I1610612739
sg562
V13
p3242
sg564
g477
sg565
V00
p3243
sg567
VC-F
p3244
sg568
I202684
ssI202685
(dp3245
g101
VUtena, Lithuania
p3246
sg103
V255
p3247
sg105
V2017
p3248
sg107
F25.0
sg108
VMAY 06, 1992
p3249
sg110
V7-0
p3250
sg112
VJonas Valanciunas
p3251
sg114
I1610612761
sg115
V17
p3252
sg117
g72
sg118
V00
p3253
sg120
g184
sg121
I202685
ssI202691
(dp3254
g331
VWashington State
p3255
sg333
V215
p3256
sg335
V2017
p3257
sg337
F27.0
sg338
VFEB 08, 1990
p3258
sg340
V6-7
p3259
sg342
VKlay Thompson
p3260
sg344
I1610612744
sg345
V11
p3261
sg346
g477
sg347
V00
p3262
sg349
g22
sg350
I202691
ssI202692
(dp3263
g262
VColorado
p3264
sg264
V214
p3265
sg266
V2017
p3266
sg268
F26.0
sg269
VJUL 20, 1991
p3267
sg271
V6-6
p3268
sg273
VAlec Burks
p3269
sg275
I1610612762
sg276
V10
p3270
sg278
g477
sg280
V00
p3271
sg282
g22
sg283
I202692
ssI202694
(dp3272
g412
VKansas
p3273
sg414
V235
p3274
sg416
V2017
p3275
sg418
F28.0
sg419
VSEP 02, 1989
p3276
sg421
V6-9
p3277
sg423
VMarcus Morris
p3278
sg425
I1610612738
sg426
V13
p3279
sg428
g477
sg429
V00
p3280
sg431
g55
sg432
I202694
ssI202695
(dp3281
g123
VSan Diego State
p3282
sg125
V230
p3283
sg127
V2017
p3284
sg129
F26.0
sg130
VJUN 29, 1991
p3285
sg132
V6-7
p3286
sg134
VKawhi Leonard
p3287
sg136
I1610612759
sg137
g18
sg139
g477
sg141
V00
p3288
sg143
g55
sg144
I202695
ssI202697
(dp3289
g548
VGeorgia Tech
p3290
sg550
V220
p3291
sg552
V2017
p3292
sg554
F27.0
sg555
VJUN 26, 1990
p3293
sg557
V6-5
p3294
sg559
VIman Shumpert
p3295
sg561
I1610612739
sg562
g458
sg564
g477
sg565
V00
p3296
sg567
g22
sg568
I202697
ssI202702
(dp3297
g2
VMorehead State
p3298
sg3
V228
p3299
sg5
V2017
p3300
sg7
F27.0
sg8
VNOV 19, 1989
p3301
sg10
V6-8
p3302
sg12
VKenneth Faried
p3303
sg14
I1610612743
sg15
V35
p3304
sg17
g477
sg19
V00
p3305
sg21
g55
sg23
I202702
ssI202703
(dp3306
g285
Nsg287
V238
p3307
sg289
V2017
p3308
sg291
F26.0
sg292
VFEB 11, 1991
p3309
sg294
V6-10
p3310
sg296
VNikola Mirotic
p3311
sg298
I1610612741
sg299
V44
p3312
sg301
g53
sg302
V00
p3313
sg304
g55
sg305
I202703
ssI202710
(dp3314
g25
VMarquette
p3315
sg27
V236
p3316
sg29
V2017
p3317
sg31
F28.0
sg32
VSEP 14, 1989
p3318
sg34
V6-8
p3319
sg36
VJimmy Butler
p3320
sg38
I1610612750
sg39
V23
p3321
sg41
g477
sg42
V00
p3322
sg44
g22
sg45
I202710
ssI202713
(dp3323
g380
VDuke
p3324
sg382
V228
p3325
sg384
V2017
p3326
sg386
F29.0
sg387
VMAY 04, 1988
p3327
sg389
V6-8
p3328
sg391
VKyle Singler
p3329
sg393
I1610612760
sg394
V15
p3330
sg396
g72
sg398
V00
p3331
sg400
g55
sg401
I202713
ssI202718
(dp3332
g80
VFlorida
p3333
sg82
V230
p3334
sg84
V2017
p3335
sg86
F29.0
sg87
VOCT 25, 1988
p3336
sg89
V6-10
p3337
sg91
VChandler Parsons
p3338
sg93
I1610612763
sg94
V25
p3339
sg95
g477
sg96
V00
p3340
sg98
g55
sg99
I202718
ssI202722
(dp3341
g123
Nsg125
V210
p3342
sg127
V2017
p3343
sg129
F24.0
sg130
VNOV 12, 1992
p3344
sg132
V6-10
p3345
sg134
VDavis Bertans
p3346
sg136
I1610612759
sg137
V42
p3347
sg139
g40
sg141
V00
p3348
sg143
g55
sg144
I202722
ssI202732
(dp3349
g240
VKentucky
p3350
sg242
V209
p3351
sg244
V2017
p3352
sg246
F29.0
sg247
VMAR 31, 1988
p3353
sg249
V6-6
p3354
sg251
VDeAndre Liggins
p3355
sg253
I1610612749
sg254
V25
p3356
sg256
g458
sg257
V00
p3357
sg259
g22
sg260
I202732
ssI202734
(dp3358
g879
VPurdue
p3359
sg881
V191
p3360
sg883
V2017
p3361
sg885
F28.0
sg886
VFEB 25, 1989
p3362
sg888
V6-4
p3363
sg890
VE'Twaun Moore
p3364
sg892
I1610612740
sg893
V55
p3365
sg895
g477
sg896
V00
p3366
sg898
g22
sg899
I202734
ssI202738
(dp3367
g548
VWashington
p3368
sg550
V185
p3369
sg552
V2017
p3370
sg554
F28.0
sg555
VFEB 07, 1989
p3371
sg557
V5-9
p3372
sg559
VIsaiah Thomas
p3373
sg561
I1610612739
sg562
g53
sg564
g477
sg565
V00
p3374
sg567
g22
sg568
I202738
ssI2037
(dp3375
g25
VMichigan
p3376
sg27
V185
p3377
sg29
V2017
p3378
sg31
F37.0
sg32
VMAR 20, 1980
p3379
sg34
V6-5
p3380
sg36
VJamal Crawford
p3381
sg38
I1610612750
sg39
V11
p3382
sg41
V17
p3383
sg42
V00
p3384
sg44
g22
sg45
I2037
ss.