(dp0
I2561
(dp1
VSCHOOL
p2
VXavier
p3
sVWEIGHT
p4
V250
p5
sVSEASON
p6
V2017
p7
sVAGE
p8
F37.0
sVBIRTH_DATE
p9
VAUG 29, 1980
p10
sVHEIGHT
p11
V6-9
p12
sVPLAYER
p13
VDavid West
p14
sVTeamID
p15
I1610612744
sVNUM
p16
V3
p17
sVEXP
p18
V14
p19
sVLeagueID
p20
V00
p21
sVPOSITION
p22
VF
p23
sVPLAYER_ID
p24
I2561
ssI201145
(dp25
VSCHOOL
p26
VGeorgetown
p27
sVWEIGHT
p28
V235
p29
sVSEASON
p30
V2017
p31
sVAGE
p32
F31.0
sVBIRTH_DATE
p33
VAUG 28, 1986
p34
sVHEIGHT
p35
V6-9
p36
sVPLAYER
p37
VJeff Green
p38
sVTeamID
p39
I1610612739
sVNUM
p40
V32
p41
sVEXP
p42
V9
p43
sVLeagueID
p44
V00
p45
sVPOSITION
p46
g23
sVPLAYER_ID
p47
I201145
ssI203101
(dp48
VSCHOOL
p49
VDuke
p50
sVWEIGHT
p51
V249
p52
sVSEASON
p53
V2017
p54
sVAGE
p55
F29.0
sVBIRTH_DATE
p56
VSEP 01, 1988
p57
sVHEIGHT
p58
V6-11
p59
sVPLAYER
p60
VMiles Plumlee
p61
sVTeamID
p62
I1610612737
sVNUM
p63
V18
p64
sVEXP
p65
V5
p66
sVLeagueID
p67
V00
p68
sVPOSITION
p69
VC
p70
sVPLAYER_ID
p71
I203101
ssI203705
(dp72
g49
VAlabama-Huntsville
p73
sg51
V160
p74
sg53
V2017
p75
sg55
F27.0
sg56
VNOV 28, 1989
p76
sg58
V6-1
p77
sg60
VJosh Magette
p78
sg62
I1610612737
sg63
V11
p79
sg65
VR
p80
sg67
V00
p81
sg69
VG
p82
sg71
I203705
ssI203524
(dp83
VSCHOOL
p84
VArizona
p85
sVWEIGHT
p86
V225
p87
sVSEASON
p88
V2017
p89
sVAGE
p90
F26.0
sVBIRTH_DATE
p91
VMAR 18, 1991
p92
sVHEIGHT
p93
V6-7
p94
sVPLAYER
p95
VSolomon Hill
p96
sVTeamID
p97
I1610612740
sVNUM
p98
V44
p99
sVEXP
p100
V4
p101
sVLeagueID
p102
V00
p103
sVPOSITION
p104
g23
sVPLAYER_ID
p105
I203524
ssI1628393
(dp106
VSCHOOL
p107
VOklahoma State
p108
sVWEIGHT
p109
V190
p110
sVSEASON
p111
V2017
p112
sVAGE
p113
F21.0
sVBIRTH_DATE
p114
VJUL 26, 1996
p115
sVHEIGHT
p116
V6-0
p117
sVPLAYER
p118
VJawun Evans
p119
sVTeamID
p120
I1610612746
sVNUM
p121
V1
p122
sVEXP
p123
g80
sVLeagueID
p124
V00
p125
sVPOSITION
p126
g82
sVPLAYER_ID
p127
I1628393
ssI203898
(dp128
VSCHOOL
p129
VSyracuse
p130
sVWEIGHT
p131
V194
p132
sVSEASON
p133
V2017
p134
sVAGE
p135
F23.0
sVBIRTH_DATE
p136
VAUG 24, 1994
p137
sVHEIGHT
p138
V6-3
p139
sVPLAYER
p140
VTyler Ennis
p141
sVTeamID
p142
I1610612747
sVNUM
p143
V10
p144
sVEXP
p145
g17
sVLeagueID
p146
V00
p147
sVPOSITION
p148
g82
sVPLAYER_ID
p149
I203898
ssI200794
(dp150
VSCHOOL
p151
VLouisiana Tech
p152
sVWEIGHT
p153
V246
p154
sVSEASON
p155
V2017
p156
sVAGE
p157
F32.0
sVBIRTH_DATE
p158
VFEB 10, 1985
p159
sVHEIGHT
p160
V6-8
p161
sVPLAYER
p162
VPaul Millsap
p163
sVTeamID
p164
I1610612743
sVNUM
p165
g101
sVEXP
p166
V11
p167
sVLeagueID
p168
V00
p169
sVPOSITION
p170
g23
sVPLAYER_ID
p171
I200794
ssI202738
(dp172
g26
VWashington
p173
sg28
V185
p174
sg30
V2017
p175
sg32
F28.0
sg33
VFEB 07, 1989
p176
sg35
V5-9
p177
sg37
VIsaiah Thomas
p178
sg39
I1610612739
sg40
g17
sg42
V6
p179
sg44
V00
p180
sg46
g82
sg47
I202738
ssI1626144
(dp181
g151
Nsg153
V200
p182
sg155
V2017
p183
sg157
F21.0
sg158
VMAR 05, 1996
p184
sg160
V6-5
p185
sg162
VEmmanuel Mudiay
p186
sg164
I1610612743
sg165
V0
p187
sg166
V2
p188
sg168
V00
p189
sg170
g82
sg171
I1626144
ssI2736
(dp190
g129
VDuke
p191
sg131
V220
p192
sg133
V2017
p193
sg135
F32.0
sg136
VAPR 16, 1985
p194
sg138
V6-9
p195
sg140
VLuol Deng
p196
sg142
I1610612747
sg143
g43
sg145
V13
p197
sg146
V00
p198
sg148
g23
sg149
I2736
ssI2594
(dp199
g26
VCreighton
p200
sg28
V212
p201
sg30
V2017
p202
sg32
F36.0
sg33
VMAR 17, 1981
p203
sg35
V6-7
p204
sg37
VKyle Korver
p205
sg39
I1610612739
sg40
V26
p206
sg42
V14
p207
sg44
V00
p208
sg46
g82
sg47
I2594
ssI1627739
(dp209
VSCHOOL
p210
VProvidence
p211
sVWEIGHT
p212
V210
p213
sVSEASON
p214
V2017
p215
sVAGE
p216
F23.0
sVBIRTH_DATE
p217
VMAR 18, 1994
p218
sVHEIGHT
p219
V6-4
p220
sVPLAYER
p221
VKris Dunn
p222
sVTeamID
p223
I1610612741
sVNUM
p224
V32
p225
sVEXP
p226
g122
sVLeagueID
p227
V00
p228
sVPOSITION
p229
g82
sVPLAYER_ID
p230
I1627739
ssI1626149
(dp231
g107
VLouisville
p232
sg109
V240
p233
sg111
V2017
p234
sg113
F23.0
sg114
VJAN 26, 1994
p235
sg116
V6-8
p236
sg118
VMontrezl Harrell
p237
sg120
I1610612746
sg121
g66
sg123
g188
sg124
V00
p238
sg126
VF-C
p239
sg127
I1626149
ssI1626150
(dp240
VSCHOOL
p241
VKentucky
p242
sVWEIGHT
p243
V213
p244
sVSEASON
p245
V2017
p246
sVAGE
p247
F23.0
sVBIRTH_DATE
p248
VOCT 28, 1994
p249
sVHEIGHT
p250
V6-6
p251
sVPLAYER
p252
VAndrew Harrison
p253
sVTeamID
p254
I1610612763
sVNUM
p255
g66
sVEXP
p256
g122
sVLeagueID
p257
V00
p258
sVPOSITION
p259
g82
sVPLAYER_ID
p260
I1626150
ssI1626153
(dp261
VSCHOOL
p262
VUtah
p263
sVWEIGHT
p264
V190
p265
sVSEASON
p266
V2017
p267
sVAGE
p268
F25.0
sVBIRTH_DATE
p269
VAPR 26, 1992
p270
sVHEIGHT
p271
V6-5
p272
sVPLAYER
p273
VDelon Wright
p274
sVTeamID
p275
I1610612761
sVNUM
p276
V55
p277
sVEXP
p278
g188
sVLeagueID
p279
V00
p280
sVPOSITION
p281
g82
sVPLAYER_ID
p282
I1626153
ssI1626155
(dp283
g107
VWisconsin
p284
sg109
V230
p285
sg111
V2017
p286
sg113
F23.0
sg114
VMAY 08, 1994
p287
sg116
V6-9
p288
sg118
VSam Dekker
p289
sg120
I1610612746
sg121
V7
p290
sg123
g188
sg124
V00
p291
sg126
g23
sg127
I1626155
ssI1627826
(dp292
g129
Nsg131
V240
p293
sg133
V2017
p294
sg135
F20.0
sg136
VMAR 18, 1997
p295
sg138
V7-1
p296
sg140
VIvica Zubac
p297
sg142
I1610612747
sg143
V40
p298
sg145
g122
sg146
V00
p299
sg148
g70
sg149
I1627826
ssI1626159
(dp300
VSCHOOL
p301
VDuke
p302
sVWEIGHT
p303
V225
p304
sVSEASON
p305
V2017
p306
sVAGE
p307
F21.0
sVBIRTH_DATE
p308
VMAR 26, 1996
p309
sVHEIGHT
p310
V6-7
p311
sVPLAYER
p312
VJustise Winslow
p313
sVTeamID
p314
I1610612748
sVNUM
p315
V20
p316
sVEXP
p317
g188
sVLeagueID
p318
V00
p319
sVPOSITION
p320
g23
sVPLAYER_ID
p321
I1626159
ssI1627098
(dp322
g49
VVirginia Tech
p323
sg51
V190
p324
sg53
V2017
p325
sg55
F28.0
sg56
VMAR 11, 1989
p326
sg58
V6-3
p327
sg60
VMalcolm Delaney
p328
sg62
I1610612737
sg63
g66
sg65
g122
sg67
V00
p329
sg69
g82
sg71
I1627098
ssI201967
(dp330
g84
VVillanova
p331
sg86
V230
p332
sg88
V2017
p333
sg90
F30.0
sg91
VAPR 22, 1987
p334
sg93
V6-8
p335
sg95
VDante Cunningham
p336
sg97
I1610612740
sg98
V33
p337
sg100
V8
p338
sg102
V00
p339
sg104
g23
sg105
I201967
ssI1627827
(dp340
VSCHOOL
p341
VFlorida
p342
sVWEIGHT
p343
V220
p344
sVSEASON
p345
V2017
p346
sVAGE
p347
F24.0
sVBIRTH_DATE
p348
VMAY 04, 1993
p349
sVHEIGHT
p350
V6-8
p351
sVPLAYER
p352
VDorian Finney-Smith
p353
sVTeamID
p354
I1610612742
sVNUM
p355
V10
p356
sVEXP
p357
g122
sVLeagueID
p358
V00
p359
sVPOSITION
p360
g23
sVPLAYER_ID
p361
I1627827
ssI200757
(dp362
VSCHOOL
p363
VVevey, Switzerland
p364
sVWEIGHT
p365
V220
p366
sVSEASON
p367
V2017
p368
sVAGE
p369
F33.0
sVBIRTH_DATE
p370
VMAY 02, 1984
p371
sVHEIGHT
p372
V6-7
p373
sVPLAYER
p374
VThabo Sefolosha
p375
sVTeamID
p376
I1610612762
sVNUM
p377
V22
p378
sVEXP
p379
V11
p380
sVLeagueID
p381
V00
p382
sVPOSITION
p383
g23
sVPLAYER_ID
p384
I200757
ssI1626166
(dp385
g210
VMurray State
p386
sg212
V185
p387
sg214
V2017
p388
sg216
F23.0
sg217
VAUG 08, 1994
p389
sg219
V6-3
p390
sg221
VCameron Payne
p391
sg223
I1610612741
sg224
V22
p392
sg226
g188
sg227
V00
p393
sg229
g82
sg230
I1626166
ssI1626168
(dp394
g151
VKentucky
p395
sg153
V234
p396
sg155
V2017
p397
sg157
F22.0
sg158
VNOV 05, 1995
p398
sg160
V6-10
p399
sg162
VTrey Lyles
p400
sg164
I1610612743
sg165
g290
sg166
g188
sg168
V00
p401
sg170
g23
sg171
I1626168
ssI2617
(dp402
g301
VFlorida
p403
sg303
V235
p404
sg305
V2017
p405
sg307
F37.0
sg308
VJUN 09, 1980
p406
sg310
V6-8
p407
sg312
VUdonis Haslem
p408
sg314
I1610612748
sg315
V40
p409
sg317
V14
p410
sg318
V00
p411
sg320
g23
sg321
I2617
ssI1626170
(dp412
g210
VNotre Dame
p413
sg212
V198
p414
sg214
V2017
p415
sg216
F25.0
sg217
VOCT 09, 1992
p416
sg219
V6-4
p417
sg221
VJerian Grant
p418
sg223
I1610612741
sg224
g188
sg226
g188
sg227
V00
p419
sg229
g82
sg230
I1626170
ssI1626171
(dp420
g210
VArkansas
p421
sg212
V248
p422
sg214
V2017
p423
sg216
F22.0
sg217
VFEB 10, 1995
p424
sg219
V6-11
p425
sg221
VBobby Portis
p426
sg223
I1610612741
sg224
g66
sg226
g188
sg227
V00
p427
sg229
g23
sg230
I1626171
ssI1626172
(dp428
g2
VUCLA
p429
sg4
V220
p430
sg6
V2017
p431
sg8
F21.0
sg9
VFEB 06, 1996
p432
sg11
V6-9
p433
sg13
VKevon Looney
p434
sg15
I1610612744
sg16
g66
sg18
g188
sg20
V00
p435
sg22
g23
sg24
I1626172
ssI1626173
(dp436
VSCHOOL
p437
VUNLV
p438
sVWEIGHT
p439
V202
p440
sVSEASON
p441
V2017
p442
sVAGE
p443
F21.0
sVBIRTH_DATE
p444
VAUG 16, 1996
p445
sVHEIGHT
p446
V6-6
p447
sVPLAYER
p448
VRashad Vaughn
p449
sVTeamID
p450
I1610612749
sVNUM
p451
V20
p452
sVEXP
p453
g188
sVLeagueID
p454
V00
p455
sVPOSITION
p456
g82
sVPLAYER_ID
p457
I1626173
ssI1626175
(dp458
g301
VLouisiana State
p459
sg303
V235
p460
sg305
V2017
p461
sg307
F23.0
sg308
VJUL 09, 1994
p462
sg310
V6-8
p463
sg312
VJordan Mickey
p464
sg314
I1610612748
sg315
V25
p465
sg317
g188
sg318
V00
p466
sg320
VC-F
p467
sg321
I1626175
ssI200768
(dp468
g262
VVillanova
p469
sg264
V205
p470
sg266
V2017
p471
sg268
F31.0
sg269
VMAR 25, 1986
p472
sg271
V6-0
p473
sg273
VKyle Lowry
p474
sg275
I1610612761
sg276
g290
sg278
V11
p475
sg279
V00
p476
sg281
g82
sg282
I200768
ssI1626177
(dp477
VSCHOOL
p478
VKentucky
p479
sVWEIGHT
p480
V255
p481
sVSEASON
p482
V2017
p483
sVAGE
p484
F22.0
sVBIRTH_DATE
p485
VSEP 22, 1995
p486
sVHEIGHT
p487
V7-0
p488
sVPLAYER
p489
VDakari Johnson
p490
sVTeamID
p491
I1610612760
sVNUM
p492
V44
p493
sVEXP
p494
g80
sVLeagueID
p495
V00
p496
sVPOSITION
p497
g70
sVPLAYER_ID
p498
I1626177
ssI1626179
(dp499
VSCHOOL
p500
VLouisville
p501
sVWEIGHT
p502
V190
p503
sVSEASON
p504
V2017
p505
sVAGE
p506
F23.0
sVBIRTH_DATE
p507
VMAR 17, 1994
p508
sVHEIGHT
p509
V6-2
p510
sVPLAYER
p511
VTerry Rozier
p512
sVTeamID
p513
I1610612738
sVNUM
p514
V12
p515
sVEXP
p516
g188
sVLeagueID
p517
V00
p518
sVPOSITION
p519
g82
sVPLAYER_ID
p520
I1626179
ssI1626181
(dp521
g262
VUCLA
p522
sg264
V215
p523
sg266
V2017
p524
sg268
F24.0
sg269
VMAY 25, 1993
p525
sg271
V6-4
p526
sg273
VNorman Powell
p527
sg275
I1610612761
sg276
V24
p528
sg278
g188
sg279
V00
p529
sg281
VF-G
p530
sg282
I1626181
ssI202337
(dp531
g49
VNevada
p532
sg51
V225
p533
sg53
V2017
p534
sg55
F28.0
sg56
VJUN 20, 1989
p535
sg58
V6-9
p536
sg60
VLuke Babbitt
p537
sg62
I1610612737
sg63
g338
sg65
g290
sg67
V00
p538
sg69
g23
sg71
I202337
ssI1626185
(dp539
g241
VLouisiana State
p540
sg243
V239
p541
sg245
V2017
p542
sg247
F23.0
sg248
VMAY 24, 1994
p543
sg250
V6-10
p544
sg252
VJarell Martin
p545
sg254
I1610612763
sg255
g122
sg256
g188
sg257
V00
p546
sg259
g23
sg260
I1626185
ssI1626188
(dp547
g2
VDuke
p548
sg4
V179
p549
sg6
V2017
p550
sg8
F24.0
sg9
VMAR 23, 1993
p551
sg11
V6-2
p552
sg13
VQuinn Cook
p553
sg15
I1610612744
sg16
g101
sg18
g122
sg20
V00
p554
sg22
g82
sg24
I1626188
ssI200782
(dp555
VSCHOOL
p556
VTexas
p557
sVWEIGHT
p558
V245
p559
sVSEASON
p560
V2017
p561
sVAGE
p562
F32.0
sVBIRTH_DATE
p563
VMAY 05, 1985
p564
sVHEIGHT
p565
V6-6
p566
sVPLAYER
p567
VPJ Tucker
p568
sVTeamID
p569
I1610612745
sVNUM
p570
g101
sVEXP
p571
g179
sVLeagueID
p572
V00
p573
sVPOSITION
p574
g23
sVPLAYER_ID
p575
I200782
ssI1628463
(dp576
g49
VGeorge Washington
p577
sg51
V238
p578
sg53
V2017
p579
sg55
F23.0
sg56
VFEB 09, 1994
p580
sg58
V6-9
p581
sg60
VTyler Cavanaugh
p582
sg62
I1610612737
sg63
V34
p583
sg65
g80
sg67
V00
p584
sg69
g23
sg71
I1628463
ssI202083
(dp585
g341
VMarquette
p586
sg343
V220
p587
sg345
V2017
p588
sg347
F31.0
sg348
VOCT 14, 1986
p589
sg350
V6-5
p590
sg352
VWesley Matthews
p591
sg354
I1610612742
sg355
V23
p592
sg357
g338
sg358
V00
p593
sg360
VG-F
p594
sg361
I202083
ssI202324
(dp595
g363
VGeorgia Tech
p596
sg365
V265
p597
sg367
V2017
p598
sg369
F26.0
sg370
VJUL 15, 1991
p599
sg372
V6-10
p600
sg374
VDerrick Favors
p601
sg376
I1610612762
sg377
V15
p602
sg379
g290
sg381
V00
p603
sg383
VF-C
p604
sg384
I202324
ssI202325
(dp605
g107
VSyracuse
p606
sg109
V215
p607
sg111
V2017
p608
sg113
F30.0
sg114
VJUL 11, 1987
p609
sg116
V6-7
p610
sg118
VWesley Johnson
p611
sg120
I1610612746
sg121
V33
p612
sg123
g290
sg124
V00
p613
sg126
g23
sg127
I202325
ssI202326
(dp614
g84
VKentucky
p615
sg86
V270
p616
sg88
V2017
p617
sg90
F27.0
sg91
VAUG 13, 1990
p618
sg93
V6-11
p619
sg95
VDeMarcus Cousins
p620
sg97
I1610612740
sg98
g187
sg100
g290
sg102
V00
p621
sg104
g70
sg105
I202326
ssI202327
(dp622
g363
VBaylor
p623
sg365
V245
p624
sg367
V2017
p625
sg369
F30.0
sg370
VMAY 20, 1987
p626
sg372
V6-10
p627
sg374
VEkpe Udoh
p628
sg376
I1610612762
sg377
V33
p629
sg379
g66
sg381
V00
p630
sg383
VC-F
p631
sg384
I202327
ssI1627736
(dp632
g151
VFlorida State
p633
sg153
V196
p634
sg155
V2017
p635
sg157
F20.0
sg158
VNOV 26, 1996
p636
sg160
V6-5
p637
sg162
VMalik Beasley
p638
sg164
I1610612743
sg165
V25
p639
sg166
g122
sg168
V00
p640
sg170
g82
sg171
I1627736
ssI1627738
(dp641
g241
VMichigan State
p642
sg243
V237
p643
sg245
V2017
p644
sg247
F20.0
sg248
VDEC 02, 1996
p645
sg250
V6-11
p646
sg252
VDeyonta Davis
p647
sg254
I1610612763
sg255
V21
p648
sg256
g122
sg257
V00
p649
sg259
VC-F
p650
sg260
I1627738
ssI202331
(dp651
g478
VFresno State
p652
sg480
V220
p653
sg482
V2017
p654
sg484
F27.0
sg485
VMAY 02, 1990
p655
sg487
V6-9
p656
sg489
VPaul George
p657
sg491
I1610612760
sg492
V13
p658
sg494
g290
sg495
V00
p659
sg497
g23
sg498
I202331
ssI1626204
(dp660
g129
VWyoming
p661
sg131
V230
p662
sg133
V2017
p663
sg135
F24.0
sg136
VJAN 01, 1993
p664
sg138
V6-9
p665
sg140
VLarry Nance Jr.
p666
sg142
I1610612747
sg143
g290
sg145
g188
sg146
V00
p667
sg148
g23
sg149
I1626204
ssI1626205
(dp668
g241
VTexas-El Paso
p669
sg243
V208
p670
sg245
V2017
p671
sg247
F23.0
sg248
VAUG 05, 1994
p672
sg250
V6-8
p673
sg252
VVincent Hunter
p674
sg254
I1610612763
sg255
V32
p675
sg256
g80
sg257
V00
p676
sg259
g23
sg260
I1626205
ssI1627742
(dp677
g129
VDuke
p678
sg131
V190
p679
sg133
V2017
p680
sg135
F20.0
sg136
VSEP 02, 1997
p681
sg138
V6-9
p682
sg140
VBrandon Ingram
p683
sg142
I1610612747
sg143
V14
p684
sg145
g122
sg146
V00
p685
sg148
VF-G
p686
sg149
I1627742
ssI202335
(dp687
g478
VKentucky
p688
sg480
V230
p689
sg482
V2017
p690
sg484
F28.0
sg485
VMAR 14, 1989
p691
sg487
V6-9
p692
sg489
VPatrick Patterson
p693
sg491
I1610612760
sg492
V54
p694
sg494
g290
sg495
V00
p695
sg497
g23
sg498
I202335
ssI1627744
(dp696
g107
VNorth Carolina
p697
sg109
V230
p698
sg111
V2017
p699
sg113
F23.0
sg114
VJUN 27, 1994
p700
sg116
V6-10
p701
sg118
VBrice Johnson
p702
sg120
I1610612746
sg121
V11
p703
sg123
g122
sg124
V00
p704
sg126
g23
sg127
I1627744
ssI1627745
(dp705
g2
VVanderbilt
p706
sg4
V245
p707
sg6
V2017
p708
sg8
F22.0
sg9
VJUN 30, 1995
p709
sg11
V7-0
p710
sg13
VDamian Jones
p711
sg15
I1610612744
sg16
V15
p712
sg18
g122
sg20
V00
p713
sg22
g70
sg24
I1627745
ssI202339
(dp714
g437
VKentucky
p715
sg439
V205
p716
sg441
V2017
p717
sg443
F27.0
sg444
VDEC 09, 1989
p718
sg446
V6-1
p719
sg448
VEric Bledsoe
p720
sg450
I1610612749
sg451
g179
sg453
g290
sg454
V00
p721
sg456
g82
sg457
I202339
ssI1627748
(dp722
g437
Nsg439
V223
p723
sg441
V2017
p724
sg443
F20.0
sg444
VFEB 25, 1997
p725
sg446
V7-1
p726
sg448
VThon Maker
p727
sg450
I1610612749
sg451
g290
sg453
g122
sg454
V00
p728
sg456
VC-F
p729
sg457
I1627748
ssI1627750
(dp730
g151
VKentucky
p731
sg153
V207
p732
sg155
V2017
p733
sg157
F20.0
sg158
VFEB 23, 1997
p734
sg160
V6-4
p735
sg162
VJamal Murray
p736
sg164
I1610612743
sg165
V27
p737
sg166
g122
sg168
V00
p738
sg170
g82
sg171
I1627750
ssI1627751
(dp739
g262
VUtah
p740
sg264
V230
p741
sg266
V2017
p742
sg268
F22.0
sg269
VOCT 15, 1995
p743
sg271
V7-0
p744
sg273
VJakob Poeltl
p745
sg275
I1610612761
sg276
V42
p746
sg278
g122
sg279
V00
p747
sg281
g70
sg282
I1627751
ssI1627752
(dp748
g49
VBaylor
p749
sg51
V220
p750
sg53
V2017
p751
sg55
F23.0
sg56
VMAR 22, 1994
p752
sg58
V6-8
p753
sg60
VTaurean Prince
p754
sg62
I1610612737
sg63
V12
p755
sg65
g122
sg67
V00
p756
sg69
g23
sg71
I1627752
ssI1627753
(dp757
g556
Nsg558
V210
p758
sg560
V2017
p759
sg562
F21.0
sg563
VJAN 16, 1996
p760
sg565
V7-1
p761
sg567
VQi Qi
p762
sg569
I1610612745
sg570
g43
sg571
g80
sg572
V00
p763
sg574
VF-C
p764
sg575
I1627753
ssI202347
(dp765
g210
VWashington
p766
sg212
V225
p767
sg214
V2017
p768
sg216
F29.0
sg217
VMAR 10, 1988
p769
sg219
V6-7
p770
sg221
VQuincy Pondexter
p771
sg223
I1610612741
sg224
V20
p772
sg226
g66
sg227
V00
p773
sg229
g82
sg230
I202347
ssI1626220
(dp774
g363
VBaylor
p775
sg365
V226
p776
sg367
V2017
p777
sg369
F24.0
sg370
VJUN 05, 1993
p778
sg372
V6-6
p779
sg374
VRoyce O'Neale
p780
sg376
I1610612762
sg377
V23
p781
sg379
g80
sg381
V00
p782
sg383
g23
sg384
I1626220
ssI1627759
(dp783
g500
VCalifornia
p784
sg502
V225
p785
sg504
V2017
p786
sg506
F21.0
sg507
VOCT 24, 1996
p787
sg509
V6-7
p788
sg511
VJaylen Brown
p789
sg513
I1610612738
sg514
g290
sg516
g122
sg517
V00
p790
sg519
VG-F
p791
sg520
I1627759
ssI1626224
(dp792
g26
VAnadolu Efes
p793
sg28
V215
p794
sg30
V2017
p795
sg32
F22.0
sg33
VAPR 08, 1995
p796
sg35
V6-8
p797
sg37
VCedi Osman
p798
sg39
I1610612739
sg40
V16
p799
sg42
g80
sg44
V00
p800
sg46
g23
sg47
I1626224
ssI202681
(dp801
g500
VDuke
p802
sg502
V193
p803
sg504
V2017
p804
sg506
F25.0
sg507
VMAR 23, 1992
p805
sg509
V6-3
p806
sg511
VKyrie Irving
p807
sg513
I1610612738
sg514
V11
p808
sg516
g179
sg517
V00
p809
sg519
g82
sg520
I202681
ssI1627762
(dp810
g437
VWeber State
p811
sg439
V235
p812
sg441
V2017
p813
sg443
F23.0
sg444
VJAN 28, 1994
p814
sg446
V6-9
p815
sg448
VJoel Bolomboy
p816
sg450
I1610612749
sg451
V24
p817
sg453
g122
sg454
V00
p818
sg456
VF-C
p819
sg457
I1627762
ssI202355
(dp820
g301
VMarshall
p821
sg303
V265
p822
sg305
V2017
p823
sg307
F28.0
sg308
VJUN 13, 1989
p824
sg310
V7-0
p825
sg312
VHassan Whiteside
p826
sg314
I1610612748
sg315
V21
p827
sg317
g66
sg318
V00
p828
sg320
g70
sg321
I202355
ssI203382
(dp829
g500
VWashington State
p830
sg502
V260
p831
sg504
V2017
p832
sg506
F30.0
sg507
VDEC 09, 1986
p833
sg509
V6-10
p834
sg511
VAron Baynes
p835
sg513
I1610612738
sg514
V46
p836
sg516
g66
sg517
V00
p837
sg519
g70
sg520
I203382
ssI1627767
(dp838
g84
VKansas
p839
sg86
V220
p840
sg88
V2017
p841
sg90
F21.0
sg91
VSEP 13, 1996
p842
sg93
V6-9
p843
sg95
VCheick Diallo
p844
sg97
I1610612740
sg98
V13
p845
sg100
g122
sg102
V00
p846
sg104
g23
sg105
I1627767
ssI203897
(dp847
g210
VUCLA
p848
sg212
V185
p849
sg214
V2017
p850
sg216
F22.0
sg217
VMAR 10, 1995
p851
sg219
V6-5
p852
sg221
VZach LaVine
p853
sg223
I1610612741
sg224
g338
sg226
g17
sg227
V00
p854
sg229
g82
sg230
I203897
ssI200826
(dp855
g341
VNortheastern
p856
sg343
V185
p857
sg345
V2017
p858
sg347
F33.0
sg348
VJUN 26, 1984
p859
sg350
V6-0
p860
sg352
VJ.J. Barea
p861
sg354
I1610612742
sg355
g66
sg357
V11
p862
sg358
V00
p863
sg360
g82
sg361
I200826
ssI1627772
(dp864
g478
VConnecticut
p865
sg480
V195
p866
sg482
V2017
p867
sg484
F22.0
sg485
VAUG 08, 1995
p868
sg487
V6-7
p869
sg489
VDaniel Hamilton
p870
sg491
I1610612760
sg492
V25
p871
sg494
g80
sg495
V00
p872
sg497
g82
sg498
I1627772
ssI1627773
(dp873
g301
VPurdue
p874
sg303
V260
p875
sg305
V2017
p876
sg307
F25.0
sg308
VAUG 27, 1992
p877
sg310
V7-0
p878
sg312
VAJ Hammons
p879
sg314
I1610612748
sg315
g101
sg317
g122
sg318
V00
p880
sg320
g70
sg321
I1627773
ssI1627936
(dp881
g129
VTexas A&M
p882
sg131
V186
p883
sg133
V2017
p884
sg135
F23.0
sg136
VFEB 28, 1994
p885
sg138
V6-5
p886
sg140
VAlex Caruso
p887
sg142
I1610612747
sg143
g101
sg145
g80
sg146
V00
p888
sg148
g82
sg149
I1627936
ssI1627778
(dp889
g556
VLouisville
p890
sg558
V245
p891
sg560
V2017
p892
sg562
F21.0
sg563
VNOV 01, 1996
p893
sg565
V6-10
p894
sg567
VChinanu Onuaku
p895
sg569
I1610612745
sg570
V21
p896
sg571
g122
sg572
V00
p897
sg574
g70
sg575
I1627778
ssI1627780
(dp898
g437
VOregon State
p899
sg439
V190
p900
sg441
V2017
p901
sg443
F24.0
sg444
VDEC 01, 1992
p902
sg446
V6-3
p903
sg448
VGary Payton II
p904
sg450
I1610612749
sg451
g187
sg453
g122
sg454
V00
p905
sg456
g82
sg457
I1627780
ssI203500
(dp906
g478
VPittsburgh
p907
sg480
V255
p908
sg482
V2017
p909
sg484
F24.0
sg485
VJUL 20, 1993
p910
sg487
V7-0
p911
sg489
VSteven Adams
p912
sg491
I1610612760
sg492
V12
p913
sg494
g101
sg495
V00
p914
sg497
g70
sg498
I203500
ssI1627782
(dp915
g241
VKansas
p916
sg243
V230
p917
sg245
V2017
p918
sg247
F23.0
sg248
VSEP 30, 1994
p919
sg250
V6-5
p920
sg252
VWayne Selden
p921
sg254
I1610612763
sg255
g290
sg256
g122
sg257
V00
p922
sg259
VG-F
p923
sg260
I1627782
ssI1627783
(dp924
g262
VNew Mexico State
p925
sg264
V230
p926
sg266
V2017
p927
sg268
F23.0
sg269
VAPR 02, 1994
p928
sg271
V6-9
p929
sg273
VPascal Siakam
p930
sg275
I1610612761
sg276
V43
p931
sg278
g122
sg279
V00
p932
sg281
g23
sg282
I1627783
ssI1627756
(dp933
g210
VMichigan State
p934
sg212
V214
p935
sg214
V2017
p936
sg216
F23.0
sg217
VNOV 16, 1993
p937
sg219
V6-6
p938
sg221
VDenzel Valentine
p939
sg223
I1610612741
sg224
V45
p940
sg226
g122
sg227
V00
p941
sg229
g23
sg230
I1627756
ssI203914
(dp942
g151
VMichigan State
p943
sg153
V210
p944
sg155
V2017
p945
sg157
F23.0
sg158
VSEP 14, 1994
p946
sg160
V6-4
p947
sg162
VGary Harris
p948
sg164
I1610612743
sg165
V14
p949
sg166
g17
sg168
V00
p950
sg170
g82
sg171
I203914
ssI203918
(dp951
g363
VDuke
p952
sg365
V206
p953
sg367
V2017
p954
sg369
F25.0
sg370
VOCT 20, 1992
p955
sg372
V6-8
p956
sg374
VRodney Hood
p957
sg376
I1610612762
sg377
g66
sg379
g17
sg381
V00
p958
sg383
g82
sg384
I203918
ssI1626257
(dp959
g341
Nsg343
V235
p960
sg345
V2017
p961
sg347
F31.0
sg348
VJUN 15, 1986
p962
sg350
V7-2
p963
sg352
VSalah Mejri
p964
sg354
I1610612742
sg355
V50
p965
sg357
g188
sg358
V00
p966
sg360
g70
sg361
I1626257
ssI1626259
(dp967
g262
VHoly Cross
p968
sg264
V210
p969
sg266
V2017
p970
sg268
F24.0
sg269
VMAR 06, 1993
p971
sg271
V6-7
p972
sg273
VMalcolm Miller
p973
sg275
I1610612761
sg276
V13
p974
sg278
g80
sg279
V00
p975
sg281
g23
sg282
I1626259
ssI203924
(dp976
g478
VSyracuse
p977
sg480
V220
p978
sg482
V2017
p979
sg484
F23.0
sg485
VMAR 12, 1994
p980
sg487
V6-9
p981
sg489
VJerami Grant
p982
sg491
I1610612760
sg492
g43
sg494
g17
sg495
V00
p983
sg497
g23
sg498
I203924
ssI2585
(dp984
g2
VTbilisi, Georgia
p985
sg4
V270
p986
sg6
V2017
p987
sg8
F33.0
sg9
VFEB 10, 1984
p988
sg11
V6-11
p989
sg13
VZaza Pachulia
p990
sg15
I1610612744
sg16
V27
p991
sg18
V14
p992
sg20
V00
p993
sg22
g70
sg24
I2585
ssI201156
(dp994
g2
VSouthern California
p995
sg4
V210
p996
sg6
V2017
p997
sg8
F32.0
sg9
VJUN 01, 1985
p998
sg11
V6-7
p999
sg13
VNick Young
p1000
sg15
I1610612744
sg16
g179
sg18
V10
p1001
sg20
V00
p1002
sg22
VG-F
p1003
sg24
I201156
ssI201583
(dp1004
g556
VCalifornia
p1005
sg558
V240
p1006
sg560
V2017
p1007
sg562
F29.0
sg563
VMAY 06, 1988
p1008
sg565
V6-10
p1009
sg567
VRyan Anderson
p1010
sg569
I1610612745
sg570
V33
p1011
sg571
g43
sg572
V00
p1012
sg574
g23
sg575
I201583
ssI2207
(dp1013
g363
VArkansas
p1014
sg365
V240
p1015
sg367
V2017
p1016
sg369
F36.0
sg370
VJUN 29, 1981
p1017
sg372
V6-7
p1018
sg374
VJoe Johnson
p1019
sg376
I1610612762
sg377
g179
sg379
V16
p1020
sg381
V00
p1021
sg383
VG-F
p1022
sg384
I2207
ssI2210
(dp1023
g151
VArizona
p1024
sg153
V233
p1025
sg155
V2017
p1026
sg157
F37.0
sg158
VJUN 21, 1980
p1027
sg160
V6-7
p1028
sg162
VRichard Jefferson
p1029
sg164
I1610612743
sg165
V22
p1030
sg166
V16
p1031
sg168
V00
p1032
sg170
g23
sg171
I2210
ssI203939
(dp1033
g341
VStanford
p1034
sg343
V240
p1035
sg345
V2017
p1036
sg347
F26.0
sg348
VJUL 20, 1991
p1037
sg350
V6-11
p1038
sg352
VDwight Powell
p1039
sg354
I1610612742
sg355
g290
sg357
g17
sg358
V00
p1040
sg360
VF-C
p1041
sg361
I203939
ssI1627812
(dp1042
g341
VIndiana
p1043
sg343
V180
p1044
sg345
V2017
p1045
sg347
F24.0
sg348
VMAY 09, 1993
p1046
sg350
V6-0
p1047
sg352
VYogi Ferrell
p1048
sg354
I1610612742
sg355
V11
p1049
sg357
g122
sg358
V00
p1050
sg360
g82
sg361
I1627812
ssI202694
(dp1051
g500
VKansas
p1052
sg502
V235
p1053
sg504
V2017
p1054
sg506
F28.0
sg507
VSEP 02, 1989
p1055
sg509
V6-9
p1056
sg511
VMarcus Morris
p1057
sg513
I1610612738
sg514
V13
p1058
sg516
g179
sg517
V00
p1059
sg519
g23
sg520
I202694
ssI203121
(dp1060
g84
VKentucky
p1061
sg86
V225
p1062
sg88
V2017
p1063
sg90
F27.0
sg91
VMAR 21, 1990
p1064
sg93
V6-8
p1065
sg95
VDarius Miller
p1066
sg97
I1610612740
sg98
V21
p1067
sg100
g17
sg102
V00
p1068
sg104
g23
sg105
I203121
ssI203944
(dp1069
g129
VKentucky
p1070
sg131
V250
p1071
sg133
V2017
p1072
sg135
F22.0
sg136
VNOV 29, 1994
p1073
sg138
V6-9
p1074
sg140
VJulius Randle
p1075
sg142
I1610612747
sg143
V30
p1076
sg145
g17
sg146
V00
p1077
sg148
VF-C
p1078
sg149
I203944
ssI1628444
(dp1079
g500
VCalifornia
p1080
sg502
V198
p1081
sg504
V2017
p1082
sg506
F23.0
sg507
VJUL 03, 1994
p1083
sg509
V6-6
p1084
sg511
VJabari Bird
p1085
sg513
I1610612738
sg514
V26
p1086
sg516
g80
sg517
V00
p1087
sg519
g82
sg520
I1628444
ssI1627819
(dp1088
g49
VTexas
p1089
sg51
V170
p1090
sg53
V2017
p1091
sg55
F23.0
sg56
VJUL 11, 1994
p1092
sg58
V6-3
p1093
sg60
VIsaiah Taylor
p1094
sg62
I1610612737
sg63
V22
p1095
sg65
g122
sg67
V00
p1096
sg69
g82
sg71
I1627819
ssI2733
(dp1097
g2
VPeoria Central HS (IL)
p1098
sg4
V192
p1099
sg6
V2017
p1100
sg8
F32.0
sg9
VSEP 11, 1985
p1101
sg11
V6-7
p1102
sg13
VShaun Livingston
p1103
sg15
I1610612744
sg16
V34
p1104
sg18
V12
p1105
sg20
V00
p1106
sg22
g82
sg24
I2733
ssI2734
(dp1107
g341
VWisconsin
p1108
sg343
V185
p1109
sg345
V2017
p1110
sg347
F34.0
sg348
VFEB 27, 1983
p1111
sg350
V6-3
p1112
sg352
VDevin Harris
p1113
sg354
I1610612742
sg355
V34
p1114
sg357
V13
p1115
sg358
V00
p1116
sg360
g82
sg361
I2734
ssI1627823
(dp1117
g151
Nsg153
V230
p1118
sg155
V2017
p1119
sg157
F22.0
sg158
VSEP 28, 1995
p1120
sg160
V6-9
p1121
sg162
VJuan Hernangomez
p1122
sg164
I1610612743
sg165
V41
p1123
sg166
g122
sg168
V00
p1124
sg170
g23
sg171
I1627823
ssI201950
(dp1125
g84
VUCLA
p1126
sg86
V205
p1127
sg88
V2017
p1128
sg90
F27.0
sg91
VJUN 12, 1990
p1129
sg93
V6-4
p1130
sg95
VJrue Holiday
p1131
sg97
I1610612740
sg98
V11
p1132
sg100
g338
sg102
V00
p1133
sg104
g82
sg105
I201950
ssI203953
(dp1134
g437
VDuke
p1135
sg439
V250
p1136
sg441
V2017
p1137
sg443
F22.0
sg444
VMAR 15, 1995
p1138
sg446
V6-8
p1139
sg448
VJabari Parker
p1140
sg450
I1610612749
sg451
V12
p1141
sg453
g17
sg454
V00
p1142
sg456
g23
sg457
I203953
ssI201933
(dp1143
g107
VOklahoma
p1144
sg109
V251
p1145
sg111
V2017
p1146
sg113
F28.0
sg114
VMAR 16, 1989
p1147
sg116
V6-10
p1148
sg118
VBlake Griffin
p1149
sg120
I1610612746
sg121
V32
p1150
sg123
g290
sg124
V00
p1151
sg126
g23
sg127
I201933
ssI1627763
(dp1152
g437
VVirginia
p1153
sg439
V215
p1154
sg441
V2017
p1155
sg443
F24.0
sg444
VDEC 11, 1992
p1156
sg446
V6-5
p1157
sg448
VMalcolm Brogdon
p1158
sg450
I1610612749
sg451
V13
p1159
sg453
g122
sg454
V00
p1160
sg456
g82
sg457
I1627763
ssI203957
(dp1161
g363
Nsg365
V190
p1162
sg367
V2017
p1163
sg369
F22.0
sg370
VJUL 13, 1995
p1164
sg372
V6-6
p1165
sg374
VDante Exum
p1166
sg376
I1610612762
sg377
V11
p1167
sg379
g188
sg381
V00
p1168
sg383
g82
sg384
I203957
ssI1627775
(dp1169
g2
VNevada-Las Vegas
p1170
sg4
V185
p1171
sg6
V2017
p1172
sg8
F22.0
sg9
VOCT 25, 1995
p1173
sg11
V6-7
p1174
sg13
VPatrick McCaw
p1175
sg15
I1610612744
sg16
g187
sg18
g122
sg20
V00
p1176
sg22
g82
sg24
I1627775
ssI202697
(dp1177
g26
VGeorgia Tech
p1178
sg28
V220
p1179
sg30
V2017
p1180
sg32
F27.0
sg33
VJUN 26, 1990
p1181
sg35
V6-5
p1182
sg37
VIman Shumpert
p1183
sg39
I1610612739
sg40
g101
sg42
g179
sg44
V00
p1184
sg46
g82
sg47
I202697
ssI1627832
(dp1185
g262
VWichita State
p1186
sg264
V195
p1187
sg266
V2017
p1188
sg268
F23.0
sg269
VFEB 25, 1994
p1189
sg271
V6-0
p1190
sg273
VFred VanVleet
p1191
sg275
I1610612761
sg276
V23
p1192
sg278
g122
sg279
V00
p1193
sg281
g82
sg282
I1627832
ssI203962
(dp1194
g478
VStanford
p1195
sg480
V230
p1196
sg482
V2017
p1197
sg484
F25.0
sg485
VDEC 19, 1991
p1198
sg487
V6-7
p1199
sg489
VJosh Huestis
p1200
sg491
I1610612760
sg492
V34
p1201
sg494
g188
sg495
V00
p1202
sg497
g23
sg498
I203962
ssI1627835
(dp1203
g210
Nsg212
V226
p1204
sg214
V2017
p1205
sg216
F23.0
sg217
VFEB 18, 1994
p1206
sg219
V6-8
p1207
sg221
VPaul Zipser
p1208
sg223
I1610612741
sg224
V16
p1209
sg226
g122
sg227
V00
p1210
sg229
g23
sg230
I1627835
ssI203488
(dp1211
g49
VBucknell
p1212
sg51
V240
p1213
sg53
V2017
p1214
sg55
F26.0
sg56
VJUL 01, 1991
p1215
sg58
V6-11
p1216
sg60
VMike Muscala
p1217
sg62
I1610612737
sg63
V31
p1218
sg65
g101
sg67
V00
p1219
sg69
VF-C
p1220
sg71
I203488
ssI2749
(dp1221
g84
VSaint Joseph's
p1222
sg86
V190
p1223
sg88
V2017
p1224
sg90
F35.0
sg91
VFEB 09, 1982
p1225
sg93
V6-0
p1226
sg95
VJameer Nelson
p1227
sg97
I1610612740
sg98
V14
p1228
sg100
V13
p1229
sg102
V00
p1230
sg104
g82
sg105
I2749
ssI203966
(dp1231
g107
VMarquette
p1232
sg109
V229
p1233
sg111
V2017
p1234
sg113
F26.0
sg114
VNOV 21, 1990
p1235
sg116
V6-7
p1236
sg118
VJamil Wilson
p1237
sg120
I1610612746
sg121
V13
p1238
sg123
g80
sg124
V00
p1239
sg126
g23
sg127
I203966
ssI1628021
(dp1240
g210
VCal Poly-S.L.O.
p1241
sg212
V209
p1242
sg214
V2017
p1243
sg216
F24.0
sg217
VJAN 14, 1993
p1244
sg219
V6-4
p1245
sg221
VDavid Nwaba
p1246
sg223
I1610612741
sg224
V11
p1247
sg226
g122
sg227
V00
p1248
sg229
g82
sg230
I1628021
ssI203457
(dp1249
g341
VKentucky
p1250
sg343
V220
p1251
sg345
V2017
p1252
sg347
F23.0
sg348
VAPR 10, 1994
p1253
sg350
V6-11
p1254
sg352
VNerlens Noel
p1255
sg354
I1610612742
sg355
g17
sg357
g17
sg358
V00
p1256
sg360
g70
sg361
I203457
ssI2754
(dp1257
g84
VOklahoma State
p1258
sg86
V213
p1259
sg88
V2017
p1260
sg90
F35.0
sg91
VJAN 11, 1982
p1261
sg93
V6-4
p1262
sg95
VTony Allen
p1263
sg97
I1610612740
sg98
V24
p1264
sg100
V13
p1265
sg102
V00
p1266
sg104
VG-F
p1267
sg105
I2754
ssI203460
(dp1268
g478
VColorado
p1269
sg480
V210
p1270
sg482
V2017
p1271
sg484
F25.0
sg485
VDEC 04, 1991
p1272
sg487
V6-7
p1273
sg489
VAndre Roberson
p1274
sg491
I1610612760
sg492
V21
p1275
sg494
g101
sg495
V00
p1276
sg497
g82
sg498
I203460
ssI1627846
(dp1277
g500
VIowa State
p1278
sg502
V230
p1279
sg504
V2017
p1280
sg506
F24.0
sg507
VSEP 25, 1993
p1281
sg509
V6-6
p1282
sg511
VAbdel Nader
p1283
sg513
I1610612738
sg514
V28
p1284
sg516
g80
sg517
V00
p1285
sg519
g23
sg520
I1627846
ssI203463
(dp1286
g241
VKansas
p1287
sg243
V195
p1288
sg245
V2017
p1289
sg247
F24.0
sg248
VFEB 11, 1993
p1290
sg250
V6-5
p1291
sg252
VBen McLemore
p1292
sg254
I1610612763
sg255
V23
p1293
sg256
g101
sg257
V00
p1294
sg259
g82
sg260
I203463
ssI203499
(dp1295
g500
VMiami (FL)
p1296
sg502
V175
p1297
sg504
V2017
p1298
sg506
F25.0
sg507
VOCT 02, 1992
p1299
sg509
V5-11
p1300
sg511
VShane Larkin
p1301
sg513
I1610612738
sg514
g338
sg516
g17
sg517
V00
p1302
sg519
g82
sg520
I203499
ssI202684
(dp1303
g26
VTexas
p1304
sg28
V238
p1305
sg30
V2017
p1306
sg32
F26.0
sg33
VMAR 13, 1991
p1307
sg35
V6-9
p1308
sg37
VTristan Thompson
p1309
sg39
I1610612739
sg40
V13
p1310
sg42
g179
sg44
V00
p1311
sg46
VC-F
p1312
sg47
I202684
ssI1627852
(dp1313
g49
Nsg51
V195
p1314
sg53
V2017
p1315
sg55
F24.0
sg56
VMAR 02, 1993
p1316
sg58
V6-8
p1317
sg60
VNicolas Brussino
p1318
sg62
I1610612737
sg63
V16
p1319
sg65
g122
sg67
V00
p1320
sg69
g23
sg71
I1627852
ssI1627853
(dp1321
g210
VVillanova
p1322
sg212
V195
p1323
sg214
V2017
p1324
sg216
F23.0
sg217
VMAR 26, 1994
p1325
sg219
V6-3
p1326
sg221
VRyan Arcidiacono
p1327
sg223
I1610612741
sg224
V15
p1328
sg226
g80
sg227
V00
p1329
sg229
g82
sg230
I1627853
ssI1628366
(dp1330
g129
VCalifornia-Los Angeles
p1331
sg131
V190
p1332
sg133
V2017
p1333
sg135
F20.0
sg136
VOCT 27, 1997
p1334
sg138
V6-6
p1335
sg140
VLonzo Ball
p1336
sg142
I1610612747
sg143
g188
sg145
g80
sg146
V00
p1337
sg148
g82
sg149
I1628366
ssI1627855
(dp1338
g301
VFlorida State
p1339
sg303
V215
p1340
sg305
V2017
p1341
sg307
F25.0
sg308
VAUG 13, 1992
p1342
sg310
V6-8
p1343
sg312
VOkaro White
p1344
sg314
I1610612748
sg315
V15
p1345
sg317
g122
sg318
V00
p1346
sg320
g23
sg321
I1627855
ssI201936
(dp1347
g241
VMemphis
p1348
sg243
V220
p1349
sg245
V2017
p1350
sg247
F28.0
sg248
VSEP 19, 1989
p1351
sg250
V6-6
p1352
sg252
VTyreke Evans
p1353
sg254
I1610612763
sg255
V12
p1354
sg256
g338
sg257
V00
p1355
sg259
VG-F
p1356
sg260
I201936
ssI201937
(dp1357
g363
VEl Masnou, Spain
p1358
sg365
V190
p1359
sg367
V2017
p1360
sg369
F27.0
sg370
VOCT 21, 1990
p1361
sg372
V6-4
p1362
sg374
VRicky Rubio
p1363
sg376
I1610612762
sg377
g17
sg379
g179
sg381
V00
p1364
sg383
g82
sg384
I201937
ssI201939
(dp1365
g2
VDavidson
p1366
sg4
V190
p1367
sg6
V2017
p1368
sg8
F29.0
sg9
VMAR 14, 1988
p1369
sg11
V6-3
p1370
sg13
VStephen Curry
p1371
sg15
I1610612744
sg16
V30
p1372
sg18
g338
sg20
V00
p1373
sg22
g82
sg24
I201939
ssI1628372
(dp1374
g341
VNorth Carolina State
p1375
sg343
V195
p1376
sg345
V2017
p1377
sg347
F19.0
sg348
VNOV 25, 1997
p1378
sg350
V6-3
p1379
sg352
VDennis Smith Jr.
p1380
sg354
I1610612742
sg355
g122
sg357
g80
sg358
V00
p1381
sg360
g82
sg361
I1628372
ssI201942
(dp1382
g262
VSouthern California
p1383
sg264
V220
p1384
sg266
V2017
p1385
sg268
F28.0
sg269
VAUG 07, 1989
p1386
sg271
V6-7
p1387
sg273
VDeMar DeRozan
p1388
sg275
I1610612761
sg276
V10
p1389
sg278
g338
sg279
V00
p1390
sg281
g82
sg282
I201942
ssI203991
(dp1391
g556
Nsg558
V240
p1392
sg560
V2017
p1393
sg562
F23.0
sg563
VMAY 18, 1994
p1394
sg565
V6-10
p1395
sg567
VClint Capela
p1396
sg569
I1610612745
sg570
V15
p1397
sg571
g17
sg572
V00
p1398
sg574
g70
sg575
I203991
ssI203481
(dp1399
g341
VKansas
p1400
sg343
V230
p1401
sg345
V2017
p1402
sg347
F27.0
sg348
VMAR 07, 1990
p1403
sg350
V7-0
p1404
sg352
VJeff Withey
p1405
sg354
I1610612742
sg355
V17
p1406
sg357
g101
sg358
V00
p1407
sg360
g70
sg361
I203481
ssI1628378
(dp1408
g363
VLouisville
p1409
sg365
V215
p1410
sg367
V2017
p1411
sg369
F21.0
sg370
VSEP 07, 1996
p1412
sg372
V6-3
p1413
sg374
VDonovan Mitchell
p1414
sg376
I1610612762
sg377
V45
p1415
sg379
g80
sg381
V00
p1416
sg383
g82
sg384
I1628378
ssI201935
(dp1417
g556
VArizona State
p1418
sg558
V220
p1419
sg560
V2017
p1420
sg562
F28.0
sg563
VAUG 26, 1989
p1421
sg565
V6-5
p1422
sg567
VJames Harden
p1423
sg569
I1610612745
sg570
V13
p1424
sg571
g338
sg572
V00
p1425
sg574
g82
sg575
I201935
ssI203484
(dp1426
g129
VGeorgia
p1427
sg131
V205
p1428
sg133
V2017
p1429
sg135
F24.0
sg136
VFEB 18, 1993
p1430
sg138
V6-5
p1431
sg140
VKentavious Caldwell-Pope
p1432
sg142
I1610612747
sg143
g122
sg145
g101
sg146
V00
p1433
sg148
g82
sg149
I203484
ssI201949
(dp1434
g301
VWake Forest
p1435
sg303
V240
p1436
sg305
V2017
p1437
sg307
F30.0
sg308
VFEB 20, 1987
p1438
sg310
V6-8
p1439
sg312
VJames Johnson
p1440
sg314
I1610612748
sg315
V16
p1441
sg317
g338
sg318
V00
p1442
sg320
g23
sg321
I201949
ssI203998
(dp1443
g262
Nsg264
V205
p1444
sg266
V2017
p1445
sg268
F22.0
sg269
VSEP 21, 1995
p1446
sg271
V6-9
p1447
sg273
VBruno Caboclo
p1448
sg275
I1610612761
sg276
g66
sg278
g17
sg279
V00
p1449
sg281
g23
sg282
I203998
ssI203999
(dp1450
g151
Nsg153
V250
p1451
sg155
V2017
p1452
sg157
F22.0
sg158
VFEB 19, 1995
p1453
sg160
V6-10
p1454
sg162
VNikola Jokic
p1455
sg164
I1610612743
sg165
V15
p1456
sg166
g188
sg168
V00
p1457
sg170
g70
sg171
I203999
ssI1628384
(dp1458
g262
VIndiana
p1459
sg264
V235
p1460
sg266
V2017
p1461
sg268
F20.0
sg269
VJUL 17, 1997
p1462
sg271
V6-8
p1463
sg273
VOG Anunoby
p1464
sg275
I1610612761
sg276
g17
sg278
g80
sg279
V00
p1465
sg281
g23
sg282
I1628384
ssI203489
(dp1466
g363
VSouth Dakota State
p1467
sg365
V190
p1468
sg367
V2017
p1469
sg369
F26.0
sg370
VMAY 15, 1991
p1470
sg372
V6-4
p1471
sg374
VNate Wolters
p1472
sg376
I1610612762
sg377
V16
p1473
sg379
g188
sg381
V00
p1474
sg383
g82
sg384
I203489
ssI1627362
(dp1475
g556
VVirginia Commonwealth
p1476
sg558
V165
p1477
sg560
V2017
p1478
sg562
F24.0
sg563
VDEC 29, 1992
p1479
sg565
V6-2
p1480
sg567
VBriante Weber
p1481
sg569
I1610612745
sg570
g187
sg571
g188
sg572
V00
p1482
sg574
g82
sg575
I1627362
ssI201956
(dp1483
g2
VYavne, Israel
p1484
sg4
V225
p1485
sg6
V2017
p1486
sg8
F29.0
sg9
VJUN 22, 1988
p1487
sg11
V6-9
p1488
sg13
VOmri Casspi
p1489
sg15
I1610612744
sg16
V18
p1490
sg18
g338
sg20
V00
p1491
sg22
g23
sg24
I201956
ssI1628389
(dp1492
g301
VKentucky
p1493
sg303
V255
p1494
sg305
V2017
p1495
sg307
F20.0
sg308
VJUL 18, 1997
p1496
sg310
V6-10
p1497
sg312
VBam Adebayo
p1498
sg314
I1610612748
sg315
V13
p1499
sg317
g80
sg318
V00
p1500
sg320
VC-F
p1501
sg321
I1628389
ssI1628390
(dp1502
g478
Nsg480
V184
p1503
sg482
V2017
p1504
sg484
F19.0
sg485
VMAY 17, 1998
p1505
sg487
V6-7
p1506
sg489
VTerrance Ferguson
p1507
sg491
I1610612760
sg492
V23
p1508
sg494
g80
sg495
V00
p1509
sg497
g82
sg498
I1628390
ssI1628391
(dp1510
g437
VMichigan
p1511
sg439
V236
p1512
sg441
V2017
p1513
sg443
F21.0
sg444
VFEB 19, 1996
p1514
sg446
V6-10
p1515
sg448
VD.J. Wilson
p1516
sg450
I1610612749
sg451
g66
sg453
g80
sg454
V00
p1517
sg456
g23
sg457
I1628391
ssI203497
(dp1518
g363
VFrance
p1519
sg365
V245
p1520
sg367
V2017
p1521
sg369
F25.0
sg370
VJUN 26, 1992
p1522
sg372
V7-1
p1523
sg374
VRudy Gobert
p1524
sg376
I1610612762
sg377
V27
p1525
sg379
g101
sg381
V00
p1526
sg383
g70
sg384
I203497
ssI1627883
(dp1527
g84
VTexas A&M
p1528
sg86
V220
p1529
sg88
V2017
p1530
sg90
F24.0
sg91
VMAY 27, 1993
p1531
sg93
V6-7
p1532
sg95
VJalen Jones
p1533
sg97
I1610612740
sg98
V12
p1534
sg100
g80
sg102
V00
p1535
sg104
g23
sg105
I1627883
ssI1628396
(dp1536
g363
VNorth Carolina
p1537
sg365
V248
p1538
sg367
V2017
p1539
sg369
F19.0
sg370
VJAN 08, 1998
p1540
sg372
V6-10
p1541
sg374
VTony Bradley
p1542
sg376
I1610612762
sg377
V13
p1543
sg379
g80
sg381
V00
p1544
sg383
g70
sg384
I1628396
ssI1628397
(dp1545
g241
VCalifornia
p1546
sg243
V220
p1547
sg245
V2017
p1548
sg247
F20.0
sg248
VFEB 04, 1997
p1549
sg250
V6-10
p1550
sg252
VIvan Rabb
p1551
sg254
I1610612763
sg255
V10
p1552
sg256
g80
sg257
V00
p1553
sg259
g23
sg260
I1628397
ssI1628398
(dp1554
g129
VUtah
p1555
sg131
V220
p1556
sg133
V2017
p1557
sg135
F22.0
sg136
VJUL 24, 1995
p1558
sg138
V6-9
p1559
sg140
VKyle Kuzma
p1560
sg142
I1610612747
sg143
g187
sg145
g80
sg146
V00
p1561
sg148
g23
sg149
I1628398
ssI203503
(dp1562
g437
VNew Mexico
p1563
sg439
V221
p1564
sg441
V2017
p1565
sg443
F26.0
sg444
VNOV 10, 1991
p1566
sg446
V6-7
p1567
sg448
VTony Snell
p1568
sg450
I1610612749
sg451
V21
p1569
sg453
g101
sg454
V00
p1570
sg456
g82
sg457
I203503
ssI1628400
(dp1571
g500
VSouthern Methodist
p1572
sg502
V235
p1573
sg504
V2017
p1574
sg506
F22.0
sg507
VDEC 05, 1994
p1575
sg509
V6-7
p1576
sg511
VSemi Ojeleye
p1577
sg513
I1610612738
sg514
V37
p1578
sg516
g80
sg517
V00
p1579
sg519
g23
sg520
I1628400
ssI203505
(dp1580
g129
VMarquette
p1581
sg131
V200
p1582
sg133
V2017
p1583
sg135
F25.0
sg136
VJUL 17, 1992
p1584
sg138
V6-5
p1585
sg140
VVander Blue
p1586
sg142
I1610612747
sg143
V17
p1587
sg145
g188
sg146
V00
p1588
sg148
g82
sg149
I203505
ssI1628402
(dp1589
g84
VDuke
p1590
sg86
V205
p1591
sg88
V2017
p1592
sg90
F19.0
sg91
VMAY 04, 1998
p1593
sg93
V6-3
p1594
sg95
VFrank Jackson
p1595
sg97
I1610612740
sg98
V15
p1596
sg100
g80
sg102
V00
p1597
sg104
g82
sg105
I1628402
ssI203507
(dp1598
g437
VGreece
p1599
sg439
V222
p1600
sg441
V2017
p1601
sg443
F22.0
sg444
VDEC 06, 1994
p1602
sg446
V6-11
p1603
sg448
VGiannis Antetokounmpo
p1604
sg450
I1610612749
sg451
V34
p1605
sg453
g101
sg454
V00
p1606
sg456
g23
sg457
I203507
ssI204020
(dp1607
g301
VFresno State
p1608
sg303
V190
p1609
sg305
V2017
p1610
sg307
F25.0
sg308
VMAY 07, 1992
p1611
sg310
V6-4
p1612
sg312
VTyler Johnson
p1613
sg314
I1610612748
sg315
g338
sg317
g17
sg318
V00
p1614
sg320
g82
sg321
I204020
ssI201973
(dp1615
g363
VKinna, Sweden
p1616
sg365
V231
p1617
sg367
V2017
p1618
sg369
F30.0
sg370
VMAR 02, 1987
p1619
sg372
V6-10
p1620
sg374
VJonas Jerebko
p1621
sg376
I1610612762
sg377
g338
sg379
g290
sg381
V00
p1622
sg383
g23
sg384
I201973
ssI203512
(dp1623
g262
Nsg264
V220
p1624
sg266
V2017
p1625
sg268
F25.0
sg269
VJUL 26, 1992
p1626
sg271
V7-0
p1627
sg273
VLucas Nogueira
p1628
sg275
I1610612761
sg276
V92
p1629
sg278
g17
sg279
V00
p1630
sg281
g70
sg282
I203512
ssI2772
(dp1631
g556
VUCLA
p1632
sg558
V215
p1633
sg560
V2017
p1634
sg562
F32.0
sg563
VJUN 30, 1985
p1635
sg565
V6-8
p1636
sg567
VTrevor Ariza
p1637
sg569
I1610612745
sg570
g122
sg571
V13
p1638
sg572
V00
p1639
sg574
VF-G
p1640
sg575
I2772
ssI203903
(dp1641
g129
VMissouri
p1642
sg131
V194
p1643
sg133
V2017
p1644
sg135
F25.0
sg136
VJUN 07, 1992
p1645
sg138
V6-5
p1646
sg140
VJordan Clarkson
p1647
sg142
I1610612747
sg143
g179
sg145
g17
sg146
V00
p1648
sg148
g82
sg149
I203903
ssI203516
(dp1649
g241
VLong Beach State
p1650
sg243
V210
p1651
sg245
V2017
p1652
sg247
F27.0
sg248
VJUL 01, 1990
p1653
sg250
V6-7
p1654
sg252
VJames Ennis III
p1655
sg254
I1610612763
sg255
g338
sg256
g17
sg257
V00
p1656
sg259
g23
sg260
I203516
ssI203518
(dp1657
g478
Nsg480
V190
p1658
sg482
V2017
p1659
sg484
F24.0
sg485
VAUG 01, 1993
p1660
sg487
V6-6
p1661
sg489
VAlex Abrines
p1662
sg491
I1610612760
sg492
g338
sg494
g122
sg495
V00
p1663
sg497
g82
sg498
I203518
ssI1628415
(dp1664
g241
VOregon
p1665
sg243
V220
p1666
sg245
V2017
p1667
sg247
F21.0
sg248
VJAN 22, 1996
p1668
sg250
V6-6
p1669
sg252
VDillon Brooks
p1670
sg254
I1610612763
sg255
V24
p1671
sg256
g80
sg257
V00
p1672
sg259
VF-G
p1673
sg260
I1628415
ssI1628416
(dp1674
g49
VOregon
p1675
sg51
V183
p1676
sg53
V2017
p1677
sg55
F21.0
sg56
VFEB 18, 1996
p1678
sg58
V6-4
p1679
sg60
VTyler Dorsey
p1680
sg62
I1610612737
sg63
g188
sg65
g80
sg67
V00
p1681
sg69
g82
sg71
I1628416
ssI203521
(dp1682
g437
VSaint Mary's (CA)
p1683
sg439
V198
p1684
sg441
V2017
p1685
sg443
F27.0
sg444
VSEP 08, 1990
p1686
sg446
V6-4
p1687
sg448
VMatthew Dellavedova
p1688
sg450
I1610612749
sg451
g338
sg453
g101
sg454
V00
p1689
sg456
g82
sg457
I203521
ssI1628418
(dp1690
g129
VIndiana
p1691
sg131
V248
p1692
sg133
V2017
p1693
sg135
F20.0
sg136
VJUL 31, 1997
p1694
sg138
V6-10
p1695
sg140
VThomas Bryant
p1696
sg142
I1610612747
sg143
V31
p1697
sg145
g80
sg146
V00
p1698
sg148
g70
sg149
I1628418
ssI1628506
(dp1699
g26
VVirginia
p1700
sg28
V190
p1701
sg30
V2017
p1702
sg32
F23.0
sg33
VOCT 03, 1994
p1703
sg35
V6-2
p1704
sg37
VLondon Perrantes
p1705
sg39
I1610612739
sg40
V15
p1706
sg42
g80
sg44
V00
p1707
sg46
g82
sg47
I1628506
ssI1628420
(dp1708
g151
VIowa State
p1709
sg153
V175
p1710
sg155
V2017
p1711
sg157
F22.0
sg158
VJUN 27, 1995
p1712
sg160
V6-3
p1713
sg162
VMonte Morris
p1714
sg164
I1610612743
sg165
V11
p1715
sg166
g80
sg168
V00
p1716
sg170
g82
sg171
I1628420
ssI1627770
(dp1717
g210
VOakland
p1718
sg212
V176
p1719
sg214
V2017
p1720
sg216
F22.0
sg217
VMAR 29, 1995
p1721
sg219
V5-9
p1722
sg221
VKay Felder
p1723
sg223
I1610612741
sg224
g17
sg226
g122
sg227
V00
p1724
sg229
g82
sg230
I1627770
ssI203526
(dp1725
g363
Nsg365
V179
p1726
sg367
V2017
p1727
sg369
F25.0
sg370
VMAY 19, 1992
p1728
sg372
V6-1
p1729
sg374
VRaul Neto
p1730
sg376
I1610612762
sg377
V25
p1731
sg379
g188
sg381
V00
p1732
sg383
g82
sg384
I203526
ssI1628424
(dp1733
g241
VArizona
p1734
sg243
V170
p1735
sg245
V2017
p1736
sg247
F20.0
sg248
VJUL 04, 1997
p1737
sg250
V6-4
p1738
sg252
VKobi Simmons
p1739
sg254
I1610612763
sg255
g188
sg256
g80
sg257
V00
p1740
sg259
g82
sg260
I1628424
ssI1628425
(dp1741
g437
VSouthern Methodist
p1742
sg439
V230
p1743
sg441
V2017
p1744
sg443
F22.0
sg444
VFEB 10, 1995
p1745
sg446
V6-6
p1746
sg448
VSterling Brown
p1747
sg450
I1610612749
sg451
V23
p1748
sg453
g80
sg454
V00
p1749
sg456
g82
sg457
I1628425
ssI1628429
(dp1750
g84
VDayton
p1751
sg86
V196
p1752
sg88
V2017
p1753
sg90
F23.0
sg91
VJUL 01, 1994
p1754
sg93
V6-5
p1755
sg95
VCharles Cooke
p1756
sg97
I1610612740
sg98
g101
sg100
g80
sg102
V00
p1757
sg104
g82
sg105
I1628429
ssI101139
(dp1758
g262
VSkyline HS (TX)
p1759
sg264
V225
p1760
sg266
V2017
p1761
sg268
F30.0
sg269
VMAR 18, 1987
p1762
sg271
V6-6
p1763
sg273
VCJ Miles
p1764
sg275
I1610612761
sg276
g187
sg278
V12
p1765
sg279
V00
p1766
sg281
VF-G
p1767
sg282
I101139
ssI101141
(dp1768
g49
VEskisehir, Turkey
p1769
sg51
V235
p1770
sg53
V2017
p1771
sg55
F30.0
sg56
VMAY 15, 1987
p1772
sg58
V6-10
p1773
sg60
VErsan Ilyasova
p1774
sg62
I1610612737
sg63
g290
sg65
g43
sg67
V00
p1775
sg69
g23
sg71
I101141
ssI201177
(dp1776
g341
VDuke
p1777
sg343
V240
p1778
sg345
V2017
p1779
sg347
F30.0
sg348
VFEB 28, 1987
p1780
sg350
V6-10
p1781
sg352
VJosh McRoberts
p1782
sg354
I1610612742
sg355
V13
p1783
sg357
V10
p1784
sg358
V00
p1785
sg360
VF-C
p1786
sg361
I201177
ssI203546
(dp1787
g84
VBelmont
p1788
sg86
V175
p1789
sg88
V2017
p1790
sg90
F26.0
sg91
VMAR 07, 1991
p1791
sg93
V6-3
p1792
sg95
VIan Clark
p1793
sg97
I1610612740
sg98
g188
sg100
g101
sg102
V00
p1794
sg104
g82
sg105
I203546
ssI203547
(dp1795
g363
VCampbell
p1796
sg365
V205
p1797
sg367
V2017
p1798
sg369
F27.0
sg370
VMAY 26, 1990
p1799
sg372
V6-8
p1800
sg374
VEric Griffin
p1801
sg376
I1610612762
sg377
V17
p1802
sg379
g80
sg381
V00
p1803
sg383
VC-F
p1804
sg384
I203547
ssI204060
(dp1805
g363
Nsg365
V226
p1806
sg367
V2017
p1807
sg369
F30.0
sg370
VOCT 02, 1987
p1808
sg372
V6-8
p1809
sg374
VJoe Ingles
p1810
sg376
I1610612762
sg377
g188
sg379
g17
sg381
V00
p1811
sg383
g23
sg384
I204060
ssI203482
(dp1812
g301
VGonzaga
p1813
sg303
V245
p1814
sg305
V2017
p1815
sg307
F26.0
sg308
VAPR 19, 1991
p1816
sg310
V7-0
p1817
sg312
VKelly Olynyk
p1818
sg314
I1610612748
sg315
g43
sg317
g101
sg318
V00
p1819
sg320
VC-F
p1820
sg321
I203482
ssI101150
(dp1821
g107
VSouth Gwinnett HS (GA)
p1822
sg109
V175
p1823
sg111
V2017
p1824
sg113
F31.0
sg114
VOCT 27, 1986
p1825
sg116
V6-1
p1826
sg118
VLou Williams
p1827
sg120
I1610612746
sg121
V23
p1828
sg123
V12
p1829
sg124
V00
p1830
sg126
g82
sg127
I101150
ssI1626245
(dp1831
g210
Nsg212
V280
p1832
sg214
V2017
p1833
sg216
F25.0
sg217
VJUL 07, 1992
p1834
sg219
V6-9
p1835
sg221
VCristiano Felicio
p1836
sg223
I1610612741
sg224
g179
sg226
g188
sg227
V00
p1837
sg229
VC-F
p1838
sg230
I1626245
ssI203552
(dp1839
g341
VDuke
p1840
sg343
V185
p1841
sg345
V2017
p1842
sg347
F27.0
sg348
VAUG 23, 1990
p1843
sg350
V6-2
p1844
sg352
VSeth Curry
p1845
sg354
I1610612742
sg355
V30
p1846
sg357
g101
sg358
V00
p1847
sg360
g82
sg361
I203552
ssI1628449
(dp1848
g2
VOregon
p1849
sg4
V200
p1850
sg6
V2017
p1851
sg8
F24.0
sg9
VJAN 11, 1993
p1852
sg11
V6-10
p1853
sg13
VChris Boucher
p1854
sg15
I1610612744
sg16
V25
p1855
sg18
g80
sg20
V00
p1856
sg22
g23
sg24
I1628449
ssI204066
(dp1857
g26
VBoston U.
p1858
sg28
V205
p1859
sg30
V2017
p1860
sg32
F29.0
sg33
VNOV 06, 1988
p1861
sg35
V6-5
p1862
sg37
VJohn Holland
p1863
sg39
I1610612739
sg40
V10
p1864
sg42
g122
sg44
V00
p1865
sg46
VG-F
p1866
sg47
I204066
ssI203145
(dp1867
g49
VOld Dominion
p1868
sg51
V201
p1869
sg53
V2017
p1870
sg55
F28.0
sg56
VJUL 01, 1989
p1871
sg58
V6-5
p1872
sg60
VKent Bazemore
p1873
sg62
I1610612737
sg63
V24
p1874
sg65
g66
sg67
V00
p1875
sg69
g82
sg71
I203145
ssI101108
(dp1876
g556
VWake Forest
p1877
sg558
V175
p1878
sg560
V2017
p1879
sg562
F32.0
sg563
VMAY 06, 1985
p1880
sg565
V6-0
p1881
sg567
VChris Paul
p1882
sg569
I1610612745
sg570
g17
sg571
V12
p1883
sg572
V00
p1884
sg574
g82
sg575
I101108
ssI1628462
(dp1885
g107
Nsg109
V196
p1886
sg111
V2017
p1887
sg113
F30.0
sg114
VMAR 19, 1987
p1888
sg116
V6-5
p1889
sg118
VMilos Teodosic
p1890
sg120
I1610612746
sg121
g101
sg123
g80
sg124
V00
p1891
sg126
g82
sg127
I1628462
ssI203485
(dp1892
g262
VNorth Carolina State
p1893
sg264
V189
p1894
sg266
V2017
p1895
sg268
F27.0
sg269
VAUG 26, 1990
p1896
sg271
V6-5
p1897
sg273
VLorenzo Brown
p1898
sg275
I1610612761
sg276
g101
sg278
g17
sg279
V00
p1899
sg281
g82
sg282
I203485
ssI1628464
(dp1900
g500
Nsg502
V243
p1901
sg504
V2017
p1902
sg506
F25.0
sg507
VAPR 04, 1992
p1903
sg509
V6-9
p1904
sg511
VDaniel Theis
p1905
sg513
I1610612738
sg514
V27
p1906
sg516
g80
sg517
V00
p1907
sg519
VF-C
p1908
sg520
I1628464
ssI1628467
(dp1909
g341
Nsg343
V220
p1910
sg345
V2017
p1911
sg347
F25.0
sg348
VJAN 29, 1992
p1912
sg350
V6-11
p1913
sg352
VMaxi Kleber
p1914
sg354
I1610612742
sg355
V42
p1915
sg357
g80
sg358
V00
p1916
sg360
g23
sg361
I1628467
ssI203486
(dp1917
g151
VDuke
p1918
sg153
V255
p1919
sg155
V2017
p1920
sg157
F27.0
sg158
VMAR 05, 1990
p1921
sg160
V6-11
p1922
sg162
VMason Plumlee
p1923
sg164
I1610612743
sg165
V24
p1924
sg166
g101
sg168
V00
p1925
sg170
VC-F
p1926
sg171
I203486
ssI1628470
(dp1927
g151
VSouth Carolina Upstate
p1928
sg153
V215
p1929
sg155
V2017
p1930
sg157
F26.0
sg158
VDEC 19, 1990
p1931
sg160
V6-6
p1932
sg162
VTorrey Craig
p1933
sg164
I1610612743
sg165
g17
sg166
g80
sg168
V00
p1934
sg170
VG-F
p1935
sg171
I1628470
ssI2738
(dp1936
g2
VArizona
p1937
sg4
V215
p1938
sg6
V2017
p1939
sg8
F33.0
sg9
VJAN 28, 1984
p1940
sg11
V6-6
p1941
sg13
VAndre Iguodala
p1942
sg15
I1610612744
sg16
g43
sg18
V13
p1943
sg20
V00
p1944
sg22
VG-F
p1945
sg24
I2738
ssI1628475
(dp1946
g301
VCentral Florida
p1947
sg303
V210
p1948
sg305
V2017
p1949
sg307
F24.0
sg308
VOCT 14, 1993
p1950
sg310
V6-5
p1951
sg312
VMatt Williams Jr.
p1952
sg314
I1610612748
sg315
V12
p1953
sg317
g80
sg318
V00
p1954
sg320
g82
sg321
I1628475
ssI1628476
(dp1955
g301
VMichigan
p1956
sg303
V185
p1957
sg305
V2017
p1958
sg307
F22.0
sg308
VAPR 03, 1995
p1959
sg310
V6-1
p1960
sg312
VDerrick Walton Jr.
p1961
sg314
I1610612748
sg315
V14
p1962
sg317
g80
sg318
V00
p1963
sg320
g82
sg321
I1628476
ssI1627786
(dp1964
g556
VIndiana
p1965
sg558
V218
p1966
sg560
V2017
p1967
sg562
F22.0
sg563
VDEC 30, 1994
p1968
sg565
V6-7
p1969
sg567
VTroy Williams
p1970
sg569
I1610612745
sg570
g66
sg571
g122
sg572
V00
p1971
sg574
g23
sg575
I1627786
ssI1628469
(dp1972
g210
VLouisiana State
p1973
sg212
V197
p1974
sg214
V2017
p1975
sg216
F21.0
sg217
VOCT 04, 1996
p1976
sg219
V6-4
p1977
sg221
VAntonio Blakeney
p1978
sg223
I1610612741
sg224
g43
sg226
g80
sg227
V00
p1979
sg229
g82
sg230
I1628469
ssI203585
(dp1980
g301
VKansas State
p1981
sg303
V200
p1982
sg305
V2017
p1983
sg307
F26.0
sg308
VJUL 29, 1991
p1984
sg310
V6-4
p1985
sg312
VRodney McGruder
p1986
sg314
I1610612748
sg315
V17
p1987
sg317
g122
sg318
V00
p1988
sg320
VG-F
p1989
sg321
I203585
ssI203076
(dp1990
g84
VKentucky
p1991
sg86
V253
p1992
sg88
V2017
p1993
sg90
F24.0
sg91
VMAR 11, 1993
p1994
sg93
V6-10
p1995
sg95
VAnthony Davis
p1996
sg97
I1610612740
sg98
V23
p1997
sg100
g66
sg102
V00
p1998
sg104
VF-C
p1999
sg105
I203076
ssI203079
(dp2000
g301
VSyracuse
p2001
sg303
V215
p2002
sg305
V2017
p2003
sg307
F25.0
sg308
VDEC 10, 1991
p2004
sg310
V6-4
p2005
sg312
VDion Waiters
p2006
sg314
I1610612748
sg315
V11
p2007
sg317
g66
sg318
V00
p2008
sg320
g82
sg321
I203079
ssI1628369
(dp2009
g500
VDuke
p2010
sg502
V205
p2011
sg504
V2017
p2012
sg506
F19.0
sg507
VMAR 03, 1998
p2013
sg509
V6-8
p2014
sg511
VJayson Tatum
p2015
sg513
I1610612738
sg514
g187
sg516
g80
sg517
V00
p2016
sg519
g23
sg520
I1628369
ssI1628492
(dp2017
g341
VColorado State
p2018
sg343
V185
p2019
sg345
V2017
p2020
sg347
F23.0
sg348
VNOV 26, 1993
p2021
sg350
V6-4
p2022
sg352
VGian Clavell
p2023
sg354
I1610612742
sg355
g338
sg357
g80
sg358
V00
p2024
sg360
g82
sg361
I1628492
ssI203085
(dp2025
g107
VDuke
p2026
sg109
V200
p2027
sg111
V2017
p2028
sg113
F25.0
sg114
VAUG 01, 1992
p2029
sg116
V6-4
p2030
sg118
VAustin Rivers
p2031
sg120
I1610612746
sg121
V25
p2032
sg123
g66
sg124
V00
p2033
sg126
g82
sg127
I203085
ssI203089
(dp2034
g437
VNorth Carolina
p2035
sg439
V229
p2036
sg441
V2017
p2037
sg443
F26.0
sg444
VDEC 28, 1990
p2038
sg446
V6-11
p2039
sg448
VJohn Henson
p2040
sg450
I1610612749
sg451
V31
p2041
sg453
g66
sg454
V00
p2042
sg456
VF-C
p2043
sg457
I203089
ssI1627790
(dp2044
g26
Nsg28
V250
p2045
sg30
V2017
p2046
sg32
F20.0
sg33
VJAN 04, 1997
p2047
sg35
V6-11
p2048
sg37
VAnte Zizic
p2049
sg39
I1610612739
sg40
V41
p2050
sg42
g80
sg44
V00
p2051
sg46
VF-C
p2052
sg47
I1627790
ssI201976
(dp2053
g107
VArkansas
p2054
sg109
V185
p2055
sg111
V2017
p2056
sg113
F29.0
sg114
VJUL 12, 1988
p2057
sg116
V6-1
p2058
sg118
VPatrick Beverley
p2059
sg120
I1610612746
sg121
V21
p2060
sg123
g66
sg124
V00
p2061
sg126
g82
sg127
I201976
ssI1627824
(dp2062
g500
Nsg502
V260
p2063
sg504
V2017
p2064
sg506
F21.0
sg507
VDEC 17, 1995
p2065
sg509
V6-8
p2066
sg511
VGuerschon Yabusele
p2067
sg513
I1610612738
sg514
V30
p2068
sg516
g80
sg517
V00
p2069
sg519
g23
sg520
I1627824
ssI2747
(dp2070
g26
VSt. Benedict's Prep (NJ)
p2071
sg28
V225
p2072
sg30
V2017
p2073
sg32
F32.0
sg33
VSEP 09, 1985
p2074
sg35
V6-6
p2075
sg37
VJR Smith
p2076
sg39
I1610612739
sg40
g66
sg42
V13
p2077
sg44
V00
p2078
sg46
VG-F
p2079
sg47
I2747
ssI201565
(dp2080
g26
VMemphis
p2081
sg28
V190
p2082
sg30
V2017
p2083
sg32
F29.0
sg33
VOCT 04, 1988
p2084
sg35
V6-3
p2085
sg37
VDerrick Rose
p2086
sg39
I1610612739
sg40
g122
sg42
g338
sg44
V00
p2087
sg46
g82
sg47
I201565
ssI201566
(dp2088
g478
VUCLA
p2089
sg480
V200
p2090
sg482
V2017
p2091
sg484
F28.0
sg485
VNOV 12, 1988
p2092
sg487
V6-3
p2093
sg489
VRussell Westbrook
p2094
sg491
I1610612760
sg492
g187
sg494
g43
sg495
V00
p2095
sg497
g82
sg498
I201566
ssI201567
(dp2096
g26
VUCLA
p2097
sg28
V251
p2098
sg30
V2017
p2099
sg32
F29.0
sg33
VSEP 07, 1988
p2100
sg35
V6-10
p2101
sg37
VKevin Love
p2102
sg39
I1610612739
sg40
g187
sg42
g43
sg44
V00
p2103
sg46
VF-C
p2104
sg47
I201567
ssI201568
(dp2105
g107
VSant'Angelo Lodigiano, Italy
p2106
sg109
V225
p2107
sg111
V2017
p2108
sg113
F29.0
sg114
VAUG 08, 1988
p2109
sg116
V6-10
p2110
sg118
VDanilo Gallinari
p2111
sg120
I1610612746
sg121
g338
sg123
g338
sg124
V00
p2112
sg126
g23
sg127
I201568
ssI201569
(dp2113
g556
VIndiana
p2114
sg558
V215
p2115
sg560
V2017
p2116
sg562
F28.0
sg563
VDEC 25, 1988
p2117
sg565
V6-4
p2118
sg567
VEric Gordon
p2119
sg569
I1610612745
sg570
V10
p2120
sg571
g43
sg572
V00
p2121
sg574
g82
sg575
I201569
ssI1891
(dp2122
g437
VArizona
p2123
sg439
V185
p2124
sg441
V2017
p2125
sg443
F40.0
sg444
VSEP 15, 1977
p2126
sg446
V6-2
p2127
sg448
VJason Terry
p2128
sg450
I1610612749
sg451
g17
sg453
V18
p2129
sg454
V00
p2130
sg456
g82
sg457
I1891
ssI201572
(dp2131
g129
VStanford
p2132
sg131
V268
p2133
sg133
V2017
p2134
sg135
F29.0
sg136
VAPR 01, 1988
p2135
sg138
V7-0
p2136
sg140
VBrook Lopez
p2137
sg142
I1610612747
sg143
V11
p2138
sg145
g43
sg146
V00
p2139
sg148
g70
sg149
I201572
ssI203109
(dp2140
g26
VMarquette
p2141
sg28
V235
p2142
sg30
V2017
p2143
sg32
F27.0
sg33
VJUL 06, 1990
p2144
sg35
V6-6
p2145
sg37
VJae Crowder
p2146
sg39
I1610612739
sg40
V99
p2147
sg42
g66
sg44
V00
p2148
sg46
g23
sg47
I203109
ssI203110
(dp2149
g2
VMichigan State
p2150
sg4
V230
p2151
sg6
V2017
p2152
sg8
F27.0
sg9
VMAR 04, 1990
p2153
sg11
V6-7
p2154
sg13
VDraymond Green
p2155
sg15
I1610612744
sg16
V23
p2156
sg18
g66
sg20
V00
p2157
sg22
g23
sg24
I203110
ssI201577
(dp2158
g210
VStanford
p2159
sg212
V277
p2160
sg214
V2017
p2161
sg216
F29.0
sg217
VAPR 01, 1988
p2162
sg219
V7-0
p2163
sg221
VRobin Lopez
p2164
sg223
I1610612741
sg224
V42
p2165
sg226
g43
sg227
V00
p2166
sg229
g70
sg230
I201577
ssI203114
(dp2167
g437
VTexas A&M
p2168
sg439
V234
p2169
sg441
V2017
p2170
sg443
F26.0
sg444
VAUG 12, 1991
p2171
sg446
V6-8
p2172
sg448
VKhris Middleton
p2173
sg450
I1610612749
sg451
V22
p2174
sg453
g66
sg454
V00
p2175
sg456
g23
sg457
I203114
ssI203115
(dp2176
g151
VMemphis
p2177
sg153
V190
p2178
sg155
V2017
p2179
sg157
F26.0
sg158
VJAN 06, 1991
p2180
sg160
V6-6
p2181
sg162
VWill Barton
p2182
sg164
I1610612743
sg165
g66
sg166
g66
sg168
V00
p2183
sg170
VG-F
p2184
sg171
I203115
ssI201580
(dp2185
g2
VNevada
p2186
sg4
V270
p2187
sg6
V2017
p2188
sg8
F29.0
sg9
VJAN 19, 1988
p2189
sg11
V7-0
p2190
sg13
VJaVale McGee
p2191
sg15
I1610612744
sg16
g122
sg18
g43
sg20
V00
p2192
sg22
g70
sg24
I201580
ssI101112
(dp2193
g26
VArizona
p2194
sg28
V255
p2195
sg30
V2017
p2196
sg32
F34.0
sg33
VMAY 17, 1983
p2197
sg35
V6-11
p2198
sg37
VChanning Frye
p2199
sg39
I1610612739
sg40
g338
sg42
V11
p2200
sg44
V00
p2201
sg46
g23
sg47
I101112
ssI201582
(dp2202
g84
VSaint Etienne, France
p2203
sg86
V248
p2204
sg88
V2017
p2205
sg90
F29.0
sg91
VMAY 06, 1988
p2206
sg93
V7-2
p2207
sg95
VAlexis Ajinca
p2208
sg97
I1610612740
sg98
V42
p2209
sg100
g290
sg102
V00
p2210
sg104
g70
sg105
I201582
ssI200765
(dp2211
g84
VKentucky
p2212
sg86
V186
p2213
sg88
V2017
p2214
sg90
F31.0
sg91
VFEB 22, 1986
p2215
sg93
V6-1
p2216
sg95
VRajon Rondo
p2217
sg97
I1610612740
sg98
g43
sg100
V11
p2218
sg102
V00
p2219
sg104
g82
sg105
I200765
ssI1717
(dp2220
g341
VWurzburg, Germany
p2221
sg343
V245
p2222
sg345
V2017
p2223
sg347
F39.0
sg348
VJUN 19, 1978
p2224
sg350
V7-0
p2225
sg352
VDirk Nowitzki
p2226
sg354
I1610612742
sg355
V41
p2227
sg357
V19
p2228
sg358
V00
p2229
sg360
VF-C
p2230
sg361
I1717
ssI201586
(dp2231
g262
VBrazzaville, Rep. of Congo
p2232
sg264
V235
p2233
sg266
V2017
p2234
sg268
F28.0
sg269
VSEP 18, 1989
p2235
sg271
V6-10
p2236
sg273
VSerge Ibaka
p2237
sg275
I1610612761
sg276
g43
sg278
g338
sg279
V00
p2238
sg281
g23
sg282
I201586
ssI201589
(dp2239
g151
VKansas
p2240
sg153
V235
p2241
sg155
V2017
p2242
sg157
F29.0
sg158
VMAR 25, 1988
p2243
sg160
V6-9
p2244
sg162
VDarrell Arthur
p2245
sg164
I1610612743
sg165
V00
p2246
sg166
g338
sg168
V00
p2247
sg170
g23
sg171
I201589
ssI201961
(dp2248
g301
VNorth Carolina
p2249
sg303
V200
p2250
sg305
V2017
p2251
sg307
F29.0
sg308
VNOV 29, 1987
p2252
sg310
V6-5
p2253
sg312
VWayne Ellington
p2254
sg314
I1610612748
sg315
g188
sg317
g338
sg318
V00
p2255
sg320
g82
sg321
I201961
ssI201596
(dp2256
g241
VKansas
p2257
sg243
V190
p2258
sg245
V2017
p2259
sg247
F31.0
sg248
VMAY 19, 1986
p2260
sg250
V6-2
p2261
sg252
VMario Chalmers
p2262
sg254
I1610612763
sg255
g179
sg256
g338
sg257
V00
p2263
sg259
g82
sg260
I201596
ssI201599
(dp2264
g107
VTexas A&M
p2265
sg109
V265
p2266
sg111
V2017
p2267
sg113
F29.0
sg114
VJUL 21, 1988
p2268
sg116
V6-11
p2269
sg118
VDeAndre Jordan
p2270
sg120
I1610612746
sg121
g179
sg123
g43
sg124
V00
p2271
sg126
g70
sg127
I201599
ssI201600
(dp2272
g84
VTurkey
p2273
sg86
V255
p2274
sg88
V2017
p2275
sg90
F31.0
sg91
VJUL 04, 1986
p2276
sg93
V7-0
p2277
sg95
VOmer Asik
p2278
sg97
I1610612740
sg98
g17
sg100
g290
sg102
V00
p2279
sg104
g70
sg105
I201600
ssI201601
(dp2280
g556
VUCLA
p2281
sg558
V230
p2282
sg560
V2017
p2283
sg562
F31.0
sg563
VSEP 09, 1986
p2284
sg565
V6-8
p2285
sg567
VLuc Mbah a Moute
p2286
sg569
I1610612745
sg570
V12
p2287
sg571
g43
sg572
V00
p2288
sg574
g23
sg575
I201601
ssI1628035
(dp2289
g262
VWisc.-Green Bay
p2290
sg264
V215
p2291
sg266
V2017
p2292
sg268
F25.0
sg269
VSEP 17, 1992
p2293
sg271
V6-8
p2294
sg273
VAlfonzo McKinnie
p2295
sg275
I1610612761
sg276
V34
p2296
sg278
g80
sg279
V00
p2297
sg281
g23
sg282
I1628035
ssI203141
(dp2298
g437
VBosnia
p2299
sg439
V242
p2300
sg441
V2017
p2301
sg443
F32.0
sg444
VSEP 17, 1985
p2302
sg446
V6-9
p2303
sg448
VMirza Teletovic
p2304
sg450
I1610612749
sg451
V35
p2305
sg453
g66
sg454
V00
p2306
sg456
g23
sg457
I203141
ssI201609
(dp2307
g301
VLjubljana, Slovenia
p2308
sg303
V190
p2309
sg305
V2017
p2310
sg307
F31.0
sg308
VMAY 06, 1986
p2311
sg310
V6-3
p2312
sg312
VGoran Dragic
p2313
sg314
I1610612748
sg315
g290
sg317
g43
sg318
V00
p2314
sg320
g82
sg321
I201609
ssI203935
(dp2315
g500
VOklahoma State
p2316
sg502
V220
p2317
sg504
V2017
p2318
sg506
F23.0
sg507
VMAR 06, 1994
p2319
sg509
V6-4
p2320
sg511
VMarcus Smart
p2321
sg513
I1610612738
sg514
V36
p2322
sg516
g17
sg517
V00
p2323
sg519
g82
sg520
I203935
ssI1628399
(dp2324
g151
VSyracuse
p2325
sg153
V220
p2326
sg155
V2017
p2327
sg157
F21.0
sg158
VAPR 09, 1996
p2328
sg160
V6-9
p2329
sg162
VTyler Lydon
p2330
sg164
I1610612743
sg165
V20
p2331
sg166
g80
sg168
V00
p2332
sg170
g23
sg171
I1628399
ssI201628
(dp2333
g556
VCal State-Fullerton
p2334
sg558
V175
p2335
sg560
V2017
p2336
sg562
F33.0
sg563
VSEP 24, 1984
p2337
sg565
V6-2
p2338
sg567
VBobby Brown
p2339
sg569
I1610612745
sg570
g179
sg571
g17
sg572
V00
p2340
sg574
g82
sg575
I201628
ssI101106
(dp2341
g129
VUtah
p2342
sg131
V260
p2343
sg133
V2017
p2344
sg135
F32.0
sg136
VNOV 28, 1984
p2345
sg138
V7-0
p2346
sg140
VAndrew Bogut
p2347
sg142
I1610612747
sg143
V66
p2348
sg145
V12
p2349
sg146
V00
p2350
sg148
g70
sg149
I101106
ssI202330
(dp2351
g500
VButler
p2352
sg502
V226
p2353
sg504
V2017
p2354
sg506
F27.0
sg507
VMAR 23, 1990
p2355
sg509
V6-8
p2356
sg511
VGordon Hayward
p2357
sg513
I1610612738
sg514
V20
p2358
sg516
g290
sg517
V00
p2359
sg519
g23
sg520
I202330
ssI1628381
(dp2360
g49
VWake Forest
p2361
sg51
V235
p2362
sg53
V2017
p2363
sg55
F20.0
sg56
VSEP 23, 1997
p2364
sg58
V6-10
p2365
sg60
VJohn Collins
p2366
sg62
I1610612737
sg63
V20
p2367
sg65
g80
sg67
V00
p2368
sg69
VF-C
p2369
sg71
I1628381
ssI203186
(dp2370
g107
VSaint Louis
p2371
sg109
V245
p2372
sg111
V2017
p2373
sg113
F27.0
sg114
VMAY 16, 1990
p2374
sg116
V6-11
p2375
sg118
VWillie Reed
p2376
sg120
I1610612746
sg121
V35
p2377
sg123
g188
sg124
V00
p2378
sg126
g70
sg127
I203186
ssI203473
(dp2379
g49
VSouthern California
p2380
sg51
V245
p2381
sg53
V2017
p2382
sg55
F28.0
sg56
VAUG 12, 1989
p2383
sg58
V7-0
p2384
sg60
VDewayne Dedmon
p2385
sg62
I1610612737
sg63
V14
p2386
sg65
g101
sg67
V00
p2387
sg69
g70
sg71
I203473
ssI201142
(dp2388
g2
VTexas
p2389
sg4
V240
p2390
sg6
V2017
p2391
sg8
F29.0
sg9
VSEP 29, 1988
p2392
sg11
V6-9
p2393
sg13
VKevin Durant
p2394
sg15
I1610612744
sg16
V35
p2395
sg18
V10
p2396
sg20
V00
p2397
sg22
g23
sg24
I201142
ssI201143
(dp2398
g500
VFlorida
p2399
sg502
V245
p2400
sg504
V2017
p2401
sg506
F31.0
sg507
VJUN 03, 1986
p2402
sg509
V6-10
p2403
sg511
VAl Horford
p2404
sg513
I1610612738
sg514
V42
p2405
sg516
V10
p2406
sg517
V00
p2407
sg519
VF-C
p2408
sg520
I201143
ssI201144
(dp2409
g241
VOhio State
p2410
sg243
V175
p2411
sg245
V2017
p2412
sg247
F30.0
sg248
VOCT 11, 1987
p2413
sg250
V6-1
p2414
sg252
VMike Conley
p2415
sg254
I1610612763
sg255
V11
p2416
sg256
V10
p2417
sg257
V00
p2418
sg259
g82
sg260
I201144
ssI1628404
(dp2419
g129
VVillanova
p2420
sg131
V215
p2421
sg133
V2017
p2422
sg135
F22.0
sg136
VMAR 06, 1995
p2423
sg138
V6-5
p2424
sg140
VJosh Hart
p2425
sg142
I1610612747
sg143
g66
sg145
g80
sg146
V00
p2426
sg148
g82
sg149
I1628404
ssI201147
(dp2427
g129
VFlorida
p2428
sg131
V186
p2429
sg133
V2017
p2430
sg135
F31.0
sg136
VMAR 05, 1986
p2431
sg138
V6-9
p2432
sg140
VCorey Brewer
p2433
sg142
I1610612747
sg143
g17
sg145
V10
p2434
sg146
V00
p2435
sg148
g23
sg149
I201147
ssI201148
(dp2436
g241
VNorth Carolina
p2437
sg243
V235
p2438
sg245
V2017
p2439
sg247
F30.0
sg248
VOCT 05, 1987
p2440
sg250
V6-10
p2441
sg252
VBrandan Wright
p2442
sg254
I1610612763
sg255
V34
p2443
sg256
g43
sg257
V00
p2444
sg259
VF-C
p2445
sg260
I201148
ssI202685
(dp2446
g262
VUtena, Lithuania
p2447
sg264
V255
p2448
sg266
V2017
p2449
sg268
F25.0
sg269
VMAY 06, 1992
p2450
sg271
V7-0
p2451
sg273
VJonas Valanciunas
p2452
sg275
I1610612761
sg276
V17
p2453
sg278
g66
sg279
V00
p2454
sg281
g70
sg282
I202685
ssI203710
(dp2455
g107
VNorth Carolina State
p2456
sg109
V230
p2457
sg111
V2017
p2458
sg113
F27.0
sg114
VFEB 06, 1990
p2459
sg116
V6-5
p2460
sg118
VC.J. Williams
p2461
sg120
I1610612746
sg121
g43
sg123
g80
sg124
V00
p2462
sg126
g82
sg127
I203710
ssI101109
(dp2463
g478
VNorth Carolina
p2464
sg480
V205
p2465
sg482
V2017
p2466
sg484
F33.0
sg485
VJUN 26, 1984
p2467
sg487
V6-1
p2468
sg489
VRaymond Felton
p2469
sg491
I1610612760
sg492
g188
sg494
V12
p2470
sg495
V00
p2471
sg497
g82
sg498
I101109
ssI203200
(dp2472
g210
VWashington
p2473
sg212
V185
p2474
sg214
V2017
p2475
sg216
F28.0
sg217
VAPR 05, 1989
p2476
sg219
V6-6
p2477
sg221
VJustin Holiday
p2478
sg223
I1610612741
sg224
g290
sg226
g101
sg227
V00
p2479
sg229
g82
sg230
I203200
ssI202691
(dp2480
g2
VWashington State
p2481
sg4
V215
p2482
sg6
V2017
p2483
sg8
F27.0
sg9
VFEB 08, 1990
p2484
sg11
V6-7
p2485
sg13
VKlay Thompson
p2486
sg15
I1610612744
sg16
V11
p2487
sg18
g179
sg20
V00
p2488
sg22
g82
sg24
I202691
ssI202692
(dp2489
g363
VColorado
p2490
sg365
V214
p2491
sg367
V2017
p2492
sg369
F26.0
sg370
VJUL 20, 1991
p2493
sg372
V6-6
p2494
sg374
VAlec Burks
p2495
sg376
I1610612762
sg377
V10
p2496
sg379
g179
sg381
V00
p2497
sg383
g82
sg384
I202692
ssI1628405
(dp2498
g341
VBaylor
p2499
sg343
V230
p2500
sg345
V2017
p2501
sg347
F22.0
sg348
VMAY 04, 1995
p2502
sg350
V6-10
p2503
sg352
VJohnathan Motley
p2504
sg354
I1610612742
sg355
g179
sg357
g80
sg358
V00
p2505
sg360
g23
sg361
I1628405
ssI201158
(dp2506
g49
VBologna, Italy
p2507
sg51
V210
p2508
sg53
V2017
p2509
sg55
F31.0
sg56
VMAR 25, 1986
p2510
sg58
V6-5
p2511
sg60
VMarco Belinelli
p2512
sg62
I1610612737
sg63
g17
sg65
V10
p2513
sg67
V00
p2514
sg69
VG-F
p2515
sg71
I201158
ssI203084
(dp2516
g341
VNorth Carolina
p2517
sg343
V225
p2518
sg345
V2017
p2519
sg347
F25.0
sg348
VMAY 30, 1992
p2520
sg350
V6-8
p2521
sg352
VHarrison Barnes
p2522
sg354
I1610612742
sg355
V40
p2523
sg357
g66
sg358
V00
p2524
sg360
g23
sg361
I203084
ssI203210
(dp2525
g241
VAlabama
p2526
sg243
V227
p2527
sg245
V2017
p2528
sg247
F27.0
sg248
VJUN 21, 1990
p2529
sg250
V6-9
p2530
sg252
VJaMychal Green
p2531
sg254
I1610612763
sg255
g187
sg256
g17
sg257
V00
p2532
sg259
g23
sg260
I203210
ssI201163
(dp2533
g151
VDePaul
p2534
sg153
V225
p2535
sg155
V2017
p2536
sg157
F30.0
sg158
VMAY 10, 1987
p2537
sg160
V6-9
p2538
sg162
VWilson Chandler
p2539
sg164
I1610612743
sg165
V21
p2540
sg166
g43
sg168
V00
p2541
sg170
g23
sg171
I201163
ssI202702
(dp2542
g151
VMorehead State
p2543
sg153
V228
p2544
sg155
V2017
p2545
sg157
F27.0
sg158
VNOV 19, 1989
p2546
sg160
V6-8
p2547
sg162
VKenneth Faried
p2548
sg164
I1610612743
sg165
V35
p2549
sg166
g179
sg168
V00
p2550
sg170
g23
sg171
I202702
ssI202703
(dp2551
g210
Nsg212
V238
p2552
sg214
V2017
p2553
sg216
F26.0
sg217
VFEB 11, 1991
p2554
sg219
V6-10
p2555
sg221
VNikola Mirotic
p2556
sg223
I1610612741
sg224
V44
p2557
sg226
g17
sg227
V00
p2558
sg229
g23
sg230
I202703
ssI1628408
(dp2559
g478
VSouth Carolina
p2560
sg480
V205
p2561
sg482
V2017
p2562
sg484
F21.0
sg485
VOCT 25, 1996
p2563
sg487
V6-6
p2564
sg489
VPJ Dozier
p2565
sg491
I1610612760
sg492
V35
p2566
sg494
g80
sg495
V00
p2567
sg497
g82
sg498
I1628408
ssI203471
(dp2568
g49
VGermany
p2569
sg51
V172
p2570
sg53
V2017
p2571
sg55
F24.0
sg56
VSEP 15, 1993
p2572
sg58
V6-1
p2573
sg60
VDennis Schroder
p2574
sg62
I1610612737
sg63
V17
p2575
sg65
g101
sg67
V00
p2576
sg69
g82
sg71
I203471
ssI202713
(dp2577
g478
VDuke
p2578
sg480
V228
p2579
sg482
V2017
p2580
sg484
F29.0
sg485
VMAY 04, 1988
p2581
sg487
V6-8
p2582
sg489
VKyle Singler
p2583
sg491
I1610612760
sg492
V15
p2584
sg494
g66
sg495
V00
p2585
sg497
g23
sg498
I202713
ssI1627743
(dp2586
g556
VNotre Dame
p2587
sg558
V201
p2588
sg560
V2017
p2589
sg562
F23.0
sg563
VSEP 07, 1994
p2590
sg565
V6-1
p2591
sg567
VDemetrius Jackson
p2592
sg569
I1610612745
sg570
g188
sg571
g122
sg572
V00
p2593
sg574
g82
sg575
I1627743
ssI202718
(dp2594
g241
VFlorida
p2595
sg243
V230
p2596
sg245
V2017
p2597
sg247
F29.0
sg248
VOCT 25, 1988
p2598
sg250
V6-10
p2599
sg252
VChandler Parsons
p2600
sg254
I1610612763
sg255
V25
p2601
sg256
g179
sg257
V00
p2602
sg259
g23
sg260
I202718
ssI1628374
(dp2603
g210
VArizona
p2604
sg212
V230
p2605
sg214
V2017
p2606
sg216
F20.0
sg217
VMAY 22, 1997
p2607
sg219
V7-0
p2608
sg221
VLauri Markkanen
p2609
sg223
I1610612741
sg224
V24
p2610
sg226
g80
sg227
V00
p2611
sg229
g23
sg230
I1628374
ssI201188
(dp2612
g241
VBarcelona, Spain
p2613
sg243
V255
p2614
sg245
V2017
p2615
sg247
F32.0
sg248
VJAN 29, 1985
p2616
sg250
V7-1
p2617
sg252
VMarc Gasol
p2618
sg254
I1610612763
sg255
V33
p2619
sg256
g43
sg257
V00
p2620
sg259
g70
sg260
I201188
ssI204028
(dp2621
g556
VKansas
p2622
sg558
V250
p2623
sg560
V2017
p2624
sg562
F25.0
sg563
VNOV 22, 1991
p2625
sg565
V6-9
p2626
sg567
VTarik Black
p2627
sg569
I1610612745
sg570
V28
p2628
sg571
g17
sg572
V00
p2629
sg574
VF-C
p2630
sg575
I204028
ssI1628395
(dp2631
g2
VOregon
p2632
sg4
V224
p2633
sg6
V2017
p2634
sg8
F22.0
sg9
VJAN 07, 1995
p2635
sg11
V6-9
p2636
sg13
VJordan Bell
p2637
sg15
I1610612744
sg16
g188
sg18
g80
sg20
V00
p2638
sg22
g23
sg24
I1628395
ssI2403
(dp2639
g556
VSao Carlos, Brazil
p2640
sg558
V250
p2641
sg560
V2017
p2642
sg562
F35.0
sg563
VSEP 13, 1982
p2643
sg565
V6-11
p2644
sg567
VNene
p2645
sg569
I1610612745
sg570
V42
p2646
sg571
V15
p2647
sg572
V00
p2648
sg574
VC-F
p2649
sg575
I2403
ssI202732
(dp2650
g437
VKentucky
p2651
sg439
V209
p2652
sg441
V2017
p2653
sg443
F29.0
sg444
VMAR 31, 1988
p2654
sg446
V6-6
p2655
sg448
VDeAndre Liggins
p2656
sg450
I1610612749
sg451
V25
p2657
sg453
g101
sg454
V00
p2658
sg456
g82
sg457
I202732
ssI202734
(dp2659
g84
VPurdue
p2660
sg86
V191
p2661
sg88
V2017
p2662
sg90
F28.0
sg91
VFEB 25, 1989
p2663
sg93
V6-4
p2664
sg95
VE'Twaun Moore
p2665
sg97
I1610612740
sg98
V55
p2666
sg100
g179
sg102
V00
p2667
sg104
g82
sg105
I202734
ssI2544
(dp2668
g26
VSt. Vincent-St. Mary HS (OH)
p2669
sg28
V250
p2670
sg30
V2017
p2671
sg32
F32.0
sg33
VDEC 30, 1984
p2672
sg35
V6-8
p2673
sg37
VLeBron James
p2674
sg39
I1610612739
sg40
V23
p2675
sg42
V14
p2676
sg44
V00
p2677
sg46
VF-G
p2678
sg47
I2544
ssI2546
(dp2679
g478
VSyracuse
p2680
sg480
V240
p2681
sg482
V2017
p2682
sg484
F33.0
sg485
VMAY 29, 1984
p2683
sg487
V6-8
p2684
sg489
VCarmelo Anthony
p2685
sg491
I1610612760
sg492
g290
sg494
V14
p2686
sg495
V00
p2687
sg497
g23
sg498
I2546
ssI2548
(dp2688
g26
VMarquette
p2689
sg28
V220
p2690
sg30
V2017
p2691
sg32
F35.0
sg33
VJAN 17, 1982
p2692
sg35
V6-4
p2693
sg37
VDwyane Wade
p2694
sg39
I1610612739
sg40
g43
sg42
V14
p2695
sg44
V00
p2696
sg46
g82
sg47
I2548
ssI1628414
(dp2697
g107
VSouth Carolina
p2698
sg109
V215
p2699
sg111
V2017
p2700
sg113
F22.0
sg114
VNOV 15, 1994
p2701
sg116
V6-5
p2702
sg118
VSindarius Thornwell
p2703
sg120
I1610612746
sg121
g187
sg123
g80
sg124
V00
p2704
sg126
g82
sg127
I1628414
ssI1627761
(dp2705
g49
VSaint Joseph's
p2706
sg51
V210
p2707
sg53
V2017
p2708
sg55
F23.0
sg56
VJUL 04, 1994
p2709
sg58
V6-6
p2710
sg60
VDeAndre' Bembry
p2711
sg62
I1610612737
sg63
V95
p2712
sg65
g122
sg67
V00
p2713
sg69
VF-G
p2714
sg71
I1627761
ssI1628443
(dp2715
g500
VArizona
p2716
sg502
V200
p2717
sg504
V2017
p2718
sg506
F24.0
sg507
VJAN 15, 1993
p2719
sg509
V6-3
p2720
sg511
VKadeem Allen
p2721
sg513
I1610612738
sg514
V45
p2722
sg516
g80
sg517
V00
p2723
sg519
g82
sg520
I1628443
ssI1626196
(dp2724
g301
VTennessee
p2725
sg303
V200
p2726
sg305
V2017
p2727
sg307
F24.0
sg308
VSEP 15, 1993
p2728
sg310
V6-6
p2729
sg312
VJosh Richardson
p2730
sg314
I1610612748
sg315
g187
sg317
g188
sg318
V00
p2731
sg320
g23
sg321
I1626196
ssI2555
(dp2732
g478
VKansas
p2733
sg480
V255
p2734
sg482
V2017
p2735
sg484
F37.0
sg485
VOCT 26, 1980
p2736
sg487
V6-10
p2737
sg489
VNick Collison
p2738
sg491
I1610612760
sg492
g101
sg494
V13
p2739
sg495
V00
p2740
sg497
g23
sg498
I2555
ssI101181
(dp2741
g26
VVillanueva de la Serena, Spain
p2742
sg28
V200
p2743
sg30
V2017
p2744
sg32
F36.0
sg33
VSEP 28, 1981
p2745
sg35
V6-3
p2746
sg37
VJose Calderon
p2747
sg39
I1610612739
sg40
V81
p2748
sg42
V12
p2749
sg44
V00
p2750
sg46
g82
sg47
I101181
ss.