(dp0
I2561
(dp1
VSCHOOL
p2
VXavier
p3
sVWEIGHT
p4
V250
p5
sVSEASON
p6
V2017
p7
sVAGE
p8
F37.0
sVBIRTH_DATE
p9
VAUG 29, 1980
p10
sVHEIGHT
p11
V6-9
p12
sVPLAYER
p13
VDavid West
p14
sVTeamID
p15
I1610612744
sVNUM
p16
V3
p17
sVEXP
p18
V14
p19
sVLeagueID
p20
V00
p21
sVPOSITION
p22
VF
p23
sVPLAYER_ID
p24
I2561
ssI201145
(dp25
VSCHOOL
p26
VGeorgetown
p27
sVWEIGHT
p28
V235
p29
sVSEASON
p30
V2017
p31
sVAGE
p32
F31.0
sVBIRTH_DATE
p33
VAUG 28, 1986
p34
sVHEIGHT
p35
V6-9
p36
sVPLAYER
p37
VJeff Green
p38
sVTeamID
p39
I1610612739
sVNUM
p40
V32
p41
sVEXP
p42
V9
p43
sVLeagueID
p44
V00
p45
sVPOSITION
p46
g23
sVPLAYER_ID
p47
I201145
ssI1626199
(dp48
VSCHOOL
p49
VVillanova
p50
sVWEIGHT
p51
V220
p52
sVSEASON
p53
V2017
p54
sVAGE
p55
F24.0
sVBIRTH_DATE
p56
VAPR 13, 1993
p57
sVHEIGHT
p58
V6-6
p59
sVPLAYER
p60
VDarrun Hilliard
p61
sVTeamID
p62
I1610612759
sVNUM
p63
V24
p64
sVEXP
p65
V2
p66
sVLeagueID
p67
V00
p68
sVPOSITION
p69
VG
p70
sVPLAYER_ID
p71
I1626199
ssI203101
(dp72
VSCHOOL
p73
VDuke
p74
sVWEIGHT
p75
V249
p76
sVSEASON
p77
V2017
p78
sVAGE
p79
F29.0
sVBIRTH_DATE
p80
VSEP 01, 1988
p81
sVHEIGHT
p82
V6-11
p83
sVPLAYER
p84
VMiles Plumlee
p85
sVTeamID
p86
I1610612737
sVNUM
p87
V18
p88
sVEXP
p89
V5
p90
sVLeagueID
p91
V00
p92
sVPOSITION
p93
VC
p94
sVPLAYER_ID
p95
I203101
ssI203705
(dp96
g73
VAlabama-Huntsville
p97
sg75
V160
p98
sg77
V2017
p99
sg79
F27.0
sg80
VNOV 28, 1989
p100
sg82
V6-1
p101
sg84
VJosh Magette
p102
sg86
I1610612737
sg87
V11
p103
sg89
VR
p104
sg91
V00
p105
sg93
g70
sg95
I203705
ssI1627834
(dp106
VSCHOOL
p107
NsVWEIGHT
p108
V240
p109
sVSEASON
p110
V2017
p111
sVAGE
p112
F20.0
sVBIRTH_DATE
p113
VJUL 03, 1997
p114
sVHEIGHT
p115
V7-1
p116
sVPLAYER
p117
VGeorgios Papagiannis
p118
sVTeamID
p119
I1610612758
sVNUM
p120
V13
p121
sVEXP
p122
V1
p123
sVLeagueID
p124
V00
p125
sVPOSITION
p126
g94
sVPLAYER_ID
p127
I1627834
ssI203524
(dp128
VSCHOOL
p129
VArizona
p130
sVWEIGHT
p131
V225
p132
sVSEASON
p133
V2017
p134
sVAGE
p135
F26.0
sVBIRTH_DATE
p136
VMAR 18, 1991
p137
sVHEIGHT
p138
V6-7
p139
sVPLAYER
p140
VSolomon Hill
p141
sVTeamID
p142
I1610612740
sVNUM
p143
V44
p144
sVEXP
p145
V4
p146
sVLeagueID
p147
V00
p148
sVPOSITION
p149
g23
sVPLAYER_ID
p150
I203524
ssI1628393
(dp151
VSCHOOL
p152
VOklahoma State
p153
sVWEIGHT
p154
V190
p155
sVSEASON
p156
V2017
p157
sVAGE
p158
F21.0
sVBIRTH_DATE
p159
VJUL 26, 1996
p160
sVHEIGHT
p161
V6-0
p162
sVPLAYER
p163
VJawun Evans
p164
sVTeamID
p165
I1610612746
sVNUM
p166
g123
sVEXP
p167
g104
sVLeagueID
p168
V00
p169
sVPOSITION
p170
g70
sVPLAYER_ID
p171
I1628393
ssI203898
(dp172
VSCHOOL
p173
VSyracuse
p174
sVWEIGHT
p175
V194
p176
sVSEASON
p177
V2017
p178
sVAGE
p179
F23.0
sVBIRTH_DATE
p180
VAUG 24, 1994
p181
sVHEIGHT
p182
V6-3
p183
sVPLAYER
p184
VTyler Ennis
p185
sVTeamID
p186
I1610612747
sVNUM
p187
V10
p188
sVEXP
p189
g17
sVLeagueID
p190
V00
p191
sVPOSITION
p192
g70
sVPLAYER_ID
p193
I203898
ssI200794
(dp194
VSCHOOL
p195
VLouisiana Tech
p196
sVWEIGHT
p197
V246
p198
sVSEASON
p199
V2017
p200
sVAGE
p201
F32.0
sVBIRTH_DATE
p202
VFEB 10, 1985
p203
sVHEIGHT
p204
V6-8
p205
sVPLAYER
p206
VPaul Millsap
p207
sVTeamID
p208
I1610612743
sVNUM
p209
g146
sVEXP
p210
V11
p211
sVLeagueID
p212
V00
p213
sVPOSITION
p214
g23
sVPLAYER_ID
p215
I200794
ssI202738
(dp216
g26
VWashington
p217
sg28
V185
p218
sg30
V2017
p219
sg32
F28.0
sg33
VFEB 07, 1989
p220
sg35
V5-9
p221
sg37
VIsaiah Thomas
p222
sg39
I1610612739
sg40
g17
sg42
V6
p223
sg44
V00
p224
sg46
g70
sg47
I202738
ssI1626144
(dp225
g195
Nsg197
V200
p226
sg199
V2017
p227
sg201
F21.0
sg202
VMAR 05, 1996
p228
sg204
V6-5
p229
sg206
VEmmanuel Mudiay
p230
sg208
I1610612743
sg209
V0
p231
sg210
g66
sg212
V00
p232
sg214
g70
sg215
I1626144
ssI2736
(dp233
g173
VDuke
p234
sg175
V220
p235
sg177
V2017
p236
sg179
F32.0
sg180
VAPR 16, 1985
p237
sg182
V6-9
p238
sg184
VLuol Deng
p239
sg186
I1610612747
sg187
g43
sg189
V13
p240
sg190
V00
p241
sg192
g23
sg193
I2736
ssI2594
(dp242
g26
VCreighton
p243
sg28
V212
p244
sg30
V2017
p245
sg32
F36.0
sg33
VMAR 17, 1981
p246
sg35
V6-7
p247
sg37
VKyle Korver
p248
sg39
I1610612739
sg40
V26
p249
sg42
V14
p250
sg44
V00
p251
sg46
g70
sg47
I2594
ssI1627739
(dp252
VSCHOOL
p253
VProvidence
p254
sVWEIGHT
p255
V210
p256
sVSEASON
p257
V2017
p258
sVAGE
p259
F23.0
sVBIRTH_DATE
p260
VMAR 18, 1994
p261
sVHEIGHT
p262
V6-4
p263
sVPLAYER
p264
VKris Dunn
p265
sVTeamID
p266
I1610612741
sVNUM
p267
V32
p268
sVEXP
p269
g123
sVLeagueID
p270
V00
p271
sVPOSITION
p272
g70
sVPLAYER_ID
p273
I1627739
ssI1626149
(dp274
g152
VLouisville
p275
sg154
V240
p276
sg156
V2017
p277
sg158
F23.0
sg159
VJAN 26, 1994
p278
sg161
V6-8
p279
sg163
VMontrezl Harrell
p280
sg165
I1610612746
sg166
g90
sg167
g66
sg168
V00
p281
sg170
VF-C
p282
sg171
I1626149
ssI1626150
(dp283
VSCHOOL
p284
VKentucky
p285
sVWEIGHT
p286
V213
p287
sVSEASON
p288
V2017
p289
sVAGE
p290
F23.0
sVBIRTH_DATE
p291
VOCT 28, 1994
p292
sVHEIGHT
p293
V6-6
p294
sVPLAYER
p295
VAndrew Harrison
p296
sVTeamID
p297
I1610612763
sVNUM
p298
g90
sVEXP
p299
g123
sVLeagueID
p300
V00
p301
sVPOSITION
p302
g70
sVPLAYER_ID
p303
I1626150
ssI2225
(dp304
g49
VParis, France
p305
sg51
V185
p306
sg53
V2017
p307
sg55
F35.0
sg56
VMAY 17, 1982
p308
sg58
V6-2
p309
sg60
VTony Parker
p310
sg62
I1610612759
sg63
g43
sg65
V16
p311
sg67
V00
p312
sg69
g70
sg71
I2225
ssI1626153
(dp313
VSCHOOL
p314
VUtah
p315
sVWEIGHT
p316
V190
p317
sVSEASON
p318
V2017
p319
sVAGE
p320
F25.0
sVBIRTH_DATE
p321
VAPR 26, 1992
p322
sVHEIGHT
p323
V6-5
p324
sVPLAYER
p325
VDelon Wright
p326
sVTeamID
p327
I1610612761
sVNUM
p328
V55
p329
sVEXP
p330
g66
sVLeagueID
p331
V00
p332
sVPOSITION
p333
g70
sVPLAYER_ID
p334
I1626153
ssI200746
(dp335
g49
VTexas
p336
sg51
V260
p337
sg53
V2017
p338
sg55
F32.0
sg56
VJUL 19, 1985
p339
sg58
V6-11
p340
sg60
VLaMarcus Aldridge
p341
sg62
I1610612759
sg63
V12
p342
sg65
V11
p343
sg67
V00
p344
sg69
g23
sg71
I200746
ssI1626155
(dp345
g152
VWisconsin
p346
sg154
V230
p347
sg156
V2017
p348
sg158
F23.0
sg159
VMAY 08, 1994
p349
sg161
V6-9
p350
sg163
VSam Dekker
p351
sg165
I1610612746
sg166
V7
p352
sg167
g66
sg168
V00
p353
sg170
g23
sg171
I1626155
ssI1626156
(dp354
VSCHOOL
p355
VOhio State
p356
sVWEIGHT
p357
V195
p358
sVSEASON
p359
V2017
p360
sVAGE
p361
F21.0
sVBIRTH_DATE
p362
VFEB 23, 1996
p363
sVHEIGHT
p364
V6-5
p365
sVPLAYER
p366
VD'Angelo Russell
p367
sVTeamID
p368
I1610612751
sVNUM
p369
g123
sVEXP
p370
g66
sVLeagueID
p371
V00
p372
sVPOSITION
p373
g70
sVPLAYER_ID
p374
I1626156
ssI1627826
(dp375
g173
Nsg175
V240
p376
sg177
V2017
p377
sg179
F20.0
sg180
VMAR 18, 1997
p378
sg182
V7-1
p379
sg184
VIvica Zubac
p380
sg186
I1610612747
sg187
V40
p381
sg189
g123
sg190
V00
p382
sg192
g94
sg193
I1627826
ssI1626159
(dp383
VSCHOOL
p384
VDuke
p385
sVWEIGHT
p386
V225
p387
sVSEASON
p388
V2017
p389
sVAGE
p390
F21.0
sVBIRTH_DATE
p391
VMAR 26, 1996
p392
sVHEIGHT
p393
V6-7
p394
sVPLAYER
p395
VJustise Winslow
p396
sVTeamID
p397
I1610612748
sVNUM
p398
V20
p399
sVEXP
p400
g66
sVLeagueID
p401
V00
p402
sVPOSITION
p403
g23
sVPLAYER_ID
p404
I1626159
ssI1627098
(dp405
g73
VVirginia Tech
p406
sg75
V190
p407
sg77
V2017
p408
sg79
F28.0
sg80
VMAR 11, 1989
p409
sg82
V6-3
p410
sg84
VMalcolm Delaney
p411
sg86
I1610612737
sg87
g90
sg89
g123
sg91
V00
p412
sg93
g70
sg95
I1627098
ssI201967
(dp413
g129
VVillanova
p414
sg131
V230
p415
sg133
V2017
p416
sg135
F30.0
sg136
VAPR 22, 1987
p417
sg138
V6-8
p418
sg140
VDante Cunningham
p419
sg142
I1610612740
sg143
V33
p420
sg145
V8
p421
sg147
V00
p422
sg149
g23
sg150
I201967
ssI1627827
(dp423
VSCHOOL
p424
VFlorida
p425
sVWEIGHT
p426
V220
p427
sVSEASON
p428
V2017
p429
sVAGE
p430
F24.0
sVBIRTH_DATE
p431
VMAY 04, 1993
p432
sVHEIGHT
p433
V6-8
p434
sVPLAYER
p435
VDorian Finney-Smith
p436
sVTeamID
p437
I1610612742
sVNUM
p438
V10
p439
sVEXP
p440
g123
sVLeagueID
p441
V00
p442
sVPOSITION
p443
g23
sVPLAYER_ID
p444
I1627827
ssI1628368
(dp445
g107
VKentucky
p446
sg108
V175
p447
sg110
V2017
p448
sg112
F19.0
sg113
VDEC 20, 1997
p449
sg115
V6-3
p450
sg117
VDe'Aaron Fox
p451
sg119
I1610612758
sg120
g90
sg122
g104
sg124
V00
p452
sg126
g70
sg127
I1628368
ssI200757
(dp453
VSCHOOL
p454
VVevey, Switzerland
p455
sVWEIGHT
p456
V220
p457
sVSEASON
p458
V2017
p459
sVAGE
p460
F33.0
sVBIRTH_DATE
p461
VMAY 02, 1984
p462
sVHEIGHT
p463
V6-7
p464
sVPLAYER
p465
VThabo Sefolosha
p466
sVTeamID
p467
I1610612762
sVNUM
p468
V22
p469
sVEXP
p470
V11
p471
sVLeagueID
p472
V00
p473
sVPOSITION
p474
g23
sVPLAYER_ID
p475
I200757
ssI1626166
(dp476
g253
VMurray State
p477
sg255
V185
p478
sg257
V2017
p479
sg259
F23.0
sg260
VAUG 08, 1994
p480
sg262
V6-3
p481
sg264
VCameron Payne
p482
sg266
I1610612741
sg267
V22
p483
sg269
g66
sg270
V00
p484
sg272
g70
sg273
I1626166
ssI1626168
(dp485
g195
VKentucky
p486
sg197
V234
p487
sg199
V2017
p488
sg201
F22.0
sg202
VNOV 05, 1995
p489
sg204
V6-10
p490
sg206
VTrey Lyles
p491
sg208
I1610612743
sg209
g352
sg210
g66
sg212
V00
p492
sg214
g23
sg215
I1626168
ssI2617
(dp493
g384
VFlorida
p494
sg386
V235
p495
sg388
V2017
p496
sg390
F37.0
sg391
VJUN 09, 1980
p497
sg393
V6-8
p498
sg395
VUdonis Haslem
p499
sg397
I1610612748
sg398
V40
p500
sg400
V14
p501
sg401
V00
p502
sg403
g23
sg404
I2617
ssI1626170
(dp503
g253
VNotre Dame
p504
sg255
V198
p505
sg257
V2017
p506
sg259
F25.0
sg260
VOCT 09, 1992
p507
sg262
V6-4
p508
sg264
VJerian Grant
p509
sg266
I1610612741
sg267
g66
sg269
g66
sg270
V00
p510
sg272
g70
sg273
I1626170
ssI1626171
(dp511
g253
VArkansas
p512
sg255
V248
p513
sg257
V2017
p514
sg259
F22.0
sg260
VFEB 10, 1995
p515
sg262
V6-11
p516
sg264
VBobby Portis
p517
sg266
I1610612741
sg267
g90
sg269
g66
sg270
V00
p518
sg272
g23
sg273
I1626171
ssI1626172
(dp519
g2
VUCLA
p520
sg4
V220
p521
sg6
V2017
p522
sg8
F21.0
sg9
VFEB 06, 1996
p523
sg11
V6-9
p524
sg13
VKevon Looney
p525
sg15
I1610612744
sg16
g90
sg18
g66
sg20
V00
p526
sg22
g23
sg24
I1626172
ssI1626173
(dp527
VSCHOOL
p528
VUNLV
p529
sVWEIGHT
p530
V202
p531
sVSEASON
p532
V2017
p533
sVAGE
p534
F21.0
sVBIRTH_DATE
p535
VAUG 16, 1996
p536
sVHEIGHT
p537
V6-6
p538
sVPLAYER
p539
VRashad Vaughn
p540
sVTeamID
p541
I1610612749
sVNUM
p542
V20
p543
sVEXP
p544
g66
sVLeagueID
p545
V00
p546
sVPOSITION
p547
g70
sVPLAYER_ID
p548
I1626173
ssI1626175
(dp549
g384
VLouisiana State
p550
sg386
V235
p551
sg388
V2017
p552
sg390
F23.0
sg391
VJUL 09, 1994
p553
sg393
V6-8
p554
sg395
VJordan Mickey
p555
sg397
I1610612748
sg398
V25
p556
sg400
g66
sg401
V00
p557
sg403
VC-F
p558
sg404
I1626175
ssI200768
(dp559
g314
VVillanova
p560
sg316
V205
p561
sg318
V2017
p562
sg320
F31.0
sg321
VMAR 25, 1986
p563
sg323
V6-0
p564
sg325
VKyle Lowry
p565
sg327
I1610612761
sg328
g352
sg330
V11
p566
sg331
V00
p567
sg333
g70
sg334
I200768
ssI1626177
(dp568
VSCHOOL
p569
VKentucky
p570
sVWEIGHT
p571
V255
p572
sVSEASON
p573
V2017
p574
sVAGE
p575
F22.0
sVBIRTH_DATE
p576
VSEP 22, 1995
p577
sVHEIGHT
p578
V7-0
p579
sVPLAYER
p580
VDakari Johnson
p581
sVTeamID
p582
I1610612760
sVNUM
p583
V44
p584
sVEXP
p585
g104
sVLeagueID
p586
V00
p587
sVPOSITION
p588
g94
sVPLAYER_ID
p589
I1626177
ssI1626178
(dp590
g355
VArizona
p591
sg357
V214
p592
sg359
V2017
p593
sg361
F22.0
sg362
VJAN 03, 1995
p594
sg364
V6-7
p595
sg366
VRondae Hollis-Jefferson
p596
sg368
I1610612751
sg369
V24
p597
sg370
g66
sg371
V00
p598
sg373
g23
sg374
I1626178
ssI1626179
(dp599
VSCHOOL
p600
VLouisville
p601
sVWEIGHT
p602
V190
p603
sVSEASON
p604
V2017
p605
sVAGE
p606
F23.0
sVBIRTH_DATE
p607
VMAR 17, 1994
p608
sVHEIGHT
p609
V6-2
p610
sVPLAYER
p611
VTerry Rozier
p612
sVTeamID
p613
I1610612738
sVNUM
p614
V12
p615
sVEXP
p616
g66
sVLeagueID
p617
V00
p618
sVPOSITION
p619
g70
sVPLAYER_ID
p620
I1626179
ssI1626181
(dp621
g314
VUCLA
p622
sg316
V215
p623
sg318
V2017
p624
sg320
F24.0
sg321
VMAY 25, 1993
p625
sg323
V6-4
p626
sg325
VNorman Powell
p627
sg327
I1610612761
sg328
V24
p628
sg330
g66
sg331
V00
p629
sg333
VF-G
p630
sg334
I1626181
ssI202337
(dp631
g73
VNevada
p632
sg75
V225
p633
sg77
V2017
p634
sg79
F28.0
sg80
VJUN 20, 1989
p635
sg82
V6-9
p636
sg84
VLuke Babbitt
p637
sg86
I1610612737
sg87
g421
sg89
g352
sg91
V00
p638
sg93
g23
sg95
I202337
ssI1626185
(dp639
g284
VLouisiana State
p640
sg286
V239
p641
sg288
V2017
p642
sg290
F23.0
sg291
VMAY 24, 1994
p643
sg293
V6-10
p644
sg295
VJarell Martin
p645
sg297
I1610612763
sg298
g123
sg299
g66
sg300
V00
p646
sg302
g23
sg303
I1626185
ssI1626188
(dp647
g2
VDuke
p648
sg4
V179
p649
sg6
V2017
p650
sg8
F24.0
sg9
VMAR 23, 1993
p651
sg11
V6-2
p652
sg13
VQuinn Cook
p653
sg15
I1610612744
sg16
g146
sg18
g123
sg20
V00
p654
sg22
g70
sg24
I1626188
ssI200782
(dp655
VSCHOOL
p656
VTexas
p657
sVWEIGHT
p658
V245
p659
sVSEASON
p660
V2017
p661
sVAGE
p662
F32.0
sVBIRTH_DATE
p663
VMAY 05, 1985
p664
sVHEIGHT
p665
V6-6
p666
sVPLAYER
p667
VPJ Tucker
p668
sVTeamID
p669
I1610612745
sVNUM
p670
g146
sVEXP
p671
g223
sVLeagueID
p672
V00
p673
sVPOSITION
p674
g23
sVPLAYER_ID
p675
I200782
ssI1627781
(dp676
g107
VSyracuse
p677
sg108
V205
p678
sg110
V2017
p679
sg112
F21.0
sg113
VJAN 05, 1996
p680
sg115
V6-6
p681
sg117
VMalachi Richardson
p682
sg119
I1610612758
sg120
V23
p683
sg122
g123
sg124
V00
p684
sg126
g70
sg127
I1627781
ssI1628463
(dp685
g73
VGeorge Washington
p686
sg75
V238
p687
sg77
V2017
p688
sg79
F23.0
sg80
VFEB 09, 1994
p689
sg82
V6-9
p690
sg84
VTyler Cavanaugh
p691
sg86
I1610612737
sg87
V34
p692
sg89
g104
sg91
V00
p693
sg93
g23
sg95
I1628463
ssI202083
(dp694
g424
VMarquette
p695
sg426
V220
p696
sg428
V2017
p697
sg430
F31.0
sg431
VOCT 14, 1986
p698
sg433
V6-5
p699
sg435
VWesley Matthews
p700
sg437
I1610612742
sg438
V23
p701
sg440
g421
sg441
V00
p702
sg443
VG-F
p703
sg444
I202083
ssI202324
(dp704
g454
VGeorgia Tech
p705
sg456
V265
p706
sg458
V2017
p707
sg460
F26.0
sg461
VJUL 15, 1991
p708
sg463
V6-10
p709
sg465
VDerrick Favors
p710
sg467
I1610612762
sg468
V15
p711
sg470
g352
sg472
V00
p712
sg474
VF-C
p713
sg475
I202324
ssI202325
(dp714
g152
VSyracuse
p715
sg154
V215
p716
sg156
V2017
p717
sg158
F30.0
sg159
VJUL 11, 1987
p718
sg161
V6-7
p719
sg163
VWesley Johnson
p720
sg165
I1610612746
sg166
V33
p721
sg167
g352
sg168
V00
p722
sg170
g23
sg171
I202325
ssI202326
(dp723
g129
VKentucky
p724
sg131
V270
p725
sg133
V2017
p726
sg135
F27.0
sg136
VAUG 13, 1990
p727
sg138
V6-11
p728
sg140
VDeMarcus Cousins
p729
sg142
I1610612740
sg143
g231
sg145
g352
sg147
V00
p730
sg149
g94
sg150
I202326
ssI202327
(dp731
g454
VBaylor
p732
sg456
V245
p733
sg458
V2017
p734
sg460
F30.0
sg461
VMAY 20, 1987
p735
sg463
V6-10
p736
sg465
VEkpe Udoh
p737
sg467
I1610612762
sg468
V33
p738
sg470
g90
sg472
V00
p739
sg474
VC-F
p740
sg475
I202327
ssI1627736
(dp741
g195
VFlorida State
p742
sg197
V196
p743
sg199
V2017
p744
sg201
F20.0
sg202
VNOV 26, 1996
p745
sg204
V6-5
p746
sg206
VMalik Beasley
p747
sg208
I1610612743
sg209
V25
p748
sg210
g123
sg212
V00
p749
sg214
g70
sg215
I1627736
ssI1627738
(dp750
g284
VMichigan State
p751
sg286
V237
p752
sg288
V2017
p753
sg290
F20.0
sg291
VDEC 02, 1996
p754
sg293
V6-11
p755
sg295
VDeyonta Davis
p756
sg297
I1610612763
sg298
V21
p757
sg299
g123
sg300
V00
p758
sg302
VC-F
p759
sg303
I1627738
ssI202331
(dp760
g569
VFresno State
p761
sg571
V220
p762
sg573
V2017
p763
sg575
F27.0
sg576
VMAY 02, 1990
p764
sg578
V6-9
p765
sg580
VPaul George
p766
sg582
I1610612760
sg583
V13
p767
sg585
g352
sg586
V00
p768
sg588
g23
sg589
I202331
ssI1626204
(dp769
g173
VWyoming
p770
sg175
V230
p771
sg177
V2017
p772
sg179
F24.0
sg180
VJAN 01, 1993
p773
sg182
V6-9
p774
sg184
VLarry Nance Jr.
p775
sg186
I1610612747
sg187
g352
sg189
g66
sg190
V00
p776
sg192
g23
sg193
I1626204
ssI1626205
(dp777
g284
VTexas-El Paso
p778
sg286
V208
p779
sg288
V2017
p780
sg290
F23.0
sg291
VAUG 05, 1994
p781
sg293
V6-8
p782
sg295
VVincent Hunter
p783
sg297
I1610612763
sg298
V32
p784
sg299
g104
sg300
V00
p785
sg302
g23
sg303
I1626205
ssI1627742
(dp786
g173
VDuke
p787
sg175
V190
p788
sg177
V2017
p789
sg179
F20.0
sg180
VSEP 02, 1997
p790
sg182
V6-9
p791
sg184
VBrandon Ingram
p792
sg186
I1610612747
sg187
V14
p793
sg189
g123
sg190
V00
p794
sg192
VF-G
p795
sg193
I1627742
ssI202335
(dp796
g569
VKentucky
p797
sg571
V230
p798
sg573
V2017
p799
sg575
F28.0
sg576
VMAR 14, 1989
p800
sg578
V6-9
p801
sg580
VPatrick Patterson
p802
sg582
I1610612760
sg583
V54
p803
sg585
g352
sg586
V00
p804
sg588
g23
sg589
I202335
ssI1627744
(dp805
g152
VNorth Carolina
p806
sg154
V230
p807
sg156
V2017
p808
sg158
F23.0
sg159
VJUN 27, 1994
p809
sg161
V6-10
p810
sg163
VBrice Johnson
p811
sg165
I1610612746
sg166
V11
p812
sg167
g123
sg168
V00
p813
sg170
g23
sg171
I1627744
ssI1627745
(dp814
g2
VVanderbilt
p815
sg4
V245
p816
sg6
V2017
p817
sg8
F22.0
sg9
VJUN 30, 1995
p818
sg11
V7-0
p819
sg13
VDamian Jones
p820
sg15
I1610612744
sg16
V15
p821
sg18
g123
sg20
V00
p822
sg22
g94
sg24
I1627745
ssI1627746
(dp823
g107
VKentucky
p824
sg108
V225
p825
sg110
V2017
p826
sg112
F21.0
sg113
VMAR 18, 1996
p827
sg115
V6-11
p828
sg117
VSkal Labissiere
p829
sg119
I1610612758
sg120
g352
sg122
g123
sg124
V00
p830
sg126
VF-C
p831
sg127
I1627746
ssI202339
(dp832
g528
VKentucky
p833
sg530
V205
p834
sg532
V2017
p835
sg534
F27.0
sg535
VDEC 09, 1989
p836
sg537
V6-1
p837
sg539
VEric Bledsoe
p838
sg541
I1610612749
sg542
g223
sg544
g352
sg545
V00
p839
sg547
g70
sg548
I202339
ssI1627748
(dp840
g528
Nsg530
V223
p841
sg532
V2017
p842
sg534
F20.0
sg535
VFEB 25, 1997
p843
sg537
V7-1
p844
sg539
VThon Maker
p845
sg541
I1610612749
sg542
g352
sg544
g123
sg545
V00
p846
sg547
VC-F
p847
sg548
I1627748
ssI1627749
(dp848
g49
VWashington
p849
sg51
V170
p850
sg53
V2017
p851
sg55
F21.0
sg56
VSEP 19, 1996
p852
sg58
V6-5
p853
sg60
VDejounte Murray
p854
sg62
I1610612759
sg63
g90
sg65
g123
sg67
V00
p855
sg69
g70
sg71
I1627749
ssI1627750
(dp856
g195
VKentucky
p857
sg197
V207
p858
sg199
V2017
p859
sg201
F20.0
sg202
VFEB 23, 1997
p860
sg204
V6-4
p861
sg206
VJamal Murray
p862
sg208
I1610612743
sg209
V27
p863
sg210
g123
sg212
V00
p864
sg214
g70
sg215
I1627750
ssI1627751
(dp865
g314
VUtah
p866
sg316
V230
p867
sg318
V2017
p868
sg320
F22.0
sg321
VOCT 15, 1995
p869
sg323
V7-0
p870
sg325
VJakob Poeltl
p871
sg327
I1610612761
sg328
V42
p872
sg330
g123
sg331
V00
p873
sg333
g94
sg334
I1627751
ssI1627752
(dp874
g73
VBaylor
p875
sg75
V220
p876
sg77
V2017
p877
sg79
F23.0
sg80
VMAR 22, 1994
p878
sg82
V6-8
p879
sg84
VTaurean Prince
p880
sg86
I1610612737
sg87
V12
p881
sg89
g123
sg91
V00
p882
sg93
g23
sg95
I1627752
ssI1627753
(dp883
g656
Nsg658
V210
p884
sg660
V2017
p885
sg662
F21.0
sg663
VJAN 16, 1996
p886
sg665
V7-1
p887
sg667
VQi Qi
p888
sg669
I1610612745
sg670
g43
sg671
g104
sg672
V00
p889
sg674
VF-C
p890
sg675
I1627753
ssI202347
(dp891
g253
VWashington
p892
sg255
V225
p893
sg257
V2017
p894
sg259
F29.0
sg260
VMAR 10, 1988
p895
sg262
V6-7
p896
sg264
VQuincy Pondexter
p897
sg266
I1610612741
sg267
V20
p898
sg269
g90
sg270
V00
p899
sg272
g70
sg273
I202347
ssI1626220
(dp900
g454
VBaylor
p901
sg456
V226
p902
sg458
V2017
p903
sg460
F24.0
sg461
VJUN 05, 1993
p904
sg463
V6-6
p905
sg465
VRoyce O'Neale
p906
sg467
I1610612762
sg468
V23
p907
sg470
g104
sg472
V00
p908
sg474
g23
sg475
I1626220
ssI1627759
(dp909
g600
VCalifornia
p910
sg602
V225
p911
sg604
V2017
p912
sg606
F21.0
sg607
VOCT 24, 1996
p913
sg609
V6-7
p914
sg611
VJaylen Brown
p915
sg613
I1610612738
sg614
g352
sg616
g123
sg617
V00
p916
sg619
VG-F
p917
sg620
I1627759
ssI1626224
(dp918
g26
VAnadolu Efes
p919
sg28
V215
p920
sg30
V2017
p921
sg32
F22.0
sg33
VAPR 08, 1995
p922
sg35
V6-8
p923
sg37
VCedi Osman
p924
sg39
I1610612739
sg40
V16
p925
sg42
g104
sg44
V00
p926
sg46
g23
sg47
I1626224
ssI202681
(dp927
g600
VDuke
p928
sg602
V193
p929
sg604
V2017
p930
sg606
F25.0
sg607
VMAR 23, 1992
p931
sg609
V6-3
p932
sg611
VKyrie Irving
p933
sg613
I1610612738
sg614
V11
p934
sg616
g223
sg617
V00
p935
sg619
g70
sg620
I202681
ssI1627762
(dp936
g528
VWeber State
p937
sg530
V235
p938
sg532
V2017
p939
sg534
F23.0
sg535
VJAN 28, 1994
p940
sg537
V6-9
p941
sg539
VJoel Bolomboy
p942
sg541
I1610612749
sg542
V24
p943
sg544
g123
sg545
V00
p944
sg547
VF-C
p945
sg548
I1627762
ssI202355
(dp946
g384
VMarshall
p947
sg386
V265
p948
sg388
V2017
p949
sg390
F28.0
sg391
VJUN 13, 1989
p950
sg393
V7-0
p951
sg395
VHassan Whiteside
p952
sg397
I1610612748
sg398
V21
p953
sg400
g90
sg401
V00
p954
sg403
g94
sg404
I202355
ssI203382
(dp955
g600
VWashington State
p956
sg602
V260
p957
sg604
V2017
p958
sg606
F30.0
sg607
VDEC 09, 1986
p959
sg609
V6-10
p960
sg611
VAron Baynes
p961
sg613
I1610612738
sg614
V46
p962
sg616
g90
sg617
V00
p963
sg619
g94
sg620
I203382
ssI1627767
(dp964
g129
VKansas
p965
sg131
V220
p966
sg133
V2017
p967
sg135
F21.0
sg136
VSEP 13, 1996
p968
sg138
V6-9
p969
sg140
VCheick Diallo
p970
sg142
I1610612740
sg143
V13
p971
sg145
g123
sg147
V00
p972
sg149
g23
sg150
I1627767
ssI203897
(dp973
g253
VUCLA
p974
sg255
V185
p975
sg257
V2017
p976
sg259
F22.0
sg260
VMAR 10, 1995
p977
sg262
V6-5
p978
sg264
VZach LaVine
p979
sg266
I1610612741
sg267
g421
sg269
g17
sg270
V00
p980
sg272
g70
sg273
I203897
ssI200826
(dp981
g424
VNortheastern
p982
sg426
V185
p983
sg428
V2017
p984
sg430
F33.0
sg431
VJUN 26, 1984
p985
sg433
V6-0
p986
sg435
VJ.J. Barea
p987
sg437
I1610612742
sg438
g90
sg440
V11
p988
sg441
V00
p989
sg443
g70
sg444
I200826
ssI203960
(dp990
g107
VSt. John's (NY)
p991
sg108
V207
p992
sg110
V2017
p993
sg112
F24.0
sg113
VMAR 20, 1993
p994
sg115
V6-9
p995
sg117
VJaKarr Sampson
p996
sg119
I1610612758
sg120
V29
p997
sg122
g66
sg124
V00
p998
sg126
g23
sg127
I203960
ssI1627772
(dp999
g569
VConnecticut
p1000
sg571
V195
p1001
sg573
V2017
p1002
sg575
F22.0
sg576
VAUG 08, 1995
p1003
sg578
V6-7
p1004
sg580
VDaniel Hamilton
p1005
sg582
I1610612760
sg583
V25
p1006
sg585
g104
sg586
V00
p1007
sg588
g70
sg589
I1627772
ssI1627773
(dp1008
g384
VPurdue
p1009
sg386
V260
p1010
sg388
V2017
p1011
sg390
F25.0
sg391
VAUG 27, 1992
p1012
sg393
V7-0
p1013
sg395
VAJ Hammons
p1014
sg397
I1610612748
sg398
g146
sg400
g123
sg401
V00
p1015
sg403
g94
sg404
I1627773
ssI1627936
(dp1016
g173
VTexas A&M
p1017
sg175
V186
p1018
sg177
V2017
p1019
sg179
F23.0
sg180
VFEB 28, 1994
p1020
sg182
V6-5
p1021
sg184
VAlex Caruso
p1022
sg186
I1610612747
sg187
g146
sg189
g104
sg190
V00
p1023
sg192
g70
sg193
I1627936
ssI1627778
(dp1024
g656
VLouisville
p1025
sg658
V245
p1026
sg660
V2017
p1027
sg662
F21.0
sg663
VNOV 01, 1996
p1028
sg665
V6-10
p1029
sg667
VChinanu Onuaku
p1030
sg669
I1610612745
sg670
V21
p1031
sg671
g123
sg672
V00
p1032
sg674
g94
sg675
I1627778
ssI1627780
(dp1033
g528
VOregon State
p1034
sg530
V190
p1035
sg532
V2017
p1036
sg534
F24.0
sg535
VDEC 01, 1992
p1037
sg537
V6-3
p1038
sg539
VGary Payton II
p1039
sg541
I1610612749
sg542
g231
sg544
g123
sg545
V00
p1040
sg547
g70
sg548
I1627780
ssI203500
(dp1041
g569
VPittsburgh
p1042
sg571
V255
p1043
sg573
V2017
p1044
sg575
F24.0
sg576
VJUL 20, 1993
p1045
sg578
V7-0
p1046
sg580
VSteven Adams
p1047
sg582
I1610612760
sg583
V12
p1048
sg585
g146
sg586
V00
p1049
sg588
g94
sg589
I203500
ssI1627782
(dp1050
g284
VKansas
p1051
sg286
V230
p1052
sg288
V2017
p1053
sg290
F23.0
sg291
VSEP 30, 1994
p1054
sg293
V6-5
p1055
sg295
VWayne Selden
p1056
sg297
I1610612763
sg298
g352
sg299
g123
sg300
V00
p1057
sg302
VG-F
p1058
sg303
I1627782
ssI1627783
(dp1059
g314
VNew Mexico State
p1060
sg316
V230
p1061
sg318
V2017
p1062
sg320
F23.0
sg321
VAPR 02, 1994
p1063
sg323
V6-9
p1064
sg325
VPascal Siakam
p1065
sg327
I1610612761
sg328
V43
p1066
sg330
g123
sg331
V00
p1067
sg333
g23
sg334
I1627783
ssI1627756
(dp1068
g253
VMichigan State
p1069
sg255
V214
p1070
sg257
V2017
p1071
sg259
F23.0
sg260
VNOV 16, 1993
p1072
sg262
V6-6
p1073
sg264
VDenzel Valentine
p1074
sg266
I1610612741
sg267
V45
p1075
sg269
g123
sg270
V00
p1076
sg272
g23
sg273
I1627756
ssI203914
(dp1077
g195
VMichigan State
p1078
sg197
V210
p1079
sg199
V2017
p1080
sg201
F23.0
sg202
VSEP 14, 1994
p1081
sg204
V6-4
p1082
sg206
VGary Harris
p1083
sg208
I1610612743
sg209
V14
p1084
sg210
g17
sg212
V00
p1085
sg214
g70
sg215
I203914
ssI203915
(dp1086
g355
VColorado
p1087
sg357
V200
p1088
sg359
V2017
p1089
sg361
F24.0
sg362
VAPR 06, 1993
p1090
sg364
V6-6
p1091
sg366
VSpencer Dinwiddie
p1092
sg368
I1610612751
sg369
g421
sg370
g17
sg371
V00
p1093
sg373
g70
sg374
I203915
ssI203918
(dp1094
g454
VDuke
p1095
sg456
V206
p1096
sg458
V2017
p1097
sg460
F25.0
sg461
VOCT 20, 1992
p1098
sg463
V6-8
p1099
sg465
VRodney Hood
p1100
sg467
I1610612762
sg468
g90
sg470
g17
sg472
V00
p1101
sg474
g70
sg475
I203918
ssI1626257
(dp1102
g424
Nsg426
V235
p1103
sg428
V2017
p1104
sg430
F31.0
sg431
VJUN 15, 1986
p1105
sg433
V7-2
p1106
sg435
VSalah Mejri
p1107
sg437
I1610612742
sg438
V50
p1108
sg440
g66
sg441
V00
p1109
sg443
g94
sg444
I1626257
ssI1626259
(dp1110
g314
VHoly Cross
p1111
sg316
V210
p1112
sg318
V2017
p1113
sg320
F24.0
sg321
VMAR 06, 1993
p1114
sg323
V6-7
p1115
sg325
VMalcolm Miller
p1116
sg327
I1610612761
sg328
V13
p1117
sg330
g104
sg331
V00
p1118
sg333
g23
sg334
I1626259
ssI203924
(dp1119
g569
VSyracuse
p1120
sg571
V220
p1121
sg573
V2017
p1122
sg575
F23.0
sg576
VMAR 12, 1994
p1123
sg578
V6-9
p1124
sg580
VJerami Grant
p1125
sg582
I1610612760
sg583
g43
sg585
g17
sg586
V00
p1126
sg588
g23
sg589
I203924
ssI203925
(dp1127
g355
VVirginia
p1128
sg357
V219
p1129
sg359
V2017
p1130
sg361
F26.0
sg362
VSEP 06, 1991
p1131
sg364
V6-6
p1132
sg366
VJoe Harris
p1133
sg368
I1610612751
sg369
V12
p1134
sg370
g17
sg371
V00
p1135
sg373
g70
sg374
I203925
ssI2585
(dp1136
g2
VTbilisi, Georgia
p1137
sg4
V270
p1138
sg6
V2017
p1139
sg8
F33.0
sg9
VFEB 10, 1984
p1140
sg11
V6-11
p1141
sg13
VZaza Pachulia
p1142
sg15
I1610612744
sg16
V27
p1143
sg18
V14
p1144
sg20
V00
p1145
sg22
g94
sg24
I2585
ssI2200
(dp1146
g49
VBarcelona, Spain
p1147
sg51
V250
p1148
sg53
V2017
p1149
sg55
F37.0
sg56
VJUL 06, 1980
p1150
sg58
V7-0
p1151
sg60
VPau Gasol
p1152
sg62
I1610612759
sg63
V16
p1153
sg65
V16
p1154
sg67
V00
p1155
sg69
g94
sg71
I2200
ssI201156
(dp1156
g2
VSouthern California
p1157
sg4
V210
p1158
sg6
V2017
p1159
sg8
F32.0
sg9
VJUN 01, 1985
p1160
sg11
V6-7
p1161
sg13
VNick Young
p1162
sg15
I1610612744
sg16
g223
sg18
V10
p1163
sg20
V00
p1164
sg22
VG-F
p1165
sg24
I201156
ssI203930
(dp1166
g355
VCincinnati
p1167
sg357
V212
p1168
sg359
V2017
p1169
sg361
F27.0
sg362
VJAN 06, 1990
p1170
sg364
V6-4
p1171
sg366
VSean Kilpatrick
p1172
sg368
I1610612751
sg369
g223
sg370
g17
sg371
V00
p1173
sg373
g70
sg374
I203930
ssI201583
(dp1174
g656
VCalifornia
p1175
sg658
V240
p1176
sg660
V2017
p1177
sg662
F29.0
sg663
VMAY 06, 1988
p1178
sg665
V6-10
p1179
sg667
VRyan Anderson
p1180
sg669
I1610612745
sg670
V33
p1181
sg671
g43
sg672
V00
p1182
sg674
g23
sg675
I201583
ssI2207
(dp1183
g454
VArkansas
p1184
sg456
V240
p1185
sg458
V2017
p1186
sg460
F36.0
sg461
VJUN 29, 1981
p1187
sg463
V6-7
p1188
sg465
VJoe Johnson
p1189
sg467
I1610612762
sg468
g223
sg470
V16
p1190
sg472
V00
p1191
sg474
VG-F
p1192
sg475
I2207
ssI203937
(dp1193
g49
VUCLA
p1194
sg51
V230
p1195
sg53
V2017
p1196
sg55
F24.0
sg56
VSEP 20, 1993
p1197
sg58
V6-9
p1198
sg60
VKyle Anderson
p1199
sg62
I1610612759
sg63
g123
sg65
g17
sg67
V00
p1200
sg69
g23
sg71
I203937
ssI2210
(dp1201
g195
VArizona
p1202
sg197
V233
p1203
sg199
V2017
p1204
sg201
F37.0
sg202
VJUN 21, 1980
p1205
sg204
V6-7
p1206
sg206
VRichard Jefferson
p1207
sg208
I1610612743
sg209
V22
p1208
sg210
V16
p1209
sg212
V00
p1210
sg214
g23
sg215
I2210
ssI203939
(dp1211
g424
VStanford
p1212
sg426
V240
p1213
sg428
V2017
p1214
sg430
F26.0
sg431
VJUL 20, 1991
p1215
sg433
V6-11
p1216
sg435
VDwight Powell
p1217
sg437
I1610612742
sg438
g352
sg440
g17
sg441
V00
p1218
sg443
VF-C
p1219
sg444
I203939
ssI1627812
(dp1220
g424
VIndiana
p1221
sg426
V180
p1222
sg428
V2017
p1223
sg430
F24.0
sg431
VMAY 09, 1993
p1224
sg433
V6-0
p1225
sg435
VYogi Ferrell
p1226
sg437
I1610612742
sg438
V11
p1227
sg440
g123
sg441
V00
p1228
sg443
g70
sg444
I1627812
ssI202694
(dp1229
g600
VKansas
p1230
sg602
V235
p1231
sg604
V2017
p1232
sg606
F28.0
sg607
VSEP 02, 1989
p1233
sg609
V6-9
p1234
sg611
VMarcus Morris
p1235
sg613
I1610612738
sg614
V13
p1236
sg616
g223
sg617
V00
p1237
sg619
g23
sg620
I202694
ssI203121
(dp1238
g129
VKentucky
p1239
sg131
V225
p1240
sg133
V2017
p1241
sg135
F27.0
sg136
VMAR 21, 1990
p1242
sg138
V6-8
p1243
sg140
VDarius Miller
p1244
sg142
I1610612740
sg143
V21
p1245
sg145
g17
sg147
V00
p1246
sg149
g23
sg150
I203121
ssI203944
(dp1247
g173
VKentucky
p1248
sg175
V250
p1249
sg177
V2017
p1250
sg179
F22.0
sg180
VNOV 29, 1994
p1251
sg182
V6-9
p1252
sg184
VJulius Randle
p1253
sg186
I1610612747
sg187
V30
p1254
sg189
g17
sg190
V00
p1255
sg192
VF-C
p1256
sg193
I203944
ssI1628444
(dp1257
g600
VCalifornia
p1258
sg602
V198
p1259
sg604
V2017
p1260
sg606
F23.0
sg607
VJUL 03, 1994
p1261
sg609
V6-6
p1262
sg611
VJabari Bird
p1263
sg613
I1610612738
sg614
V26
p1264
sg616
g104
sg617
V00
p1265
sg619
g70
sg620
I1628444
ssI1627819
(dp1266
g73
VTexas
p1267
sg75
V170
p1268
sg77
V2017
p1269
sg79
F23.0
sg80
VJUL 11, 1994
p1270
sg82
V6-3
p1271
sg84
VIsaiah Taylor
p1272
sg86
I1610612737
sg87
V22
p1273
sg89
g123
sg91
V00
p1274
sg93
g70
sg95
I1627819
ssI2733
(dp1275
g2
VPeoria Central HS (IL)
p1276
sg4
V192
p1277
sg6
V2017
p1278
sg8
F32.0
sg9
VSEP 11, 1985
p1279
sg11
V6-7
p1280
sg13
VShaun Livingston
p1281
sg15
I1610612744
sg16
V34
p1282
sg18
V12
p1283
sg20
V00
p1284
sg22
g70
sg24
I2733
ssI2734
(dp1285
g424
VWisconsin
p1286
sg426
V185
p1287
sg428
V2017
p1288
sg430
F34.0
sg431
VFEB 27, 1983
p1289
sg433
V6-3
p1290
sg435
VDevin Harris
p1291
sg437
I1610612742
sg438
V34
p1292
sg440
V13
p1293
sg441
V00
p1294
sg443
g70
sg444
I2734
ssI1627823
(dp1295
g195
Nsg197
V230
p1296
sg199
V2017
p1297
sg201
F22.0
sg202
VSEP 28, 1995
p1298
sg204
V6-9
p1299
sg206
VJuan Hernangomez
p1300
sg208
I1610612743
sg209
V41
p1301
sg210
g123
sg212
V00
p1302
sg214
g23
sg215
I1627823
ssI201950
(dp1303
g129
VUCLA
p1304
sg131
V205
p1305
sg133
V2017
p1306
sg135
F27.0
sg136
VJUN 12, 1990
p1307
sg138
V6-4
p1308
sg140
VJrue Holiday
p1309
sg142
I1610612740
sg143
V11
p1310
sg145
g421
sg147
V00
p1311
sg149
g70
sg150
I201950
ssI203953
(dp1312
g528
VDuke
p1313
sg530
V250
p1314
sg532
V2017
p1315
sg534
F22.0
sg535
VMAR 15, 1995
p1316
sg537
V6-8
p1317
sg539
VJabari Parker
p1318
sg541
I1610612749
sg542
V12
p1319
sg544
g17
sg545
V00
p1320
sg547
g23
sg548
I203953
ssI201933
(dp1321
g152
VOklahoma
p1322
sg154
V251
p1323
sg156
V2017
p1324
sg158
F28.0
sg159
VMAR 16, 1989
p1325
sg161
V6-10
p1326
sg163
VBlake Griffin
p1327
sg165
I1610612746
sg166
V32
p1328
sg167
g352
sg168
V00
p1329
sg170
g23
sg171
I201933
ssI1627763
(dp1330
g528
VVirginia
p1331
sg530
V215
p1332
sg532
V2017
p1333
sg534
F24.0
sg535
VDEC 11, 1992
p1334
sg537
V6-5
p1335
sg539
VMalcolm Brogdon
p1336
sg541
I1610612749
sg542
V13
p1337
sg544
g123
sg545
V00
p1338
sg547
g70
sg548
I1627763
ssI203957
(dp1339
g454
Nsg456
V190
p1340
sg458
V2017
p1341
sg460
F22.0
sg461
VJUL 13, 1995
p1342
sg463
V6-6
p1343
sg465
VDante Exum
p1344
sg467
I1610612762
sg468
V11
p1345
sg470
g66
sg472
V00
p1346
sg474
g70
sg475
I203957
ssI1627775
(dp1347
g2
VNevada-Las Vegas
p1348
sg4
V185
p1349
sg6
V2017
p1350
sg8
F22.0
sg9
VOCT 25, 1995
p1351
sg11
V6-7
p1352
sg13
VPatrick McCaw
p1353
sg15
I1610612744
sg16
g231
sg18
g123
sg20
V00
p1354
sg22
g70
sg24
I1627775
ssI202697
(dp1355
g26
VGeorgia Tech
p1356
sg28
V220
p1357
sg30
V2017
p1358
sg32
F27.0
sg33
VJUN 26, 1990
p1359
sg35
V6-5
p1360
sg37
VIman Shumpert
p1361
sg39
I1610612739
sg40
g146
sg42
g223
sg44
V00
p1362
sg46
g70
sg47
I202697
ssI1627832
(dp1363
g314
VWichita State
p1364
sg316
V195
p1365
sg318
V2017
p1366
sg320
F23.0
sg321
VFEB 25, 1994
p1367
sg323
V6-0
p1368
sg325
VFred VanVleet
p1369
sg327
I1610612761
sg328
V23
p1370
sg330
g123
sg331
V00
p1371
sg333
g70
sg334
I1627832
ssI203962
(dp1372
g569
VStanford
p1373
sg571
V230
p1374
sg573
V2017
p1375
sg575
F25.0
sg576
VDEC 19, 1991
p1376
sg578
V6-7
p1377
sg580
VJosh Huestis
p1378
sg582
I1610612760
sg583
V34
p1379
sg585
g66
sg586
V00
p1380
sg588
g23
sg589
I203962
ssI1627835
(dp1381
g253
Nsg255
V226
p1382
sg257
V2017
p1383
sg259
F23.0
sg260
VFEB 18, 1994
p1384
sg262
V6-8
p1385
sg264
VPaul Zipser
p1386
sg266
I1610612741
sg267
V16
p1387
sg269
g123
sg270
V00
p1388
sg272
g23
sg273
I1627835
ssI203488
(dp1389
g73
VBucknell
p1390
sg75
V240
p1391
sg77
V2017
p1392
sg79
F26.0
sg80
VJUL 01, 1991
p1393
sg82
V6-11
p1394
sg84
VMike Muscala
p1395
sg86
I1610612737
sg87
V31
p1396
sg89
g146
sg91
V00
p1397
sg93
VF-C
p1398
sg95
I203488
ssI2749
(dp1399
g129
VSaint Joseph's
p1400
sg131
V190
p1401
sg133
V2017
p1402
sg135
F35.0
sg136
VFEB 09, 1982
p1403
sg138
V6-0
p1404
sg140
VJameer Nelson
p1405
sg142
I1610612740
sg143
V14
p1406
sg145
V13
p1407
sg147
V00
p1408
sg149
g70
sg150
I2749
ssI203966
(dp1409
g152
VMarquette
p1410
sg154
V229
p1411
sg156
V2017
p1412
sg158
F26.0
sg159
VNOV 21, 1990
p1413
sg161
V6-7
p1414
sg163
VJamil Wilson
p1415
sg165
I1610612746
sg166
V13
p1416
sg167
g104
sg168
V00
p1417
sg170
g23
sg171
I203966
ssI1628021
(dp1418
g253
VCal Poly-S.L.O.
p1419
sg255
V209
p1420
sg257
V2017
p1421
sg259
F24.0
sg260
VJAN 14, 1993
p1422
sg262
V6-4
p1423
sg264
VDavid Nwaba
p1424
sg266
I1610612741
sg267
V11
p1425
sg269
g123
sg270
V00
p1426
sg272
g70
sg273
I1628021
ssI203457
(dp1427
g424
VKentucky
p1428
sg426
V220
p1429
sg428
V2017
p1430
sg430
F23.0
sg431
VAPR 10, 1994
p1431
sg433
V6-11
p1432
sg435
VNerlens Noel
p1433
sg437
I1610612742
sg438
g17
sg440
g17
sg441
V00
p1434
sg443
g94
sg444
I203457
ssI2754
(dp1435
g129
VOklahoma State
p1436
sg131
V213
p1437
sg133
V2017
p1438
sg135
F35.0
sg136
VJAN 11, 1982
p1439
sg138
V6-4
p1440
sg140
VTony Allen
p1441
sg142
I1610612740
sg143
V24
p1442
sg145
V13
p1443
sg147
V00
p1444
sg149
VG-F
p1445
sg150
I2754
ssI203459
(dp1446
g355
VCalifornia
p1447
sg357
V215
p1448
sg359
V2017
p1449
sg361
F25.0
sg362
VAPR 09, 1992
p1450
sg364
V6-6
p1451
sg366
VAllen Crabbe
p1452
sg368
I1610612751
sg369
V33
p1453
sg370
g146
sg371
V00
p1454
sg373
VG-F
p1455
sg374
I203459
ssI203460
(dp1456
g569
VColorado
p1457
sg571
V210
p1458
sg573
V2017
p1459
sg575
F25.0
sg576
VDEC 04, 1991
p1460
sg578
V6-7
p1461
sg580
VAndre Roberson
p1462
sg582
I1610612760
sg583
V21
p1463
sg585
g146
sg586
V00
p1464
sg588
g70
sg589
I203460
ssI1627846
(dp1465
g600
VIowa State
p1466
sg602
V230
p1467
sg604
V2017
p1468
sg606
F24.0
sg607
VSEP 25, 1993
p1469
sg609
V6-6
p1470
sg611
VAbdel Nader
p1471
sg613
I1610612738
sg614
V28
p1472
sg616
g104
sg617
V00
p1473
sg619
g23
sg620
I1627846
ssI203463
(dp1474
g284
VKansas
p1475
sg286
V195
p1476
sg288
V2017
p1477
sg290
F24.0
sg291
VFEB 11, 1993
p1478
sg293
V6-5
p1479
sg295
VBen McLemore
p1480
sg297
I1610612763
sg298
V23
p1481
sg299
g146
sg300
V00
p1482
sg302
g70
sg303
I203463
ssI203464
(dp1483
g49
Nsg51
V200
p1484
sg53
V2017
p1485
sg55
F26.0
sg56
VAPR 30, 1991
p1486
sg58
V6-4
p1487
sg60
VBrandon Paul
p1488
sg62
I1610612759
sg63
g17
sg65
g104
sg67
V00
p1489
sg69
g70
sg71
I203464
ssI203499
(dp1490
g600
VMiami (FL)
p1491
sg602
V175
p1492
sg604
V2017
p1493
sg606
F25.0
sg607
VOCT 02, 1992
p1494
sg609
V5-11
p1495
sg611
VShane Larkin
p1496
sg613
I1610612738
sg614
g421
sg616
g17
sg617
V00
p1497
sg619
g70
sg620
I203499
ssI202684
(dp1498
g26
VTexas
p1499
sg28
V238
p1500
sg30
V2017
p1501
sg32
F26.0
sg33
VMAR 13, 1991
p1502
sg35
V6-9
p1503
sg37
VTristan Thompson
p1504
sg39
I1610612739
sg40
V13
p1505
sg42
g223
sg44
V00
p1506
sg46
VC-F
p1507
sg47
I202684
ssI1627852
(dp1508
g73
Nsg75
V195
p1509
sg77
V2017
p1510
sg79
F24.0
sg80
VMAR 02, 1993
p1511
sg82
V6-8
p1512
sg84
VNicolas Brussino
p1513
sg86
I1610612737
sg87
V16
p1514
sg89
g123
sg91
V00
p1515
sg93
g23
sg95
I1627852
ssI1627853
(dp1516
g253
VVillanova
p1517
sg255
V195
p1518
sg257
V2017
p1519
sg259
F23.0
sg260
VMAR 26, 1994
p1520
sg262
V6-3
p1521
sg264
VRyan Arcidiacono
p1522
sg266
I1610612741
sg267
V15
p1523
sg269
g104
sg270
V00
p1524
sg272
g70
sg273
I1627853
ssI1628366
(dp1525
g173
VCalifornia-Los Angeles
p1526
sg175
V190
p1527
sg177
V2017
p1528
sg179
F20.0
sg180
VOCT 27, 1997
p1529
sg182
V6-6
p1530
sg184
VLonzo Ball
p1531
sg186
I1610612747
sg187
g66
sg189
g104
sg190
V00
p1532
sg192
g70
sg193
I1628366
ssI1627855
(dp1533
g384
VFlorida State
p1534
sg386
V215
p1535
sg388
V2017
p1536
sg390
F25.0
sg391
VAUG 13, 1992
p1537
sg393
V6-8
p1538
sg395
VOkaro White
p1539
sg397
I1610612748
sg398
V15
p1540
sg400
g123
sg401
V00
p1541
sg403
g23
sg404
I1627855
ssI201936
(dp1542
g284
VMemphis
p1543
sg286
V220
p1544
sg288
V2017
p1545
sg290
F28.0
sg291
VSEP 19, 1989
p1546
sg293
V6-6
p1547
sg295
VTyreke Evans
p1548
sg297
I1610612763
sg298
V12
p1549
sg299
g421
sg300
V00
p1550
sg302
VG-F
p1551
sg303
I201936
ssI201937
(dp1552
g454
VEl Masnou, Spain
p1553
sg456
V190
p1554
sg458
V2017
p1555
sg460
F27.0
sg461
VOCT 21, 1990
p1556
sg463
V6-4
p1557
sg465
VRicky Rubio
p1558
sg467
I1610612762
sg468
g17
sg470
g223
sg472
V00
p1559
sg474
g70
sg475
I201937
ssI201939
(dp1560
g2
VDavidson
p1561
sg4
V190
p1562
sg6
V2017
p1563
sg8
F29.0
sg9
VMAR 14, 1988
p1564
sg11
V6-3
p1565
sg13
VStephen Curry
p1566
sg15
I1610612744
sg16
V30
p1567
sg18
g421
sg20
V00
p1568
sg22
g70
sg24
I201939
ssI1628372
(dp1569
g424
VNorth Carolina State
p1570
sg426
V195
p1571
sg428
V2017
p1572
sg430
F19.0
sg431
VNOV 25, 1997
p1573
sg433
V6-3
p1574
sg435
VDennis Smith Jr.
p1575
sg437
I1610612742
sg438
g123
sg440
g104
sg441
V00
p1576
sg443
g70
sg444
I1628372
ssI1627854
(dp1577
g49
VMichigan State
p1578
sg51
V190
p1579
sg53
V2017
p1580
sg55
F24.0
sg56
VJUL 23, 1993
p1581
sg58
V6-3
p1582
sg60
VBryn Forbes
p1583
sg62
I1610612759
sg63
V11
p1584
sg65
g123
sg67
V00
p1585
sg69
g70
sg71
I1627854
ssI201942
(dp1586
g314
VSouthern California
p1587
sg316
V220
p1588
sg318
V2017
p1589
sg320
F28.0
sg321
VAUG 07, 1989
p1590
sg323
V6-7
p1591
sg325
VDeMar DeRozan
p1592
sg327
I1610612761
sg328
V10
p1593
sg330
g421
sg331
V00
p1594
sg333
g70
sg334
I201942
ssI203991
(dp1595
g656
Nsg658
V240
p1596
sg660
V2017
p1597
sg662
F23.0
sg663
VMAY 18, 1994
p1598
sg665
V6-10
p1599
sg667
VClint Capela
p1600
sg669
I1610612745
sg670
V15
p1601
sg671
g17
sg672
V00
p1602
sg674
g94
sg675
I203991
ssI203992
(dp1603
g107
Nsg108
V205
p1604
sg110
V2017
p1605
sg112
F25.0
sg113
VAUG 18, 1992
p1606
sg115
V6-6
p1607
sg117
VBogdan Bogdanovic
p1608
sg119
I1610612758
sg120
g421
sg122
g104
sg124
V00
p1609
sg126
g70
sg127
I203992
ssI203481
(dp1610
g424
VKansas
p1611
sg426
V230
p1612
sg428
V2017
p1613
sg430
F27.0
sg431
VMAR 07, 1990
p1614
sg433
V7-0
p1615
sg435
VJeff Withey
p1616
sg437
I1610612742
sg438
V17
p1617
sg440
g146
sg441
V00
p1618
sg443
g94
sg444
I203481
ssI1628378
(dp1619
g454
VLouisville
p1620
sg456
V215
p1621
sg458
V2017
p1622
sg460
F21.0
sg461
VSEP 07, 1996
p1623
sg463
V6-3
p1624
sg465
VDonovan Mitchell
p1625
sg467
I1610612762
sg468
V45
p1626
sg470
g104
sg472
V00
p1627
sg474
g70
sg475
I1628378
ssI201935
(dp1628
g656
VArizona State
p1629
sg658
V220
p1630
sg660
V2017
p1631
sg662
F28.0
sg663
VAUG 26, 1989
p1632
sg665
V6-5
p1633
sg667
VJames Harden
p1634
sg669
I1610612745
sg670
V13
p1635
sg671
g421
sg672
V00
p1636
sg674
g70
sg675
I201935
ssI203484
(dp1637
g173
VGeorgia
p1638
sg175
V205
p1639
sg177
V2017
p1640
sg179
F24.0
sg180
VFEB 18, 1993
p1641
sg182
V6-5
p1642
sg184
VKentavious Caldwell-Pope
p1643
sg186
I1610612747
sg187
g123
sg189
g146
sg190
V00
p1644
sg192
g70
sg193
I203484
ssI201949
(dp1645
g384
VWake Forest
p1646
sg386
V240
p1647
sg388
V2017
p1648
sg390
F30.0
sg391
VFEB 20, 1987
p1649
sg393
V6-8
p1650
sg395
VJames Johnson
p1651
sg397
I1610612748
sg398
V16
p1652
sg400
g421
sg401
V00
p1653
sg403
g23
sg404
I201949
ssI203998
(dp1654
g314
Nsg316
V205
p1655
sg318
V2017
p1656
sg320
F22.0
sg321
VSEP 21, 1995
p1657
sg323
V6-9
p1658
sg325
VBruno Caboclo
p1659
sg327
I1610612761
sg328
g90
sg330
g17
sg331
V00
p1660
sg333
g23
sg334
I203998
ssI203999
(dp1661
g195
Nsg197
V250
p1662
sg199
V2017
p1663
sg201
F22.0
sg202
VFEB 19, 1995
p1664
sg204
V6-10
p1665
sg206
VNikola Jokic
p1666
sg208
I1610612743
sg209
V15
p1667
sg210
g66
sg212
V00
p1668
sg214
g94
sg215
I203999
ssI1628384
(dp1669
g314
VIndiana
p1670
sg316
V235
p1671
sg318
V2017
p1672
sg320
F20.0
sg321
VJUL 17, 1997
p1673
sg323
V6-8
p1674
sg325
VOG Anunoby
p1675
sg327
I1610612761
sg328
g17
sg330
g104
sg331
V00
p1676
sg333
g23
sg334
I1628384
ssI203489
(dp1677
g454
VSouth Dakota State
p1678
sg456
V190
p1679
sg458
V2017
p1680
sg460
F26.0
sg461
VMAY 15, 1991
p1681
sg463
V6-4
p1682
sg465
VNate Wolters
p1683
sg467
I1610612762
sg468
V16
p1684
sg470
g66
sg472
V00
p1685
sg474
g70
sg475
I203489
ssI1627362
(dp1686
g656
VVirginia Commonwealth
p1687
sg658
V165
p1688
sg660
V2017
p1689
sg662
F24.0
sg663
VDEC 29, 1992
p1690
sg665
V6-2
p1691
sg667
VBriante Weber
p1692
sg669
I1610612745
sg670
g231
sg671
g66
sg672
V00
p1693
sg674
g70
sg675
I1627362
ssI201956
(dp1694
g2
VYavne, Israel
p1695
sg4
V225
p1696
sg6
V2017
p1697
sg8
F29.0
sg9
VJUN 22, 1988
p1698
sg11
V6-9
p1699
sg13
VOmri Casspi
p1700
sg15
I1610612744
sg16
V18
p1701
sg18
g421
sg20
V00
p1702
sg22
g23
sg24
I201956
ssI1628389
(dp1703
g384
VKentucky
p1704
sg386
V255
p1705
sg388
V2017
p1706
sg390
F20.0
sg391
VJUL 18, 1997
p1707
sg393
V6-10
p1708
sg395
VBam Adebayo
p1709
sg397
I1610612748
sg398
V13
p1710
sg400
g104
sg401
V00
p1711
sg403
VC-F
p1712
sg404
I1628389
ssI1628390
(dp1713
g569
Nsg571
V184
p1714
sg573
V2017
p1715
sg575
F19.0
sg576
VMAY 17, 1998
p1716
sg578
V6-7
p1717
sg580
VTerrance Ferguson
p1718
sg582
I1610612760
sg583
V23
p1719
sg585
g104
sg586
V00
p1720
sg588
g70
sg589
I1628390
ssI1628391
(dp1721
g528
VMichigan
p1722
sg530
V236
p1723
sg532
V2017
p1724
sg534
F21.0
sg535
VFEB 19, 1996
p1725
sg537
V6-10
p1726
sg539
VD.J. Wilson
p1727
sg541
I1610612749
sg542
g90
sg544
g104
sg545
V00
p1728
sg547
g23
sg548
I1628391
ssI201960
(dp1729
g355
VMissouri
p1730
sg357
V215
p1731
sg359
V2017
p1732
sg361
F31.0
sg362
VJUL 27, 1986
p1733
sg364
V6-8
p1734
sg366
VDeMarre Carroll
p1735
sg368
I1610612751
sg369
g43
sg370
g421
sg371
V00
p1736
sg373
g23
sg374
I201960
ssI203497
(dp1737
g454
VFrance
p1738
sg456
V245
p1739
sg458
V2017
p1740
sg460
F25.0
sg461
VJUN 26, 1992
p1741
sg463
V7-1
p1742
sg465
VRudy Gobert
p1743
sg467
I1610612762
sg468
V27
p1744
sg470
g146
sg472
V00
p1745
sg474
g94
sg475
I203497
ssI202389
(dp1746
g355
VSt. Petersburg, Russia
p1747
sg357
V275
p1748
sg359
V2017
p1749
sg361
F31.0
sg362
VJUL 16, 1986
p1750
sg364
V7-1
p1751
sg366
VTimofey Mozgov
p1752
sg368
I1610612751
sg369
V20
p1753
sg370
g352
sg371
V00
p1754
sg373
g94
sg374
I202389
ssI1627883
(dp1755
g129
VTexas A&M
p1756
sg131
V220
p1757
sg133
V2017
p1758
sg135
F24.0
sg136
VMAY 27, 1993
p1759
sg138
V6-7
p1760
sg140
VJalen Jones
p1761
sg142
I1610612740
sg143
V12
p1762
sg145
g104
sg147
V00
p1763
sg149
g23
sg150
I1627883
ssI1628396
(dp1764
g454
VNorth Carolina
p1765
sg456
V248
p1766
sg458
V2017
p1767
sg460
F19.0
sg461
VJAN 08, 1998
p1768
sg463
V6-10
p1769
sg465
VTony Bradley
p1770
sg467
I1610612762
sg468
V13
p1771
sg470
g104
sg472
V00
p1772
sg474
g94
sg475
I1628396
ssI1628397
(dp1773
g284
VCalifornia
p1774
sg286
V220
p1775
sg288
V2017
p1776
sg290
F20.0
sg291
VFEB 04, 1997
p1777
sg293
V6-10
p1778
sg295
VIvan Rabb
p1779
sg297
I1610612763
sg298
V10
p1780
sg299
g104
sg300
V00
p1781
sg302
g23
sg303
I1628397
ssI1628398
(dp1782
g173
VUtah
p1783
sg175
V220
p1784
sg177
V2017
p1785
sg179
F22.0
sg180
VJUL 24, 1995
p1786
sg182
V6-9
p1787
sg184
VKyle Kuzma
p1788
sg186
I1610612747
sg187
g231
sg189
g104
sg190
V00
p1789
sg192
g23
sg193
I1628398
ssI203503
(dp1790
g528
VNew Mexico
p1791
sg530
V221
p1792
sg532
V2017
p1793
sg534
F26.0
sg535
VNOV 10, 1991
p1794
sg537
V6-7
p1795
sg539
VTony Snell
p1796
sg541
I1610612749
sg542
V21
p1797
sg544
g146
sg545
V00
p1798
sg547
g70
sg548
I203503
ssI1628400
(dp1799
g600
VSouthern Methodist
p1800
sg602
V235
p1801
sg604
V2017
p1802
sg606
F22.0
sg607
VDEC 05, 1994
p1803
sg609
V6-7
p1804
sg611
VSemi Ojeleye
p1805
sg613
I1610612738
sg614
V37
p1806
sg616
g104
sg617
V00
p1807
sg619
g23
sg620
I1628400
ssI203505
(dp1808
g173
VMarquette
p1809
sg175
V200
p1810
sg177
V2017
p1811
sg179
F25.0
sg180
VJUL 17, 1992
p1812
sg182
V6-5
p1813
sg184
VVander Blue
p1814
sg186
I1610612747
sg187
V17
p1815
sg189
g66
sg190
V00
p1816
sg192
g70
sg193
I203505
ssI1628402
(dp1817
g129
VDuke
p1818
sg131
V205
p1819
sg133
V2017
p1820
sg135
F19.0
sg136
VMAY 04, 1998
p1821
sg138
V6-3
p1822
sg140
VFrank Jackson
p1823
sg142
I1610612740
sg143
V15
p1824
sg145
g104
sg147
V00
p1825
sg149
g70
sg150
I1628402
ssI203507
(dp1826
g528
VGreece
p1827
sg530
V222
p1828
sg532
V2017
p1829
sg534
F22.0
sg535
VDEC 06, 1994
p1830
sg537
V6-11
p1831
sg539
VGiannis Antetokounmpo
p1832
sg541
I1610612749
sg542
V34
p1833
sg544
g146
sg545
V00
p1834
sg547
g23
sg548
I203507
ssI204020
(dp1835
g384
VFresno State
p1836
sg386
V190
p1837
sg388
V2017
p1838
sg390
F25.0
sg391
VMAY 07, 1992
p1839
sg393
V6-4
p1840
sg395
VTyler Johnson
p1841
sg397
I1610612748
sg398
g421
sg400
g17
sg401
V00
p1842
sg403
g70
sg404
I204020
ssI201973
(dp1843
g454
VKinna, Sweden
p1844
sg456
V231
p1845
sg458
V2017
p1846
sg460
F30.0
sg461
VMAR 02, 1987
p1847
sg463
V6-10
p1848
sg465
VJonas Jerebko
p1849
sg467
I1610612762
sg468
g421
sg470
g352
sg472
V00
p1850
sg474
g23
sg475
I201973
ssI204022
(dp1851
g107
VNotre Dame
p1852
sg108
V274
p1853
sg110
V2017
p1854
sg112
F26.0
sg113
VAPR 12, 1991
p1855
sg115
V6-10
p1856
sg117
VJack Cooley
p1857
sg119
I1610612758
sg120
V45
p1858
sg122
g123
sg124
V00
p1859
sg126
g94
sg127
I204022
ssI203512
(dp1860
g314
Nsg316
V220
p1861
sg318
V2017
p1862
sg320
F25.0
sg321
VJUL 26, 1992
p1863
sg323
V7-0
p1864
sg325
VLucas Nogueira
p1865
sg327
I1610612761
sg328
V92
p1866
sg330
g17
sg331
V00
p1867
sg333
g94
sg334
I203512
ssI2772
(dp1868
g656
VUCLA
p1869
sg658
V215
p1870
sg660
V2017
p1871
sg662
F32.0
sg663
VJUN 30, 1985
p1872
sg665
V6-8
p1873
sg667
VTrevor Ariza
p1874
sg669
I1610612745
sg670
g123
sg671
V13
p1875
sg672
V00
p1876
sg674
VF-G
p1877
sg675
I2772
ssI203903
(dp1878
g173
VMissouri
p1879
sg175
V194
p1880
sg177
V2017
p1881
sg179
F25.0
sg180
VJUN 07, 1992
p1882
sg182
V6-5
p1883
sg184
VJordan Clarkson
p1884
sg186
I1610612747
sg187
g223
sg189
g17
sg190
V00
p1885
sg192
g70
sg193
I203903
ssI203516
(dp1886
g284
VLong Beach State
p1887
sg286
V210
p1888
sg288
V2017
p1889
sg290
F27.0
sg291
VJUL 01, 1990
p1890
sg293
V6-7
p1891
sg295
VJames Ennis III
p1892
sg297
I1610612763
sg298
g421
sg299
g17
sg300
V00
p1893
sg302
g23
sg303
I203516
ssI203518
(dp1894
g569
Nsg571
V190
p1895
sg573
V2017
p1896
sg575
F24.0
sg576
VAUG 01, 1993
p1897
sg578
V6-6
p1898
sg580
VAlex Abrines
p1899
sg582
I1610612760
sg583
g421
sg585
g123
sg586
V00
p1900
sg588
g70
sg589
I203518
ssI1628415
(dp1901
g284
VOregon
p1902
sg286
V220
p1903
sg288
V2017
p1904
sg290
F21.0
sg291
VJAN 22, 1996
p1905
sg293
V6-6
p1906
sg295
VDillon Brooks
p1907
sg297
I1610612763
sg298
V24
p1908
sg299
g104
sg300
V00
p1909
sg302
VF-G
p1910
sg303
I1628415
ssI1628416
(dp1911
g73
VOregon
p1912
sg75
V183
p1913
sg77
V2017
p1914
sg79
F21.0
sg80
VFEB 18, 1996
p1915
sg82
V6-4
p1916
sg84
VTyler Dorsey
p1917
sg86
I1610612737
sg87
g66
sg89
g104
sg91
V00
p1918
sg93
g70
sg95
I1628416
ssI203521
(dp1919
g528
VSaint Mary's (CA)
p1920
sg530
V198
p1921
sg532
V2017
p1922
sg534
F27.0
sg535
VSEP 08, 1990
p1923
sg537
V6-4
p1924
sg539
VMatthew Dellavedova
p1925
sg541
I1610612749
sg542
g421
sg544
g146
sg545
V00
p1926
sg547
g70
sg548
I203521
ssI1628418
(dp1927
g173
VIndiana
p1928
sg175
V248
p1929
sg177
V2017
p1930
sg179
F20.0
sg180
VJUL 31, 1997
p1931
sg182
V6-10
p1932
sg184
VThomas Bryant
p1933
sg186
I1610612747
sg187
V31
p1934
sg189
g104
sg190
V00
p1935
sg192
g94
sg193
I1628418
ssI1628506
(dp1936
g26
VVirginia
p1937
sg28
V190
p1938
sg30
V2017
p1939
sg32
F23.0
sg33
VOCT 03, 1994
p1940
sg35
V6-2
p1941
sg37
VLondon Perrantes
p1942
sg39
I1610612739
sg40
V15
p1943
sg42
g104
sg44
V00
p1944
sg46
g70
sg47
I1628506
ssI1628420
(dp1945
g195
VIowa State
p1946
sg197
V175
p1947
sg199
V2017
p1948
sg201
F22.0
sg202
VJUN 27, 1995
p1949
sg204
V6-3
p1950
sg206
VMonte Morris
p1951
sg208
I1610612743
sg209
V11
p1952
sg210
g104
sg212
V00
p1953
sg214
g70
sg215
I1628420
ssI1627770
(dp1954
g253
VOakland
p1955
sg255
V176
p1956
sg257
V2017
p1957
sg259
F22.0
sg260
VMAR 29, 1995
p1958
sg262
V5-9
p1959
sg264
VKay Felder
p1960
sg266
I1610612741
sg267
g17
sg269
g123
sg270
V00
p1961
sg272
g70
sg273
I1627770
ssI203526
(dp1962
g454
Nsg456
V179
p1963
sg458
V2017
p1964
sg460
F25.0
sg461
VMAY 19, 1992
p1965
sg463
V6-1
p1966
sg465
VRaul Neto
p1967
sg467
I1610612762
sg468
V25
p1968
sg470
g66
sg472
V00
p1969
sg474
g70
sg475
I203526
ssI1628424
(dp1970
g284
VArizona
p1971
sg286
V170
p1972
sg288
V2017
p1973
sg290
F20.0
sg291
VJUL 04, 1997
p1974
sg293
V6-4
p1975
sg295
VKobi Simmons
p1976
sg297
I1610612763
sg298
g66
sg299
g104
sg300
V00
p1977
sg302
g70
sg303
I1628424
ssI1628425
(dp1978
g528
VSouthern Methodist
p1979
sg530
V230
p1980
sg532
V2017
p1981
sg534
F22.0
sg535
VFEB 10, 1995
p1982
sg537
V6-6
p1983
sg539
VSterling Brown
p1984
sg541
I1610612749
sg542
V23
p1985
sg544
g104
sg545
V00
p1986
sg547
g70
sg548
I1628425
ssI203530
(dp1987
g49
Nsg51
V260
p1988
sg53
V2017
p1989
sg55
F26.0
sg56
VSEP 30, 1991
p1990
sg58
V6-11
p1991
sg60
VJoffrey Lauvergne
p1992
sg62
I1610612759
sg63
V77
p1993
sg65
g17
sg67
V00
p1994
sg69
g94
sg71
I203530
ssI1628429
(dp1995
g129
VDayton
p1996
sg131
V196
p1997
sg133
V2017
p1998
sg135
F23.0
sg136
VJUL 01, 1994
p1999
sg138
V6-5
p2000
sg140
VCharles Cooke
p2001
sg142
I1610612740
sg143
g146
sg145
g104
sg147
V00
p2002
sg149
g70
sg150
I1628429
ssI201980
(dp2003
g49
VNorth Carolina
p2004
sg51
V215
p2005
sg53
V2017
p2006
sg55
F30.0
sg56
VJUN 22, 1987
p2007
sg58
V6-6
p2008
sg60
VDanny Green
p2009
sg62
I1610612759
sg63
V14
p2010
sg65
g421
sg67
V00
p2011
sg69
VG-F
p2012
sg71
I201980
ssI101139
(dp2013
g314
VSkyline HS (TX)
p2014
sg316
V225
p2015
sg318
V2017
p2016
sg320
F30.0
sg321
VMAR 18, 1987
p2017
sg323
V6-6
p2018
sg325
VCJ Miles
p2019
sg327
I1610612761
sg328
g231
sg330
V12
p2020
sg331
V00
p2021
sg333
VF-G
p2022
sg334
I101139
ssI101141
(dp2023
g73
VEskisehir, Turkey
p2024
sg75
V235
p2025
sg77
V2017
p2026
sg79
F30.0
sg80
VMAY 15, 1987
p2027
sg82
V6-10
p2028
sg84
VErsan Ilyasova
p2029
sg86
I1610612737
sg87
g352
sg89
g43
sg91
V00
p2030
sg93
g23
sg95
I101141
ssI201177
(dp2031
g424
VDuke
p2032
sg426
V240
p2033
sg428
V2017
p2034
sg430
F30.0
sg431
VFEB 28, 1987
p2035
sg433
V6-10
p2036
sg435
VJosh McRoberts
p2037
sg437
I1610612742
sg438
V13
p2038
sg440
V10
p2039
sg441
V00
p2040
sg443
VF-C
p2041
sg444
I201177
ssI203546
(dp2042
g129
VBelmont
p2043
sg131
V175
p2044
sg133
V2017
p2045
sg135
F26.0
sg136
VMAR 07, 1991
p2046
sg138
V6-3
p2047
sg140
VIan Clark
p2048
sg142
I1610612740
sg143
g66
sg145
g146
sg147
V00
p2049
sg149
g70
sg150
I203546
ssI203547
(dp2050
g454
VCampbell
p2051
sg456
V205
p2052
sg458
V2017
p2053
sg460
F27.0
sg461
VMAY 26, 1990
p2054
sg463
V6-8
p2055
sg465
VEric Griffin
p2056
sg467
I1610612762
sg468
V17
p2057
sg470
g104
sg472
V00
p2058
sg474
VC-F
p2059
sg475
I203547
ssI204060
(dp2060
g454
Nsg456
V226
p2061
sg458
V2017
p2062
sg460
F30.0
sg461
VOCT 02, 1987
p2063
sg463
V6-8
p2064
sg465
VJoe Ingles
p2065
sg467
I1610612762
sg468
g66
sg470
g17
sg472
V00
p2066
sg474
g23
sg475
I204060
ssI203482
(dp2067
g384
VGonzaga
p2068
sg386
V245
p2069
sg388
V2017
p2070
sg390
F26.0
sg391
VAPR 19, 1991
p2071
sg393
V7-0
p2072
sg395
VKelly Olynyk
p2073
sg397
I1610612748
sg398
g43
sg400
g146
sg401
V00
p2074
sg403
VC-F
p2075
sg404
I203482
ssI101150
(dp2076
g152
VSouth Gwinnett HS (GA)
p2077
sg154
V175
p2078
sg156
V2017
p2079
sg158
F31.0
sg159
VOCT 27, 1986
p2080
sg161
V6-1
p2081
sg163
VLou Williams
p2082
sg165
I1610612746
sg166
V23
p2083
sg167
V12
p2084
sg168
V00
p2085
sg170
g70
sg171
I101150
ssI1626245
(dp2086
g253
Nsg255
V280
p2087
sg257
V2017
p2088
sg259
F25.0
sg260
VJUL 07, 1992
p2089
sg262
V6-9
p2090
sg264
VCristiano Felicio
p2091
sg266
I1610612741
sg267
g223
sg269
g66
sg270
V00
p2092
sg272
VC-F
p2093
sg273
I1626245
ssI203552
(dp2094
g424
VDuke
p2095
sg426
V185
p2096
sg428
V2017
p2097
sg430
F27.0
sg431
VAUG 23, 1990
p2098
sg433
V6-2
p2099
sg435
VSeth Curry
p2100
sg437
I1610612742
sg438
V30
p2101
sg440
g146
sg441
V00
p2102
sg443
g70
sg444
I203552
ssI1628449
(dp2103
g2
VOregon
p2104
sg4
V200
p2105
sg6
V2017
p2106
sg8
F24.0
sg9
VJAN 11, 1993
p2107
sg11
V6-10
p2108
sg13
VChris Boucher
p2109
sg15
I1610612744
sg16
V25
p2110
sg18
g104
sg20
V00
p2111
sg22
g23
sg24
I1628449
ssI204066
(dp2112
g26
VBoston U.
p2113
sg28
V205
p2114
sg30
V2017
p2115
sg32
F29.0
sg33
VNOV 06, 1988
p2116
sg35
V6-5
p2117
sg37
VJohn Holland
p2118
sg39
I1610612739
sg40
V10
p2119
sg42
g123
sg44
V00
p2120
sg46
VG-F
p2121
sg47
I204066
ssI1628451
(dp2122
g355
VEastern Washington
p2123
sg357
V223
p2124
sg359
V2017
p2125
sg361
F23.0
sg362
VSEP 04, 1994
p2126
sg364
V6-8
p2127
sg366
VJacob Wiley
p2128
sg368
I1610612751
sg369
V21
p2129
sg370
g104
sg371
V00
p2130
sg373
g23
sg374
I1628451
ssI201988
(dp2131
g49
VSaint Mary's (CA)
p2132
sg51
V185
p2133
sg53
V2017
p2134
sg55
F29.0
sg56
VAUG 11, 1988
p2135
sg58
V6-0
p2136
sg60
VPatty Mills
p2137
sg62
I1610612759
sg63
g421
sg65
g421
sg67
V00
p2138
sg69
g70
sg71
I201988
ssI203145
(dp2139
g73
VOld Dominion
p2140
sg75
V201
p2141
sg77
V2017
p2142
sg79
F28.0
sg80
VJUL 01, 1989
p2143
sg82
V6-5
p2144
sg84
VKent Bazemore
p2145
sg86
I1610612737
sg87
V24
p2146
sg89
g90
sg91
V00
p2147
sg93
g70
sg95
I203145
ssI1628385
(dp2148
g107
VDuke
p2149
sg108
V240
p2150
sg110
V2017
p2151
sg112
F19.0
sg113
VAPR 22, 1998
p2152
sg115
V6-10
p2153
sg117
VHarry Giles
p2154
sg119
I1610612758
sg120
V20
p2155
sg122
g104
sg124
V00
p2156
sg126
VF-C
p2157
sg127
I1628385
ssI101108
(dp2158
g656
VWake Forest
p2159
sg658
V175
p2160
sg660
V2017
p2161
sg662
F32.0
sg663
VMAY 06, 1985
p2162
sg665
V6-0
p2163
sg667
VChris Paul
p2164
sg669
I1610612745
sg670
g17
sg671
V12
p2165
sg672
V00
p2166
sg674
g70
sg675
I101108
ssI1628462
(dp2167
g152
Nsg154
V196
p2168
sg156
V2017
p2169
sg158
F30.0
sg159
VMAR 19, 1987
p2170
sg161
V6-5
p2171
sg163
VMilos Teodosic
p2172
sg165
I1610612746
sg166
g146
sg167
g104
sg168
V00
p2173
sg170
g70
sg171
I1628462
ssI203485
(dp2174
g314
VNorth Carolina State
p2175
sg316
V189
p2176
sg318
V2017
p2177
sg320
F27.0
sg321
VAUG 26, 1990
p2178
sg323
V6-5
p2179
sg325
VLorenzo Brown
p2180
sg327
I1610612761
sg328
g146
sg330
g17
sg331
V00
p2181
sg333
g70
sg334
I203485
ssI1628464
(dp2182
g600
Nsg602
V243
p2183
sg604
V2017
p2184
sg606
F25.0
sg607
VAPR 04, 1992
p2185
sg609
V6-9
p2186
sg611
VDaniel Theis
p2187
sg613
I1610612738
sg614
V27
p2188
sg616
g104
sg617
V00
p2189
sg619
VF-C
p2190
sg620
I1628464
ssI1628467
(dp2191
g424
Nsg426
V220
p2192
sg428
V2017
p2193
sg430
F25.0
sg431
VJAN 29, 1992
p2194
sg433
V6-11
p2195
sg435
VMaxi Kleber
p2196
sg437
I1610612742
sg438
V42
p2197
sg440
g104
sg441
V00
p2198
sg443
g23
sg444
I1628467
ssI203486
(dp2199
g195
VDuke
p2200
sg197
V255
p2201
sg199
V2017
p2202
sg201
F27.0
sg202
VMAR 05, 1990
p2203
sg204
V6-11
p2204
sg206
VMason Plumlee
p2205
sg208
I1610612743
sg209
V24
p2206
sg210
g146
sg212
V00
p2207
sg214
VC-F
p2208
sg215
I203486
ssI1628470
(dp2209
g195
VSouth Carolina Upstate
p2210
sg197
V215
p2211
sg199
V2017
p2212
sg201
F26.0
sg202
VDEC 19, 1990
p2213
sg204
V6-6
p2214
sg206
VTorrey Craig
p2215
sg208
I1610612743
sg209
g17
sg210
g104
sg212
V00
p2216
sg214
VG-F
p2217
sg215
I1628470
ssI2738
(dp2218
g2
VArizona
p2219
sg4
V215
p2220
sg6
V2017
p2221
sg8
F33.0
sg9
VJAN 28, 1984
p2222
sg11
V6-6
p2223
sg13
VAndre Iguodala
p2224
sg15
I1610612744
sg16
g43
sg18
V13
p2225
sg20
V00
p2226
sg22
VG-F
p2227
sg24
I2738
ssI1628473
(dp2228
g355
Nsg357
V220
p2229
sg359
V2017
p2230
sg361
F25.0
sg362
VJAN 24, 1992
p2231
sg364
V6-4
p2232
sg366
VYakuba Ouattara
p2233
sg368
I1610612751
sg369
V00
p2234
sg370
g104
sg371
V00
p2235
sg373
g70
sg374
I1628473
ssI1628475
(dp2236
g384
VCentral Florida
p2237
sg386
V210
p2238
sg388
V2017
p2239
sg390
F24.0
sg391
VOCT 14, 1993
p2240
sg393
V6-5
p2241
sg395
VMatt Williams Jr.
p2242
sg397
I1610612748
sg398
V12
p2243
sg400
g104
sg401
V00
p2244
sg403
g70
sg404
I1628475
ssI1628476
(dp2245
g384
VMichigan
p2246
sg386
V185
p2247
sg388
V2017
p2248
sg390
F22.0
sg391
VAPR 03, 1995
p2249
sg393
V6-1
p2250
sg395
VDerrick Walton Jr.
p2251
sg397
I1610612748
sg398
V14
p2252
sg400
g104
sg401
V00
p2253
sg403
g70
sg404
I1628476
ssI1627786
(dp2254
g656
VIndiana
p2255
sg658
V218
p2256
sg660
V2017
p2257
sg662
F22.0
sg663
VDEC 30, 1994
p2258
sg665
V6-7
p2259
sg667
VTroy Williams
p2260
sg669
I1610612745
sg670
g90
sg671
g123
sg672
V00
p2261
sg674
g23
sg675
I1627786
ssI1628469
(dp2262
g253
VLouisiana State
p2263
sg255
V197
p2264
sg257
V2017
p2265
sg259
F21.0
sg260
VOCT 04, 1996
p2266
sg262
V6-4
p2267
sg264
VAntonio Blakeney
p2268
sg266
I1610612741
sg267
g43
sg269
g104
sg270
V00
p2269
sg272
g70
sg273
I1628469
ssI203585
(dp2270
g384
VKansas State
p2271
sg386
V200
p2272
sg388
V2017
p2273
sg390
F26.0
sg391
VJUL 29, 1991
p2274
sg393
V6-4
p2275
sg395
VRodney McGruder
p2276
sg397
I1610612748
sg398
V17
p2277
sg400
g123
sg401
V00
p2278
sg403
VG-F
p2279
sg404
I203585
ssI203076
(dp2280
g129
VKentucky
p2281
sg131
V253
p2282
sg133
V2017
p2283
sg135
F24.0
sg136
VMAR 11, 1993
p2284
sg138
V6-10
p2285
sg140
VAnthony Davis
p2286
sg142
I1610612740
sg143
V23
p2287
sg145
g90
sg147
V00
p2288
sg149
VF-C
p2289
sg150
I203076
ssI203079
(dp2290
g384
VSyracuse
p2291
sg386
V215
p2292
sg388
V2017
p2293
sg390
F25.0
sg391
VDEC 10, 1991
p2294
sg393
V6-4
p2295
sg395
VDion Waiters
p2296
sg397
I1610612748
sg398
V11
p2297
sg400
g90
sg401
V00
p2298
sg403
g70
sg404
I203079
ssI1628386
(dp2299
g355
VTexas
p2300
sg357
V234
p2301
sg359
V2017
p2302
sg361
F19.0
sg362
VAPR 21, 1998
p2303
sg364
V6-11
p2304
sg366
VJarrett Allen
p2305
sg368
I1610612751
sg369
V31
p2306
sg370
g104
sg371
V00
p2307
sg373
g94
sg374
I1628386
ssI1628369
(dp2308
g600
VDuke
p2309
sg602
V205
p2310
sg604
V2017
p2311
sg606
F19.0
sg607
VMAR 03, 1998
p2312
sg609
V6-8
p2313
sg611
VJayson Tatum
p2314
sg613
I1610612738
sg614
g231
sg616
g104
sg617
V00
p2315
sg619
g23
sg620
I1628369
ssI1628492
(dp2316
g424
VColorado State
p2317
sg426
V185
p2318
sg428
V2017
p2319
sg430
F23.0
sg431
VNOV 26, 1993
p2320
sg433
V6-4
p2321
sg435
VGian Clavell
p2322
sg437
I1610612742
sg438
g421
sg440
g104
sg441
V00
p2323
sg443
g70
sg444
I1628492
ssI203085
(dp2324
g152
VDuke
p2325
sg154
V200
p2326
sg156
V2017
p2327
sg158
F25.0
sg159
VAUG 01, 1992
p2328
sg161
V6-4
p2329
sg163
VAustin Rivers
p2330
sg165
I1610612746
sg166
V25
p2331
sg167
g90
sg168
V00
p2332
sg170
g70
sg171
I203085
ssI203089
(dp2333
g528
VNorth Carolina
p2334
sg530
V229
p2335
sg532
V2017
p2336
sg534
F26.0
sg535
VDEC 28, 1990
p2337
sg537
V6-11
p2338
sg539
VJohn Henson
p2339
sg541
I1610612749
sg542
V31
p2340
sg544
g90
sg545
V00
p2341
sg547
VF-C
p2342
sg548
I203089
ssI202066
(dp2343
g107
VLouisiana State
p2344
sg108
V195
p2345
sg110
V2017
p2346
sg112
F31.0
sg113
VMAY 08, 1986
p2347
sg115
V6-6
p2348
sg117
VGarrett Temple
p2349
sg119
I1610612758
sg120
V17
p2350
sg122
g352
sg124
V00
p2351
sg126
g70
sg127
I202066
ssI202344
(dp2352
g355
VClemson
p2353
sg357
V228
p2354
sg359
V2017
p2355
sg361
F29.0
sg362
VNOV 25, 1987
p2356
sg364
V6-8
p2357
sg366
VTrevor Booker
p2358
sg368
I1610612751
sg369
V35
p2359
sg370
g352
sg371
V00
p2360
sg373
g23
sg374
I202344
ssI203092
(dp2361
g355
VNorth Carolina
p2362
sg357
V250
p2363
sg359
V2017
p2364
sg361
F27.0
sg362
VJAN 17, 1990
p2365
sg364
V7-0
p2366
sg366
VTyler Zeller
p2367
sg368
I1610612751
sg369
V44
p2368
sg370
g90
sg371
V00
p2369
sg373
g94
sg374
I203092
ssI1627790
(dp2370
g26
Nsg28
V250
p2371
sg30
V2017
p2372
sg32
F20.0
sg33
VJAN 04, 1997
p2373
sg35
V6-11
p2374
sg37
VAnte Zizic
p2375
sg39
I1610612739
sg40
V41
p2376
sg42
g104
sg44
V00
p2377
sg46
VF-C
p2378
sg47
I1627790
ssI201976
(dp2379
g152
VArkansas
p2380
sg154
V185
p2381
sg156
V2017
p2382
sg158
F29.0
sg159
VJUL 12, 1988
p2383
sg161
V6-1
p2384
sg163
VPatrick Beverley
p2385
sg165
I1610612746
sg166
V21
p2386
sg167
g90
sg168
V00
p2387
sg170
g70
sg171
I201976
ssI1627824
(dp2388
g600
Nsg602
V260
p2389
sg604
V2017
p2390
sg606
F21.0
sg607
VDEC 17, 1995
p2391
sg609
V6-8
p2392
sg611
VGuerschon Yabusele
p2393
sg613
I1610612738
sg614
V30
p2394
sg616
g104
sg617
V00
p2395
sg619
g23
sg620
I1627824
ssI2747
(dp2396
g26
VSt. Benedict's Prep (NJ)
p2397
sg28
V225
p2398
sg30
V2017
p2399
sg32
F32.0
sg33
VSEP 09, 1985
p2400
sg35
V6-6
p2401
sg37
VJR Smith
p2402
sg39
I1610612739
sg40
g90
sg42
V13
p2403
sg44
V00
p2404
sg46
VG-F
p2405
sg47
I2747
ssI201565
(dp2406
g26
VMemphis
p2407
sg28
V190
p2408
sg30
V2017
p2409
sg32
F29.0
sg33
VOCT 04, 1988
p2410
sg35
V6-3
p2411
sg37
VDerrick Rose
p2412
sg39
I1610612739
sg40
g123
sg42
g421
sg44
V00
p2413
sg46
g70
sg47
I201565
ssI201566
(dp2414
g569
VUCLA
p2415
sg571
V200
p2416
sg573
V2017
p2417
sg575
F28.0
sg576
VNOV 12, 1988
p2418
sg578
V6-3
p2419
sg580
VRussell Westbrook
p2420
sg582
I1610612760
sg583
g231
sg585
g43
sg586
V00
p2421
sg588
g70
sg589
I201566
ssI201567
(dp2422
g26
VUCLA
p2423
sg28
V251
p2424
sg30
V2017
p2425
sg32
F29.0
sg33
VSEP 07, 1988
p2426
sg35
V6-10
p2427
sg37
VKevin Love
p2428
sg39
I1610612739
sg40
g231
sg42
g43
sg44
V00
p2429
sg46
VF-C
p2430
sg47
I201567
ssI201568
(dp2431
g152
VSant'Angelo Lodigiano, Italy
p2432
sg154
V225
p2433
sg156
V2017
p2434
sg158
F29.0
sg159
VAUG 08, 1988
p2435
sg161
V6-10
p2436
sg163
VDanilo Gallinari
p2437
sg165
I1610612746
sg166
g421
sg167
g421
sg168
V00
p2438
sg170
g23
sg171
I201568
ssI201569
(dp2439
g656
VIndiana
p2440
sg658
V215
p2441
sg660
V2017
p2442
sg662
F28.0
sg663
VDEC 25, 1988
p2443
sg665
V6-4
p2444
sg667
VEric Gordon
p2445
sg669
I1610612745
sg670
V10
p2446
sg671
g43
sg672
V00
p2447
sg674
g70
sg675
I201569
ssI1891
(dp2448
g528
VArizona
p2449
sg530
V185
p2450
sg532
V2017
p2451
sg534
F40.0
sg535
VSEP 15, 1977
p2452
sg537
V6-2
p2453
sg539
VJason Terry
p2454
sg541
I1610612749
sg542
g17
sg544
V18
p2455
sg545
V00
p2456
sg547
g70
sg548
I1891
ssI201572
(dp2457
g173
VStanford
p2458
sg175
V268
p2459
sg177
V2017
p2460
sg179
F29.0
sg180
VAPR 01, 1988
p2461
sg182
V7-0
p2462
sg184
VBrook Lopez
p2463
sg186
I1610612747
sg187
V11
p2464
sg189
g43
sg190
V00
p2465
sg192
g94
sg193
I201572
ssI203109
(dp2466
g26
VMarquette
p2467
sg28
V235
p2468
sg30
V2017
p2469
sg32
F27.0
sg33
VJUL 06, 1990
p2470
sg35
V6-6
p2471
sg37
VJae Crowder
p2472
sg39
I1610612739
sg40
V99
p2473
sg42
g90
sg44
V00
p2474
sg46
g23
sg47
I203109
ssI203110
(dp2475
g2
VMichigan State
p2476
sg4
V230
p2477
sg6
V2017
p2478
sg8
F27.0
sg9
VMAR 04, 1990
p2479
sg11
V6-7
p2480
sg13
VDraymond Green
p2481
sg15
I1610612744
sg16
V23
p2482
sg18
g90
sg20
V00
p2483
sg22
g23
sg24
I203110
ssI203112
(dp2484
g355
VBaylor
p2485
sg357
V240
p2486
sg359
V2017
p2487
sg361
F27.0
sg362
VOCT 06, 1990
p2488
sg364
V6-7
p2489
sg366
VQuincy Acy
p2490
sg368
I1610612751
sg369
V13
p2491
sg370
g90
sg371
V00
p2492
sg373
g23
sg374
I203112
ssI201577
(dp2493
g253
VStanford
p2494
sg255
V277
p2495
sg257
V2017
p2496
sg259
F29.0
sg260
VAPR 01, 1988
p2497
sg262
V7-0
p2498
sg264
VRobin Lopez
p2499
sg266
I1610612741
sg267
V42
p2500
sg269
g43
sg270
V00
p2501
sg272
g94
sg273
I201577
ssI203114
(dp2502
g528
VTexas A&M
p2503
sg530
V234
p2504
sg532
V2017
p2505
sg534
F26.0
sg535
VAUG 12, 1991
p2506
sg537
V6-8
p2507
sg539
VKhris Middleton
p2508
sg541
I1610612749
sg542
V22
p2509
sg544
g90
sg545
V00
p2510
sg547
g23
sg548
I203114
ssI203115
(dp2511
g195
VMemphis
p2512
sg197
V190
p2513
sg199
V2017
p2514
sg201
F26.0
sg202
VJAN 06, 1991
p2515
sg204
V6-6
p2516
sg206
VWill Barton
p2517
sg208
I1610612743
sg209
g90
sg210
g90
sg212
V00
p2518
sg214
VG-F
p2519
sg215
I203115
ssI201580
(dp2520
g2
VNevada
p2521
sg4
V270
p2522
sg6
V2017
p2523
sg8
F29.0
sg9
VJAN 19, 1988
p2524
sg11
V7-0
p2525
sg13
VJaVale McGee
p2526
sg15
I1610612744
sg16
g123
sg18
g43
sg20
V00
p2527
sg22
g94
sg24
I201580
ssI101112
(dp2528
g26
VArizona
p2529
sg28
V255
p2530
sg30
V2017
p2531
sg32
F34.0
sg33
VMAY 17, 1983
p2532
sg35
V6-11
p2533
sg37
VChanning Frye
p2534
sg39
I1610612739
sg40
g421
sg42
V11
p2535
sg44
V00
p2536
sg46
g23
sg47
I101112
ssI201582
(dp2537
g129
VSaint Etienne, France
p2538
sg131
V248
p2539
sg133
V2017
p2540
sg135
F29.0
sg136
VMAY 06, 1988
p2541
sg138
V7-2
p2542
sg140
VAlexis Ajinca
p2543
sg142
I1610612740
sg143
V42
p2544
sg145
g352
sg147
V00
p2545
sg149
g94
sg150
I201582
ssI200765
(dp2546
g129
VKentucky
p2547
sg131
V186
p2548
sg133
V2017
p2549
sg135
F31.0
sg136
VFEB 22, 1986
p2550
sg138
V6-1
p2551
sg140
VRajon Rondo
p2552
sg142
I1610612740
sg143
g43
sg145
V11
p2553
sg147
V00
p2554
sg149
g70
sg150
I200765
ssI1717
(dp2555
g424
VWurzburg, Germany
p2556
sg426
V245
p2557
sg428
V2017
p2558
sg430
F39.0
sg431
VJUN 19, 1978
p2559
sg433
V7-0
p2560
sg435
VDirk Nowitzki
p2561
sg437
I1610612742
sg438
V41
p2562
sg440
V19
p2563
sg441
V00
p2564
sg443
VF-C
p2565
sg444
I1717
ssI201586
(dp2566
g314
VBrazzaville, Rep. of Congo
p2567
sg316
V235
p2568
sg318
V2017
p2569
sg320
F28.0
sg321
VSEP 18, 1989
p2570
sg323
V6-10
p2571
sg325
VSerge Ibaka
p2572
sg327
I1610612761
sg328
g43
sg330
g421
sg331
V00
p2573
sg333
g23
sg334
I201586
ssI201588
(dp2574
g107
VIndiana Purdue-Indianapolis
p2575
sg108
V188
p2576
sg110
V2017
p2577
sg112
F31.0
sg113
VMAY 04, 1986
p2578
sg115
V6-3
p2579
sg117
VGeorge Hill
p2580
sg119
I1610612758
sg120
g17
sg122
g43
sg124
V00
p2581
sg126
g70
sg127
I201588
ssI201589
(dp2582
g195
VKansas
p2583
sg197
V235
p2584
sg199
V2017
p2585
sg201
F29.0
sg202
VMAR 25, 1988
p2586
sg204
V6-9
p2587
sg206
VDarrell Arthur
p2588
sg208
I1610612743
sg209
V00
p2589
sg210
g421
sg212
V00
p2590
sg214
g23
sg215
I201589
ssI201961
(dp2591
g384
VNorth Carolina
p2592
sg386
V200
p2593
sg388
V2017
p2594
sg390
F29.0
sg391
VNOV 29, 1987
p2595
sg393
V6-5
p2596
sg395
VWayne Ellington
p2597
sg397
I1610612748
sg398
g66
sg400
g421
sg401
V00
p2598
sg403
g70
sg404
I201961
ssI201596
(dp2599
g284
VKansas
p2600
sg286
V190
p2601
sg288
V2017
p2602
sg290
F31.0
sg291
VMAY 19, 1986
p2603
sg293
V6-2
p2604
sg295
VMario Chalmers
p2605
sg297
I1610612763
sg298
g223
sg299
g421
sg300
V00
p2606
sg302
g70
sg303
I201596
ssI201599
(dp2607
g152
VTexas A&M
p2608
sg154
V265
p2609
sg156
V2017
p2610
sg158
F29.0
sg159
VJUL 21, 1988
p2611
sg161
V6-11
p2612
sg163
VDeAndre Jordan
p2613
sg165
I1610612746
sg166
g223
sg167
g43
sg168
V00
p2614
sg170
g94
sg171
I201599
ssI201600
(dp2615
g129
VTurkey
p2616
sg131
V255
p2617
sg133
V2017
p2618
sg135
F31.0
sg136
VJUL 04, 1986
p2619
sg138
V7-0
p2620
sg140
VOmer Asik
p2621
sg142
I1610612740
sg143
g17
sg145
g352
sg147
V00
p2622
sg149
g94
sg150
I201600
ssI201601
(dp2623
g656
VUCLA
p2624
sg658
V230
p2625
sg660
V2017
p2626
sg662
F31.0
sg663
VSEP 09, 1986
p2627
sg665
V6-8
p2628
sg667
VLuc Mbah a Moute
p2629
sg669
I1610612745
sg670
V12
p2630
sg671
g43
sg672
V00
p2631
sg674
g23
sg675
I201601
ssI1628035
(dp2632
g314
VWisc.-Green Bay
p2633
sg316
V215
p2634
sg318
V2017
p2635
sg320
F25.0
sg321
VSEP 17, 1992
p2636
sg323
V6-8
p2637
sg325
VAlfonzo McKinnie
p2638
sg327
I1610612761
sg328
V34
p2639
sg330
g104
sg331
V00
p2640
sg333
g23
sg334
I1628035
ssI203141
(dp2641
g528
VBosnia
p2642
sg530
V242
p2643
sg532
V2017
p2644
sg534
F32.0
sg535
VSEP 17, 1985
p2645
sg537
V6-9
p2646
sg539
VMirza Teletovic
p2647
sg541
I1610612749
sg542
V35
p2648
sg544
g90
sg545
V00
p2649
sg547
g23
sg548
I203141
ssI200752
(dp2650
g49
VConnecticut
p2651
sg51
V230
p2652
sg53
V2017
p2653
sg55
F31.0
sg56
VAUG 17, 1986
p2654
sg58
V6-8
p2655
sg60
VRudy Gay
p2656
sg62
I1610612759
sg63
V22
p2657
sg65
V11
p2658
sg67
V00
p2659
sg69
g23
sg71
I200752
ssI201609
(dp2660
g384
VLjubljana, Slovenia
p2661
sg386
V190
p2662
sg388
V2017
p2663
sg390
F31.0
sg391
VMAY 06, 1986
p2664
sg393
V6-3
p2665
sg395
VGoran Dragic
p2666
sg397
I1610612748
sg398
g352
sg400
g43
sg401
V00
p2667
sg403
g70
sg404
I201609
ssI202391
(dp2668
g355
VHarvard
p2669
sg357
V200
p2670
sg359
V2017
p2671
sg361
F29.0
sg362
VAUG 23, 1988
p2672
sg364
V6-3
p2673
sg366
VJeremy Lin
p2674
sg368
I1610612751
sg369
g352
sg370
g352
sg371
V00
p2675
sg373
g70
sg374
I202391
ssI203935
(dp2676
g600
VOklahoma State
p2677
sg602
V220
p2678
sg604
V2017
p2679
sg606
F23.0
sg607
VMAR 06, 1994
p2680
sg609
V6-4
p2681
sg611
VMarcus Smart
p2682
sg613
I1610612738
sg614
V36
p2683
sg616
g17
sg617
V00
p2684
sg619
g70
sg620
I203935
ssI1626161
(dp2685
g107
VKentucky
p2686
sg108
V240
p2687
sg110
V2017
p2688
sg112
F24.0
sg113
VAUG 18, 1993
p2689
sg115
V7-0
p2690
sg117
VWillie Cauley-Stein
p2691
sg119
I1610612758
sg120
V00
p2692
sg122
g66
sg124
V00
p2693
sg126
g94
sg127
I1626161
ssI1938
(dp2694
g49
VBahia Blanca, Argentina
p2695
sg51
V205
p2696
sg53
V2017
p2697
sg55
F40.0
sg56
VJUL 28, 1977
p2698
sg58
V6-6
p2699
sg60
VManu Ginobili
p2700
sg62
I1610612759
sg63
V20
p2701
sg65
V15
p2702
sg67
V00
p2703
sg69
g70
sg71
I1938
ssI1627785
(dp2704
g355
VSeton Hall
p2705
sg357
V213
p2706
sg359
V2017
p2707
sg361
F22.0
sg362
VMAR 08, 1995
p2708
sg364
V6-4
p2709
sg366
VIsaiah Whitehead
p2710
sg368
I1610612751
sg369
V15
p2711
sg370
g123
sg371
V00
p2712
sg373
g70
sg374
I1627785
ssI1628382
(dp2713
g107
VNorth Carolina
p2714
sg108
V210
p2715
sg110
V2017
p2716
sg112
F22.0
sg113
VMAR 28, 1995
p2717
sg115
V6-8
p2718
sg117
VJustin Jackson
p2719
sg119
I1610612758
sg120
V25
p2720
sg122
g104
sg124
V00
p2721
sg126
g23
sg127
I1628382
ssI1628399
(dp2722
g195
VSyracuse
p2723
sg197
V220
p2724
sg199
V2017
p2725
sg201
F21.0
sg202
VAPR 09, 1996
p2726
sg204
V6-9
p2727
sg206
VTyler Lydon
p2728
sg208
I1610612743
sg209
V20
p2729
sg210
g104
sg212
V00
p2730
sg214
g23
sg215
I1628399
ssI201628
(dp2731
g656
VCal State-Fullerton
p2732
sg658
V175
p2733
sg660
V2017
p2734
sg662
F33.0
sg663
VSEP 24, 1984
p2735
sg665
V6-2
p2736
sg667
VBobby Brown
p2737
sg669
I1610612745
sg670
g223
sg671
g17
sg672
V00
p2738
sg674
g70
sg675
I201628
ssI1627741
(dp2739
g107
VOklahoma
p2740
sg108
V214
p2741
sg110
V2017
p2742
sg112
F23.0
sg113
VDEC 17, 1993
p2743
sg115
V6-4
p2744
sg117
VBuddy Hield
p2745
sg119
I1610612758
sg120
V24
p2746
sg122
g123
sg124
V00
p2747
sg126
g70
sg127
I1627741
ssI1628401
(dp2748
g49
VColorado
p2749
sg51
V190
p2750
sg53
V2017
p2751
sg55
F23.0
sg56
VJUL 02, 1994
p2752
sg58
V6-4
p2753
sg60
VDerrick White
p2754
sg62
I1610612759
sg63
g146
sg65
g104
sg67
V00
p2755
sg69
g70
sg71
I1628401
ssI101106
(dp2756
g173
VUtah
p2757
sg175
V260
p2758
sg177
V2017
p2759
sg179
F32.0
sg180
VNOV 28, 1984
p2760
sg182
V7-0
p2761
sg184
VAndrew Bogut
p2762
sg186
I1610612747
sg187
V66
p2763
sg189
V12
p2764
sg190
V00
p2765
sg192
g94
sg193
I101106
ssI202330
(dp2766
g600
VButler
p2767
sg602
V226
p2768
sg604
V2017
p2769
sg606
F27.0
sg607
VMAR 23, 1990
p2770
sg609
V6-8
p2771
sg611
VGordon Hayward
p2772
sg613
I1610612738
sg614
V20
p2773
sg616
g352
sg617
V00
p2774
sg619
g23
sg620
I202330
ssI1628381
(dp2775
g73
VWake Forest
p2776
sg75
V235
p2777
sg77
V2017
p2778
sg79
F20.0
sg80
VSEP 23, 1997
p2779
sg82
V6-10
p2780
sg84
VJohn Collins
p2781
sg86
I1610612737
sg87
V20
p2782
sg89
g104
sg91
V00
p2783
sg93
VF-C
p2784
sg95
I1628381
ssI203186
(dp2785
g152
VSaint Louis
p2786
sg154
V245
p2787
sg156
V2017
p2788
sg158
F27.0
sg159
VMAY 16, 1990
p2789
sg161
V6-11
p2790
sg163
VWillie Reed
p2791
sg165
I1610612746
sg166
V35
p2792
sg167
g66
sg168
V00
p2793
sg170
g94
sg171
I203186
ssI203473
(dp2794
g73
VSouthern California
p2795
sg75
V245
p2796
sg77
V2017
p2797
sg79
F28.0
sg80
VAUG 12, 1989
p2798
sg82
V7-0
p2799
sg84
VDewayne Dedmon
p2800
sg86
I1610612737
sg87
V14
p2801
sg89
g146
sg91
V00
p2802
sg93
g94
sg95
I203473
ssI201142
(dp2803
g2
VTexas
p2804
sg4
V240
p2805
sg6
V2017
p2806
sg8
F29.0
sg9
VSEP 29, 1988
p2807
sg11
V6-9
p2808
sg13
VKevin Durant
p2809
sg15
I1610612744
sg16
V35
p2810
sg18
V10
p2811
sg20
V00
p2812
sg22
g23
sg24
I201142
ssI201143
(dp2813
g600
VFlorida
p2814
sg602
V245
p2815
sg604
V2017
p2816
sg606
F31.0
sg607
VJUN 03, 1986
p2817
sg609
V6-10
p2818
sg611
VAl Horford
p2819
sg613
I1610612738
sg614
V42
p2820
sg616
V10
p2821
sg617
V00
p2822
sg619
VF-C
p2823
sg620
I201143
ssI201144
(dp2824
g284
VOhio State
p2825
sg286
V175
p2826
sg288
V2017
p2827
sg290
F30.0
sg291
VOCT 11, 1987
p2828
sg293
V6-1
p2829
sg295
VMike Conley
p2830
sg297
I1610612763
sg298
V11
p2831
sg299
V10
p2832
sg300
V00
p2833
sg302
g70
sg303
I201144
ssI1628404
(dp2834
g173
VVillanova
p2835
sg175
V215
p2836
sg177
V2017
p2837
sg179
F22.0
sg180
VMAR 06, 1995
p2838
sg182
V6-5
p2839
sg184
VJosh Hart
p2840
sg186
I1610612747
sg187
g90
sg189
g104
sg190
V00
p2841
sg192
g70
sg193
I1628404
ssI201147
(dp2842
g173
VFlorida
p2843
sg175
V186
p2844
sg177
V2017
p2845
sg179
F31.0
sg180
VMAR 05, 1986
p2846
sg182
V6-9
p2847
sg184
VCorey Brewer
p2848
sg186
I1610612747
sg187
g17
sg189
V10
p2849
sg190
V00
p2850
sg192
g23
sg193
I201147
ssI201148
(dp2851
g284
VNorth Carolina
p2852
sg286
V235
p2853
sg288
V2017
p2854
sg290
F30.0
sg291
VOCT 05, 1987
p2855
sg293
V6-10
p2856
sg295
VBrandan Wright
p2857
sg297
I1610612763
sg298
V34
p2858
sg299
g43
sg300
V00
p2859
sg302
VF-C
p2860
sg303
I201148
ssI202685
(dp2861
g314
VUtena, Lithuania
p2862
sg316
V255
p2863
sg318
V2017
p2864
sg320
F25.0
sg321
VMAY 06, 1992
p2865
sg323
V7-0
p2866
sg325
VJonas Valanciunas
p2867
sg327
I1610612761
sg328
V17
p2868
sg330
g90
sg331
V00
p2869
sg333
g94
sg334
I202685
ssI203710
(dp2870
g152
VNorth Carolina State
p2871
sg154
V230
p2872
sg156
V2017
p2873
sg158
F27.0
sg159
VFEB 06, 1990
p2874
sg161
V6-5
p2875
sg163
VC.J. Williams
p2876
sg165
I1610612746
sg166
g43
sg167
g104
sg168
V00
p2877
sg170
g70
sg171
I203710
ssI101109
(dp2878
g569
VNorth Carolina
p2879
sg571
V205
p2880
sg573
V2017
p2881
sg575
F33.0
sg576
VJUN 26, 1984
p2882
sg578
V6-1
p2883
sg580
VRaymond Felton
p2884
sg582
I1610612760
sg583
g66
sg585
V12
p2885
sg586
V00
p2886
sg588
g70
sg589
I101109
ssI203200
(dp2887
g253
VWashington
p2888
sg255
V185
p2889
sg257
V2017
p2890
sg259
F28.0
sg260
VAPR 05, 1989
p2891
sg262
V6-6
p2892
sg264
VJustin Holiday
p2893
sg266
I1610612741
sg267
g352
sg269
g146
sg270
V00
p2894
sg272
g70
sg273
I203200
ssI1627856
(dp2895
g49
VMichigan State
p2896
sg51
V240
p2897
sg53
V2017
p2898
sg55
F24.0
sg56
VAUG 05, 1993
p2899
sg58
V6-10
p2900
sg60
VMatt Costello
p2901
sg62
I1610612759
sg63
V10
p2902
sg65
g104
sg67
V00
p2903
sg69
VF-C
p2904
sg71
I1627856
ssI202691
(dp2905
g2
VWashington State
p2906
sg4
V215
p2907
sg6
V2017
p2908
sg8
F27.0
sg9
VFEB 08, 1990
p2909
sg11
V6-7
p2910
sg13
VKlay Thompson
p2911
sg15
I1610612744
sg16
V11
p2912
sg18
g223
sg20
V00
p2913
sg22
g70
sg24
I202691
ssI202692
(dp2914
g454
VColorado
p2915
sg456
V214
p2916
sg458
V2017
p2917
sg460
F26.0
sg461
VJUL 20, 1991
p2918
sg463
V6-6
p2919
sg465
VAlec Burks
p2920
sg467
I1610612762
sg468
V10
p2921
sg470
g223
sg472
V00
p2922
sg474
g70
sg475
I202692
ssI1628405
(dp2923
g424
VBaylor
p2924
sg426
V230
p2925
sg428
V2017
p2926
sg430
F22.0
sg431
VMAY 04, 1995
p2927
sg433
V6-10
p2928
sg435
VJohnathan Motley
p2929
sg437
I1610612742
sg438
g223
sg440
g104
sg441
V00
p2930
sg443
g23
sg444
I1628405
ssI202695
(dp2931
g49
VSan Diego State
p2932
sg51
V230
p2933
sg53
V2017
p2934
sg55
F26.0
sg56
VJUN 29, 1991
p2935
sg58
V6-7
p2936
sg60
VKawhi Leonard
p2937
sg62
I1610612759
sg63
g66
sg65
g223
sg67
V00
p2938
sg69
g23
sg71
I202695
ssI201158
(dp2939
g73
VBologna, Italy
p2940
sg75
V210
p2941
sg77
V2017
p2942
sg79
F31.0
sg80
VMAR 25, 1986
p2943
sg82
V6-5
p2944
sg84
VMarco Belinelli
p2945
sg86
I1610612737
sg87
g17
sg89
V10
p2946
sg91
V00
p2947
sg93
VG-F
p2948
sg95
I201158
ssI203084
(dp2949
g424
VNorth Carolina
p2950
sg426
V225
p2951
sg428
V2017
p2952
sg430
F25.0
sg431
VMAY 30, 1992
p2953
sg433
V6-8
p2954
sg435
VHarrison Barnes
p2955
sg437
I1610612742
sg438
V40
p2956
sg440
g90
sg441
V00
p2957
sg443
g23
sg444
I203084
ssI203210
(dp2958
g284
VAlabama
p2959
sg286
V227
p2960
sg288
V2017
p2961
sg290
F27.0
sg291
VJUN 21, 1990
p2962
sg293
V6-9
p2963
sg295
VJaMychal Green
p2964
sg297
I1610612763
sg298
g231
sg299
g17
sg300
V00
p2965
sg302
g23
sg303
I203210
ssI201163
(dp2966
g195
VDePaul
p2967
sg197
V225
p2968
sg199
V2017
p2969
sg201
F30.0
sg202
VMAY 10, 1987
p2970
sg204
V6-9
p2971
sg206
VWilson Chandler
p2972
sg208
I1610612743
sg209
V21
p2973
sg210
g43
sg212
V00
p2974
sg214
g23
sg215
I201163
ssI1713
(dp2975
g107
VNorth Carolina
p2976
sg108
V220
p2977
sg110
V2017
p2978
sg112
F40.0
sg113
VJAN 26, 1977
p2979
sg115
V6-6
p2980
sg117
VVince Carter
p2981
sg119
I1610612758
sg120
V15
p2982
sg122
V19
p2983
sg124
V00
p2984
sg126
VG-F
p2985
sg127
I1713
ssI202702
(dp2986
g195
VMorehead State
p2987
sg197
V228
p2988
sg199
V2017
p2989
sg201
F27.0
sg202
VNOV 19, 1989
p2990
sg204
V6-8
p2991
sg206
VKenneth Faried
p2992
sg208
I1610612743
sg209
V35
p2993
sg210
g223
sg212
V00
p2994
sg214
g23
sg215
I202702
ssI202703
(dp2995
g253
Nsg255
V238
p2996
sg257
V2017
p2997
sg259
F26.0
sg260
VFEB 11, 1991
p2998
sg262
V6-10
p2999
sg264
VNikola Mirotic
p3000
sg266
I1610612741
sg267
V44
p3001
sg269
g17
sg270
V00
p3002
sg272
g23
sg273
I202703
ssI1628408
(dp3003
g569
VSouth Carolina
p3004
sg571
V205
p3005
sg573
V2017
p3006
sg575
F21.0
sg576
VOCT 25, 1996
p3007
sg578
V6-6
p3008
sg580
VPJ Dozier
p3009
sg582
I1610612760
sg583
V35
p3010
sg585
g104
sg586
V00
p3011
sg588
g70
sg589
I1628408
ssI1627747
(dp3012
g355
VMichigan
p3013
sg357
V203
p3014
sg359
V2017
p3015
sg361
F23.0
sg362
VAUG 25, 1994
p3016
sg364
V6-7
p3017
sg366
VCaris LeVert
p3018
sg368
I1610612751
sg369
V22
p3019
sg370
g123
sg371
V00
p3020
sg373
VG-F
p3021
sg374
I1627747
ssI203471
(dp3022
g73
VGermany
p3023
sg75
V172
p3024
sg77
V2017
p3025
sg79
F24.0
sg80
VSEP 15, 1993
p3026
sg82
V6-1
p3027
sg84
VDennis Schroder
p3028
sg86
I1610612737
sg87
V17
p3029
sg89
g146
sg91
V00
p3030
sg93
g70
sg95
I203471
ssI202713
(dp3031
g569
VDuke
p3032
sg571
V228
p3033
sg573
V2017
p3034
sg575
F29.0
sg576
VMAY 04, 1988
p3035
sg578
V6-8
p3036
sg580
VKyle Singler
p3037
sg582
I1610612760
sg583
V15
p3038
sg585
g90
sg586
V00
p3039
sg588
g23
sg589
I202713
ssI1627743
(dp3040
g656
VNotre Dame
p3041
sg658
V201
p3042
sg660
V2017
p3043
sg662
F23.0
sg663
VSEP 07, 1994
p3044
sg665
V6-1
p3045
sg667
VDemetrius Jackson
p3046
sg669
I1610612745
sg670
g66
sg671
g123
sg672
V00
p3047
sg674
g70
sg675
I1627743
ssI1628412
(dp3048
g107
VKansas
p3049
sg108
V190
p3050
sg110
V2017
p3051
sg112
F23.0
sg113
VAPR 03, 1994
p3052
sg115
V5-11
p3053
sg117
VFrank Mason
p3054
sg119
I1610612758
sg120
V10
p3055
sg122
g104
sg124
V00
p3056
sg126
g70
sg127
I1628412
ssI202718
(dp3057
g284
VFlorida
p3058
sg286
V230
p3059
sg288
V2017
p3060
sg290
F29.0
sg291
VOCT 25, 1988
p3061
sg293
V6-10
p3062
sg295
VChandler Parsons
p3063
sg297
I1610612763
sg298
V25
p3064
sg299
g223
sg300
V00
p3065
sg302
g23
sg303
I202718
ssI201585
(dp3066
g107
VOhio State
p3067
sg108
V265
p3068
sg110
V2017
p3069
sg112
F28.0
sg113
VFEB 24, 1989
p3070
sg115
V7-0
p3071
sg117
VKosta Koufos
p3072
sg119
I1610612758
sg120
V41
p3073
sg122
g43
sg124
V00
p3074
sg126
g94
sg127
I201585
ssI1628374
(dp3075
g253
VArizona
p3076
sg255
V230
p3077
sg257
V2017
p3078
sg259
F20.0
sg260
VMAY 22, 1997
p3079
sg262
V7-0
p3080
sg264
VLauri Markkanen
p3081
sg266
I1610612741
sg267
V24
p3082
sg269
g104
sg270
V00
p3083
sg272
g23
sg273
I1628374
ssI202722
(dp3084
g49
Nsg51
V210
p3085
sg53
V2017
p3086
sg55
F24.0
sg56
VNOV 12, 1992
p3087
sg58
V6-10
p3088
sg60
VDavis Bertans
p3089
sg62
I1610612759
sg63
V42
p3090
sg65
g123
sg67
V00
p3091
sg69
g23
sg71
I202722
ssI201188
(dp3092
g284
VBarcelona, Spain
p3093
sg286
V255
p3094
sg288
V2017
p3095
sg290
F32.0
sg291
VJAN 29, 1985
p3096
sg293
V7-1
p3097
sg295
VMarc Gasol
p3098
sg297
I1610612763
sg298
V33
p3099
sg299
g43
sg300
V00
p3100
sg302
g94
sg303
I201188
ssI204028
(dp3101
g656
VKansas
p3102
sg658
V250
p3103
sg660
V2017
p3104
sg662
F25.0
sg663
VNOV 22, 1991
p3105
sg665
V6-9
p3106
sg667
VTarik Black
p3107
sg669
I1610612745
sg670
V28
p3108
sg671
g17
sg672
V00
p3109
sg674
VF-C
p3110
sg675
I204028
ssI1628395
(dp3111
g2
VOregon
p3112
sg4
V224
p3113
sg6
V2017
p3114
sg8
F22.0
sg9
VJAN 07, 1995
p3115
sg11
V6-9
p3116
sg13
VJordan Bell
p3117
sg15
I1610612744
sg16
g66
sg18
g104
sg20
V00
p3118
sg22
g23
sg24
I1628395
ssI2403
(dp3119
g656
VSao Carlos, Brazil
p3120
sg658
V250
p3121
sg660
V2017
p3122
sg662
F35.0
sg663
VSEP 13, 1982
p3123
sg665
V6-11
p3124
sg667
VNene
p3125
sg669
I1610612745
sg670
V42
p3126
sg671
V15
p3127
sg672
V00
p3128
sg674
VC-F
p3129
sg675
I2403
ssI202732
(dp3130
g528
VKentucky
p3131
sg530
V209
p3132
sg532
V2017
p3133
sg534
F29.0
sg535
VMAR 31, 1988
p3134
sg537
V6-6
p3135
sg539
VDeAndre Liggins
p3136
sg541
I1610612749
sg542
V25
p3137
sg544
g146
sg545
V00
p3138
sg547
g70
sg548
I202732
ssI202734
(dp3139
g129
VPurdue
p3140
sg131
V191
p3141
sg133
V2017
p3142
sg135
F28.0
sg136
VFEB 25, 1989
p3143
sg138
V6-4
p3144
sg140
VE'Twaun Moore
p3145
sg142
I1610612740
sg143
V55
p3146
sg145
g223
sg147
V00
p3147
sg149
g70
sg150
I202734
ssI2544
(dp3148
g26
VSt. Vincent-St. Mary HS (OH)
p3149
sg28
V250
p3150
sg30
V2017
p3151
sg32
F32.0
sg33
VDEC 30, 1984
p3152
sg35
V6-8
p3153
sg37
VLeBron James
p3154
sg39
I1610612739
sg40
V23
p3155
sg42
V14
p3156
sg44
V00
p3157
sg46
VF-G
p3158
sg47
I2544
ssI2216
(dp3159
g107
VMichigan State
p3160
sg108
V250
p3161
sg110
V2017
p3162
sg112
F36.0
sg113
VJUL 16, 1981
p3163
sg115
V6-9
p3164
sg117
VZach Randolph
p3165
sg119
I1610612758
sg120
V50
p3166
sg122
V16
p3167
sg124
V00
p3168
sg126
g23
sg127
I2216
ssI2546
(dp3169
g569
VSyracuse
p3170
sg571
V240
p3171
sg573
V2017
p3172
sg575
F33.0
sg576
VMAY 29, 1984
p3173
sg578
V6-8
p3174
sg580
VCarmelo Anthony
p3175
sg582
I1610612760
sg583
g352
sg585
V14
p3176
sg586
V00
p3177
sg588
g23
sg589
I2546
ssI2548
(dp3178
g26
VMarquette
p3179
sg28
V220
p3180
sg30
V2017
p3181
sg32
F35.0
sg33
VJAN 17, 1982
p3182
sg35
V6-4
p3183
sg37
VDwyane Wade
p3184
sg39
I1610612739
sg40
g43
sg42
V14
p3185
sg44
V00
p3186
sg46
g70
sg47
I2548
ssI1628414
(dp3187
g152
VSouth Carolina
p3188
sg154
V215
p3189
sg156
V2017
p3190
sg158
F22.0
sg159
VNOV 15, 1994
p3191
sg161
V6-5
p3192
sg163
VSindarius Thornwell
p3193
sg165
I1610612746
sg166
g231
sg167
g104
sg168
V00
p3194
sg170
g70
sg171
I1628414
ssI1627761
(dp3195
g73
VSaint Joseph's
p3196
sg75
V210
p3197
sg77
V2017
p3198
sg79
F23.0
sg80
VJUL 04, 1994
p3199
sg82
V6-6
p3200
sg84
VDeAndre' Bembry
p3201
sg86
I1610612737
sg87
V95
p3202
sg89
g123
sg91
V00
p3203
sg93
VF-G
p3204
sg95
I1627761
ssI1628443
(dp3205
g600
VArizona
p3206
sg602
V200
p3207
sg604
V2017
p3208
sg606
F24.0
sg607
VJAN 15, 1993
p3209
sg609
V6-3
p3210
sg611
VKadeem Allen
p3211
sg613
I1610612738
sg614
V45
p3212
sg616
g104
sg617
V00
p3213
sg619
g70
sg620
I1628443
ssI1626196
(dp3214
g384
VTennessee
p3215
sg386
V200
p3216
sg388
V2017
p3217
sg390
F24.0
sg391
VSEP 15, 1993
p3218
sg393
V6-6
p3219
sg395
VJosh Richardson
p3220
sg397
I1610612748
sg398
g231
sg400
g66
sg401
V00
p3221
sg403
g23
sg404
I1626196
ssI2555
(dp3222
g569
VKansas
p3223
sg571
V255
p3224
sg573
V2017
p3225
sg575
F37.0
sg576
VOCT 26, 1980
p3226
sg578
V6-10
p3227
sg580
VNick Collison
p3228
sg582
I1610612760
sg583
g146
sg585
V13
p3229
sg586
V00
p3230
sg588
g23
sg589
I2555
ssI101181
(dp3231
g26
VVillanueva de la Serena, Spain
p3232
sg28
V200
p3233
sg30
V2017
p3234
sg32
F36.0
sg33
VSEP 28, 1981
p3235
sg35
V6-3
p3236
sg37
VJose Calderon
p3237
sg39
I1610612739
sg40
V81
p3238
sg42
V12
p3239
sg44
V00
p3240
sg46
g70
sg47
I101181
ss.