(dp0
I1628035
(dp1
VSCHOOL
p2
VWisc.-Green Bay
p3
sVWEIGHT
p4
V215
p5
sVSEASON
p6
V2017
p7
sVAGE
p8
F25.0
sVBIRTH_DATE
p9
VSEP 17, 1992
p10
sVHEIGHT
p11
V6-8
p12
sVPLAYER
p13
VAlfonzo McKinnie
p14
sVTeamID
p15
I1610612761
sVNUM
p16
V34
p17
sVEXP
p18
VR
p19
sVLeagueID
p20
V00
p21
sVPOSITION
p22
VF
p23
sVPLAYER_ID
p24
I1628035
ssI203526
(dp25
VSCHOOL
p26
NsVWEIGHT
p27
V179
p28
sVSEASON
p29
V2017
p30
sVAGE
p31
F25.0
sVBIRTH_DATE
p32
VMAY 19, 1992
p33
sVHEIGHT
p34
V6-1
p35
sVPLAYER
p36
VRaul Neto
p37
sVTeamID
p38
I1610612762
sVNUM
p39
V25
p40
sVEXP
p41
V2
p42
sVLeagueID
p43
V00
p44
sVPOSITION
p45
VG
p46
sVPLAYER_ID
p47
I203526
ssI1627783
(dp48
g2
VNew Mexico State
p49
sg4
V230
p50
sg6
V2017
p51
sg8
F23.0
sg9
VAPR 02, 1994
p52
sg11
V6-9
p53
sg13
VPascal Siakam
p54
sg15
I1610612761
sg16
V43
p55
sg18
V1
p56
sg20
V00
p57
sg22
g23
sg24
I1627783
ssI1628424
(dp58
VSCHOOL
p59
VArizona
p60
sVWEIGHT
p61
V170
p62
sVSEASON
p63
V2017
p64
sVAGE
p65
F20.0
sVBIRTH_DATE
p66
VJUL 04, 1997
p67
sVHEIGHT
p68
V6-4
p69
sVPLAYER
p70
VKobi Simmons
p71
sVTeamID
p72
I1610612763
sVNUM
p73
g42
sVEXP
p74
g19
sVLeagueID
p75
V00
p76
sVPOSITION
p77
g46
sVPLAYER_ID
p78
I1628424
ssI1628396
(dp79
g26
VNorth Carolina
p80
sg27
V248
p81
sg29
V2017
p82
sg31
F19.0
sg32
VJAN 08, 1998
p83
sg34
V6-10
p84
sg36
VTony Bradley
p85
sg38
I1610612762
sg39
V13
p86
sg41
g19
sg43
V00
p87
sg45
VC
p88
sg47
I1628396
ssI203918
(dp89
g26
VDuke
p90
sg27
V206
p91
sg29
V2017
p92
sg31
F25.0
sg32
VOCT 20, 1992
p93
sg34
V6-8
p94
sg36
VRodney Hood
p95
sg38
I1610612762
sg39
V5
p96
sg41
V3
p97
sg43
V00
p98
sg45
g46
sg47
I203918
ssI201596
(dp99
g59
VKansas
p100
sg61
V190
p101
sg63
V2017
p102
sg65
F31.0
sg66
VMAY 19, 1986
p103
sg68
V6-2
p104
sg70
VMario Chalmers
p105
sg72
I1610612763
sg73
V6
p106
sg74
V8
p107
sg75
V00
p108
sg77
g46
sg78
I201596
ssI101139
(dp109
g2
VSkyline HS (TX)
p110
sg4
V225
p111
sg6
V2017
p112
sg8
F30.0
sg9
VMAR 18, 1987
p113
sg11
V6-6
p114
sg13
VCJ Miles
p115
sg15
I1610612761
sg16
V0
p116
sg18
V12
p117
sg20
V00
p118
sg22
VF-G
p119
sg24
I101139
ssI203924
(dp120
VSCHOOL
p121
VSyracuse
p122
sVWEIGHT
p123
V220
p124
sVSEASON
p125
V2017
p126
sVAGE
p127
F23.0
sVBIRTH_DATE
p128
VMAR 12, 1994
p129
sVHEIGHT
p130
V6-9
p131
sVPLAYER
p132
VJerami Grant
p133
sVTeamID
p134
I1610612760
sVNUM
p135
V9
p136
sVEXP
p137
g97
sVLeagueID
p138
V00
p139
sVPOSITION
p140
g23
sVPLAYER_ID
p141
I203924
ssI202692
(dp142
g26
VColorado
p143
sg27
V214
p144
sg29
V2017
p145
sg31
F26.0
sg32
VJUL 20, 1991
p146
sg34
V6-6
p147
sg36
VAlec Burks
p148
sg38
I1610612762
sg39
V10
p149
sg41
g106
sg43
V00
p150
sg45
g46
sg47
I202692
ssI203547
(dp151
g26
VCampbell
p152
sg27
V205
p153
sg29
V2017
p154
sg31
F27.0
sg32
VMAY 26, 1990
p155
sg34
V6-8
p156
sg36
VEric Griffin
p157
sg38
I1610612762
sg39
V17
p158
sg41
g19
sg43
V00
p159
sg45
VC-F
p160
sg47
I203547
ssI204060
(dp161
g26
Nsg27
V226
p162
sg29
V2017
p163
sg31
F30.0
sg32
VOCT 02, 1987
p164
sg34
V6-8
p165
sg36
VJoe Ingles
p166
sg38
I1610612762
sg39
g42
sg41
g97
sg43
V00
p167
sg45
g23
sg47
I204060
ssI1627738
(dp168
g59
VMichigan State
p169
sg61
V237
p170
sg63
V2017
p171
sg65
F20.0
sg66
VDEC 02, 1996
p172
sg68
V6-11
p173
sg70
VDeyonta Davis
p174
sg72
I1610612763
sg73
V21
p175
sg74
g56
sg75
V00
p176
sg77
VC-F
p177
sg78
I1627738
ssI2207
(dp178
g26
VArkansas
p179
sg27
V240
p180
sg29
V2017
p181
sg31
F36.0
sg32
VJUN 29, 1981
p182
sg34
V6-7
p183
sg36
VJoe Johnson
p184
sg38
I1610612762
sg39
g106
sg41
V16
p185
sg43
V00
p186
sg45
VG-F
p187
sg47
I2207
ssI201949
(dp188
VSCHOOL
p189
VWake Forest
p190
sVWEIGHT
p191
V240
p192
sVSEASON
p193
V2017
p194
sVAGE
p195
F30.0
sVBIRTH_DATE
p196
VFEB 20, 1987
p197
sVHEIGHT
p198
V6-8
p199
sVPLAYER
p200
VJames Johnson
p201
sVTeamID
p202
I1610612748
sVNUM
p203
V16
p204
sVEXP
p205
g107
sVLeagueID
p206
V00
p207
sVPOSITION
p208
g23
sVPLAYER_ID
p209
I201949
ssI203957
(dp210
g26
Nsg27
V190
p211
sg29
V2017
p212
sg31
F22.0
sg32
VJUL 13, 1995
p213
sg34
V6-6
p214
sg36
VDante Exum
p215
sg38
I1610612762
sg39
V11
p216
sg41
g42
sg43
V00
p217
sg45
g46
sg47
I203957
ssI201144
(dp218
g59
VOhio State
p219
sg61
V175
p220
sg63
V2017
p221
sg65
F30.0
sg66
VOCT 11, 1987
p222
sg68
V6-1
p223
sg70
VMike Conley
p224
sg72
I1610612763
sg73
V11
p225
sg74
V10
p226
sg75
V00
p227
sg77
g46
sg78
I201144
ssI1627782
(dp228
g59
VKansas
p229
sg61
V230
p230
sg63
V2017
p231
sg65
F23.0
sg66
VSEP 30, 1994
p232
sg68
V6-5
p233
sg70
VWayne Selden
p234
sg72
I1610612763
sg73
V7
p235
sg74
g56
sg75
V00
p236
sg77
VG-F
p237
sg78
I1627782
ssI1626150
(dp238
g59
VKentucky
p239
sg61
V213
p240
sg63
V2017
p241
sg65
F23.0
sg66
VOCT 28, 1994
p242
sg68
V6-6
p243
sg70
VAndrew Harrison
p244
sg72
I1610612763
sg73
g96
sg74
g56
sg75
V00
p245
sg77
g46
sg78
I1626150
ssI1626153
(dp246
g2
VUtah
p247
sg4
V190
p248
sg6
V2017
p249
sg8
F25.0
sg9
VAPR 26, 1992
p250
sg11
V6-5
p251
sg13
VDelon Wright
p252
sg15
I1610612761
sg16
V55
p253
sg18
g42
sg20
V00
p254
sg22
g46
sg24
I1626153
ssI201937
(dp255
g26
VEl Masnou, Spain
p256
sg27
V190
p257
sg29
V2017
p258
sg31
F27.0
sg32
VOCT 21, 1990
p259
sg34
V6-4
p260
sg36
VRicky Rubio
p261
sg38
I1610612762
sg39
g97
sg41
g106
sg43
V00
p262
sg45
g46
sg47
I201937
ssI203079
(dp263
g189
VSyracuse
p264
sg191
V215
p265
sg193
V2017
p266
sg195
F25.0
sg196
VDEC 10, 1991
p267
sg198
V6-4
p268
sg200
VDion Waiters
p269
sg202
I1610612748
sg203
V11
p270
sg205
g96
sg206
V00
p271
sg208
g46
sg209
I203079
ssI2546
(dp272
g121
VSyracuse
p273
sg123
V240
p274
sg125
V2017
p275
sg127
F33.0
sg128
VMAY 29, 1984
p276
sg130
V6-8
p277
sg132
VCarmelo Anthony
p278
sg134
I1610612760
sg135
g235
sg137
V14
p279
sg138
V00
p280
sg140
g23
sg141
I2546
ssI1626205
(dp281
g59
VTexas-El Paso
p282
sg61
V208
p283
sg63
V2017
p284
sg65
F23.0
sg66
VAUG 05, 1994
p285
sg68
V6-8
p286
sg70
VVincent Hunter
p287
sg72
I1610612763
sg73
V32
p288
sg74
g19
sg75
V00
p289
sg77
g23
sg78
I1626205
ssI1628389
(dp290
g189
VKentucky
p291
sg191
V255
p292
sg193
V2017
p293
sg195
F20.0
sg196
VJUL 18, 1997
p294
sg198
V6-10
p295
sg200
VBam Adebayo
p296
sg202
I1610612748
sg203
V13
p297
sg205
g19
sg206
V00
p298
sg208
VC-F
p299
sg209
I1628389
ssI1626220
(dp300
g26
VBaylor
p301
sg27
V226
p302
sg29
V2017
p303
sg31
F24.0
sg32
VJUN 05, 1993
p304
sg34
V6-6
p305
sg36
VRoyce O'Neale
p306
sg38
I1610612762
sg39
V23
p307
sg41
g19
sg43
V00
p308
sg45
g23
sg47
I1626220
ssI202355
(dp309
g189
VMarshall
p310
sg191
V265
p311
sg193
V2017
p312
sg195
F28.0
sg196
VJUN 13, 1989
p313
sg198
V7-0
p314
sg200
VHassan Whiteside
p315
sg202
I1610612748
sg203
V21
p316
sg205
g96
sg206
V00
p317
sg208
g88
sg209
I202355
ssI203998
(dp318
g2
Nsg4
V205
p319
sg6
V2017
p320
sg8
F22.0
sg9
VSEP 21, 1995
p321
sg11
V6-9
p322
sg13
VBruno Caboclo
p323
sg15
I1610612761
sg16
g96
sg18
g97
sg20
V00
p324
sg22
g23
sg24
I203998
ssI201609
(dp325
g189
VLjubljana, Slovenia
p326
sg191
V190
p327
sg193
V2017
p328
sg195
F31.0
sg196
VMAY 06, 1986
p329
sg198
V6-3
p330
sg200
VGoran Dragic
p331
sg202
I1610612748
sg203
g235
sg205
g136
sg206
V00
p332
sg208
g46
sg209
I201609
ssI1627832
(dp333
g2
VWichita State
p334
sg4
V195
p335
sg6
V2017
p336
sg8
F23.0
sg9
VFEB 25, 1994
p337
sg11
V6-0
p338
sg13
VFred VanVleet
p339
sg15
I1610612761
sg16
V23
p340
sg18
g56
sg20
V00
p341
sg22
g46
sg24
I1627832
ssI2617
(dp342
g189
VFlorida
p343
sg191
V235
p344
sg193
V2017
p345
sg195
F37.0
sg196
VJUN 09, 1980
p346
sg198
V6-8
p347
sg200
VUdonis Haslem
p348
sg202
I1610612748
sg203
V40
p349
sg205
V14
p350
sg206
V00
p351
sg208
g23
sg209
I2617
ssI203962
(dp352
g121
VStanford
p353
sg123
V230
p354
sg125
V2017
p355
sg127
F25.0
sg128
VDEC 19, 1991
p356
sg130
V6-7
p357
sg132
VJosh Huestis
p358
sg134
I1610612760
sg135
V34
p359
sg137
g42
sg138
V00
p360
sg140
g23
sg141
I203962
ssI1628475
(dp361
g189
VCentral Florida
p362
sg191
V210
p363
sg193
V2017
p364
sg195
F24.0
sg196
VOCT 14, 1993
p365
sg198
V6-5
p366
sg200
VMatt Williams Jr.
p367
sg202
I1610612748
sg203
V12
p368
sg205
g19
sg206
V00
p369
sg208
g46
sg209
I1628475
ssI201148
(dp370
g59
VNorth Carolina
p371
sg61
V235
p372
sg63
V2017
p373
sg65
F30.0
sg66
VOCT 05, 1987
p374
sg68
V6-10
p375
sg70
VBrandan Wright
p376
sg72
I1610612763
sg73
V34
p377
sg74
g136
sg75
V00
p378
sg77
VF-C
p379
sg78
I201148
ssI202685
(dp380
g2
VUtena, Lithuania
p381
sg4
V255
p382
sg6
V2017
p383
sg8
F25.0
sg9
VMAY 06, 1992
p384
sg11
V7-0
p385
sg13
VJonas Valanciunas
p386
sg15
I1610612761
sg16
V17
p387
sg18
g96
sg20
V00
p388
sg22
g88
sg24
I202685
ssI201973
(dp389
g26
VKinna, Sweden
p390
sg27
V231
p391
sg29
V2017
p392
sg31
F30.0
sg32
VMAR 02, 1987
p393
sg34
V6-10
p394
sg36
VJonas Jerebko
p395
sg38
I1610612762
sg39
g107
sg41
g235
sg43
V00
p396
sg45
g23
sg47
I201973
ssI200768
(dp397
g2
VVillanova
p398
sg4
V205
p399
sg6
V2017
p400
sg8
F31.0
sg9
VMAR 25, 1986
p401
sg11
V6-0
p402
sg13
VKyle Lowry
p403
sg15
I1610612761
sg16
g235
sg18
V11
p404
sg20
V00
p405
sg22
g46
sg24
I200768
ssI1626177
(dp406
g121
VKentucky
p407
sg123
V255
p408
sg125
V2017
p409
sg127
F22.0
sg128
VSEP 22, 1995
p410
sg130
V7-0
p411
sg132
VDakari Johnson
p412
sg134
I1610612760
sg135
V44
p413
sg137
g19
sg138
V00
p414
sg140
g88
sg141
I1626177
ssI1626175
(dp415
g189
VLouisiana State
p416
sg191
V235
p417
sg193
V2017
p418
sg195
F23.0
sg196
VJUL 09, 1994
p419
sg198
V6-8
p420
sg200
VJordan Mickey
p421
sg202
I1610612748
sg203
V25
p422
sg205
g42
sg206
V00
p423
sg208
VC-F
p424
sg209
I1626175
ssI203460
(dp425
g121
VColorado
p426
sg123
V210
p427
sg125
V2017
p428
sg127
F25.0
sg128
VDEC 04, 1991
p429
sg130
V6-7
p430
sg132
VAndre Roberson
p431
sg134
I1610612760
sg135
V21
p432
sg137
V4
p433
sg138
V00
p434
sg140
g46
sg141
I203460
ssI1626181
(dp435
g2
VUCLA
p436
sg4
V215
p437
sg6
V2017
p438
sg8
F24.0
sg9
VMAY 25, 1993
p439
sg11
V6-4
p440
sg13
VNorman Powell
p441
sg15
I1610612761
sg16
V24
p442
sg18
g42
sg20
V00
p443
sg22
VF-G
p444
sg24
I1626181
ssI203463
(dp445
g59
VKansas
p446
sg61
V195
p447
sg63
V2017
p448
sg65
F24.0
sg66
VFEB 11, 1993
p449
sg68
V6-5
p450
sg70
VBen McLemore
p451
sg72
I1610612763
sg73
V23
p452
sg74
g433
sg75
V00
p453
sg77
g46
sg78
I203463
ssI202718
(dp454
g59
VFlorida
p455
sg61
V230
p456
sg63
V2017
p457
sg65
F29.0
sg66
VOCT 25, 1988
p458
sg68
V6-10
p459
sg70
VChandler Parsons
p460
sg72
I1610612763
sg73
V25
p461
sg74
g106
sg75
V00
p462
sg77
g23
sg78
I202718
ssI1626185
(dp463
g59
VLouisiana State
p464
sg61
V239
p465
sg63
V2017
p466
sg65
F23.0
sg66
VMAY 24, 1994
p467
sg68
V6-10
p468
sg70
VJarell Martin
p469
sg72
I1610612763
sg73
g56
sg74
g42
sg75
V00
p470
sg77
g23
sg78
I1626185
ssI203210
(dp471
g59
VAlabama
p472
sg61
V227
p473
sg63
V2017
p474
sg65
F27.0
sg66
VJUN 21, 1990
p475
sg68
V6-9
p476
sg70
VJaMychal Green
p477
sg72
I1610612763
sg73
g116
sg74
g97
sg75
V00
p478
sg77
g23
sg78
I203210
ssI1627855
(dp479
g189
VFlorida State
p480
sg191
V215
p481
sg193
V2017
p482
sg195
F25.0
sg196
VAUG 13, 1992
p483
sg198
V6-8
p484
sg200
VOkaro White
p485
sg202
I1610612748
sg203
V15
p486
sg205
g56
sg206
V00
p487
sg208
g23
sg209
I1627855
ssI201936
(dp488
g59
VMemphis
p489
sg61
V220
p490
sg63
V2017
p491
sg65
F28.0
sg66
VSEP 19, 1989
p492
sg68
V6-6
p493
sg70
VTyreke Evans
p494
sg72
I1610612763
sg73
V12
p495
sg74
g107
sg75
V00
p496
sg77
VG-F
p497
sg78
I201936
ssI203512
(dp498
g2
Nsg4
V220
p499
sg6
V2017
p500
sg8
F25.0
sg9
VJUL 26, 1992
p501
sg11
V7-0
p502
sg13
VLucas Nogueira
p503
sg15
I1610612761
sg16
V92
p504
sg18
g97
sg20
V00
p505
sg22
g88
sg24
I203512
ssI202324
(dp506
g26
VGeorgia Tech
p507
sg27
V265
p508
sg29
V2017
p509
sg31
F26.0
sg32
VJUL 15, 1991
p510
sg34
V6-10
p511
sg36
VDerrick Favors
p512
sg38
I1610612762
sg39
V15
p513
sg41
g235
sg43
V00
p514
sg45
VF-C
p515
sg47
I202324
ssI201942
(dp516
g2
VSouthern California
p517
sg4
V220
p518
sg6
V2017
p519
sg8
F28.0
sg9
VAUG 07, 1989
p520
sg11
V6-7
p521
sg13
VDeMar DeRozan
p522
sg15
I1610612761
sg16
V10
p523
sg18
g107
sg20
V00
p524
sg22
g46
sg24
I201942
ssI202327
(dp525
g26
VBaylor
p526
sg27
V245
p527
sg29
V2017
p528
sg31
F30.0
sg32
VMAY 20, 1987
p529
sg34
V6-10
p530
sg36
VEkpe Udoh
p531
sg38
I1610612762
sg39
V33
p532
sg41
g96
sg43
V00
p533
sg45
VC-F
p534
sg47
I202327
ssI202713
(dp535
g121
VDuke
p536
sg123
V228
p537
sg125
V2017
p538
sg127
F29.0
sg128
VMAY 04, 1988
p539
sg130
V6-8
p540
sg132
VKyle Singler
p541
sg134
I1610612760
sg135
V15
p542
sg137
g96
sg138
V00
p543
sg140
g23
sg141
I202713
ssI1628378
(dp544
g26
VLouisville
p545
sg27
V215
p546
sg29
V2017
p547
sg31
F21.0
sg32
VSEP 07, 1996
p548
sg34
V6-3
p549
sg36
VDonovan Mitchell
p550
sg38
I1610612762
sg39
V45
p551
sg41
g19
sg43
V00
p552
sg45
g46
sg47
I1628378
ssI202331
(dp553
g121
VFresno State
p554
sg123
V220
p555
sg125
V2017
p556
sg127
F27.0
sg128
VMAY 02, 1990
p557
sg130
V6-9
p558
sg132
VPaul George
p559
sg134
I1610612760
sg135
V13
p560
sg137
g235
sg138
V00
p561
sg140
g23
sg141
I202331
ssI203485
(dp562
g2
VNorth Carolina State
p563
sg4
V189
p564
sg6
V2017
p565
sg8
F27.0
sg9
VAUG 26, 1990
p566
sg11
V6-5
p567
sg13
VLorenzo Brown
p568
sg15
I1610612761
sg16
g433
sg18
g97
sg20
V00
p569
sg22
g46
sg24
I203485
ssI201566
(dp570
g121
VUCLA
p571
sg123
V200
p572
sg125
V2017
p573
sg127
F28.0
sg128
VNOV 12, 1988
p574
sg130
V6-3
p575
sg132
VRussell Westbrook
p576
sg134
I1610612760
sg135
g116
sg137
g136
sg138
V00
p577
sg140
g46
sg141
I201566
ssI202335
(dp578
g121
VKentucky
p579
sg123
V230
p580
sg125
V2017
p581
sg127
F28.0
sg128
VMAR 14, 1989
p582
sg130
V6-9
p583
sg132
VPatrick Patterson
p584
sg134
I1610612760
sg135
V54
p585
sg137
g235
sg138
V00
p586
sg140
g23
sg141
I202335
ssI1628384
(dp587
g2
VIndiana
p588
sg4
V235
p589
sg6
V2017
p590
sg8
F20.0
sg9
VJUL 17, 1997
p591
sg11
V6-8
p592
sg13
VOG Anunoby
p593
sg15
I1610612761
sg16
g97
sg18
g19
sg20
V00
p594
sg22
g23
sg24
I1628384
ssI203489
(dp595
g26
VSouth Dakota State
p596
sg27
V190
p597
sg29
V2017
p598
sg31
F26.0
sg32
VMAY 15, 1991
p599
sg34
V6-4
p600
sg36
VNate Wolters
p601
sg38
I1610612762
sg39
V16
p602
sg41
g42
sg43
V00
p603
sg45
g46
sg47
I203489
ssI1626159
(dp604
g189
VDuke
p605
sg191
V225
p606
sg193
V2017
p607
sg195
F21.0
sg196
VMAR 26, 1996
p608
sg198
V6-7
p609
sg200
VJustise Winslow
p610
sg202
I1610612748
sg203
V20
p611
sg205
g42
sg206
V00
p612
sg208
g23
sg209
I1626159
ssI201188
(dp613
g59
VBarcelona, Spain
p614
sg61
V255
p615
sg63
V2017
p616
sg65
F32.0
sg66
VJAN 29, 1985
p617
sg68
V7-1
p618
sg70
VMarc Gasol
p619
sg72
I1610612763
sg73
V33
p620
sg74
g136
sg75
V00
p621
sg77
g88
sg78
I201188
ssI203516
(dp622
g59
VLong Beach State
p623
sg61
V210
p624
sg63
V2017
p625
sg65
F27.0
sg66
VJUL 01, 1990
p626
sg68
V6-7
p627
sg70
VJames Ennis III
p628
sg72
I1610612763
sg73
g107
sg74
g97
sg75
V00
p629
sg77
g23
sg78
I203516
ssI1628390
(dp630
g121
Nsg123
V184
p631
sg125
V2017
p632
sg127
F19.0
sg128
VMAY 17, 1998
p633
sg130
V6-7
p634
sg132
VTerrance Ferguson
p635
sg134
I1610612760
sg135
V23
p636
sg137
g19
sg138
V00
p637
sg140
g46
sg141
I1628390
ssI1627751
(dp638
g2
VUtah
p639
sg4
V230
p640
sg6
V2017
p641
sg8
F22.0
sg9
VOCT 15, 1995
p642
sg11
V7-0
p643
sg13
VJakob Poeltl
p644
sg15
I1610612761
sg16
V42
p645
sg18
g56
sg20
V00
p646
sg22
g88
sg24
I1627751
ssI203482
(dp647
g189
VGonzaga
p648
sg191
V245
p649
sg193
V2017
p650
sg195
F26.0
sg196
VAPR 19, 1991
p651
sg198
V7-0
p652
sg200
VKelly Olynyk
p653
sg202
I1610612748
sg203
g136
sg205
g433
sg206
V00
p654
sg208
VC-F
p655
sg209
I203482
ssI203497
(dp656
g26
VFrance
p657
sg27
V245
p658
sg29
V2017
p659
sg31
F25.0
sg32
VJUN 26, 1992
p660
sg34
V7-1
p661
sg36
VRudy Gobert
p662
sg38
I1610612762
sg39
V27
p663
sg41
g433
sg43
V00
p664
sg45
g88
sg47
I203497
ssI1628476
(dp665
g189
VMichigan
p666
sg191
V185
p667
sg193
V2017
p668
sg195
F22.0
sg196
VAPR 03, 1995
p669
sg198
V6-1
p670
sg200
VDerrick Walton Jr.
p671
sg202
I1610612748
sg203
V14
p672
sg205
g19
sg206
V00
p673
sg208
g46
sg209
I1628476
ssI203500
(dp674
g121
VPittsburgh
p675
sg123
V255
p676
sg125
V2017
p677
sg127
F24.0
sg128
VJUL 20, 1993
p678
sg130
V7-0
p679
sg132
VSteven Adams
p680
sg134
I1610612760
sg135
V12
p681
sg137
g433
sg138
V00
p682
sg140
g88
sg141
I203500
ssI1628397
(dp683
g59
VCalifornia
p684
sg61
V220
p685
sg63
V2017
p686
sg65
F20.0
sg66
VFEB 04, 1997
p687
sg68
V6-10
p688
sg70
VIvan Rabb
p689
sg72
I1610612763
sg73
V10
p690
sg74
g19
sg75
V00
p691
sg77
g23
sg78
I1628397
ssI203585
(dp692
g189
VKansas State
p693
sg191
V200
p694
sg193
V2017
p695
sg195
F26.0
sg196
VJUL 29, 1991
p696
sg198
V6-4
p697
sg200
VRodney McGruder
p698
sg202
I1610612748
sg203
V17
p699
sg205
g56
sg206
V00
p700
sg208
VG-F
p701
sg209
I203585
ssI201586
(dp702
g2
VBrazzaville, Rep. of Congo
p703
sg4
V235
p704
sg6
V2017
p705
sg8
F28.0
sg9
VSEP 18, 1989
p706
sg11
V6-10
p707
sg13
VSerge Ibaka
p708
sg15
I1610612761
sg16
g136
sg18
g107
sg20
V00
p709
sg22
g23
sg24
I201586
ssI1626259
(dp710
g2
VHoly Cross
p711
sg4
V210
p712
sg6
V2017
p713
sg8
F24.0
sg9
VMAR 06, 1993
p714
sg11
V6-7
p715
sg13
VMalcolm Miller
p716
sg15
I1610612761
sg16
V13
p717
sg18
g19
sg20
V00
p718
sg22
g23
sg24
I1626259
ssI204020
(dp719
g189
VFresno State
p720
sg191
V190
p721
sg193
V2017
p722
sg195
F25.0
sg196
VMAY 07, 1992
p723
sg198
V6-4
p724
sg200
VTyler Johnson
p725
sg202
I1610612748
sg203
g107
sg205
g97
sg206
V00
p726
sg208
g46
sg209
I204020
ssI101109
(dp727
g121
VNorth Carolina
p728
sg123
V205
p729
sg125
V2017
p730
sg127
F33.0
sg128
VJUN 26, 1984
p731
sg130
V6-1
p732
sg132
VRaymond Felton
p733
sg134
I1610612760
sg135
g42
sg137
V12
p734
sg138
V00
p735
sg140
g46
sg141
I101109
ssI200757
(dp736
g26
VVevey, Switzerland
p737
sg27
V220
p738
sg29
V2017
p739
sg31
F33.0
sg32
VMAY 02, 1984
p740
sg34
V6-7
p741
sg36
VThabo Sefolosha
p742
sg38
I1610612762
sg39
V22
p743
sg41
V11
p744
sg43
V00
p745
sg45
g23
sg47
I200757
ssI201961
(dp746
g189
VNorth Carolina
p747
sg191
V200
p748
sg193
V2017
p749
sg195
F29.0
sg196
VNOV 29, 1987
p750
sg198
V6-5
p751
sg200
VWayne Ellington
p752
sg202
I1610612748
sg203
g42
sg205
g107
sg206
V00
p753
sg208
g46
sg209
I201961
ssI1628408
(dp754
g121
VSouth Carolina
p755
sg123
V205
p756
sg125
V2017
p757
sg127
F21.0
sg128
VOCT 25, 1996
p758
sg130
V6-6
p759
sg132
VPJ Dozier
p760
sg134
I1610612760
sg135
V35
p761
sg137
g19
sg138
V00
p762
sg140
g46
sg141
I1628408
ssI1626196
(dp763
g189
VTennessee
p764
sg191
V200
p765
sg193
V2017
p766
sg195
F24.0
sg196
VSEP 15, 1993
p767
sg198
V6-6
p768
sg200
VJosh Richardson
p769
sg202
I1610612748
sg203
g116
sg205
g42
sg206
V00
p770
sg208
g23
sg209
I1626196
ssI2555
(dp771
g121
VKansas
p772
sg123
V255
p773
sg125
V2017
p774
sg127
F37.0
sg128
VOCT 26, 1980
p775
sg130
V6-10
p776
sg132
VNick Collison
p777
sg134
I1610612760
sg135
g433
sg137
V13
p778
sg138
V00
p779
sg140
g23
sg141
I2555
ssI1627772
(dp780
g121
VConnecticut
p781
sg123
V195
p782
sg125
V2017
p783
sg127
F22.0
sg128
VAUG 08, 1995
p784
sg130
V6-7
p785
sg132
VDaniel Hamilton
p786
sg134
I1610612760
sg135
V25
p787
sg137
g19
sg138
V00
p788
sg140
g46
sg141
I1627772
ssI1627773
(dp789
g189
VPurdue
p790
sg191
V260
p791
sg193
V2017
p792
sg195
F25.0
sg196
VAUG 27, 1992
p793
sg198
V7-0
p794
sg200
VAJ Hammons
p795
sg202
I1610612748
sg203
g433
sg205
g56
sg206
V00
p796
sg208
g88
sg209
I1627773
ssI203518
(dp797
g121
Nsg123
V190
p798
sg125
V2017
p799
sg127
F24.0
sg128
VAUG 01, 1993
p800
sg130
V6-6
p801
sg132
VAlex Abrines
p802
sg134
I1610612760
sg135
g107
sg137
g56
sg138
V00
p803
sg140
g46
sg141
I203518
ssI1628415
(dp804
g59
VOregon
p805
sg61
V220
p806
sg63
V2017
p807
sg65
F21.0
sg66
VJAN 22, 1996
p808
sg68
V6-6
p809
sg70
VDillon Brooks
p810
sg72
I1610612763
sg73
V24
p811
sg74
g19
sg75
V00
p812
sg77
VF-G
p813
sg78
I1628415
ss.