(dp0
I203095
(dp1
VSCHOOL
p2
VFrance
p3
sVWEIGHT
p4
V205
p5
sVSEASON
p6
V2017
p7
sVAGE
p8
F25.0
sVBIRTH_DATE
p9
VOCT 29, 1992
p10
sVHEIGHT
p11
V6-7
p12
sVPLAYER
p13
VEvan Fournier
p14
sVTeamID
p15
I1610612753
sVNUM
p16
V10
p17
sVEXP
p18
V5
p19
sVLeagueID
p20
V00
p21
sVPOSITION
p22
VF-G
p23
sVPLAYER_ID
p24
I203095
ssI1626144
(dp25
VSCHOOL
p26
NsVWEIGHT
p27
V200
p28
sVSEASON
p29
V2017
p30
sVAGE
p31
F21.0
sVBIRTH_DATE
p32
VMAR 05, 1996
p33
sVHEIGHT
p34
V6-5
p35
sVPLAYER
p36
VEmmanuel Mudiay
p37
sVTeamID
p38
I1610612743
sVNUM
p39
V0
p40
sVEXP
p41
V2
p42
sVLeagueID
p43
V00
p44
sVPOSITION
p45
VG
p46
sVPLAYER_ID
p47
I1626144
ssI1626145
(dp48
VSCHOOL
p49
VDuke
p50
sVWEIGHT
p51
V184
p52
sVSEASON
p53
V2017
p54
sVAGE
p55
F21.0
sVBIRTH_DATE
p56
VMAY 10, 1996
p57
sVHEIGHT
p58
V6-2
p59
sVPLAYER
p60
VTyus Jones
p61
sVTeamID
p62
I1610612750
sVNUM
p63
V1
p64
sVEXP
p65
g42
sVLeagueID
p66
V00
p67
sVPOSITION
p68
g46
sVPLAYER_ID
p69
I1626145
ssI1626148
(dp70
g49
VStanford
p71
sg51
V224
p72
sg53
V2017
p73
sg55
F25.0
sg56
VOCT 10, 1992
p74
sg58
V6-7
p75
sg60
VAnthony Brown
p76
sg62
I1610612750
sg63
V3
p77
sg65
g42
sg66
V00
p78
sg68
VF
p79
sg69
I1626148
ssI1626149
(dp80
VSCHOOL
p81
VLouisville
p82
sVWEIGHT
p83
V240
p84
sVSEASON
p85
V2017
p86
sVAGE
p87
F23.0
sVBIRTH_DATE
p88
VJAN 26, 1994
p89
sVHEIGHT
p90
V6-8
p91
sVPLAYER
p92
VMontrezl Harrell
p93
sVTeamID
p94
I1610612746
sVNUM
p95
g19
sVEXP
p96
g42
sVLeagueID
p97
V00
p98
sVPOSITION
p99
VF-C
p100
sVPLAYER_ID
p101
I1626149
ssI1626150
(dp102
VSCHOOL
p103
VKentucky
p104
sVWEIGHT
p105
V213
p106
sVSEASON
p107
V2017
p108
sVAGE
p109
F23.0
sVBIRTH_DATE
p110
VOCT 28, 1994
p111
sVHEIGHT
p112
V6-6
p113
sVPLAYER
p114
VAndrew Harrison
p115
sVTeamID
p116
I1610612763
sVNUM
p117
g19
sVEXP
p118
g64
sVLeagueID
p119
V00
p120
sVPOSITION
p121
g46
sVPLAYER_ID
p122
I1626150
ssI1626153
(dp123
VSCHOOL
p124
VUtah
p125
sVWEIGHT
p126
V190
p127
sVSEASON
p128
V2017
p129
sVAGE
p130
F25.0
sVBIRTH_DATE
p131
VAPR 26, 1992
p132
sVHEIGHT
p133
V6-5
p134
sVPLAYER
p135
VDelon Wright
p136
sVTeamID
p137
I1610612761
sVNUM
p138
V55
p139
sVEXP
p140
g42
sVLeagueID
p141
V00
p142
sVPOSITION
p143
g46
sVPLAYER_ID
p144
I1626153
ssI200746
(dp145
VSCHOOL
p146
VTexas
p147
sVWEIGHT
p148
V260
p149
sVSEASON
p150
V2017
p151
sVAGE
p152
F32.0
sVBIRTH_DATE
p153
VJUL 19, 1985
p154
sVHEIGHT
p155
V6-11
p156
sVPLAYER
p157
VLaMarcus Aldridge
p158
sVTeamID
p159
I1610612759
sVNUM
p160
V12
p161
sVEXP
p162
V11
p163
sVLeagueID
p164
V00
p165
sVPOSITION
p166
g79
sVPLAYER_ID
p167
I200746
ssI1626155
(dp168
g81
VWisconsin
p169
sg83
V230
p170
sg85
V2017
p171
sg87
F23.0
sg88
VMAY 08, 1994
p172
sg90
V6-9
p173
sg92
VSam Dekker
p174
sg94
I1610612746
sg95
V7
p175
sg96
g42
sg97
V00
p176
sg99
g79
sg101
I1626155
ssI1626156
(dp177
VSCHOOL
p178
VOhio State
p179
sVWEIGHT
p180
V195
p181
sVSEASON
p182
V2017
p183
sVAGE
p184
F21.0
sVBIRTH_DATE
p185
VFEB 23, 1996
p186
sVHEIGHT
p187
V6-5
p188
sVPLAYER
p189
VD'Angelo Russell
p190
sVTeamID
p191
I1610612751
sVNUM
p192
g64
sVEXP
p193
g42
sVLeagueID
p194
V00
p195
sVPOSITION
p196
g46
sVPLAYER_ID
p197
I1626156
ssI1626157
(dp198
g49
VKentucky
p199
sg51
V248
p200
sg53
V2017
p201
sg55
F21.0
sg56
VNOV 15, 1995
p202
sg58
V7-0
p203
sg60
VKarl-Anthony Towns
p204
sg62
I1610612750
sg63
V32
p205
sg65
g42
sg66
V00
p206
sg68
VC
p207
sg69
I1626157
ssI1626159
(dp208
VSCHOOL
p209
VDuke
p210
sVWEIGHT
p211
V225
p212
sVSEASON
p213
V2017
p214
sVAGE
p215
F21.0
sVBIRTH_DATE
p216
VMAR 26, 1996
p217
sVHEIGHT
p218
V6-7
p219
sVPLAYER
p220
VJustise Winslow
p221
sVTeamID
p222
I1610612748
sVNUM
p223
V20
p224
sVEXP
p225
g42
sVLeagueID
p226
V00
p227
sVPOSITION
p228
g79
sVPLAYER_ID
p229
I1626159
ssI200752
(dp230
g146
VConnecticut
p231
sg148
V230
p232
sg150
V2017
p233
sg152
F31.0
sg153
VAUG 17, 1986
p234
sg155
V6-8
p235
sg157
VRudy Gay
p236
sg159
I1610612759
sg160
V22
p237
sg162
V11
p238
sg164
V00
p239
sg166
g79
sg167
I200752
ssI1626161
(dp240
VSCHOOL
p241
VKentucky
p242
sVWEIGHT
p243
V240
p244
sVSEASON
p245
V2017
p246
sVAGE
p247
F24.0
sVBIRTH_DATE
p248
VAUG 18, 1993
p249
sVHEIGHT
p250
V7-0
p251
sVPLAYER
p252
VWillie Cauley-Stein
p253
sVTeamID
p254
I1610612758
sVNUM
p255
V00
p256
sVEXP
p257
g42
sVLeagueID
p258
V00
p259
sVPOSITION
p260
g207
sVPLAYER_ID
p261
I1626161
ssI1627763
(dp262
VSCHOOL
p263
VVirginia
p264
sVWEIGHT
p265
V215
p266
sVSEASON
p267
V2017
p268
sVAGE
p269
F24.0
sVBIRTH_DATE
p270
VDEC 11, 1992
p271
sVHEIGHT
p272
V6-5
p273
sVPLAYER
p274
VMalcolm Brogdon
p275
sVTeamID
p276
I1610612749
sVNUM
p277
V13
p278
sVEXP
p279
g64
sVLeagueID
p280
V00
p281
sVPOSITION
p282
g46
sVPLAYER_ID
p283
I1627763
ssI200757
(dp284
VSCHOOL
p285
VVevey, Switzerland
p286
sVWEIGHT
p287
V220
p288
sVSEASON
p289
V2017
p290
sVAGE
p291
F33.0
sVBIRTH_DATE
p292
VMAY 02, 1984
p293
sVHEIGHT
p294
V6-7
p295
sVPLAYER
p296
VThabo Sefolosha
p297
sVTeamID
p298
I1610612762
sVNUM
p299
V22
p300
sVEXP
p301
V11
p302
sVLeagueID
p303
V00
p304
sVPOSITION
p305
g79
sVPLAYER_ID
p306
I200757
ssI1626166
(dp307
VSCHOOL
p308
VMurray State
p309
sVWEIGHT
p310
V185
p311
sVSEASON
p312
V2017
p313
sVAGE
p314
F23.0
sVBIRTH_DATE
p315
VAUG 08, 1994
p316
sVHEIGHT
p317
V6-3
p318
sVPLAYER
p319
VCameron Payne
p320
sVTeamID
p321
I1610612741
sVNUM
p322
V22
p323
sVEXP
p324
g42
sVLeagueID
p325
V00
p326
sVPOSITION
p327
g46
sVPLAYER_ID
p328
I1626166
ssI1626168
(dp329
g26
VKentucky
p330
sg27
V234
p331
sg29
V2017
p332
sg31
F22.0
sg32
VNOV 05, 1995
p333
sg34
V6-10
p334
sg36
VTrey Lyles
p335
sg38
I1610612743
sg39
g175
sg41
g42
sg43
V00
p336
sg45
g79
sg47
I1626168
ssI1626170
(dp337
g308
VNotre Dame
p338
sg310
V198
p339
sg312
V2017
p340
sg314
F25.0
sg315
VOCT 09, 1992
p341
sg317
V6-4
p342
sg319
VJerian Grant
p343
sg321
I1610612741
sg322
g42
sg324
g42
sg325
V00
p344
sg327
g46
sg328
I1626170
ssI1626171
(dp345
g308
VArkansas
p346
sg310
V248
p347
sg312
V2017
p348
sg314
F22.0
sg315
VFEB 10, 1995
p349
sg317
V6-11
p350
sg319
VBobby Portis
p351
sg321
I1610612741
sg322
g19
sg324
g42
sg325
V00
p352
sg327
g79
sg328
I1626171
ssI1626172
(dp353
VSCHOOL
p354
VUCLA
p355
sVWEIGHT
p356
V220
p357
sVSEASON
p358
V2017
p359
sVAGE
p360
F21.0
sVBIRTH_DATE
p361
VFEB 06, 1996
p362
sVHEIGHT
p363
V6-9
p364
sVPLAYER
p365
VKevon Looney
p366
sVTeamID
p367
I1610612744
sVNUM
p368
g19
sVEXP
p369
g42
sVLeagueID
p370
V00
p371
sVPOSITION
p372
g79
sVPLAYER_ID
p373
I1626172
ssI1626173
(dp374
g263
VUNLV
p375
sg265
V202
p376
sg267
V2017
p377
sg269
F21.0
sg270
VAUG 16, 1996
p378
sg272
V6-6
p379
sg274
VRashad Vaughn
p380
sg276
I1610612749
sg277
V20
p381
sg279
g42
sg280
V00
p382
sg282
g46
sg283
I1626173
ssI1626175
(dp383
g209
VLouisiana State
p384
sg211
V235
p385
sg213
V2017
p386
sg215
F23.0
sg216
VJUL 09, 1994
p387
sg218
V6-8
p388
sg220
VJordan Mickey
p389
sg222
I1610612748
sg223
V25
p390
sg225
g42
sg226
V00
p391
sg228
VC-F
p392
sg229
I1626175
ssI200768
(dp393
g124
VVillanova
p394
sg126
V205
p395
sg128
V2017
p396
sg130
F31.0
sg131
VMAR 25, 1986
p397
sg133
V6-0
p398
sg135
VKyle Lowry
p399
sg137
I1610612761
sg138
g175
sg140
V11
p400
sg141
V00
p401
sg143
g46
sg144
I200768
ssI1626177
(dp402
VSCHOOL
p403
VKentucky
p404
sVWEIGHT
p405
V255
p406
sVSEASON
p407
V2017
p408
sVAGE
p409
F22.0
sVBIRTH_DATE
p410
VSEP 22, 1995
p411
sVHEIGHT
p412
V7-0
p413
sVPLAYER
p414
VDakari Johnson
p415
sVTeamID
p416
I1610612760
sVNUM
p417
V44
p418
sVEXP
p419
VR
p420
sVLeagueID
p421
V00
p422
sVPOSITION
p423
g207
sVPLAYER_ID
p424
I1626177
ssI1626178
(dp425
g178
VArizona
p426
sg180
V214
p427
sg182
V2017
p428
sg184
F22.0
sg185
VJAN 03, 1995
p429
sg187
V6-7
p430
sg189
VRondae Hollis-Jefferson
p431
sg191
I1610612751
sg192
V24
p432
sg193
g42
sg194
V00
p433
sg196
g79
sg197
I1626178
ssI1626179
(dp434
VSCHOOL
p435
VLouisville
p436
sVWEIGHT
p437
V190
p438
sVSEASON
p439
V2017
p440
sVAGE
p441
F23.0
sVBIRTH_DATE
p442
VMAR 17, 1994
p443
sVHEIGHT
p444
V6-2
p445
sVPLAYER
p446
VTerry Rozier
p447
sVTeamID
p448
I1610612738
sVNUM
p449
V12
p450
sVEXP
p451
g42
sVLeagueID
p452
V00
p453
sVPOSITION
p454
g46
sVPLAYER_ID
p455
I1626179
ssI1626181
(dp456
g124
VUCLA
p457
sg126
V215
p458
sg128
V2017
p459
sg130
F24.0
sg131
VMAY 25, 1993
p460
sg133
V6-4
p461
sg135
VNorman Powell
p462
sg137
I1610612761
sg138
V24
p463
sg140
g42
sg141
V00
p464
sg143
VF-G
p465
sg144
I1626181
ssI1626185
(dp466
g103
VLouisiana State
p467
sg105
V239
p468
sg107
V2017
p469
sg109
F23.0
sg110
VMAY 24, 1994
p470
sg112
V6-10
p471
sg114
VJarell Martin
p472
sg116
I1610612763
sg117
g64
sg118
g42
sg119
V00
p473
sg121
g79
sg122
I1626185
ssI1626188
(dp474
g354
VDuke
p475
sg356
V179
p476
sg358
V2017
p477
sg360
F24.0
sg361
VMAR 23, 1993
p478
sg363
V6-2
p479
sg365
VQuinn Cook
p480
sg367
I1610612744
sg368
V4
p481
sg369
g64
sg370
V00
p482
sg372
g46
sg373
I1626188
ssI200782
(dp483
VSCHOOL
p484
VTexas
p485
sVWEIGHT
p486
V245
p487
sVSEASON
p488
V2017
p489
sVAGE
p490
F32.0
sVBIRTH_DATE
p491
VMAY 05, 1985
p492
sVHEIGHT
p493
V6-6
p494
sVPLAYER
p495
VPJ Tucker
p496
sVTeamID
p497
I1610612745
sVNUM
p498
g481
sVEXP
p499
V6
p500
sVLeagueID
p501
V00
p502
sVPOSITION
p503
g79
sVPLAYER_ID
p504
I200782
ssI1626196
(dp505
g209
VTennessee
p506
sg211
V200
p507
sg213
V2017
p508
sg215
F24.0
sg216
VSEP 15, 1993
p509
sg218
V6-6
p510
sg220
VJosh Richardson
p511
sg222
I1610612748
sg223
g40
sg225
g42
sg226
V00
p512
sg228
g79
sg229
I1626196
ssI1626199
(dp513
g146
VVillanova
p514
sg148
V220
p515
sg150
V2017
p516
sg152
F24.0
sg153
VAPR 13, 1993
p517
sg155
V6-6
p518
sg157
VDarrun Hilliard
p519
sg159
I1610612759
sg160
V24
p520
sg162
g42
sg164
V00
p521
sg166
g46
sg167
I1626199
ssI200794
(dp522
g26
VLouisiana Tech
p523
sg27
V246
p524
sg29
V2017
p525
sg31
F32.0
sg32
VFEB 10, 1985
p526
sg34
V6-8
p527
sg36
VPaul Millsap
p528
sg38
I1610612743
sg39
g481
sg41
V11
p529
sg43
V00
p530
sg45
g79
sg47
I200794
ssI1626204
(dp531
VSCHOOL
p532
VWyoming
p533
sVWEIGHT
p534
V230
p535
sVSEASON
p536
V2017
p537
sVAGE
p538
F24.0
sVBIRTH_DATE
p539
VJAN 01, 1993
p540
sVHEIGHT
p541
V6-9
p542
sVPLAYER
p543
VLarry Nance Jr.
p544
sVTeamID
p545
I1610612747
sVNUM
p546
g175
sVEXP
p547
g42
sVLeagueID
p548
V00
p549
sVPOSITION
p550
g79
sVPLAYER_ID
p551
I1626204
ssI1626205
(dp552
g103
VTexas-El Paso
p553
sg105
V208
p554
sg107
V2017
p555
sg109
F23.0
sg110
VAUG 05, 1994
p556
sg112
V6-8
p557
sg114
VVincent Hunter
p558
sg116
I1610612763
sg117
V32
p559
sg118
g420
sg119
V00
p560
sg121
g79
sg122
I1626205
ssI1626209
(dp561
g2
VCroatia
p562
sg4
V218
p563
sg6
V2017
p564
sg8
F22.0
sg9
VFEB 25, 1995
p565
sg11
V6-8
p566
sg13
VMario Hezonja
p567
sg15
I1610612753
sg16
V8
p568
sg18
g42
sg20
V00
p569
sg22
VG-F
p570
sg24
I1626209
ssI1626220
(dp571
g285
VBaylor
p572
sg287
V226
p573
sg289
V2017
p574
sg291
F24.0
sg292
VJUN 05, 1993
p575
sg294
V6-6
p576
sg296
VRoyce O'Neale
p577
sg298
I1610612762
sg299
V23
p578
sg301
g420
sg303
V00
p579
sg305
g79
sg306
I1626220
ssI1626224
(dp580
VSCHOOL
p581
VAnadolu Efes
p582
sVWEIGHT
p583
V215
p584
sVSEASON
p585
V2017
p586
sVAGE
p587
F22.0
sVBIRTH_DATE
p588
VAPR 08, 1995
p589
sVHEIGHT
p590
V6-8
p591
sVPLAYER
p592
VCedi Osman
p593
sVTeamID
p594
I1610612739
sVNUM
p595
V16
p596
sVEXP
p597
g420
sVLeagueID
p598
V00
p599
sVPOSITION
p600
g79
sVPLAYER_ID
p601
I1626224
ssI200826
(dp602
VSCHOOL
p603
VNortheastern
p604
sVWEIGHT
p605
V185
p606
sVSEASON
p607
V2017
p608
sVAGE
p609
F33.0
sVBIRTH_DATE
p610
VJUN 26, 1984
p611
sVHEIGHT
p612
V6-0
p613
sVPLAYER
p614
VJ.J. Barea
p615
sVTeamID
p616
I1610612742
sVNUM
p617
g19
sVEXP
p618
V11
p619
sVLeagueID
p620
V00
p621
sVPOSITION
p622
g46
sVPLAYER_ID
p623
I200826
ssI1626245
(dp624
g308
Nsg310
V280
p625
sg312
V2017
p626
sg314
F25.0
sg315
VJUL 07, 1992
p627
sg317
V6-9
p628
sg319
VCristiano Felicio
p629
sg321
I1610612741
sg322
g500
sg324
g42
sg325
V00
p630
sg327
VC-F
p631
sg328
I1626245
ssI1626257
(dp632
g603
Nsg605
V235
p633
sg607
V2017
p634
sg609
F31.0
sg610
VJUN 15, 1986
p635
sg612
V7-2
p636
sg614
VSalah Mejri
p637
sg616
I1610612742
sg617
V50
p638
sg618
g42
sg620
V00
p639
sg622
g207
sg623
I1626257
ssI1626259
(dp640
g124
VHoly Cross
p641
sg126
V210
p642
sg128
V2017
p643
sg130
F24.0
sg131
VMAR 06, 1993
p644
sg133
V6-7
p645
sg135
VMalcolm Miller
p646
sg137
I1610612761
sg138
V13
p647
sg140
g420
sg141
V00
p648
sg143
g79
sg144
I1626259
ssI2200
(dp649
g146
VBarcelona, Spain
p650
sg148
V250
p651
sg150
V2017
p652
sg152
F37.0
sg153
VJUL 06, 1980
p653
sg155
V7-0
p654
sg157
VPau Gasol
p655
sg159
I1610612759
sg160
V16
p656
sg162
V16
p657
sg164
V00
p658
sg166
g207
sg167
I2200
ssI2207
(dp659
g285
VArkansas
p660
sg287
V240
p661
sg289
V2017
p662
sg291
F36.0
sg292
VJUN 29, 1981
p663
sg294
V6-7
p664
sg296
VJoe Johnson
p665
sg298
I1610612762
sg299
g500
sg301
V16
p666
sg303
V00
p667
sg305
VG-F
p668
sg306
I2207
ssI2210
(dp669
g26
VArizona
p670
sg27
V233
p671
sg29
V2017
p672
sg31
F37.0
sg32
VJUN 21, 1980
p673
sg34
V6-7
p674
sg36
VRichard Jefferson
p675
sg38
I1610612743
sg39
V22
p676
sg41
V16
p677
sg43
V00
p678
sg45
g79
sg47
I2210
ssI2216
(dp679
g241
VMichigan State
p680
sg243
V250
p681
sg245
V2017
p682
sg247
F36.0
sg248
VJUL 16, 1981
p683
sg250
V6-9
p684
sg252
VZach Randolph
p685
sg254
I1610612758
sg255
V50
p686
sg257
V16
p687
sg258
V00
p688
sg260
g79
sg261
I2216
ssI2225
(dp689
g146
VParis, France
p690
sg148
V185
p691
sg150
V2017
p692
sg152
F35.0
sg153
VMAY 17, 1982
p693
sg155
V6-2
p694
sg157
VTony Parker
p695
sg159
I1610612759
sg160
V9
p696
sg162
V16
p697
sg164
V00
p698
sg166
g46
sg167
I2225
ssI1628366
(dp699
g532
VCalifornia-Los Angeles
p700
sg534
V190
p701
sg536
V2017
p702
sg538
F20.0
sg539
VOCT 27, 1997
p703
sg541
V6-6
p704
sg543
VLonzo Ball
p705
sg545
I1610612747
sg546
g42
sg547
g420
sg548
V00
p706
sg550
g46
sg551
I1628366
ssI1628368
(dp707
g241
VKentucky
p708
sg243
V175
p709
sg245
V2017
p710
sg247
F19.0
sg248
VDEC 20, 1997
p711
sg250
V6-3
p712
sg252
VDe'Aaron Fox
p713
sg254
I1610612758
sg255
g19
sg257
g420
sg258
V00
p714
sg260
g46
sg261
I1628368
ssI1628369
(dp715
g435
VDuke
p716
sg437
V205
p717
sg439
V2017
p718
sg441
F19.0
sg442
VMAR 03, 1998
p719
sg444
V6-8
p720
sg446
VJayson Tatum
p721
sg448
I1610612738
sg449
g40
sg451
g420
sg452
V00
p722
sg454
g79
sg455
I1628369
ssI1628371
(dp723
g2
VFlorida State
p724
sg4
V210
p725
sg6
V2017
p726
sg8
F20.0
sg9
VOCT 03, 1997
p727
sg11
V6-10
p728
sg13
VJonathan Isaac
p729
sg15
I1610612753
sg16
g64
sg18
g420
sg20
V00
p730
sg22
g79
sg24
I1628371
ssI1628372
(dp731
g603
VNorth Carolina State
p732
sg605
V195
p733
sg607
V2017
p734
sg609
F19.0
sg610
VNOV 25, 1997
p735
sg612
V6-3
p736
sg614
VDennis Smith Jr.
p737
sg616
I1610612742
sg617
g64
sg618
g420
sg620
V00
p738
sg622
g46
sg623
I1628372
ssI1628374
(dp739
g308
VArizona
p740
sg310
V230
p741
sg312
V2017
p742
sg314
F20.0
sg315
VMAY 22, 1997
p743
sg317
V7-0
p744
sg319
VLauri Markkanen
p745
sg321
I1610612741
sg322
V24
p746
sg324
g420
sg325
V00
p747
sg327
g79
sg328
I1628374
ssI1628378
(dp748
g285
VLouisville
p749
sg287
V215
p750
sg289
V2017
p751
sg291
F21.0
sg292
VSEP 07, 1996
p752
sg294
V6-3
p753
sg296
VDonovan Mitchell
p754
sg298
I1610612762
sg299
V45
p755
sg301
g420
sg303
V00
p756
sg305
g46
sg306
I1628378
ssI1628381
(dp757
VSCHOOL
p758
VWake Forest
p759
sVWEIGHT
p760
V235
p761
sVSEASON
p762
V2017
p763
sVAGE
p764
F20.0
sVBIRTH_DATE
p765
VSEP 23, 1997
p766
sVHEIGHT
p767
V6-10
p768
sVPLAYER
p769
VJohn Collins
p770
sVTeamID
p771
I1610612737
sVNUM
p772
V20
p773
sVEXP
p774
g420
sVLeagueID
p775
V00
p776
sVPOSITION
p777
VF-C
p778
sVPLAYER_ID
p779
I1628381
ssI1628382
(dp780
g241
VNorth Carolina
p781
sg243
V210
p782
sg245
V2017
p783
sg247
F22.0
sg248
VMAR 28, 1995
p784
sg250
V6-8
p785
sg252
VJustin Jackson
p786
sg254
I1610612758
sg255
V25
p787
sg257
g420
sg258
V00
p788
sg260
g79
sg261
I1628382
ssI1628383
(dp789
g49
VCreighton
p790
sg51
V236
p791
sg53
V2017
p792
sg55
F20.0
sg56
VJUN 14, 1997
p793
sg58
V7-0
p794
sg60
VJustin Patton
p795
sg62
I1610612750
sg63
V24
p796
sg65
g420
sg66
V00
p797
sg68
g207
sg69
I1628383
ssI1628384
(dp798
g124
VIndiana
p799
sg126
V235
p800
sg128
V2017
p801
sg130
F20.0
sg131
VJUL 17, 1997
p802
sg133
V6-8
p803
sg135
VOG Anunoby
p804
sg137
I1610612761
sg138
g77
sg140
g420
sg141
V00
p805
sg143
g79
sg144
I1628384
ssI1628385
(dp806
g241
VDuke
p807
sg243
V240
p808
sg245
V2017
p809
sg247
F19.0
sg248
VAPR 22, 1998
p810
sg250
V6-10
p811
sg252
VHarry Giles
p812
sg254
I1610612758
sg255
V20
p813
sg257
g420
sg258
V00
p814
sg260
VF-C
p815
sg261
I1628385
ssI1628386
(dp816
g178
VTexas
p817
sg180
V234
p818
sg182
V2017
p819
sg184
F19.0
sg185
VAPR 21, 1998
p820
sg187
V6-11
p821
sg189
VJarrett Allen
p822
sg191
I1610612751
sg192
V31
p823
sg193
g420
sg194
V00
p824
sg196
g207
sg197
I1628386
ssI1628389
(dp825
g209
VKentucky
p826
sg211
V255
p827
sg213
V2017
p828
sg215
F20.0
sg216
VJUL 18, 1997
p829
sg218
V6-10
p830
sg220
VBam Adebayo
p831
sg222
I1610612748
sg223
V13
p832
sg225
g420
sg226
V00
p833
sg228
VC-F
p834
sg229
I1628389
ssI1628390
(dp835
g403
Nsg405
V184
p836
sg407
V2017
p837
sg409
F19.0
sg410
VMAY 17, 1998
p838
sg412
V6-7
p839
sg414
VTerrance Ferguson
p840
sg416
I1610612760
sg417
V23
p841
sg419
g420
sg421
V00
p842
sg423
g46
sg424
I1628390
ssI1628391
(dp843
g263
VMichigan
p844
sg265
V236
p845
sg267
V2017
p846
sg269
F21.0
sg270
VFEB 19, 1996
p847
sg272
V6-10
p848
sg274
VD.J. Wilson
p849
sg276
I1610612749
sg277
g19
sg279
g420
sg280
V00
p850
sg282
g79
sg283
I1628391
ssI1628393
(dp851
g81
VOklahoma State
p852
sg83
V190
p853
sg85
V2017
p854
sg87
F21.0
sg88
VJUL 26, 1996
p855
sg90
V6-0
p856
sg92
VJawun Evans
p857
sg94
I1610612746
sg95
g64
sg96
g420
sg97
V00
p858
sg99
g46
sg101
I1628393
ssI1628395
(dp859
g354
VOregon
p860
sg356
V224
p861
sg358
V2017
p862
sg360
F22.0
sg361
VJAN 07, 1995
p863
sg363
V6-9
p864
sg365
VJordan Bell
p865
sg367
I1610612744
sg368
g42
sg369
g420
sg370
V00
p866
sg372
g79
sg373
I1628395
ssI1628396
(dp867
g285
VNorth Carolina
p868
sg287
V248
p869
sg289
V2017
p870
sg291
F19.0
sg292
VJAN 08, 1998
p871
sg294
V6-10
p872
sg296
VTony Bradley
p873
sg298
I1610612762
sg299
V13
p874
sg301
g420
sg303
V00
p875
sg305
g207
sg306
I1628396
ssI1628397
(dp876
g103
VCalifornia
p877
sg105
V220
p878
sg107
V2017
p879
sg109
F20.0
sg110
VFEB 04, 1997
p880
sg112
V6-10
p881
sg114
VIvan Rabb
p882
sg116
I1610612763
sg117
V10
p883
sg118
g420
sg119
V00
p884
sg121
g79
sg122
I1628397
ssI1628398
(dp885
g532
VUtah
p886
sg534
V220
p887
sg536
V2017
p888
sg538
F22.0
sg539
VJUL 24, 1995
p889
sg541
V6-9
p890
sg543
VKyle Kuzma
p891
sg545
I1610612747
sg546
g40
sg547
g420
sg548
V00
p892
sg550
g79
sg551
I1628398
ssI1628399
(dp893
g26
VSyracuse
p894
sg27
V220
p895
sg29
V2017
p896
sg31
F21.0
sg32
VAPR 09, 1996
p897
sg34
V6-9
p898
sg36
VTyler Lydon
p899
sg38
I1610612743
sg39
V20
p900
sg41
g420
sg43
V00
p901
sg45
g79
sg47
I1628399
ssI1628400
(dp902
g435
VSouthern Methodist
p903
sg437
V235
p904
sg439
V2017
p905
sg441
F22.0
sg442
VDEC 05, 1994
p906
sg444
V6-7
p907
sg446
VSemi Ojeleye
p908
sg448
I1610612738
sg449
V37
p909
sg451
g420
sg452
V00
p910
sg454
g79
sg455
I1628400
ssI1628401
(dp911
g146
VColorado
p912
sg148
V190
p913
sg150
V2017
p914
sg152
F23.0
sg153
VJUL 02, 1994
p915
sg155
V6-4
p916
sg157
VDerrick White
p917
sg159
I1610612759
sg160
g481
sg162
g420
sg164
V00
p918
sg166
g46
sg167
I1628401
ssI1628402
(dp919
VSCHOOL
p920
VDuke
p921
sVWEIGHT
p922
V205
p923
sVSEASON
p924
V2017
p925
sVAGE
p926
F19.0
sVBIRTH_DATE
p927
VMAY 04, 1998
p928
sVHEIGHT
p929
V6-3
p930
sVPLAYER
p931
VFrank Jackson
p932
sVTeamID
p933
I1610612740
sVNUM
p934
V15
p935
sVEXP
p936
g420
sVLeagueID
p937
V00
p938
sVPOSITION
p939
g46
sVPLAYER_ID
p940
I1628402
ssI1628404
(dp941
g532
VVillanova
p942
sg534
V215
p943
sg536
V2017
p944
sg538
F22.0
sg539
VMAR 06, 1995
p945
sg541
V6-5
p946
sg543
VJosh Hart
p947
sg545
I1610612747
sg546
g19
sg547
g420
sg548
V00
p948
sg550
g46
sg551
I1628404
ssI1628405
(dp949
g603
VBaylor
p950
sg605
V230
p951
sg607
V2017
p952
sg609
F22.0
sg610
VMAY 04, 1995
p953
sg612
V6-10
p954
sg614
VJohnathan Motley
p955
sg616
I1610612742
sg617
g500
sg618
g420
sg620
V00
p956
sg622
g79
sg623
I1628405
ssI1628408
(dp957
g403
VSouth Carolina
p958
sg405
V205
p959
sg407
V2017
p960
sg409
F21.0
sg410
VOCT 25, 1996
p961
sg412
V6-6
p962
sg414
VPJ Dozier
p963
sg416
I1610612760
sg417
V35
p964
sg419
g420
sg421
V00
p965
sg423
g46
sg424
I1628408
ssI203476
(dp966
g49
VLouisville
p967
sg51
V251
p968
sg53
V2017
p969
sg55
F27.0
sg56
VJAN 18, 1990
p970
sg58
V6-11
p971
sg60
VGorgui Dieng
p972
sg62
I1610612750
sg63
g19
sg65
g481
sg66
V00
p973
sg68
g207
sg69
I203476
ssI1628411
(dp974
g2
VKansas State
p975
sg4
V195
p976
sg6
V2017
p977
sg8
F22.0
sg9
VDEC 20, 1994
p978
sg11
V6-7
p979
sg13
VWes Iwundu
p980
sg15
I1610612753
sg16
V25
p981
sg18
g420
sg20
V00
p982
sg22
g79
sg24
I1628411
ssI1628412
(dp983
g241
VKansas
p984
sg243
V190
p985
sg245
V2017
p986
sg247
F23.0
sg248
VAPR 03, 1994
p987
sg250
V5-11
p988
sg252
VFrank Mason
p989
sg254
I1610612758
sg255
V10
p990
sg257
g420
sg258
V00
p991
sg260
g46
sg261
I1628412
ssI1628414
(dp992
g81
VSouth Carolina
p993
sg83
V215
p994
sg85
V2017
p995
sg87
F22.0
sg88
VNOV 15, 1994
p996
sg90
V6-5
p997
sg92
VSindarius Thornwell
p998
sg94
I1610612746
sg95
g40
sg96
g420
sg97
V00
p999
sg99
g46
sg101
I1628414
ssI1628415
(dp1000
g103
VOregon
p1001
sg105
V220
p1002
sg107
V2017
p1003
sg109
F21.0
sg110
VJAN 22, 1996
p1004
sg112
V6-6
p1005
sg114
VDillon Brooks
p1006
sg116
I1610612763
sg117
V24
p1007
sg118
g420
sg119
V00
p1008
sg121
VF-G
p1009
sg122
I1628415
ssI1628416
(dp1010
g758
VOregon
p1011
sg760
V183
p1012
sg762
V2017
p1013
sg764
F21.0
sg765
VFEB 18, 1996
p1014
sg767
V6-4
p1015
sg769
VTyler Dorsey
p1016
sg771
I1610612737
sg772
g42
sg774
g420
sg775
V00
p1017
sg777
g46
sg779
I1628416
ssI1628418
(dp1018
g532
VIndiana
p1019
sg534
V248
p1020
sg536
V2017
p1021
sg538
F20.0
sg539
VJUL 31, 1997
p1022
sg541
V6-10
p1023
sg543
VThomas Bryant
p1024
sg545
I1610612747
sg546
V31
p1025
sg547
g420
sg548
V00
p1026
sg550
g207
sg551
I1628418
ssI1628420
(dp1027
g26
VIowa State
p1028
sg27
V175
p1029
sg29
V2017
p1030
sg31
F22.0
sg32
VJUN 27, 1995
p1031
sg34
V6-3
p1032
sg36
VMonte Morris
p1033
sg38
I1610612743
sg39
V11
p1034
sg41
g420
sg43
V00
p1035
sg45
g46
sg47
I1628420
ssI1628424
(dp1036
g103
VArizona
p1037
sg105
V170
p1038
sg107
V2017
p1039
sg109
F20.0
sg110
VJUL 04, 1997
p1040
sg112
V6-4
p1041
sg114
VKobi Simmons
p1042
sg116
I1610612763
sg117
g42
sg118
g420
sg119
V00
p1043
sg121
g46
sg122
I1628424
ssI1628425
(dp1044
g263
VSouthern Methodist
p1045
sg265
V230
p1046
sg267
V2017
p1047
sg269
F22.0
sg270
VFEB 10, 1995
p1048
sg272
V6-6
p1049
sg274
VSterling Brown
p1050
sg276
I1610612749
sg277
V23
p1051
sg279
g420
sg280
V00
p1052
sg282
g46
sg283
I1628425
ssI1628429
(dp1053
g920
VDayton
p1054
sg922
V196
p1055
sg924
V2017
p1056
sg926
F23.0
sg927
VJUL 01, 1994
p1057
sg929
V6-5
p1058
sg931
VCharles Cooke
p1059
sg933
I1610612740
sg934
g481
sg936
g420
sg937
V00
p1060
sg939
g46
sg940
I1628429
ssI1628443
(dp1061
g435
VArizona
p1062
sg437
V200
p1063
sg439
V2017
p1064
sg441
F24.0
sg442
VJAN 15, 1993
p1065
sg444
V6-3
p1066
sg446
VKadeem Allen
p1067
sg448
I1610612738
sg449
V45
p1068
sg451
g420
sg452
V00
p1069
sg454
g46
sg455
I1628443
ssI1628444
(dp1070
g435
VCalifornia
p1071
sg437
V198
p1072
sg439
V2017
p1073
sg441
F23.0
sg442
VJUL 03, 1994
p1074
sg444
V6-6
p1075
sg446
VJabari Bird
p1076
sg448
I1610612738
sg449
V26
p1077
sg451
g420
sg452
V00
p1078
sg454
g46
sg455
I1628444
ssI1628449
(dp1079
g354
VOregon
p1080
sg356
V200
p1081
sg358
V2017
p1082
sg360
F24.0
sg361
VJAN 11, 1993
p1083
sg363
V6-10
p1084
sg365
VChris Boucher
p1085
sg367
I1610612744
sg368
V25
p1086
sg369
g420
sg370
V00
p1087
sg372
g79
sg373
I1628449
ssI1628451
(dp1088
g178
VEastern Washington
p1089
sg180
V223
p1090
sg182
V2017
p1091
sg184
F23.0
sg185
VSEP 04, 1994
p1092
sg187
V6-8
p1093
sg189
VJacob Wiley
p1094
sg191
I1610612751
sg192
V21
p1095
sg193
g420
sg194
V00
p1096
sg196
g79
sg197
I1628451
ssI1628462
(dp1097
g81
Nsg83
V196
p1098
sg85
V2017
p1099
sg87
F30.0
sg88
VMAR 19, 1987
p1100
sg90
V6-5
p1101
sg92
VMilos Teodosic
p1102
sg94
I1610612746
sg95
g481
sg96
g420
sg97
V00
p1103
sg99
g46
sg101
I1628462
ssI1628463
(dp1104
g758
VGeorge Washington
p1105
sg760
V238
p1106
sg762
V2017
p1107
sg764
F23.0
sg765
VFEB 09, 1994
p1108
sg767
V6-9
p1109
sg769
VTyler Cavanaugh
p1110
sg771
I1610612737
sg772
V34
p1111
sg774
g420
sg775
V00
p1112
sg777
g79
sg779
I1628463
ssI1628464
(dp1113
g435
Nsg437
V243
p1114
sg439
V2017
p1115
sg441
F25.0
sg442
VAPR 04, 1992
p1116
sg444
V6-9
p1117
sg446
VDaniel Theis
p1118
sg448
I1610612738
sg449
V27
p1119
sg451
g420
sg452
V00
p1120
sg454
VF-C
p1121
sg455
I1628464
ssI1628467
(dp1122
g603
Nsg605
V220
p1123
sg607
V2017
p1124
sg609
F25.0
sg610
VJAN 29, 1992
p1125
sg612
V6-11
p1126
sg614
VMaxi Kleber
p1127
sg616
I1610612742
sg617
V42
p1128
sg618
g420
sg620
V00
p1129
sg622
g79
sg623
I1628467
ssI1628469
(dp1130
g308
VLouisiana State
p1131
sg310
V197
p1132
sg312
V2017
p1133
sg314
F21.0
sg315
VOCT 04, 1996
p1134
sg317
V6-4
p1135
sg319
VAntonio Blakeney
p1136
sg321
I1610612741
sg322
g696
sg324
g420
sg325
V00
p1137
sg327
g46
sg328
I1628469
ssI1628470
(dp1138
g26
VSouth Carolina Upstate
p1139
sg27
V215
p1140
sg29
V2017
p1141
sg31
F26.0
sg32
VDEC 19, 1990
p1142
sg34
V6-6
p1143
sg36
VTorrey Craig
p1144
sg38
I1610612743
sg39
g77
sg41
g420
sg43
V00
p1145
sg45
VG-F
p1146
sg47
I1628470
ssI1628473
(dp1147
g178
Nsg180
V220
p1148
sg182
V2017
p1149
sg184
F25.0
sg185
VJAN 24, 1992
p1150
sg187
V6-4
p1151
sg189
VYakuba Ouattara
p1152
sg191
I1610612751
sg192
V00
p1153
sg193
g420
sg194
V00
p1154
sg196
g46
sg197
I1628473
ssI1628475
(dp1155
g209
VCentral Florida
p1156
sg211
V210
p1157
sg213
V2017
p1158
sg215
F24.0
sg216
VOCT 14, 1993
p1159
sg218
V6-5
p1160
sg220
VMatt Williams Jr.
p1161
sg222
I1610612748
sg223
V12
p1162
sg225
g420
sg226
V00
p1163
sg228
g46
sg229
I1628475
ssI1628476
(dp1164
g209
VMichigan
p1165
sg211
V185
p1166
sg213
V2017
p1167
sg215
F22.0
sg216
VAPR 03, 1995
p1168
sg218
V6-1
p1169
sg220
VDerrick Walton Jr.
p1170
sg222
I1610612748
sg223
V14
p1171
sg225
g420
sg226
V00
p1172
sg228
g46
sg229
I1628476
ssI203076
(dp1173
g920
VKentucky
p1174
sg922
V253
p1175
sg924
V2017
p1176
sg926
F24.0
sg927
VMAR 11, 1993
p1177
sg929
V6-10
p1178
sg931
VAnthony Davis
p1179
sg933
I1610612740
sg934
V23
p1180
sg936
g19
sg937
V00
p1181
sg939
VF-C
p1182
sg940
I203076
ssI203079
(dp1183
g209
VSyracuse
p1184
sg211
V215
p1185
sg213
V2017
p1186
sg215
F25.0
sg216
VDEC 10, 1991
p1187
sg218
V6-4
p1188
sg220
VDion Waiters
p1189
sg222
I1610612748
sg223
V11
p1190
sg225
g19
sg226
V00
p1191
sg228
g46
sg229
I203079
ssI203082
(dp1192
g2
VWashington
p1193
sg4
V206
p1194
sg6
V2017
p1195
sg8
F26.0
sg9
VFEB 05, 1991
p1196
sg11
V6-7
p1197
sg13
VTerrence Ross
p1198
sg15
I1610612753
sg16
V31
p1199
sg18
g19
sg20
V00
p1200
sg22
VG-F
p1201
sg24
I203082
ssI1628492
(dp1202
g603
VColorado State
p1203
sg605
V185
p1204
sg607
V2017
p1205
sg609
F23.0
sg610
VNOV 26, 1993
p1206
sg612
V6-4
p1207
sg614
VGian Clavell
p1208
sg616
I1610612742
sg617
g568
sg618
g420
sg620
V00
p1209
sg622
g46
sg623
I1628492
ssI203085
(dp1210
g81
VDuke
p1211
sg83
V200
p1212
sg85
V2017
p1213
sg87
F25.0
sg88
VAUG 01, 1992
p1214
sg90
V6-4
p1215
sg92
VAustin Rivers
p1216
sg94
I1610612746
sg95
V25
p1217
sg96
g19
sg97
V00
p1218
sg99
g46
sg101
I203085
ssI203089
(dp1219
g263
VNorth Carolina
p1220
sg265
V229
p1221
sg267
V2017
p1222
sg269
F26.0
sg270
VDEC 28, 1990
p1223
sg272
V6-11
p1224
sg274
VJohn Henson
p1225
sg276
I1610612749
sg277
V31
p1226
sg279
g19
sg280
V00
p1227
sg282
VF-C
p1228
sg283
I203089
ssI203092
(dp1229
g178
VNorth Carolina
p1230
sg180
V250
p1231
sg182
V2017
p1232
sg184
F27.0
sg185
VJAN 17, 1990
p1233
sg187
V7-0
p1234
sg189
VTyler Zeller
p1235
sg191
I1610612751
sg192
V44
p1236
sg193
g19
sg194
V00
p1237
sg196
g207
sg197
I203092
ssI1628503
(dp1238
g2
VPittsburgh
p1239
sg4
V213
p1240
sg6
V2017
p1241
sg8
F24.0
sg9
VJAN 12, 1993
p1242
sg11
V6-7
p1243
sg13
VJamel Artis
p1244
sg15
I1610612753
sg16
g40
sg18
g420
sg20
V00
p1245
sg22
g46
sg24
I1628503
ssI1628506
(dp1246
g581
VVirginia
p1247
sg583
V190
p1248
sg585
V2017
p1249
sg587
F23.0
sg588
VOCT 03, 1994
p1250
sg590
V6-2
p1251
sg592
VLondon Perrantes
p1252
sg594
I1610612739
sg595
V15
p1253
sg597
g420
sg598
V00
p1254
sg600
g46
sg601
I1628506
ssI203101
(dp1255
g758
VDuke
p1256
sg760
V249
p1257
sg762
V2017
p1258
sg764
F29.0
sg765
VSEP 01, 1988
p1259
sg767
V6-11
p1260
sg769
VMiles Plumlee
p1261
sg771
I1610612737
sg772
V18
p1262
sg774
g19
sg775
V00
p1263
sg777
g207
sg779
I203101
ssI2403
(dp1264
g484
VSao Carlos, Brazil
p1265
sg486
V250
p1266
sg488
V2017
p1267
sg490
F35.0
sg491
VSEP 13, 1982
p1268
sg493
V6-11
p1269
sg495
VNene
p1270
sg497
I1610612745
sg498
V42
p1271
sg499
V15
p1272
sg501
V00
p1273
sg503
VC-F
p1274
sg504
I2403
ssI203109
(dp1275
g581
VMarquette
p1276
sg583
V235
p1277
sg585
V2017
p1278
sg587
F27.0
sg588
VJUL 06, 1990
p1279
sg590
V6-6
p1280
sg592
VJae Crowder
p1281
sg594
I1610612739
sg595
V99
p1282
sg597
g19
sg598
V00
p1283
sg600
g79
sg601
I203109
ssI203110
(dp1284
g354
VMichigan State
p1285
sg356
V230
p1286
sg358
V2017
p1287
sg360
F27.0
sg361
VMAR 04, 1990
p1288
sg363
V6-7
p1289
sg365
VDraymond Green
p1290
sg367
I1610612744
sg368
V23
p1291
sg369
g19
sg370
V00
p1292
sg372
g79
sg373
I203110
ssI203112
(dp1293
g178
VBaylor
p1294
sg180
V240
p1295
sg182
V2017
p1296
sg184
F27.0
sg185
VOCT 06, 1990
p1297
sg187
V6-7
p1298
sg189
VQuincy Acy
p1299
sg191
I1610612751
sg192
V13
p1300
sg193
g19
sg194
V00
p1301
sg196
g79
sg197
I203112
ssI203114
(dp1302
g263
VTexas A&M
p1303
sg265
V234
p1304
sg267
V2017
p1305
sg269
F26.0
sg270
VAUG 12, 1991
p1306
sg272
V6-8
p1307
sg274
VKhris Middleton
p1308
sg276
I1610612749
sg277
V22
p1309
sg279
g19
sg280
V00
p1310
sg282
g79
sg283
I203114
ssI203115
(dp1311
g26
VMemphis
p1312
sg27
V190
p1313
sg29
V2017
p1314
sg31
F26.0
sg32
VJAN 06, 1991
p1315
sg34
V6-6
p1316
sg36
VWill Barton
p1317
sg38
I1610612743
sg39
g19
sg41
g19
sg43
V00
p1318
sg45
VG-F
p1319
sg47
I203115
ssI200765
(dp1320
g920
VKentucky
p1321
sg922
V186
p1322
sg924
V2017
p1323
sg926
F31.0
sg927
VFEB 22, 1986
p1324
sg929
V6-1
p1325
sg931
VRajon Rondo
p1326
sg933
I1610612740
sg934
g696
sg936
V11
p1327
sg937
V00
p1328
sg939
g46
sg940
I200765
ssI203121
(dp1329
g920
VKentucky
p1330
sg922
V225
p1331
sg924
V2017
p1332
sg926
F27.0
sg927
VMAR 21, 1990
p1333
sg929
V6-8
p1334
sg931
VDarius Miller
p1335
sg933
I1610612740
sg934
V21
p1336
sg936
g77
sg937
V00
p1337
sg939
g79
sg940
I203121
ssI203141
(dp1338
g263
VBosnia
p1339
sg265
V242
p1340
sg267
V2017
p1341
sg269
F32.0
sg270
VSEP 17, 1985
p1342
sg272
V6-9
p1343
sg274
VMirza Teletovic
p1344
sg276
I1610612749
sg277
V35
p1345
sg279
g19
sg280
V00
p1346
sg282
g79
sg283
I203141
ssI203145
(dp1347
g758
VOld Dominion
p1348
sg760
V201
p1349
sg762
V2017
p1350
sg764
F28.0
sg765
VJUL 01, 1989
p1351
sg767
V6-5
p1352
sg769
VKent Bazemore
p1353
sg771
I1610612737
sg772
V24
p1354
sg774
g19
sg775
V00
p1355
sg777
g46
sg779
I203145
ssI203186
(dp1356
g81
VSaint Louis
p1357
sg83
V245
p1358
sg85
V2017
p1359
sg87
F27.0
sg88
VMAY 16, 1990
p1360
sg90
V6-11
p1361
sg92
VWillie Reed
p1362
sg94
I1610612746
sg95
V35
p1363
sg96
g42
sg97
V00
p1364
sg99
g207
sg101
I203186
ssI201142
(dp1365
g354
VTexas
p1366
sg356
V240
p1367
sg358
V2017
p1368
sg360
F29.0
sg361
VSEP 29, 1988
p1369
sg363
V6-9
p1370
sg365
VKevin Durant
p1371
sg367
I1610612744
sg368
V35
p1372
sg369
V10
p1373
sg370
V00
p1374
sg372
g79
sg373
I201142
ssI201143
(dp1375
g435
VFlorida
p1376
sg437
V245
p1377
sg439
V2017
p1378
sg441
F31.0
sg442
VJUN 03, 1986
p1379
sg444
V6-10
p1380
sg446
VAl Horford
p1381
sg448
I1610612738
sg449
V42
p1382
sg451
V10
p1383
sg452
V00
p1384
sg454
VF-C
p1385
sg455
I201143
ssI201144
(dp1386
g103
VOhio State
p1387
sg105
V175
p1388
sg107
V2017
p1389
sg109
F30.0
sg110
VOCT 11, 1987
p1390
sg112
V6-1
p1391
sg114
VMike Conley
p1392
sg116
I1610612763
sg117
V11
p1393
sg118
V10
p1394
sg119
V00
p1395
sg121
g46
sg122
I201144
ssI201145
(dp1396
g581
VGeorgetown
p1397
sg583
V235
p1398
sg585
V2017
p1399
sg587
F31.0
sg588
VAUG 28, 1986
p1400
sg590
V6-9
p1401
sg592
VJeff Green
p1402
sg594
I1610612739
sg595
V32
p1403
sg597
g696
sg598
V00
p1404
sg600
g79
sg601
I201145
ssI201147
(dp1405
g532
VFlorida
p1406
sg534
V186
p1407
sg536
V2017
p1408
sg538
F31.0
sg539
VMAR 05, 1986
p1409
sg541
V6-9
p1410
sg543
VCorey Brewer
p1411
sg545
I1610612747
sg546
g77
sg547
V10
p1412
sg548
V00
p1413
sg550
g79
sg551
I201147
ssI201148
(dp1414
g103
VNorth Carolina
p1415
sg105
V235
p1416
sg107
V2017
p1417
sg109
F30.0
sg110
VOCT 05, 1987
p1418
sg112
V6-10
p1419
sg114
VBrandan Wright
p1420
sg116
I1610612763
sg117
V34
p1421
sg118
g696
sg119
V00
p1422
sg121
VF-C
p1423
sg122
I201148
ssI203200
(dp1424
g308
VWashington
p1425
sg310
V185
p1426
sg312
V2017
p1427
sg314
F28.0
sg315
VAPR 05, 1989
p1428
sg317
V6-6
p1429
sg319
VJustin Holiday
p1430
sg321
I1610612741
sg322
g175
sg324
g481
sg325
V00
p1431
sg327
g46
sg328
I203200
ssI201156
(dp1432
g354
VSouthern California
p1433
sg356
V210
p1434
sg358
V2017
p1435
sg360
F32.0
sg361
VJUN 01, 1985
p1436
sg363
V6-7
p1437
sg365
VNick Young
p1438
sg367
I1610612744
sg368
g500
sg369
V10
p1439
sg370
V00
p1440
sg372
VG-F
p1441
sg373
I201156
ssI201158
(dp1442
g758
VBologna, Italy
p1443
sg760
V210
p1444
sg762
V2017
p1445
sg764
F31.0
sg765
VMAR 25, 1986
p1446
sg767
V6-5
p1447
sg769
VMarco Belinelli
p1448
sg771
I1610612737
sg772
g77
sg774
V10
p1449
sg775
V00
p1450
sg777
VG-F
p1451
sg779
I201158
ssI203210
(dp1452
g103
VAlabama
p1453
sg105
V227
p1454
sg107
V2017
p1455
sg109
F27.0
sg110
VJUN 21, 1990
p1456
sg112
V6-9
p1457
sg114
VJaMychal Green
p1458
sg116
I1610612763
sg117
g40
sg118
g77
sg119
V00
p1459
sg121
g79
sg122
I203210
ssI201163
(dp1460
g26
VDePaul
p1461
sg27
V225
p1462
sg29
V2017
p1463
sg31
F30.0
sg32
VMAY 10, 1987
p1464
sg34
V6-9
p1465
sg36
VWilson Chandler
p1466
sg38
I1610612743
sg39
V21
p1467
sg41
g696
sg43
V00
p1468
sg45
g79
sg47
I201163
ssI201166
(dp1469
g49
VOregon
p1470
sg51
V161
p1471
sg53
V2017
p1472
sg55
F32.0
sg56
VJAN 14, 1985
p1473
sg58
V6-0
p1474
sg60
VAaron Brooks
p1475
sg62
I1610612750
sg63
V30
p1476
sg65
g696
sg66
V00
p1477
sg68
g46
sg69
I201166
ssI201167
(dp1478
g2
VUCLA
p1479
sg4
V210
p1480
sg6
V2017
p1481
sg8
F32.0
sg9
VOCT 15, 1985
p1482
sg11
V6-5
p1483
sg13
VArron Afflalo
p1484
sg15
I1610612753
sg16
g481
sg18
V10
p1485
sg20
V00
p1486
sg22
g46
sg24
I201167
ssI101112
(dp1487
g581
VArizona
p1488
sg583
V255
p1489
sg585
V2017
p1490
sg587
F34.0
sg588
VMAY 17, 1983
p1491
sg590
V6-11
p1492
sg592
VChanning Frye
p1493
sg594
I1610612739
sg595
g568
sg597
V11
p1494
sg598
V00
p1495
sg600
g79
sg601
I101112
ssI201177
(dp1496
g603
VDuke
p1497
sg605
V240
p1498
sg607
V2017
p1499
sg609
F30.0
sg610
VFEB 28, 1987
p1500
sg612
V6-10
p1501
sg614
VJosh McRoberts
p1502
sg616
I1610612742
sg617
V13
p1503
sg618
V10
p1504
sg620
V00
p1505
sg622
VF-C
p1506
sg623
I201177
ssI201188
(dp1507
g103
VBarcelona, Spain
p1508
sg105
V255
p1509
sg107
V2017
p1510
sg109
F32.0
sg110
VJAN 29, 1985
p1511
sg112
V7-1
p1512
sg114
VMarc Gasol
p1513
sg116
I1610612763
sg117
V33
p1514
sg118
g696
sg119
V00
p1515
sg121
g207
sg122
I201188
ssI2544
(dp1516
g581
VSt. Vincent-St. Mary HS (OH)
p1517
sg583
V250
p1518
sg585
V2017
p1519
sg587
F32.0
sg588
VDEC 30, 1984
p1520
sg590
V6-8
p1521
sg592
VLeBron James
p1522
sg594
I1610612739
sg595
V23
p1523
sg597
V14
p1524
sg598
V00
p1525
sg600
VF-G
p1526
sg601
I2544
ssI2546
(dp1527
g403
VSyracuse
p1528
sg405
V240
p1529
sg407
V2017
p1530
sg409
F33.0
sg410
VMAY 29, 1984
p1531
sg412
V6-8
p1532
sg414
VCarmelo Anthony
p1533
sg416
I1610612760
sg417
g175
sg419
V14
p1534
sg421
V00
p1535
sg423
g79
sg424
I2546
ssI2548
(dp1536
g581
VMarquette
p1537
sg583
V220
p1538
sg585
V2017
p1539
sg587
F35.0
sg588
VJAN 17, 1982
p1540
sg590
V6-4
p1541
sg592
VDwyane Wade
p1542
sg594
I1610612739
sg595
g696
sg597
V14
p1543
sg598
V00
p1544
sg600
g46
sg601
I2548
ssI2555
(dp1545
g403
VKansas
p1546
sg405
V255
p1547
sg407
V2017
p1548
sg409
F37.0
sg410
VOCT 26, 1980
p1549
sg412
V6-10
p1550
sg414
VNick Collison
p1551
sg416
I1610612760
sg417
g481
sg419
V13
p1552
sg421
V00
p1553
sg423
g79
sg424
I2555
ssI2561
(dp1554
g354
VXavier
p1555
sg356
V250
p1556
sg358
V2017
p1557
sg360
F37.0
sg361
VAUG 29, 1980
p1558
sg363
V6-9
p1559
sg365
VDavid West
p1560
sg367
I1610612744
sg368
g77
sg369
V14
p1561
sg370
V00
p1562
sg372
g79
sg373
I2561
ssI2585
(dp1563
g354
VTbilisi, Georgia
p1564
sg356
V270
p1565
sg358
V2017
p1566
sg360
F33.0
sg361
VFEB 10, 1984
p1567
sg363
V6-11
p1568
sg365
VZaza Pachulia
p1569
sg367
I1610612744
sg368
V27
p1570
sg369
V14
p1571
sg370
V00
p1572
sg372
g207
sg373
I2585
ssI2594
(dp1573
g581
VCreighton
p1574
sg583
V212
p1575
sg585
V2017
p1576
sg587
F36.0
sg588
VMAR 17, 1981
p1577
sg590
V6-7
p1578
sg592
VKyle Korver
p1579
sg594
I1610612739
sg595
V26
p1580
sg597
V14
p1581
sg598
V00
p1582
sg600
g46
sg601
I2594
ssI2617
(dp1583
g209
VFlorida
p1584
sg211
V235
p1585
sg213
V2017
p1586
sg215
F37.0
sg216
VJUN 09, 1980
p1587
sg218
V6-8
p1588
sg220
VUdonis Haslem
p1589
sg222
I1610612748
sg223
V40
p1590
sg225
V14
p1591
sg226
V00
p1592
sg228
g79
sg229
I2617
ssI203382
(dp1593
g435
VWashington State
p1594
sg437
V260
p1595
sg439
V2017
p1596
sg441
F30.0
sg442
VDEC 09, 1986
p1597
sg444
V6-10
p1598
sg446
VAron Baynes
p1599
sg448
I1610612738
sg449
V46
p1600
sg451
g19
sg452
V00
p1601
sg454
g207
sg455
I203382
ssI2733
(dp1602
g354
VPeoria Central HS (IL)
p1603
sg356
V192
p1604
sg358
V2017
p1605
sg360
F32.0
sg361
VSEP 11, 1985
p1606
sg363
V6-7
p1607
sg365
VShaun Livingston
p1608
sg367
I1610612744
sg368
V34
p1609
sg369
V12
p1610
sg370
V00
p1611
sg372
g46
sg373
I2733
ssI2734
(dp1612
g603
VWisconsin
p1613
sg605
V185
p1614
sg607
V2017
p1615
sg609
F34.0
sg610
VFEB 27, 1983
p1616
sg612
V6-3
p1617
sg614
VDevin Harris
p1618
sg616
I1610612742
sg617
V34
p1619
sg618
V13
p1620
sg620
V00
p1621
sg622
g46
sg623
I2734
ssI2736
(dp1622
g532
VDuke
p1623
sg534
V220
p1624
sg536
V2017
p1625
sg538
F32.0
sg539
VAPR 16, 1985
p1626
sg541
V6-9
p1627
sg543
VLuol Deng
p1628
sg545
I1610612747
sg546
g696
sg547
V13
p1629
sg548
V00
p1630
sg550
g79
sg551
I2736
ssI2738
(dp1631
g354
VArizona
p1632
sg356
V215
p1633
sg358
V2017
p1634
sg360
F33.0
sg361
VJAN 28, 1984
p1635
sg363
V6-6
p1636
sg365
VAndre Iguodala
p1637
sg367
I1610612744
sg368
g696
sg369
V13
p1638
sg370
V00
p1639
sg372
VG-F
p1640
sg373
I2738
ssI2747
(dp1641
g581
VSt. Benedict's Prep (NJ)
p1642
sg583
V225
p1643
sg585
V2017
p1644
sg587
F32.0
sg588
VSEP 09, 1985
p1645
sg590
V6-6
p1646
sg592
VJR Smith
p1647
sg594
I1610612739
sg595
g19
sg597
V13
p1648
sg598
V00
p1649
sg600
VG-F
p1650
sg601
I2747
ssI2749
(dp1651
g920
VSaint Joseph's
p1652
sg922
V190
p1653
sg924
V2017
p1654
sg926
F35.0
sg927
VFEB 09, 1982
p1655
sg929
V6-0
p1656
sg931
VJameer Nelson
p1657
sg933
I1610612740
sg934
V14
p1658
sg936
V13
p1659
sg937
V00
p1660
sg939
g46
sg940
I2749
ssI203457
(dp1661
g603
VKentucky
p1662
sg605
V220
p1663
sg607
V2017
p1664
sg609
F23.0
sg610
VAPR 10, 1994
p1665
sg612
V6-11
p1666
sg614
VNerlens Noel
p1667
sg616
I1610612742
sg617
g77
sg618
g77
sg620
V00
p1668
sg622
g207
sg623
I203457
ssI2754
(dp1669
g920
VOklahoma State
p1670
sg922
V213
p1671
sg924
V2017
p1672
sg926
F35.0
sg927
VJAN 11, 1982
p1673
sg929
V6-4
p1674
sg931
VTony Allen
p1675
sg933
I1610612740
sg934
V24
p1676
sg936
V13
p1677
sg937
V00
p1678
sg939
VG-F
p1679
sg940
I2754
ssI203459
(dp1680
g178
VCalifornia
p1681
sg180
V215
p1682
sg182
V2017
p1683
sg184
F25.0
sg185
VAPR 09, 1992
p1684
sg187
V6-6
p1685
sg189
VAllen Crabbe
p1686
sg191
I1610612751
sg192
V33
p1687
sg193
g481
sg194
V00
p1688
sg196
VG-F
p1689
sg197
I203459
ssI203460
(dp1690
g403
VColorado
p1691
sg405
V210
p1692
sg407
V2017
p1693
sg409
F25.0
sg410
VDEC 04, 1991
p1694
sg412
V6-7
p1695
sg414
VAndre Roberson
p1696
sg416
I1610612760
sg417
V21
p1697
sg419
g481
sg421
V00
p1698
sg423
g46
sg424
I203460
ssI203463
(dp1699
g103
VKansas
p1700
sg105
V195
p1701
sg107
V2017
p1702
sg109
F24.0
sg110
VFEB 11, 1993
p1703
sg112
V6-5
p1704
sg114
VBen McLemore
p1705
sg116
I1610612763
sg117
V23
p1706
sg118
g481
sg119
V00
p1707
sg121
g46
sg122
I203463
ssI203464
(dp1708
g146
Nsg148
V200
p1709
sg150
V2017
p1710
sg152
F26.0
sg153
VAPR 30, 1991
p1711
sg155
V6-4
p1712
sg157
VBrandon Paul
p1713
sg159
I1610612759
sg160
g77
sg162
g420
sg164
V00
p1714
sg166
g46
sg167
I203464
ssI203471
(dp1715
g758
VGermany
p1716
sg760
V172
p1717
sg762
V2017
p1718
sg764
F24.0
sg765
VSEP 15, 1993
p1719
sg767
V6-1
p1720
sg769
VDennis Schroder
p1721
sg771
I1610612737
sg772
V17
p1722
sg774
g481
sg775
V00
p1723
sg777
g46
sg779
I203471
ssI203473
(dp1724
g758
VSouthern California
p1725
sg760
V245
p1726
sg762
V2017
p1727
sg764
F28.0
sg765
VAUG 12, 1989
p1728
sg767
V7-0
p1729
sg769
VDewayne Dedmon
p1730
sg771
I1610612737
sg772
V14
p1731
sg774
g481
sg775
V00
p1732
sg777
g207
sg779
I203473
ssI2772
(dp1733
g484
VUCLA
p1734
sg486
V215
p1735
sg488
V2017
p1736
sg490
F32.0
sg491
VJUN 30, 1985
p1737
sg493
V6-8
p1738
sg495
VTrevor Ariza
p1739
sg497
I1610612745
sg498
g64
sg499
V13
p1740
sg501
V00
p1741
sg503
VF-G
p1742
sg504
I2772
ssI203481
(dp1743
g603
VKansas
p1744
sg605
V230
p1745
sg607
V2017
p1746
sg609
F27.0
sg610
VMAR 07, 1990
p1747
sg612
V7-0
p1748
sg614
VJeff Withey
p1749
sg616
I1610612742
sg617
V17
p1750
sg618
g481
sg620
V00
p1751
sg622
g207
sg623
I203481
ssI203482
(dp1752
g209
VGonzaga
p1753
sg211
V245
p1754
sg213
V2017
p1755
sg215
F26.0
sg216
VAPR 19, 1991
p1756
sg218
V7-0
p1757
sg220
VKelly Olynyk
p1758
sg222
I1610612748
sg223
g696
sg225
g481
sg226
V00
p1759
sg228
VC-F
p1760
sg229
I203482
ssI203484
(dp1761
g532
VGeorgia
p1762
sg534
V205
p1763
sg536
V2017
p1764
sg538
F24.0
sg539
VFEB 18, 1993
p1765
sg541
V6-5
p1766
sg543
VKentavious Caldwell-Pope
p1767
sg545
I1610612747
sg546
g64
sg547
g481
sg548
V00
p1768
sg550
g46
sg551
I203484
ssI203485
(dp1769
g124
VNorth Carolina State
p1770
sg126
V189
p1771
sg128
V2017
p1772
sg130
F27.0
sg131
VAUG 26, 1990
p1773
sg133
V6-5
p1774
sg135
VLorenzo Brown
p1775
sg137
I1610612761
sg138
g481
sg140
g77
sg141
V00
p1776
sg143
g46
sg144
I203485
ssI203486
(dp1777
g26
VDuke
p1778
sg27
V255
p1779
sg29
V2017
p1780
sg31
F27.0
sg32
VMAR 05, 1990
p1781
sg34
V6-11
p1782
sg36
VMason Plumlee
p1783
sg38
I1610612743
sg39
V24
p1784
sg41
g481
sg43
V00
p1785
sg45
VC-F
p1786
sg47
I203486
ssI203488
(dp1787
g758
VBucknell
p1788
sg760
V240
p1789
sg762
V2017
p1790
sg764
F26.0
sg765
VJUL 01, 1991
p1791
sg767
V6-11
p1792
sg769
VMike Muscala
p1793
sg771
I1610612737
sg772
V31
p1794
sg774
g481
sg775
V00
p1795
sg777
VF-C
p1796
sg779
I203488
ssI203489
(dp1797
g285
VSouth Dakota State
p1798
sg287
V190
p1799
sg289
V2017
p1800
sg291
F26.0
sg292
VMAY 15, 1991
p1801
sg294
V6-4
p1802
sg296
VNate Wolters
p1803
sg298
I1610612762
sg299
V16
p1804
sg301
g42
sg303
V00
p1805
sg305
g46
sg306
I203489
ssI203497
(dp1806
g285
VFrance
p1807
sg287
V245
p1808
sg289
V2017
p1809
sg291
F25.0
sg292
VJUN 26, 1992
p1810
sg294
V7-1
p1811
sg296
VRudy Gobert
p1812
sg298
I1610612762
sg299
V27
p1813
sg301
g481
sg303
V00
p1814
sg305
g207
sg306
I203497
ssI203498
(dp1815
g49
VUCLA
p1816
sg51
V221
p1817
sg53
V2017
p1818
sg55
F24.0
sg56
VNOV 13, 1992
p1819
sg58
V6-6
p1820
sg60
VShabazz Muhammad
p1821
sg62
I1610612750
sg63
V15
p1822
sg65
g481
sg66
V00
p1823
sg68
VG-F
p1824
sg69
I203498
ssI203499
(dp1825
g435
VMiami (FL)
p1826
sg437
V175
p1827
sg439
V2017
p1828
sg441
F25.0
sg442
VOCT 02, 1992
p1829
sg444
V5-11
p1830
sg446
VShane Larkin
p1831
sg448
I1610612738
sg449
g568
sg451
g77
sg452
V00
p1832
sg454
g46
sg455
I203499
ssI203500
(dp1833
g403
VPittsburgh
p1834
sg405
V255
p1835
sg407
V2017
p1836
sg409
F24.0
sg410
VJUL 20, 1993
p1837
sg412
V7-0
p1838
sg414
VSteven Adams
p1839
sg416
I1610612760
sg417
V12
p1840
sg419
g481
sg421
V00
p1841
sg423
g207
sg424
I203500
ssI203503
(dp1842
g263
VNew Mexico
p1843
sg265
V221
p1844
sg267
V2017
p1845
sg269
F26.0
sg270
VNOV 10, 1991
p1846
sg272
V6-7
p1847
sg274
VTony Snell
p1848
sg276
I1610612749
sg277
V21
p1849
sg279
g481
sg280
V00
p1850
sg282
g46
sg283
I203503
ssI203505
(dp1851
g532
VMarquette
p1852
sg534
V200
p1853
sg536
V2017
p1854
sg538
F25.0
sg539
VJUL 17, 1992
p1855
sg541
V6-5
p1856
sg543
VVander Blue
p1857
sg545
I1610612747
sg546
V17
p1858
sg547
g42
sg548
V00
p1859
sg550
g46
sg551
I203505
ssI101106
(dp1860
g532
VUtah
p1861
sg534
V260
p1862
sg536
V2017
p1863
sg538
F32.0
sg539
VNOV 28, 1984
p1864
sg541
V7-0
p1865
sg543
VAndrew Bogut
p1866
sg545
I1610612747
sg546
V66
p1867
sg547
V12
p1868
sg548
V00
p1869
sg550
g207
sg551
I101106
ssI203507
(dp1870
g263
VGreece
p1871
sg265
V222
p1872
sg267
V2017
p1873
sg269
F22.0
sg270
VDEC 06, 1994
p1874
sg272
V6-11
p1875
sg274
VGiannis Antetokounmpo
p1876
sg276
I1610612749
sg277
V34
p1877
sg279
g481
sg280
V00
p1878
sg282
g79
sg283
I203507
ssI101108
(dp1879
g484
VWake Forest
p1880
sg486
V175
p1881
sg488
V2017
p1882
sg490
F32.0
sg491
VMAY 06, 1985
p1883
sg493
V6-0
p1884
sg495
VChris Paul
p1885
sg497
I1610612745
sg498
g77
sg499
V12
p1886
sg501
V00
p1887
sg503
g46
sg504
I101108
ssI101109
(dp1888
g403
VNorth Carolina
p1889
sg405
V205
p1890
sg407
V2017
p1891
sg409
F33.0
sg410
VJUN 26, 1984
p1892
sg412
V6-1
p1893
sg414
VRaymond Felton
p1894
sg416
I1610612760
sg417
g42
sg419
V12
p1895
sg421
V00
p1896
sg423
g46
sg424
I101109
ssI203512
(dp1897
g124
Nsg126
V220
p1898
sg128
V2017
p1899
sg130
F25.0
sg131
VJUL 26, 1992
p1900
sg133
V7-0
p1901
sg135
VLucas Nogueira
p1902
sg137
I1610612761
sg138
V92
p1903
sg140
g77
sg141
V00
p1904
sg143
g207
sg144
I203512
ssI203516
(dp1905
g103
VLong Beach State
p1906
sg105
V210
p1907
sg107
V2017
p1908
sg109
F27.0
sg110
VJUL 01, 1990
p1909
sg112
V6-7
p1910
sg114
VJames Ennis III
p1911
sg116
I1610612763
sg117
g568
sg118
g77
sg119
V00
p1912
sg121
g79
sg122
I203516
ssI203518
(dp1913
g403
Nsg405
V190
p1914
sg407
V2017
p1915
sg409
F24.0
sg410
VAUG 01, 1993
p1916
sg412
V6-6
p1917
sg414
VAlex Abrines
p1918
sg416
I1610612760
sg417
g568
sg419
g64
sg421
V00
p1919
sg423
g46
sg424
I203518
ssI203521
(dp1920
g263
VSaint Mary's (CA)
p1921
sg265
V198
p1922
sg267
V2017
p1923
sg269
F27.0
sg270
VSEP 08, 1990
p1924
sg272
V6-4
p1925
sg274
VMatthew Dellavedova
p1926
sg276
I1610612749
sg277
g568
sg279
g481
sg280
V00
p1927
sg282
g46
sg283
I203521
ssI203524
(dp1928
g920
VArizona
p1929
sg922
V225
p1930
sg924
V2017
p1931
sg926
F26.0
sg927
VMAR 18, 1991
p1932
sg929
V6-7
p1933
sg931
VSolomon Hill
p1934
sg933
I1610612740
sg934
V44
p1935
sg936
g481
sg937
V00
p1936
sg939
g79
sg940
I203524
ssI203526
(dp1937
g285
Nsg287
V179
p1938
sg289
V2017
p1939
sg291
F25.0
sg292
VMAY 19, 1992
p1940
sg294
V6-1
p1941
sg296
VRaul Neto
p1942
sg298
I1610612762
sg299
V25
p1943
sg301
g42
sg303
V00
p1944
sg305
g46
sg306
I203526
ssI203530
(dp1945
g146
Nsg148
V260
p1946
sg150
V2017
p1947
sg152
F26.0
sg153
VSEP 30, 1991
p1948
sg155
V6-11
p1949
sg157
VJoffrey Lauvergne
p1950
sg159
I1610612759
sg160
V77
p1951
sg162
g77
sg164
V00
p1952
sg166
g207
sg167
I203530
ssI101139
(dp1953
g124
VSkyline HS (TX)
p1954
sg126
V225
p1955
sg128
V2017
p1956
sg130
F30.0
sg131
VMAR 18, 1987
p1957
sg133
V6-6
p1958
sg135
VCJ Miles
p1959
sg137
I1610612761
sg138
g40
sg140
V12
p1960
sg141
V00
p1961
sg143
VF-G
p1962
sg144
I101139
ssI101141
(dp1963
g758
VEskisehir, Turkey
p1964
sg760
V235
p1965
sg762
V2017
p1966
sg764
F30.0
sg765
VMAY 15, 1987
p1967
sg767
V6-10
p1968
sg769
VErsan Ilyasova
p1969
sg771
I1610612737
sg772
g175
sg774
g696
sg775
V00
p1970
sg777
g79
sg779
I101141
ssI203546
(dp1971
g920
VBelmont
p1972
sg922
V175
p1973
sg924
V2017
p1974
sg926
F26.0
sg927
VMAR 07, 1991
p1975
sg929
V6-3
p1976
sg931
VIan Clark
p1977
sg933
I1610612740
sg934
g42
sg936
g481
sg937
V00
p1978
sg939
g46
sg940
I203546
ssI203547
(dp1979
g285
VCampbell
p1980
sg287
V205
p1981
sg289
V2017
p1982
sg291
F27.0
sg292
VMAY 26, 1990
p1983
sg294
V6-8
p1984
sg296
VEric Griffin
p1985
sg298
I1610612762
sg299
V17
p1986
sg301
g420
sg303
V00
p1987
sg305
VC-F
p1988
sg306
I203547
ssI101150
(dp1989
g81
VSouth Gwinnett HS (GA)
p1990
sg83
V175
p1991
sg85
V2017
p1992
sg87
F31.0
sg88
VOCT 27, 1986
p1993
sg90
V6-1
p1994
sg92
VLou Williams
p1995
sg94
I1610612746
sg95
V23
p1996
sg96
V12
p1997
sg97
V00
p1998
sg99
g46
sg101
I101150
ssI203552
(dp1999
g603
VDuke
p2000
sg605
V185
p2001
sg607
V2017
p2002
sg609
F27.0
sg610
VAUG 23, 1990
p2003
sg612
V6-2
p2004
sg614
VSeth Curry
p2005
sg616
I1610612742
sg617
V30
p2006
sg618
g481
sg620
V00
p2007
sg622
g46
sg623
I203552
ssI101181
(dp2008
g581
VVillanueva de la Serena, Spain
p2009
sg583
V200
p2010
sg585
V2017
p2011
sg587
F36.0
sg588
VSEP 28, 1981
p2012
sg590
V6-3
p2013
sg592
VJose Calderon
p2014
sg594
I1610612739
sg595
V81
p2015
sg597
V12
p2016
sg598
V00
p2017
sg600
g46
sg601
I101181
ssI203585
(dp2018
g209
VKansas State
p2019
sg211
V200
p2020
sg213
V2017
p2021
sg215
F26.0
sg216
VJUL 29, 1991
p2022
sg218
V6-4
p2023
sg220
VRodney McGruder
p2024
sg222
I1610612748
sg223
V17
p2025
sg225
g64
sg226
V00
p2026
sg228
VG-F
p2027
sg229
I203585
ssI201565
(dp2028
g581
VMemphis
p2029
sg583
V190
p2030
sg585
V2017
p2031
sg587
F29.0
sg588
VOCT 04, 1988
p2032
sg590
V6-3
p2033
sg592
VDerrick Rose
p2034
sg594
I1610612739
sg595
g64
sg597
g568
sg598
V00
p2035
sg600
g46
sg601
I201565
ssI201566
(dp2036
g403
VUCLA
p2037
sg405
V200
p2038
sg407
V2017
p2039
sg409
F28.0
sg410
VNOV 12, 1988
p2040
sg412
V6-3
p2041
sg414
VRussell Westbrook
p2042
sg416
I1610612760
sg417
g40
sg419
g696
sg421
V00
p2043
sg423
g46
sg424
I201566
ssI201567
(dp2044
g581
VUCLA
p2045
sg583
V251
p2046
sg585
V2017
p2047
sg587
F29.0
sg588
VSEP 07, 1988
p2048
sg590
V6-10
p2049
sg592
VKevin Love
p2050
sg594
I1610612739
sg595
g40
sg597
g696
sg598
V00
p2051
sg600
VF-C
p2052
sg601
I201567
ssI201568
(dp2053
g81
VSant'Angelo Lodigiano, Italy
p2054
sg83
V225
p2055
sg85
V2017
p2056
sg87
F29.0
sg88
VAUG 08, 1988
p2057
sg90
V6-10
p2058
sg92
VDanilo Gallinari
p2059
sg94
I1610612746
sg95
g568
sg96
g568
sg97
V00
p2060
sg99
g79
sg101
I201568
ssI201569
(dp2061
g484
VIndiana
p2062
sg486
V215
p2063
sg488
V2017
p2064
sg490
F28.0
sg491
VDEC 25, 1988
p2065
sg493
V6-4
p2066
sg495
VEric Gordon
p2067
sg497
I1610612745
sg498
V10
p2068
sg499
g696
sg501
V00
p2069
sg503
g46
sg504
I201569
ssI201571
(dp2070
g2
VTexas
p2071
sg4
V183
p2072
sg6
V2017
p2073
sg8
F30.0
sg9
VNOV 10, 1987
p2074
sg11
V6-0
p2075
sg13
VD.J. Augustin
p2076
sg15
I1610612753
sg16
V14
p2077
sg18
g696
sg20
V00
p2078
sg22
g46
sg24
I201571
ssI201572
(dp2079
g532
VStanford
p2080
sg534
V268
p2081
sg536
V2017
p2082
sg538
F29.0
sg539
VAPR 01, 1988
p2083
sg541
V7-0
p2084
sg543
VBrook Lopez
p2085
sg545
I1610612747
sg546
V11
p2086
sg547
g696
sg548
V00
p2087
sg550
g207
sg551
I201572
ssI201577
(dp2088
g308
VStanford
p2089
sg310
V277
p2090
sg312
V2017
p2091
sg314
F29.0
sg315
VAPR 01, 1988
p2092
sg317
V7-0
p2093
sg319
VRobin Lopez
p2094
sg321
I1610612741
sg322
V42
p2095
sg324
g696
sg325
V00
p2096
sg327
g207
sg328
I201577
ssI201578
(dp2097
g2
VFlorida
p2098
sg4
V255
p2099
sg6
V2017
p2100
sg8
F30.0
sg9
VAUG 04, 1987
p2101
sg11
V6-10
p2102
sg13
VMarreese Speights
p2103
sg15
I1610612753
sg16
g19
sg18
g696
sg20
V00
p2104
sg22
VF-C
p2105
sg24
I201578
ssI201580
(dp2106
g354
VNevada
p2107
sg356
V270
p2108
sg358
V2017
p2109
sg360
F29.0
sg361
VJAN 19, 1988
p2110
sg363
V7-0
p2111
sg365
VJaVale McGee
p2112
sg367
I1610612744
sg368
g64
sg369
g696
sg370
V00
p2113
sg372
g207
sg373
I201580
ssI201582
(dp2114
g920
VSaint Etienne, France
p2115
sg922
V248
p2116
sg924
V2017
p2117
sg926
F29.0
sg927
VMAY 06, 1988
p2118
sg929
V7-2
p2119
sg931
VAlexis Ajinca
p2120
sg933
I1610612740
sg934
V42
p2121
sg936
g175
sg937
V00
p2122
sg939
g207
sg940
I201582
ssI201583
(dp2123
g484
VCalifornia
p2124
sg486
V240
p2125
sg488
V2017
p2126
sg490
F29.0
sg491
VMAY 06, 1988
p2127
sg493
V6-10
p2128
sg495
VRyan Anderson
p2129
sg497
I1610612745
sg498
V33
p2130
sg499
g696
sg501
V00
p2131
sg503
g79
sg504
I201583
ssI201585
(dp2132
g241
VOhio State
p2133
sg243
V265
p2134
sg245
V2017
p2135
sg247
F28.0
sg248
VFEB 24, 1989
p2136
sg250
V7-0
p2137
sg252
VKosta Koufos
p2138
sg254
I1610612758
sg255
V41
p2139
sg257
g696
sg258
V00
p2140
sg260
g207
sg261
I201585
ssI201586
(dp2141
g124
VBrazzaville, Rep. of Congo
p2142
sg126
V235
p2143
sg128
V2017
p2144
sg130
F28.0
sg131
VSEP 18, 1989
p2145
sg133
V6-10
p2146
sg135
VSerge Ibaka
p2147
sg137
I1610612761
sg138
g696
sg140
g568
sg141
V00
p2148
sg143
g79
sg144
I201586
ssI201588
(dp2149
g241
VIndiana Purdue-Indianapolis
p2150
sg243
V188
p2151
sg245
V2017
p2152
sg247
F31.0
sg248
VMAY 04, 1986
p2153
sg250
V6-3
p2154
sg252
VGeorge Hill
p2155
sg254
I1610612758
sg255
g77
sg257
g696
sg258
V00
p2156
sg260
g46
sg261
I201588
ssI201589
(dp2157
g26
VKansas
p2158
sg27
V235
p2159
sg29
V2017
p2160
sg31
F29.0
sg32
VMAR 25, 1988
p2161
sg34
V6-9
p2162
sg36
VDarrell Arthur
p2163
sg38
I1610612743
sg39
V00
p2164
sg41
g568
sg43
V00
p2165
sg45
g79
sg47
I201589
ssI201596
(dp2166
g103
VKansas
p2167
sg105
V190
p2168
sg107
V2017
p2169
sg109
F31.0
sg110
VMAY 19, 1986
p2170
sg112
V6-2
p2171
sg114
VMario Chalmers
p2172
sg116
I1610612763
sg117
g500
sg118
g568
sg119
V00
p2173
sg121
g46
sg122
I201596
ssI201599
(dp2174
g81
VTexas A&M
p2175
sg83
V265
p2176
sg85
V2017
p2177
sg87
F29.0
sg88
VJUL 21, 1988
p2178
sg90
V6-11
p2179
sg92
VDeAndre Jordan
p2180
sg94
I1610612746
sg95
g500
sg96
g696
sg97
V00
p2181
sg99
g207
sg101
I201599
ssI201600
(dp2182
g920
VTurkey
p2183
sg922
V255
p2184
sg924
V2017
p2185
sg926
F31.0
sg927
VJUL 04, 1986
p2186
sg929
V7-0
p2187
sg931
VOmer Asik
p2188
sg933
I1610612740
sg934
g77
sg936
g175
sg937
V00
p2189
sg939
g207
sg940
I201600
ssI201601
(dp2190
g484
VUCLA
p2191
sg486
V230
p2192
sg488
V2017
p2193
sg490
F31.0
sg491
VSEP 09, 1986
p2194
sg493
V6-8
p2195
sg495
VLuc Mbah a Moute
p2196
sg497
I1610612745
sg498
V12
p2197
sg499
g696
sg501
V00
p2198
sg503
g79
sg504
I201601
ssI201609
(dp2199
g209
VLjubljana, Slovenia
p2200
sg211
V190
p2201
sg213
V2017
p2202
sg215
F31.0
sg216
VMAY 06, 1986
p2203
sg218
V6-3
p2204
sg220
VGoran Dragic
p2205
sg222
I1610612748
sg223
g175
sg225
g696
sg226
V00
p2206
sg228
g46
sg229
I201609
ssI201628
(dp2207
g484
VCal State-Fullerton
p2208
sg486
V175
p2209
sg488
V2017
p2210
sg490
F33.0
sg491
VSEP 24, 1984
p2211
sg493
V6-2
p2212
sg495
VBobby Brown
p2213
sg497
I1610612745
sg498
g500
sg499
g77
sg501
V00
p2214
sg503
g46
sg504
I201628
ssI203705
(dp2215
g758
VAlabama-Huntsville
p2216
sg760
V160
p2217
sg762
V2017
p2218
sg764
F27.0
sg765
VNOV 28, 1989
p2219
sg767
V6-1
p2220
sg769
VJosh Magette
p2221
sg771
I1610612737
sg772
V11
p2222
sg774
g420
sg775
V00
p2223
sg777
g46
sg779
I203705
ssI203710
(dp2224
g81
VNorth Carolina State
p2225
sg83
V230
p2226
sg85
V2017
p2227
sg87
F27.0
sg88
VFEB 06, 1990
p2228
sg90
V6-5
p2229
sg92
VC.J. Williams
p2230
sg94
I1610612746
sg95
g696
sg96
g420
sg97
V00
p2231
sg99
g46
sg101
I203710
ssI1627098
(dp2232
g758
VVirginia Tech
p2233
sg760
V190
p2234
sg762
V2017
p2235
sg764
F28.0
sg765
VMAR 11, 1989
p2236
sg767
V6-3
p2237
sg769
VMalcolm Delaney
p2238
sg771
I1610612737
sg772
g19
sg774
g64
sg775
V00
p2239
sg777
g46
sg779
I1627098
ssI203613
(dp2240
g2
VHouston
p2241
sg4
V195
p2242
sg6
V2017
p2243
sg8
F28.0
sg9
VSEP 14, 1989
p2244
sg11
V6-6
p2245
sg13
VJonathon Simmons
p2246
sg15
I1610612753
sg16
V17
p2247
sg18
g42
sg20
V00
p2248
sg22
g79
sg24
I203613
ssI203897
(dp2249
g308
VUCLA
p2250
sg310
V185
p2251
sg312
V2017
p2252
sg314
F22.0
sg315
VMAR 10, 1995
p2253
sg317
V6-5
p2254
sg319
VZach LaVine
p2255
sg321
I1610612741
sg322
g568
sg324
g77
sg325
V00
p2256
sg327
g46
sg328
I203897
ssI203898
(dp2257
g532
VSyracuse
p2258
sg534
V194
p2259
sg536
V2017
p2260
sg538
F23.0
sg539
VAUG 24, 1994
p2261
sg541
V6-3
p2262
sg543
VTyler Ennis
p2263
sg545
I1610612747
sg546
V10
p2264
sg547
g77
sg548
V00
p2265
sg550
g46
sg551
I203898
ssI203901
(dp2266
g2
VLouisiana-Lafayette
p2267
sg4
V185
p2268
sg6
V2017
p2269
sg8
F23.0
sg9
VFEB 22, 1994
p2270
sg11
V6-4
p2271
sg13
VElfrid Payton
p2272
sg15
I1610612753
sg16
g42
sg18
g77
sg20
V00
p2273
sg22
g46
sg24
I203901
ssI203903
(dp2274
g532
VMissouri
p2275
sg534
V194
p2276
sg536
V2017
p2277
sg538
F25.0
sg539
VJUN 07, 1992
p2278
sg541
V6-5
p2279
sg543
VJordan Clarkson
p2280
sg545
I1610612747
sg546
g500
sg547
g77
sg548
V00
p2281
sg550
g46
sg551
I203903
ssI203914
(dp2282
g26
VMichigan State
p2283
sg27
V210
p2284
sg29
V2017
p2285
sg31
F23.0
sg32
VSEP 14, 1994
p2286
sg34
V6-4
p2287
sg36
VGary Harris
p2288
sg38
I1610612743
sg39
V14
p2289
sg41
g77
sg43
V00
p2290
sg45
g46
sg47
I203914
ssI203915
(dp2291
g178
VColorado
p2292
sg180
V200
p2293
sg182
V2017
p2294
sg184
F24.0
sg185
VAPR 06, 1993
p2295
sg187
V6-6
p2296
sg189
VSpencer Dinwiddie
p2297
sg191
I1610612751
sg192
g568
sg193
g77
sg194
V00
p2298
sg196
g46
sg197
I203915
ssI203918
(dp2299
g285
VDuke
p2300
sg287
V206
p2301
sg289
V2017
p2302
sg291
F25.0
sg292
VOCT 20, 1992
p2303
sg294
V6-8
p2304
sg296
VRodney Hood
p2305
sg298
I1610612762
sg299
g19
sg301
g77
sg303
V00
p2306
sg305
g46
sg306
I203918
ssI203920
(dp2307
g2
VNevada-Las Vegas
p2308
sg4
V220
p2309
sg6
V2017
p2310
sg8
F25.0
sg9
VSEP 28, 1992
p2311
sg11
V6-9
p2312
sg13
VKhem Birch
p2313
sg15
I1610612753
sg16
V24
p2314
sg18
g420
sg20
V00
p2315
sg22
g207
sg24
I203920
ssI203924
(dp2316
g403
VSyracuse
p2317
sg405
V220
p2318
sg407
V2017
p2319
sg409
F23.0
sg410
VMAR 12, 1994
p2320
sg412
V6-9
p2321
sg414
VJerami Grant
p2322
sg416
I1610612760
sg417
g696
sg419
g77
sg421
V00
p2323
sg423
g79
sg424
I203924
ssI203925
(dp2324
g178
VVirginia
p2325
sg180
V219
p2326
sg182
V2017
p2327
sg184
F26.0
sg185
VSEP 06, 1991
p2328
sg187
V6-6
p2329
sg189
VJoe Harris
p2330
sg191
I1610612751
sg192
V12
p2331
sg193
g77
sg194
V00
p2332
sg196
g46
sg197
I203925
ssI203930
(dp2333
g178
VCincinnati
p2334
sg180
V212
p2335
sg182
V2017
p2336
sg184
F27.0
sg185
VJAN 06, 1990
p2337
sg187
V6-4
p2338
sg189
VSean Kilpatrick
p2339
sg191
I1610612751
sg192
g500
sg193
g77
sg194
V00
p2340
sg196
g46
sg197
I203930
ssI203932
(dp2341
g2
VArizona
p2342
sg4
V220
p2343
sg6
V2017
p2344
sg8
F22.0
sg9
VSEP 16, 1995
p2345
sg11
V6-9
p2346
sg13
VAaron Gordon
p2347
sg15
I1610612753
sg16
V00
p2348
sg18
g77
sg20
V00
p2349
sg22
g79
sg24
I203932
ssI203935
(dp2350
g435
VOklahoma State
p2351
sg437
V220
p2352
sg439
V2017
p2353
sg441
F23.0
sg442
VMAR 06, 1994
p2354
sg444
V6-4
p2355
sg446
VMarcus Smart
p2356
sg448
I1610612738
sg449
V36
p2357
sg451
g77
sg452
V00
p2358
sg454
g46
sg455
I203935
ssI203937
(dp2359
g146
VUCLA
p2360
sg148
V230
p2361
sg150
V2017
p2362
sg152
F24.0
sg153
VSEP 20, 1993
p2363
sg155
V6-9
p2364
sg157
VKyle Anderson
p2365
sg159
I1610612759
sg160
g64
sg162
g77
sg164
V00
p2366
sg166
g79
sg167
I203937
ssI203939
(dp2367
g603
VStanford
p2368
sg605
V240
p2369
sg607
V2017
p2370
sg609
F26.0
sg610
VJUL 20, 1991
p2371
sg612
V6-11
p2372
sg614
VDwight Powell
p2373
sg616
I1610612742
sg617
g175
sg618
g77
sg620
V00
p2374
sg622
VF-C
p2375
sg623
I203939
ssI203940
(dp2376
g2
VMichigan State
p2377
sg4
V237
p2378
sg6
V2017
p2379
sg8
F26.0
sg9
VFEB 19, 1991
p2380
sg11
V6-10
p2381
sg13
VAdreian Payne
p2382
sg15
I1610612753
sg16
V33
p2383
sg18
g77
sg20
V00
p2384
sg22
g79
sg24
I203940
ssI203944
(dp2385
g532
VKentucky
p2386
sg534
V250
p2387
sg536
V2017
p2388
sg538
F22.0
sg539
VNOV 29, 1994
p2389
sg541
V6-9
p2390
sg543
VJulius Randle
p2391
sg545
I1610612747
sg546
V30
p2392
sg547
g77
sg548
V00
p2393
sg550
VF-C
p2394
sg551
I203944
ssI203952
(dp2395
g49
VKansas
p2396
sg51
V202
p2397
sg53
V2017
p2398
sg55
F22.0
sg56
VFEB 23, 1995
p2399
sg58
V6-8
p2400
sg60
VAndrew Wiggins
p2401
sg62
I1610612750
sg63
V22
p2402
sg65
g77
sg66
V00
p2403
sg68
g79
sg69
I203952
ssI203953
(dp2404
g263
VDuke
p2405
sg265
V250
p2406
sg267
V2017
p2407
sg269
F22.0
sg270
VMAR 15, 1995
p2408
sg272
V6-8
p2409
sg274
VJabari Parker
p2410
sg276
I1610612749
sg277
V12
p2411
sg279
g77
sg280
V00
p2412
sg282
g79
sg283
I203953
ssI203957
(dp2413
g285
Nsg287
V190
p2414
sg289
V2017
p2415
sg291
F22.0
sg292
VJUL 13, 1995
p2416
sg294
V6-6
p2417
sg296
VDante Exum
p2418
sg298
I1610612762
sg299
V11
p2419
sg301
g42
sg303
V00
p2420
sg305
g46
sg306
I203957
ssI203960
(dp2421
g241
VSt. John's (NY)
p2422
sg243
V207
p2423
sg245
V2017
p2424
sg247
F24.0
sg248
VMAR 20, 1993
p2425
sg250
V6-9
p2426
sg252
VJaKarr Sampson
p2427
sg254
I1610612758
sg255
V29
p2428
sg257
g42
sg258
V00
p2429
sg260
g79
sg261
I203960
ssI203962
(dp2430
g403
VStanford
p2431
sg405
V230
p2432
sg407
V2017
p2433
sg409
F25.0
sg410
VDEC 19, 1991
p2434
sg412
V6-7
p2435
sg414
VJosh Huestis
p2436
sg416
I1610612760
sg417
V34
p2437
sg419
g42
sg421
V00
p2438
sg423
g79
sg424
I203962
ssI203966
(dp2439
g81
VMarquette
p2440
sg83
V229
p2441
sg85
V2017
p2442
sg87
F26.0
sg88
VNOV 21, 1990
p2443
sg90
V6-7
p2444
sg92
VJamil Wilson
p2445
sg94
I1610612746
sg95
V13
p2446
sg96
g420
sg97
V00
p2447
sg99
g79
sg101
I203966
ssI201933
(dp2448
g81
VOklahoma
p2449
sg83
V251
p2450
sg85
V2017
p2451
sg87
F28.0
sg88
VMAR 16, 1989
p2452
sg90
V6-10
p2453
sg92
VBlake Griffin
p2454
sg94
I1610612746
sg95
V32
p2455
sg96
g175
sg97
V00
p2456
sg99
g79
sg101
I201933
ssI201935
(dp2457
g484
VArizona State
p2458
sg486
V220
p2459
sg488
V2017
p2460
sg490
F28.0
sg491
VAUG 26, 1989
p2461
sg493
V6-5
p2462
sg495
VJames Harden
p2463
sg497
I1610612745
sg498
V13
p2464
sg499
g568
sg501
V00
p2465
sg503
g46
sg504
I201935
ssI201936
(dp2466
g103
VMemphis
p2467
sg105
V220
p2468
sg107
V2017
p2469
sg109
F28.0
sg110
VSEP 19, 1989
p2470
sg112
V6-6
p2471
sg114
VTyreke Evans
p2472
sg116
I1610612763
sg117
V12
p2473
sg118
g568
sg119
V00
p2474
sg121
VG-F
p2475
sg122
I201936
ssI201937
(dp2476
g285
VEl Masnou, Spain
p2477
sg287
V190
p2478
sg289
V2017
p2479
sg291
F27.0
sg292
VOCT 21, 1990
p2480
sg294
V6-4
p2481
sg296
VRicky Rubio
p2482
sg298
I1610612762
sg299
g77
sg301
g500
sg303
V00
p2483
sg305
g46
sg306
I201937
ssI201939
(dp2484
g354
VDavidson
p2485
sg356
V190
p2486
sg358
V2017
p2487
sg360
F29.0
sg361
VMAR 14, 1988
p2488
sg363
V6-3
p2489
sg365
VStephen Curry
p2490
sg367
I1610612744
sg368
V30
p2491
sg369
g568
sg370
V00
p2492
sg372
g46
sg373
I201939
ssI201942
(dp2493
g124
VSouthern California
p2494
sg126
V220
p2495
sg128
V2017
p2496
sg130
F28.0
sg131
VAUG 07, 1989
p2497
sg133
V6-7
p2498
sg135
VDeMar DeRozan
p2499
sg137
I1610612761
sg138
V10
p2500
sg140
g568
sg141
V00
p2501
sg143
g46
sg144
I201942
ssI203991
(dp2502
g484
Nsg486
V240
p2503
sg488
V2017
p2504
sg490
F23.0
sg491
VMAY 18, 1994
p2505
sg493
V6-10
p2506
sg495
VClint Capela
p2507
sg497
I1610612745
sg498
V15
p2508
sg499
g77
sg501
V00
p2509
sg503
g207
sg504
I203991
ssI203992
(dp2510
g241
Nsg243
V205
p2511
sg245
V2017
p2512
sg247
F25.0
sg248
VAUG 18, 1992
p2513
sg250
V6-6
p2514
sg252
VBogdan Bogdanovic
p2515
sg254
I1610612758
sg255
g568
sg257
g420
sg258
V00
p2516
sg260
g46
sg261
I203992
ssI201949
(dp2517
g209
VWake Forest
p2518
sg211
V240
p2519
sg213
V2017
p2520
sg215
F30.0
sg216
VFEB 20, 1987
p2521
sg218
V6-8
p2522
sg220
VJames Johnson
p2523
sg222
I1610612748
sg223
V16
p2524
sg225
g568
sg226
V00
p2525
sg228
g79
sg229
I201949
ssI201950
(dp2526
g920
VUCLA
p2527
sg922
V205
p2528
sg924
V2017
p2529
sg926
F27.0
sg927
VJUN 12, 1990
p2530
sg929
V6-4
p2531
sg931
VJrue Holiday
p2532
sg933
I1610612740
sg934
V11
p2533
sg936
g568
sg937
V00
p2534
sg939
g46
sg940
I201950
ssI203999
(dp2535
g26
Nsg27
V250
p2536
sg29
V2017
p2537
sg31
F22.0
sg32
VFEB 19, 1995
p2538
sg34
V6-10
p2539
sg36
VNikola Jokic
p2540
sg38
I1610612743
sg39
V15
p2541
sg41
g42
sg43
V00
p2542
sg45
g207
sg47
I203999
ssI201952
(dp2543
g49
VWake Forest
p2544
sg51
V189
p2545
sg53
V2017
p2546
sg55
F29.0
sg56
VJUN 10, 1988
p2547
sg58
V6-2
p2548
sg60
VJeff Teague
p2549
sg62
I1610612750
sg63
g40
sg65
g568
sg66
V00
p2550
sg68
g46
sg69
I201952
ssI1627362
(dp2551
g484
VVirginia Commonwealth
p2552
sg486
V165
p2553
sg488
V2017
p2554
sg490
F24.0
sg491
VDEC 29, 1992
p2555
sg493
V6-2
p2556
sg495
VBriante Weber
p2557
sg497
I1610612745
sg498
g40
sg499
g42
sg501
V00
p2558
sg503
g46
sg504
I1627362
ssI201956
(dp2559
g354
VYavne, Israel
p2560
sg356
V225
p2561
sg358
V2017
p2562
sg360
F29.0
sg361
VJUN 22, 1988
p2563
sg363
V6-9
p2564
sg365
VOmri Casspi
p2565
sg367
I1610612744
sg368
V18
p2566
sg369
g568
sg370
V00
p2567
sg372
g79
sg373
I201956
ssI201959
(dp2568
g49
VSouthern California
p2569
sg51
V235
p2570
sg53
V2017
p2571
sg55
F32.0
sg56
VJUN 24, 1985
p2572
sg58
V6-9
p2573
sg60
VTaj Gibson
p2574
sg62
I1610612750
sg63
V67
p2575
sg65
g568
sg66
V00
p2576
sg68
g79
sg69
I201959
ssI201960
(dp2577
g178
VMissouri
p2578
sg180
V215
p2579
sg182
V2017
p2580
sg184
F31.0
sg185
VJUL 27, 1986
p2581
sg187
V6-8
p2582
sg189
VDeMarre Carroll
p2583
sg191
I1610612751
sg192
g696
sg193
g568
sg194
V00
p2584
sg196
g79
sg197
I201960
ssI201961
(dp2585
g209
VNorth Carolina
p2586
sg211
V200
p2587
sg213
V2017
p2588
sg215
F29.0
sg216
VNOV 29, 1987
p2589
sg218
V6-5
p2590
sg220
VWayne Ellington
p2591
sg222
I1610612748
sg223
g42
sg225
g568
sg226
V00
p2592
sg228
g46
sg229
I201961
ssI201967
(dp2593
g920
VVillanova
p2594
sg922
V230
p2595
sg924
V2017
p2596
sg926
F30.0
sg927
VAPR 22, 1987
p2597
sg929
V6-8
p2598
sg931
VDante Cunningham
p2599
sg933
I1610612740
sg934
V33
p2600
sg936
g568
sg937
V00
p2601
sg939
g79
sg940
I201967
ssI204020
(dp2602
g209
VFresno State
p2603
sg211
V190
p2604
sg213
V2017
p2605
sg215
F25.0
sg216
VMAY 07, 1992
p2606
sg218
V6-4
p2607
sg220
VTyler Johnson
p2608
sg222
I1610612748
sg223
g568
sg225
g77
sg226
V00
p2609
sg228
g46
sg229
I204020
ssI201973
(dp2610
g285
VKinna, Sweden
p2611
sg287
V231
p2612
sg289
V2017
p2613
sg291
F30.0
sg292
VMAR 02, 1987
p2614
sg294
V6-10
p2615
sg296
VJonas Jerebko
p2616
sg298
I1610612762
sg299
g568
sg301
g175
sg303
V00
p2617
sg305
g79
sg306
I201973
ssI204022
(dp2618
g241
VNotre Dame
p2619
sg243
V274
p2620
sg245
V2017
p2621
sg247
F26.0
sg248
VAPR 12, 1991
p2622
sg250
V6-10
p2623
sg252
VJack Cooley
p2624
sg254
I1610612758
sg255
V45
p2625
sg257
g64
sg258
V00
p2626
sg260
g207
sg261
I204022
ssI201976
(dp2627
g81
VArkansas
p2628
sg83
V185
p2629
sg85
V2017
p2630
sg87
F29.0
sg88
VJUL 12, 1988
p2631
sg90
V6-1
p2632
sg92
VPatrick Beverley
p2633
sg94
I1610612746
sg95
V21
p2634
sg96
g19
sg97
V00
p2635
sg99
g46
sg101
I201976
ssI201980
(dp2636
g146
VNorth Carolina
p2637
sg148
V215
p2638
sg150
V2017
p2639
sg152
F30.0
sg153
VJUN 22, 1987
p2640
sg155
V6-6
p2641
sg157
VDanny Green
p2642
sg159
I1610612759
sg160
V14
p2643
sg162
g568
sg164
V00
p2644
sg166
VG-F
p2645
sg167
I201980
ssI201988
(dp2646
g146
VSaint Mary's (CA)
p2647
sg148
V185
p2648
sg150
V2017
p2649
sg152
F29.0
sg153
VAUG 11, 1988
p2650
sg155
V6-0
p2651
sg157
VPatty Mills
p2652
sg159
I1610612759
sg160
g568
sg162
g568
sg164
V00
p2653
sg166
g46
sg167
I201988
ssI204060
(dp2654
g285
Nsg287
V226
p2655
sg289
V2017
p2656
sg291
F30.0
sg292
VOCT 02, 1987
p2657
sg294
V6-8
p2658
sg296
VJoe Ingles
p2659
sg298
I1610612762
sg299
g42
sg301
g77
sg303
V00
p2660
sg305
g79
sg306
I204060
ssI204066
(dp2661
g581
VBoston U.
p2662
sg583
V205
p2663
sg585
V2017
p2664
sg587
F29.0
sg588
VNOV 06, 1988
p2665
sg590
V6-5
p2666
sg592
VJohn Holland
p2667
sg594
I1610612739
sg595
V10
p2668
sg597
g64
sg598
V00
p2669
sg600
VG-F
p2670
sg601
I204066
ssI203998
(dp2671
g124
Nsg126
V205
p2672
sg128
V2017
p2673
sg130
F22.0
sg131
VSEP 21, 1995
p2674
sg133
V6-9
p2675
sg135
VBruno Caboclo
p2676
sg137
I1610612761
sg138
g19
sg140
g77
sg141
V00
p2677
sg143
g79
sg144
I203998
ssI202066
(dp2678
g241
VLouisiana State
p2679
sg243
V195
p2680
sg245
V2017
p2681
sg247
F31.0
sg248
VMAY 08, 1986
p2682
sg250
V6-6
p2683
sg252
VGarrett Temple
p2684
sg254
I1610612758
sg255
V17
p2685
sg257
g175
sg258
V00
p2686
sg260
g46
sg261
I202066
ssI202083
(dp2687
g603
VMarquette
p2688
sg605
V220
p2689
sg607
V2017
p2690
sg609
F31.0
sg610
VOCT 14, 1986
p2691
sg612
V6-5
p2692
sg614
VWesley Matthews
p2693
sg616
I1610612742
sg617
V23
p2694
sg618
g568
sg620
V00
p2695
sg622
VG-F
p2696
sg623
I202083
ssI204028
(dp2697
g484
VKansas
p2698
sg486
V250
p2699
sg488
V2017
p2700
sg490
F25.0
sg491
VNOV 22, 1991
p2701
sg493
V6-9
p2702
sg495
VTarik Black
p2703
sg497
I1610612745
sg498
V28
p2704
sg499
g77
sg501
V00
p2705
sg503
VF-C
p2706
sg504
I204028
ssI202330
(dp2707
g435
VButler
p2708
sg437
V226
p2709
sg439
V2017
p2710
sg441
F27.0
sg442
VMAR 23, 1990
p2711
sg444
V6-8
p2712
sg446
VGordon Hayward
p2713
sg448
I1610612738
sg449
V20
p2714
sg451
g175
sg452
V00
p2715
sg454
g79
sg455
I202330
ssI202331
(dp2716
g403
VFresno State
p2717
sg405
V220
p2718
sg407
V2017
p2719
sg409
F27.0
sg410
VMAY 02, 1990
p2720
sg412
V6-9
p2721
sg414
VPaul George
p2722
sg416
I1610612760
sg417
V13
p2723
sg419
g175
sg421
V00
p2724
sg423
g79
sg424
I202331
ssI1627743
(dp2725
g484
VNotre Dame
p2726
sg486
V201
p2727
sg488
V2017
p2728
sg490
F23.0
sg491
VSEP 07, 1994
p2729
sg493
V6-1
p2730
sg495
VDemetrius Jackson
p2731
sg497
I1610612745
sg498
g42
sg499
g64
sg501
V00
p2732
sg503
g46
sg504
I1627743
ssI1627745
(dp2733
g354
VVanderbilt
p2734
sg356
V245
p2735
sg358
V2017
p2736
sg360
F22.0
sg361
VJUN 30, 1995
p2737
sg363
V7-0
p2738
sg365
VDamian Jones
p2739
sg367
I1610612744
sg368
V15
p2740
sg369
g64
sg370
V00
p2741
sg372
g207
sg373
I1627745
ssI1627747
(dp2742
g178
VMichigan
p2743
sg180
V203
p2744
sg182
V2017
p2745
sg184
F23.0
sg185
VAUG 25, 1994
p2746
sg187
V6-7
p2747
sg189
VCaris LeVert
p2748
sg191
I1610612751
sg192
V22
p2749
sg193
g64
sg194
V00
p2750
sg196
VG-F
p2751
sg197
I1627747
ssI202324
(dp2752
g285
VGeorgia Tech
p2753
sg287
V265
p2754
sg289
V2017
p2755
sg291
F26.0
sg292
VJUL 15, 1991
p2756
sg294
V6-10
p2757
sg296
VDerrick Favors
p2758
sg298
I1610612762
sg299
V15
p2759
sg301
g175
sg303
V00
p2760
sg305
VF-C
p2761
sg306
I202324
ssI202325
(dp2762
g81
VSyracuse
p2763
sg83
V215
p2764
sg85
V2017
p2765
sg87
F30.0
sg88
VJUL 11, 1987
p2766
sg90
V6-7
p2767
sg92
VWesley Johnson
p2768
sg94
I1610612746
sg95
V33
p2769
sg96
g175
sg97
V00
p2770
sg99
g79
sg101
I202325
ssI202326
(dp2771
g920
VKentucky
p2772
sg922
V270
p2773
sg924
V2017
p2774
sg926
F27.0
sg927
VAUG 13, 1990
p2775
sg929
V6-11
p2776
sg931
VDeMarcus Cousins
p2777
sg933
I1610612740
sg934
g40
sg936
g175
sg937
V00
p2778
sg939
g207
sg940
I202326
ssI202327
(dp2779
g285
VBaylor
p2780
sg287
V245
p2781
sg289
V2017
p2782
sg291
F30.0
sg292
VMAY 20, 1987
p2783
sg294
V6-10
p2784
sg296
VEkpe Udoh
p2785
sg298
I1610612762
sg299
V33
p2786
sg301
g19
sg303
V00
p2787
sg305
VC-F
p2788
sg306
I202327
ssI1627736
(dp2789
g26
VFlorida State
p2790
sg27
V196
p2791
sg29
V2017
p2792
sg31
F20.0
sg32
VNOV 26, 1996
p2793
sg34
V6-5
p2794
sg36
VMalik Beasley
p2795
sg38
I1610612743
sg39
V25
p2796
sg41
g64
sg43
V00
p2797
sg45
g46
sg47
I1627736
ssI1627738
(dp2798
g103
VMichigan State
p2799
sg105
V237
p2800
sg107
V2017
p2801
sg109
F20.0
sg110
VDEC 02, 1996
p2802
sg112
V6-11
p2803
sg114
VDeyonta Davis
p2804
sg116
I1610612763
sg117
V21
p2805
sg118
g64
sg119
V00
p2806
sg121
VC-F
p2807
sg122
I1627738
ssI1627739
(dp2808
g308
VProvidence
p2809
sg310
V210
p2810
sg312
V2017
p2811
sg314
F23.0
sg315
VMAR 18, 1994
p2812
sg317
V6-4
p2813
sg319
VKris Dunn
p2814
sg321
I1610612741
sg322
V32
p2815
sg324
g64
sg325
V00
p2816
sg327
g46
sg328
I1627739
ssI202332
(dp2817
g49
VKansas
p2818
sg51
V253
p2819
sg53
V2017
p2820
sg55
F29.0
sg56
VOCT 31, 1988
p2821
sg58
V6-11
p2822
sg60
VCole Aldrich
p2823
sg62
I1610612750
sg63
V45
p2824
sg65
g175
sg66
V00
p2825
sg68
g207
sg69
I202332
ssI1627741
(dp2826
g241
VOklahoma
p2827
sg243
V214
p2828
sg245
V2017
p2829
sg247
F23.0
sg248
VDEC 17, 1993
p2830
sg250
V6-4
p2831
sg252
VBuddy Hield
p2832
sg254
I1610612758
sg255
V24
p2833
sg257
g64
sg258
V00
p2834
sg260
g46
sg261
I1627741
ssI1627742
(dp2835
g532
VDuke
p2836
sg534
V190
p2837
sg536
V2017
p2838
sg538
F20.0
sg539
VSEP 02, 1997
p2839
sg541
V6-9
p2840
sg543
VBrandon Ingram
p2841
sg545
I1610612747
sg546
V14
p2842
sg547
g64
sg548
V00
p2843
sg550
VF-G
p2844
sg551
I1627742
ssI202335
(dp2845
g403
VKentucky
p2846
sg405
V230
p2847
sg407
V2017
p2848
sg409
F28.0
sg410
VMAR 14, 1989
p2849
sg412
V6-9
p2850
sg414
VPatrick Patterson
p2851
sg416
I1610612760
sg417
V54
p2852
sg419
g175
sg421
V00
p2853
sg423
g79
sg424
I202335
ssI1627744
(dp2854
g81
VNorth Carolina
p2855
sg83
V230
p2856
sg85
V2017
p2857
sg87
F23.0
sg88
VJUN 27, 1994
p2858
sg90
V6-10
p2859
sg92
VBrice Johnson
p2860
sg94
I1610612746
sg95
V11
p2861
sg96
g64
sg97
V00
p2862
sg99
g79
sg101
I1627744
ssI202337
(dp2863
g758
VNevada
p2864
sg760
V225
p2865
sg762
V2017
p2866
sg764
F28.0
sg765
VJUN 20, 1989
p2867
sg767
V6-9
p2868
sg769
VLuke Babbitt
p2869
sg771
I1610612737
sg772
g568
sg774
g175
sg775
V00
p2870
sg777
g79
sg779
I202337
ssI1627746
(dp2871
g241
VKentucky
p2872
sg243
V225
p2873
sg245
V2017
p2874
sg247
F21.0
sg248
VMAR 18, 1996
p2875
sg250
V6-11
p2876
sg252
VSkal Labissiere
p2877
sg254
I1610612758
sg255
g175
sg257
g64
sg258
V00
p2878
sg260
VF-C
p2879
sg261
I1627746
ssI202339
(dp2880
g263
VKentucky
p2881
sg265
V205
p2882
sg267
V2017
p2883
sg269
F27.0
sg270
VDEC 09, 1989
p2884
sg272
V6-1
p2885
sg274
VEric Bledsoe
p2886
sg276
I1610612749
sg277
g500
sg279
g175
sg280
V00
p2887
sg282
g46
sg283
I202339
ssI1627748
(dp2888
g263
Nsg265
V223
p2889
sg267
V2017
p2890
sg269
F20.0
sg270
VFEB 25, 1997
p2891
sg272
V7-1
p2892
sg274
VThon Maker
p2893
sg276
I1610612749
sg277
g175
sg279
g64
sg280
V00
p2894
sg282
VC-F
p2895
sg283
I1627748
ssI1627749
(dp2896
g146
VWashington
p2897
sg148
V170
p2898
sg150
V2017
p2899
sg152
F21.0
sg153
VSEP 19, 1996
p2900
sg155
V6-5
p2901
sg157
VDejounte Murray
p2902
sg159
I1610612759
sg160
g19
sg162
g64
sg164
V00
p2903
sg166
g46
sg167
I1627749
ssI1627750
(dp2904
g26
VKentucky
p2905
sg27
V207
p2906
sg29
V2017
p2907
sg31
F20.0
sg32
VFEB 23, 1997
p2908
sg34
V6-4
p2909
sg36
VJamal Murray
p2910
sg38
I1610612743
sg39
V27
p2911
sg41
g64
sg43
V00
p2912
sg45
g46
sg47
I1627750
ssI1627751
(dp2913
g124
VUtah
p2914
sg126
V230
p2915
sg128
V2017
p2916
sg130
F22.0
sg131
VOCT 15, 1995
p2917
sg133
V7-0
p2918
sg135
VJakob Poeltl
p2919
sg137
I1610612761
sg138
V42
p2920
sg140
g64
sg141
V00
p2921
sg143
g207
sg144
I1627751
ssI1627752
(dp2922
g758
VBaylor
p2923
sg760
V220
p2924
sg762
V2017
p2925
sg764
F23.0
sg765
VMAR 22, 1994
p2926
sg767
V6-8
p2927
sg769
VTaurean Prince
p2928
sg771
I1610612737
sg772
V12
p2929
sg774
g64
sg775
V00
p2930
sg777
g79
sg779
I1627752
ssI1627753
(dp2931
g484
Nsg486
V210
p2932
sg488
V2017
p2933
sg490
F21.0
sg491
VJAN 16, 1996
p2934
sg493
V7-1
p2935
sg495
VQi Qi
p2936
sg497
I1610612745
sg498
g696
sg499
g420
sg501
V00
p2937
sg503
VF-C
p2938
sg504
I1627753
ssI202347
(dp2939
g308
VWashington
p2940
sg310
V225
p2941
sg312
V2017
p2942
sg314
F29.0
sg315
VMAR 10, 1988
p2943
sg317
V6-7
p2944
sg319
VQuincy Pondexter
p2945
sg321
I1610612741
sg322
V20
p2946
sg324
g19
sg325
V00
p2947
sg327
g46
sg328
I202347
ssI1627756
(dp2948
g308
VMichigan State
p2949
sg310
V214
p2950
sg312
V2017
p2951
sg314
F23.0
sg315
VNOV 16, 1993
p2952
sg317
V6-6
p2953
sg319
VDenzel Valentine
p2954
sg321
I1610612741
sg322
V45
p2955
sg324
g64
sg325
V00
p2956
sg327
g79
sg328
I1627756
ssI1627759
(dp2957
g435
VCalifornia
p2958
sg437
V225
p2959
sg439
V2017
p2960
sg441
F21.0
sg442
VOCT 24, 1996
p2961
sg444
V6-7
p2962
sg446
VJaylen Brown
p2963
sg448
I1610612738
sg449
g175
sg451
g64
sg452
V00
p2964
sg454
VG-F
p2965
sg455
I1627759
ssI202344
(dp2966
g178
VClemson
p2967
sg180
V228
p2968
sg182
V2017
p2969
sg184
F29.0
sg185
VNOV 25, 1987
p2970
sg187
V6-8
p2971
sg189
VTrevor Booker
p2972
sg191
I1610612751
sg192
V35
p2973
sg193
g175
sg194
V00
p2974
sg196
g79
sg197
I202344
ssI1627762
(dp2975
g263
VWeber State
p2976
sg265
V235
p2977
sg267
V2017
p2978
sg269
F23.0
sg270
VJAN 28, 1994
p2979
sg272
V6-9
p2980
sg274
VJoel Bolomboy
p2981
sg276
I1610612749
sg277
V24
p2982
sg279
g64
sg280
V00
p2983
sg282
VF-C
p2984
sg283
I1627762
ssI202355
(dp2985
g209
VMarshall
p2986
sg211
V265
p2987
sg213
V2017
p2988
sg215
F28.0
sg216
VJUN 13, 1989
p2989
sg218
V7-0
p2990
sg220
VHassan Whiteside
p2991
sg222
I1610612748
sg223
V21
p2992
sg225
g19
sg226
V00
p2993
sg228
g207
sg229
I202355
ssI202357
(dp2994
g49
Nsg51
V230
p2995
sg53
V2017
p2996
sg55
F29.0
sg56
VMAY 09, 1988
p2997
sg58
V6-10
p2998
sg60
VNemanja Bjelica
p2999
sg62
I1610612750
sg63
g568
sg65
g42
sg66
V00
p3000
sg68
g79
sg69
I202357
ssI1627767
(dp3001
g920
VKansas
p3002
sg922
V220
p3003
sg924
V2017
p3004
sg926
F21.0
sg927
VSEP 13, 1996
p3005
sg929
V6-9
p3006
sg931
VCheick Diallo
p3007
sg933
I1610612740
sg934
V13
p3008
sg936
g64
sg937
V00
p3009
sg939
g79
sg940
I1627767
ssI1627770
(dp3010
g308
VOakland
p3011
sg310
V176
p3012
sg312
V2017
p3013
sg314
F22.0
sg315
VMAR 29, 1995
p3014
sg317
V5-9
p3015
sg319
VKay Felder
p3016
sg321
I1610612741
sg322
g77
sg324
g64
sg325
V00
p3017
sg327
g46
sg328
I1627770
ssI1627772
(dp3018
g403
VConnecticut
p3019
sg405
V195
p3020
sg407
V2017
p3021
sg409
F22.0
sg410
VAUG 08, 1995
p3022
sg412
V6-7
p3023
sg414
VDaniel Hamilton
p3024
sg416
I1610612760
sg417
V25
p3025
sg419
g420
sg421
V00
p3026
sg423
g46
sg424
I1627772
ssI1627773
(dp3027
g209
VPurdue
p3028
sg211
V260
p3029
sg213
V2017
p3030
sg215
F25.0
sg216
VAUG 27, 1992
p3031
sg218
V7-0
p3032
sg220
VAJ Hammons
p3033
sg222
I1610612748
sg223
g481
sg225
g64
sg226
V00
p3034
sg228
g207
sg229
I1627773
ssI1627775
(dp3035
g354
VNevada-Las Vegas
p3036
sg356
V185
p3037
sg358
V2017
p3038
sg360
F22.0
sg361
VOCT 25, 1995
p3039
sg363
V6-7
p3040
sg365
VPatrick McCaw
p3041
sg367
I1610612744
sg368
g40
sg369
g64
sg370
V00
p3042
sg372
g46
sg373
I1627775
ssI1627778
(dp3043
g484
VLouisville
p3044
sg486
V245
p3045
sg488
V2017
p3046
sg490
F21.0
sg491
VNOV 01, 1996
p3047
sg493
V6-10
p3048
sg495
VChinanu Onuaku
p3049
sg497
I1610612745
sg498
V21
p3050
sg499
g64
sg501
V00
p3051
sg503
g207
sg504
I1627778
ssI1627780
(dp3052
g263
VOregon State
p3053
sg265
V190
p3054
sg267
V2017
p3055
sg269
F24.0
sg270
VDEC 01, 1992
p3056
sg272
V6-3
p3057
sg274
VGary Payton II
p3058
sg276
I1610612749
sg277
g40
sg279
g64
sg280
V00
p3059
sg282
g46
sg283
I1627780
ssI1627781
(dp3060
g241
VSyracuse
p3061
sg243
V205
p3062
sg245
V2017
p3063
sg247
F21.0
sg248
VJAN 05, 1996
p3064
sg250
V6-6
p3065
sg252
VMalachi Richardson
p3066
sg254
I1610612758
sg255
V23
p3067
sg257
g64
sg258
V00
p3068
sg260
g46
sg261
I1627781
ssI1627782
(dp3069
g103
VKansas
p3070
sg105
V230
p3071
sg107
V2017
p3072
sg109
F23.0
sg110
VSEP 30, 1994
p3073
sg112
V6-5
p3074
sg114
VWayne Selden
p3075
sg116
I1610612763
sg117
g175
sg118
g64
sg119
V00
p3076
sg121
VG-F
p3077
sg122
I1627782
ssI1627783
(dp3078
g124
VNew Mexico State
p3079
sg126
V230
p3080
sg128
V2017
p3081
sg130
F23.0
sg131
VAPR 02, 1994
p3082
sg133
V6-9
p3083
sg135
VPascal Siakam
p3084
sg137
I1610612761
sg138
V43
p3085
sg140
g64
sg141
V00
p3086
sg143
g79
sg144
I1627783
ssI1627785
(dp3087
g178
VSeton Hall
p3088
sg180
V213
p3089
sg182
V2017
p3090
sg184
F22.0
sg185
VMAR 08, 1995
p3091
sg187
V6-4
p3092
sg189
VIsaiah Whitehead
p3093
sg191
I1610612751
sg192
V15
p3094
sg193
g64
sg194
V00
p3095
sg196
g46
sg197
I1627785
ssI1627786
(dp3096
g484
VIndiana
p3097
sg486
V218
p3098
sg488
V2017
p3099
sg490
F22.0
sg491
VDEC 30, 1994
p3100
sg493
V6-7
p3101
sg495
VTroy Williams
p3102
sg497
I1610612745
sg498
g19
sg499
g64
sg501
V00
p3103
sg503
g79
sg504
I1627786
ssI1627790
(dp3104
g581
Nsg583
V250
p3105
sg585
V2017
p3106
sg587
F20.0
sg588
VJAN 04, 1997
p3107
sg590
V6-11
p3108
sg592
VAnte Zizic
p3109
sg594
I1610612739
sg595
V41
p3110
sg597
g420
sg598
V00
p3111
sg600
VF-C
p3112
sg601
I1627790
ssI202389
(dp3113
g178
VSt. Petersburg, Russia
p3114
sg180
V275
p3115
sg182
V2017
p3116
sg184
F31.0
sg185
VJUL 16, 1986
p3117
sg187
V7-1
p3118
sg189
VTimofey Mozgov
p3119
sg191
I1610612751
sg192
V20
p3120
sg193
g175
sg194
V00
p3121
sg196
g207
sg197
I202389
ssI202391
(dp3122
g178
VHarvard
p3123
sg180
V200
p3124
sg182
V2017
p3125
sg184
F29.0
sg185
VAUG 23, 1988
p3126
sg187
V6-3
p3127
sg189
VJeremy Lin
p3128
sg191
I1610612751
sg192
g175
sg193
g175
sg194
V00
p3129
sg196
g46
sg197
I202391
ssI1627812
(dp3130
g603
VIndiana
p3131
sg605
V180
p3132
sg607
V2017
p3133
sg609
F24.0
sg610
VMAY 09, 1993
p3134
sg612
V6-0
p3135
sg614
VYogi Ferrell
p3136
sg616
I1610612742
sg617
V11
p3137
sg618
g64
sg620
V00
p3138
sg622
g46
sg623
I1627812
ssI1627761
(dp3139
g758
VSaint Joseph's
p3140
sg760
V210
p3141
sg762
V2017
p3142
sg764
F23.0
sg765
VJUL 04, 1994
p3143
sg767
V6-6
p3144
sg769
VDeAndre' Bembry
p3145
sg771
I1610612737
sg772
V95
p3146
sg774
g64
sg775
V00
p3147
sg777
VF-G
p3148
sg779
I1627761
ssI1627819
(dp3149
g758
VTexas
p3150
sg760
V170
p3151
sg762
V2017
p3152
sg764
F23.0
sg765
VJUL 11, 1994
p3153
sg767
V6-3
p3154
sg769
VIsaiah Taylor
p3155
sg771
I1610612737
sg772
V22
p3156
sg774
g64
sg775
V00
p3157
sg777
g46
sg779
I1627819
ssI1627823
(dp3158
g26
Nsg27
V230
p3159
sg29
V2017
p3160
sg31
F22.0
sg32
VSEP 28, 1995
p3161
sg34
V6-9
p3162
sg36
VJuan Hernangomez
p3163
sg38
I1610612743
sg39
V41
p3164
sg41
g64
sg43
V00
p3165
sg45
g79
sg47
I1627823
ssI1627824
(dp3166
g435
Nsg437
V260
p3167
sg439
V2017
p3168
sg441
F21.0
sg442
VDEC 17, 1995
p3169
sg444
V6-8
p3170
sg446
VGuerschon Yabusele
p3171
sg448
I1610612738
sg449
V30
p3172
sg451
g420
sg452
V00
p3173
sg454
g79
sg455
I1627824
ssI1713
(dp3174
g241
VNorth Carolina
p3175
sg243
V220
p3176
sg245
V2017
p3177
sg247
F40.0
sg248
VJAN 26, 1977
p3178
sg250
V6-6
p3179
sg252
VVince Carter
p3180
sg254
I1610612758
sg255
V15
p3181
sg257
V19
p3182
sg258
V00
p3183
sg260
VG-F
p3184
sg261
I1713
ssI1627826
(dp3185
g532
Nsg534
V240
p3186
sg536
V2017
p3187
sg538
F20.0
sg539
VMAR 18, 1997
p3188
sg541
V7-1
p3189
sg543
VIvica Zubac
p3190
sg545
I1610612747
sg546
V40
p3191
sg547
g64
sg548
V00
p3192
sg550
g207
sg551
I1627826
ssI1627827
(dp3193
g603
VFlorida
p3194
sg605
V220
p3195
sg607
V2017
p3196
sg609
F24.0
sg610
VMAY 04, 1993
p3197
sg612
V6-8
p3198
sg614
VDorian Finney-Smith
p3199
sg616
I1610612742
sg617
V10
p3200
sg618
g64
sg620
V00
p3201
sg622
g79
sg623
I1627827
ssI1717
(dp3202
g603
VWurzburg, Germany
p3203
sg605
V245
p3204
sg607
V2017
p3205
sg609
F39.0
sg610
VJUN 19, 1978
p3206
sg612
V7-0
p3207
sg614
VDirk Nowitzki
p3208
sg616
I1610612742
sg617
V41
p3209
sg618
V19
p3210
sg620
V00
p3211
sg622
VF-C
p3212
sg623
I1717
ssI1627832
(dp3213
g124
VWichita State
p3214
sg126
V195
p3215
sg128
V2017
p3216
sg130
F23.0
sg131
VFEB 25, 1994
p3217
sg133
V6-0
p3218
sg135
VFred VanVleet
p3219
sg137
I1610612761
sg138
V23
p3220
sg140
g64
sg141
V00
p3221
sg143
g46
sg144
I1627832
ssI1627834
(dp3222
g241
Nsg243
V240
p3223
sg245
V2017
p3224
sg247
F20.0
sg248
VJUL 03, 1997
p3225
sg250
V7-1
p3226
sg252
VGeorgios Papagiannis
p3227
sg254
I1610612758
sg255
V13
p3228
sg257
g64
sg258
V00
p3229
sg260
g207
sg261
I1627834
ssI1627835
(dp3230
g308
Nsg310
V226
p3231
sg312
V2017
p3232
sg314
F23.0
sg315
VFEB 18, 1994
p3233
sg317
V6-8
p3234
sg319
VPaul Zipser
p3235
sg321
I1610612741
sg322
V16
p3236
sg324
g64
sg325
V00
p3237
sg327
g79
sg328
I1627835
ssI1627846
(dp3238
g435
VIowa State
p3239
sg437
V230
p3240
sg439
V2017
p3241
sg441
F24.0
sg442
VSEP 25, 1993
p3242
sg444
V6-6
p3243
sg446
VAbdel Nader
p3244
sg448
I1610612738
sg449
V28
p3245
sg451
g420
sg452
V00
p3246
sg454
g79
sg455
I1627846
ssI1627852
(dp3247
g758
Nsg760
V195
p3248
sg762
V2017
p3249
sg764
F24.0
sg765
VMAR 02, 1993
p3250
sg767
V6-8
p3251
sg769
VNicolas Brussino
p3252
sg771
I1610612737
sg772
V16
p3253
sg774
g64
sg775
V00
p3254
sg777
g79
sg779
I1627852
ssI1627853
(dp3255
g308
VVillanova
p3256
sg310
V195
p3257
sg312
V2017
p3258
sg314
F23.0
sg315
VMAR 26, 1994
p3259
sg317
V6-3
p3260
sg319
VRyan Arcidiacono
p3261
sg321
I1610612741
sg322
V15
p3262
sg324
g420
sg325
V00
p3263
sg327
g46
sg328
I1627853
ssI1627854
(dp3264
g146
VMichigan State
p3265
sg148
V190
p3266
sg150
V2017
p3267
sg152
F24.0
sg153
VJUL 23, 1993
p3268
sg155
V6-3
p3269
sg157
VBryn Forbes
p3270
sg159
I1610612759
sg160
V11
p3271
sg162
g64
sg164
V00
p3272
sg166
g46
sg167
I1627854
ssI1627855
(dp3273
g209
VFlorida State
p3274
sg211
V215
p3275
sg213
V2017
p3276
sg215
F25.0
sg216
VAUG 13, 1992
p3277
sg218
V6-8
p3278
sg220
VOkaro White
p3279
sg222
I1610612748
sg223
V15
p3280
sg225
g64
sg226
V00
p3281
sg228
g79
sg229
I1627855
ssI1627856
(dp3282
g146
VMichigan State
p3283
sg148
V240
p3284
sg150
V2017
p3285
sg152
F24.0
sg153
VAUG 05, 1993
p3286
sg155
V6-10
p3287
sg157
VMatt Costello
p3288
sg159
I1610612759
sg160
V10
p3289
sg162
g420
sg164
V00
p3290
sg166
VF-C
p3291
sg167
I1627856
ssI1627875
(dp3292
g49
VGeorgia Tech
p3293
sg51
V226
p3294
sg53
V2017
p3295
sg55
F23.0
sg56
VMAR 28, 1994
p3296
sg58
V6-5
p3297
sg60
VMarcus Georges-Hunt
p3298
sg62
I1610612750
sg63
V13
p3299
sg65
g64
sg66
V00
p3300
sg68
g46
sg69
I1627875
ssI1627883
(dp3301
g920
VTexas A&M
p3302
sg922
V220
p3303
sg924
V2017
p3304
sg926
F24.0
sg927
VMAY 27, 1993
p3305
sg929
V6-7
p3306
sg931
VJalen Jones
p3307
sg933
I1610612740
sg934
V12
p3308
sg936
g420
sg937
V00
p3309
sg939
g79
sg940
I1627883
ssI1627936
(dp3310
g532
VTexas A&M
p3311
sg534
V186
p3312
sg536
V2017
p3313
sg538
F23.0
sg539
VFEB 28, 1994
p3314
sg541
V6-5
p3315
sg543
VAlex Caruso
p3316
sg545
I1610612747
sg546
g481
sg547
g420
sg548
V00
p3317
sg550
g46
sg551
I1627936
ssI1891
(dp3318
g263
VArizona
p3319
sg265
V185
p3320
sg267
V2017
p3321
sg269
F40.0
sg270
VSEP 15, 1977
p3322
sg272
V6-2
p3323
sg274
VJason Terry
p3324
sg276
I1610612749
sg277
g77
sg279
V18
p3325
sg280
V00
p3326
sg282
g46
sg283
I1891
ssI1628021
(dp3327
g308
VCal Poly-S.L.O.
p3328
sg310
V209
p3329
sg312
V2017
p3330
sg314
F24.0
sg315
VJAN 14, 1993
p3331
sg317
V6-4
p3332
sg319
VDavid Nwaba
p3333
sg321
I1610612741
sg322
V11
p3334
sg324
g64
sg325
V00
p3335
sg327
g46
sg328
I1628021
ssI1628035
(dp3336
g124
VWisc.-Green Bay
p3337
sg126
V215
p3338
sg128
V2017
p3339
sg130
F25.0
sg131
VSEP 17, 1992
p3340
sg133
V6-8
p3341
sg135
VAlfonzo McKinnie
p3342
sg137
I1610612761
sg138
V34
p3343
sg140
g420
sg141
V00
p3344
sg143
g79
sg144
I1628035
ssI1938
(dp3345
g146
VBahia Blanca, Argentina
p3346
sg148
V205
p3347
sg150
V2017
p3348
sg152
F40.0
sg153
VJUL 28, 1977
p3349
sg155
V6-6
p3350
sg157
VManu Ginobili
p3351
sg159
I1610612759
sg160
V20
p3352
sg162
V15
p3353
sg164
V00
p3354
sg166
g46
sg167
I1938
ssI203084
(dp3355
g603
VNorth Carolina
p3356
sg605
V225
p3357
sg607
V2017
p3358
sg609
F25.0
sg610
VMAY 30, 1992
p3359
sg612
V6-8
p3360
sg614
VHarrison Barnes
p3361
sg616
I1610612742
sg617
V40
p3362
sg618
g19
sg620
V00
p3363
sg622
g79
sg623
I203084
ssI202681
(dp3364
g435
VDuke
p3365
sg437
V193
p3366
sg439
V2017
p3367
sg441
F25.0
sg442
VMAR 23, 1992
p3368
sg444
V6-3
p3369
sg446
VKyrie Irving
p3370
sg448
I1610612738
sg449
V11
p3371
sg451
g500
sg452
V00
p3372
sg454
g46
sg455
I202681
ssI202684
(dp3373
g581
VTexas
p3374
sg583
V238
p3375
sg585
V2017
p3376
sg587
F26.0
sg588
VMAR 13, 1991
p3377
sg590
V6-9
p3378
sg592
VTristan Thompson
p3379
sg594
I1610612739
sg595
V13
p3380
sg597
g500
sg598
V00
p3381
sg600
VC-F
p3382
sg601
I202684
ssI202685
(dp3383
g124
VUtena, Lithuania
p3384
sg126
V255
p3385
sg128
V2017
p3386
sg130
F25.0
sg131
VMAY 06, 1992
p3387
sg133
V7-0
p3388
sg135
VJonas Valanciunas
p3389
sg137
I1610612761
sg138
V17
p3390
sg140
g19
sg141
V00
p3391
sg143
g207
sg144
I202685
ssI202687
(dp3392
g2
VLubumbashi, DR Congo
p3393
sg4
V255
p3394
sg6
V2017
p3395
sg8
F25.0
sg9
VAUG 28, 1992
p3396
sg11
V6-9
p3397
sg13
VBismack Biyombo
p3398
sg15
I1610612753
sg16
V11
p3399
sg18
g500
sg20
V00
p3400
sg22
g207
sg24
I202687
ssI202691
(dp3401
g354
VWashington State
p3402
sg356
V215
p3403
sg358
V2017
p3404
sg360
F27.0
sg361
VFEB 08, 1990
p3405
sg363
V6-7
p3406
sg365
VKlay Thompson
p3407
sg367
I1610612744
sg368
V11
p3408
sg369
g500
sg370
V00
p3409
sg372
g46
sg373
I202691
ssI202692
(dp3410
g285
VColorado
p3411
sg287
V214
p3412
sg289
V2017
p3413
sg291
F26.0
sg292
VJUL 20, 1991
p3414
sg294
V6-6
p3415
sg296
VAlec Burks
p3416
sg298
I1610612762
sg299
V10
p3417
sg301
g500
sg303
V00
p3418
sg305
g46
sg306
I202692
ssI202694
(dp3419
g435
VKansas
p3420
sg437
V235
p3421
sg439
V2017
p3422
sg441
F28.0
sg442
VSEP 02, 1989
p3423
sg444
V6-9
p3424
sg446
VMarcus Morris
p3425
sg448
I1610612738
sg449
V13
p3426
sg451
g500
sg452
V00
p3427
sg454
g79
sg455
I202694
ssI202695
(dp3428
g146
VSan Diego State
p3429
sg148
V230
p3430
sg150
V2017
p3431
sg152
F26.0
sg153
VJUN 29, 1991
p3432
sg155
V6-7
p3433
sg157
VKawhi Leonard
p3434
sg159
I1610612759
sg160
g42
sg162
g500
sg164
V00
p3435
sg166
g79
sg167
I202695
ssI202696
(dp3436
g2
VSouthern California
p3437
sg4
V260
p3438
sg6
V2017
p3439
sg8
F27.0
sg9
VOCT 24, 1990
p3440
sg11
V7-0
p3441
sg13
VNikola Vucevic
p3442
sg15
I1610612753
sg16
g696
sg18
g500
sg20
V00
p3443
sg22
g207
sg24
I202696
ssI202697
(dp3444
g581
VGeorgia Tech
p3445
sg583
V220
p3446
sg585
V2017
p3447
sg587
F27.0
sg588
VJUN 26, 1990
p3448
sg590
V6-5
p3449
sg592
VIman Shumpert
p3450
sg594
I1610612739
sg595
g481
sg597
g500
sg598
V00
p3451
sg600
g46
sg601
I202697
ssI202702
(dp3452
g26
VMorehead State
p3453
sg27
V228
p3454
sg29
V2017
p3455
sg31
F27.0
sg32
VNOV 19, 1989
p3456
sg34
V6-8
p3457
sg36
VKenneth Faried
p3458
sg38
I1610612743
sg39
V35
p3459
sg41
g500
sg43
V00
p3460
sg45
g79
sg47
I202702
ssI202703
(dp3461
g308
Nsg310
V238
p3462
sg312
V2017
p3463
sg314
F26.0
sg315
VFEB 11, 1991
p3464
sg317
V6-10
p3465
sg319
VNikola Mirotic
p3466
sg321
I1610612741
sg322
V44
p3467
sg324
g77
sg325
V00
p3468
sg327
g79
sg328
I202703
ssI202710
(dp3469
g49
VMarquette
p3470
sg51
V236
p3471
sg53
V2017
p3472
sg55
F28.0
sg56
VSEP 14, 1989
p3473
sg58
V6-8
p3474
sg60
VJimmy Butler
p3475
sg62
I1610612750
sg63
V23
p3476
sg65
g500
sg66
V00
p3477
sg68
g46
sg69
I202710
ssI202713
(dp3478
g403
VDuke
p3479
sg405
V228
p3480
sg407
V2017
p3481
sg409
F29.0
sg410
VMAY 04, 1988
p3482
sg412
V6-8
p3483
sg414
VKyle Singler
p3484
sg416
I1610612760
sg417
V15
p3485
sg419
g19
sg421
V00
p3486
sg423
g79
sg424
I202713
ssI202714
(dp3487
g2
VButler
p3488
sg4
V203
p3489
sg6
V2017
p3490
sg8
F27.0
sg9
VAPR 22, 1990
p3491
sg11
V6-3
p3492
sg13
VShelvin Mack
p3493
sg15
I1610612753
sg16
g175
sg18
g500
sg20
V00
p3494
sg22
g46
sg24
I202714
ssI202718
(dp3495
g103
VFlorida
p3496
sg105
V230
p3497
sg107
V2017
p3498
sg109
F29.0
sg110
VOCT 25, 1988
p3499
sg112
V6-10
p3500
sg114
VChandler Parsons
p3501
sg116
I1610612763
sg117
V25
p3502
sg118
g500
sg119
V00
p3503
sg121
g79
sg122
I202718
ssI202722
(dp3504
g146
Nsg148
V210
p3505
sg150
V2017
p3506
sg152
F24.0
sg153
VNOV 12, 1992
p3507
sg155
V6-10
p3508
sg157
VDavis Bertans
p3509
sg159
I1610612759
sg160
V42
p3510
sg162
g64
sg164
V00
p3511
sg166
g79
sg167
I202722
ssI202732
(dp3512
g263
VKentucky
p3513
sg265
V209
p3514
sg267
V2017
p3515
sg269
F29.0
sg270
VMAR 31, 1988
p3516
sg272
V6-6
p3517
sg274
VDeAndre Liggins
p3518
sg276
I1610612749
sg277
V25
p3519
sg279
g481
sg280
V00
p3520
sg282
g46
sg283
I202732
ssI202734
(dp3521
g920
VPurdue
p3522
sg922
V191
p3523
sg924
V2017
p3524
sg926
F28.0
sg927
VFEB 25, 1989
p3525
sg929
V6-4
p3526
sg931
VE'Twaun Moore
p3527
sg933
I1610612740
sg934
V55
p3528
sg936
g500
sg937
V00
p3529
sg939
g46
sg940
I202734
ssI202738
(dp3530
g581
VWashington
p3531
sg583
V185
p3532
sg585
V2017
p3533
sg587
F28.0
sg588
VFEB 07, 1989
p3534
sg590
V5-9
p3535
sg592
VIsaiah Thomas
p3536
sg594
I1610612739
sg595
g77
sg597
g500
sg598
V00
p3537
sg600
g46
sg601
I202738
ssI2037
(dp3538
g49
VMichigan
p3539
sg51
V185
p3540
sg53
V2017
p3541
sg55
F37.0
sg56
VMAR 20, 1980
p3542
sg58
V6-5
p3543
sg60
VJamal Crawford
p3544
sg62
I1610612750
sg63
V11
p3545
sg65
V17
p3546
sg66
V00
p3547
sg68
g46
sg69
I2037
ss.