(dp0
I203095
(dp1
VSCHOOL
p2
VFrance
p3
sVWEIGHT
p4
V205
p5
sVSEASON
p6
V2017
p7
sVAGE
p8
F25.0
sVBIRTH_DATE
p9
VOCT 29, 1992
p10
sVHEIGHT
p11
V6-7
p12
sVPLAYER
p13
VEvan Fournier
p14
sVTeamID
p15
I1610612753
sVNUM
p16
V10
p17
sVEXP
p18
V5
p19
sVLeagueID
p20
V00
p21
sVPOSITION
p22
VF-G
p23
sVPLAYER_ID
p24
I203095
ssI202779
(dp25
VSCHOOL
p26
VMarquette
p27
sVWEIGHT
p28
V190
p29
sVSEASON
p30
V2017
p31
sVAGE
p32
F28.0
sVBIRTH_DATE
p33
VMAR 06, 1989
p34
sVHEIGHT
p35
V6-3
p36
sVPLAYER
p37
VDwight Buycks
p38
sVTeamID
p39
I1610612765
sVNUM
p40
V20
p41
sVEXP
p42
V2
p43
sVLeagueID
p44
V00
p45
sVPOSITION
p46
VG
p47
sVPLAYER_ID
p48
I202779
ssI1626143
(dp49
VSCHOOL
p50
VDuke
p51
sVWEIGHT
p52
V260
p53
sVSEASON
p54
V2017
p55
sVAGE
p56
F21.0
sVBIRTH_DATE
p57
VDEC 15, 1995
p58
sVHEIGHT
p59
V6-11
p60
sVPLAYER
p61
VJahlil Okafor
p62
sVTeamID
p63
I1610612755
sVNUM
p64
V8
p65
sVEXP
p66
g43
sVLeagueID
p67
V00
p68
sVPOSITION
p69
VC
p70
sVPLAYER_ID
p71
I1626143
ssI1626144
(dp72
VSCHOOL
p73
NsVWEIGHT
p74
V200
p75
sVSEASON
p76
V2017
p77
sVAGE
p78
F21.0
sVBIRTH_DATE
p79
VMAR 05, 1996
p80
sVHEIGHT
p81
V6-5
p82
sVPLAYER
p83
VEmmanuel Mudiay
p84
sVTeamID
p85
I1610612743
sVNUM
p86
V0
p87
sVEXP
p88
g43
sVLeagueID
p89
V00
p90
sVPOSITION
p91
g47
sVPLAYER_ID
p92
I1626144
ssI1626145
(dp93
VSCHOOL
p94
VDuke
p95
sVWEIGHT
p96
V184
p97
sVSEASON
p98
V2017
p99
sVAGE
p100
F21.0
sVBIRTH_DATE
p101
VMAY 10, 1996
p102
sVHEIGHT
p103
V6-2
p104
sVPLAYER
p105
VTyus Jones
p106
sVTeamID
p107
I1610612750
sVNUM
p108
V1
p109
sVEXP
p110
g43
sVLeagueID
p111
V00
p112
sVPOSITION
p113
g47
sVPLAYER_ID
p114
I1626145
ssI1626147
(dp115
g50
VVirginia
p116
sg52
V230
p117
sg54
V2017
p118
sg56
F23.0
sg57
VNOV 19, 1993
p119
sg59
V6-6
p120
sg61
VJustin Anderson
p121
sg63
I1610612755
sg64
g109
sg66
g43
sg67
V00
p122
sg69
VG-F
p123
sg71
I1626147
ssI1626148
(dp124
g94
VStanford
p125
sg96
V224
p126
sg98
V2017
p127
sg100
F25.0
sg101
VOCT 10, 1992
p128
sg103
V6-7
p129
sg105
VAnthony Brown
p130
sg107
I1610612750
sg108
V3
p131
sg110
g43
sg111
V00
p132
sg113
VF
p133
sg114
I1626148
ssI1626149
(dp134
VSCHOOL
p135
VLouisville
p136
sVWEIGHT
p137
V240
p138
sVSEASON
p139
V2017
p140
sVAGE
p141
F23.0
sVBIRTH_DATE
p142
VJAN 26, 1994
p143
sVHEIGHT
p144
V6-8
p145
sVPLAYER
p146
VMontrezl Harrell
p147
sVTeamID
p148
I1610612746
sVNUM
p149
g19
sVEXP
p150
g43
sVLeagueID
p151
V00
p152
sVPOSITION
p153
VF-C
p154
sVPLAYER_ID
p155
I1626149
ssI1626150
(dp156
VSCHOOL
p157
VKentucky
p158
sVWEIGHT
p159
V213
p160
sVSEASON
p161
V2017
p162
sVAGE
p163
F23.0
sVBIRTH_DATE
p164
VOCT 28, 1994
p165
sVHEIGHT
p166
V6-6
p167
sVPLAYER
p168
VAndrew Harrison
p169
sVTeamID
p170
I1610612763
sVNUM
p171
g19
sVEXP
p172
g109
sVLeagueID
p173
V00
p174
sVPOSITION
p175
g47
sVPLAYER_ID
p176
I1626150
ssI1626153
(dp177
VSCHOOL
p178
VUtah
p179
sVWEIGHT
p180
V190
p181
sVSEASON
p182
V2017
p183
sVAGE
p184
F25.0
sVBIRTH_DATE
p185
VAPR 26, 1992
p186
sVHEIGHT
p187
V6-5
p188
sVPLAYER
p189
VDelon Wright
p190
sVTeamID
p191
I1610612761
sVNUM
p192
V55
p193
sVEXP
p194
g43
sVLeagueID
p195
V00
p196
sVPOSITION
p197
g47
sVPLAYER_ID
p198
I1626153
ssI200746
(dp199
VSCHOOL
p200
VTexas
p201
sVWEIGHT
p202
V260
p203
sVSEASON
p204
V2017
p205
sVAGE
p206
F32.0
sVBIRTH_DATE
p207
VJUL 19, 1985
p208
sVHEIGHT
p209
V6-11
p210
sVPLAYER
p211
VLaMarcus Aldridge
p212
sVTeamID
p213
I1610612759
sVNUM
p214
V12
p215
sVEXP
p216
V11
p217
sVLeagueID
p218
V00
p219
sVPOSITION
p220
g133
sVPLAYER_ID
p221
I200746
ssI1626155
(dp222
g135
VWisconsin
p223
sg137
V230
p224
sg139
V2017
p225
sg141
F23.0
sg142
VMAY 08, 1994
p226
sg144
V6-9
p227
sg146
VSam Dekker
p228
sg148
I1610612746
sg149
V7
p229
sg150
g43
sg151
V00
p230
sg153
g133
sg155
I1626155
ssI1626156
(dp231
VSCHOOL
p232
VOhio State
p233
sVWEIGHT
p234
V195
p235
sVSEASON
p236
V2017
p237
sVAGE
p238
F21.0
sVBIRTH_DATE
p239
VFEB 23, 1996
p240
sVHEIGHT
p241
V6-5
p242
sVPLAYER
p243
VD'Angelo Russell
p244
sVTeamID
p245
I1610612751
sVNUM
p246
g109
sVEXP
p247
g43
sVLeagueID
p248
V00
p249
sVPOSITION
p250
g47
sVPLAYER_ID
p251
I1626156
ssI1626157
(dp252
g94
VKentucky
p253
sg96
V248
p254
sg98
V2017
p255
sg100
F21.0
sg101
VNOV 15, 1995
p256
sg103
V7-0
p257
sg105
VKarl-Anthony Towns
p258
sg107
I1610612750
sg108
V32
p259
sg110
g43
sg111
V00
p260
sg113
g70
sg114
I1626157
ssI1626158
(dp261
g50
VBowling Green
p262
sg52
V235
p263
sg54
V2017
p264
sg56
F24.0
sg57
VOCT 15, 1993
p265
sg59
V6-10
p266
sg61
VRichaun Holmes
p267
sg63
I1610612755
sg64
V22
p268
sg66
g43
sg67
V00
p269
sg69
VF-C
p270
sg71
I1626158
ssI1626159
(dp271
VSCHOOL
p272
VDuke
p273
sVWEIGHT
p274
V225
p275
sVSEASON
p276
V2017
p277
sVAGE
p278
F21.0
sVBIRTH_DATE
p279
VMAR 26, 1996
p280
sVHEIGHT
p281
V6-7
p282
sVPLAYER
p283
VJustise Winslow
p284
sVTeamID
p285
I1610612748
sVNUM
p286
V20
p287
sVEXP
p288
g43
sVLeagueID
p289
V00
p290
sVPOSITION
p291
g133
sVPLAYER_ID
p292
I1626159
ssI200752
(dp293
g200
VConnecticut
p294
sg202
V230
p295
sg204
V2017
p296
sg206
F31.0
sg207
VAUG 17, 1986
p297
sg209
V6-8
p298
sg211
VRudy Gay
p299
sg213
I1610612759
sg214
V22
p300
sg216
V11
p301
sg218
V00
p302
sg220
g133
sg221
I200752
ssI1626161
(dp303
VSCHOOL
p304
VKentucky
p305
sVWEIGHT
p306
V240
p307
sVSEASON
p308
V2017
p309
sVAGE
p310
F24.0
sVBIRTH_DATE
p311
VAUG 18, 1993
p312
sVHEIGHT
p313
V7-0
p314
sVPLAYER
p315
VWillie Cauley-Stein
p316
sVTeamID
p317
I1610612758
sVNUM
p318
V00
p319
sVEXP
p320
g43
sVLeagueID
p321
V00
p322
sVPOSITION
p323
g70
sVPLAYER_ID
p324
I1626161
ssI1626162
(dp325
VSCHOOL
p326
VKansas
p327
sVWEIGHT
p328
V205
p329
sVSEASON
p330
V2017
p331
sVAGE
p332
F21.0
sVBIRTH_DATE
p333
VDEC 09, 1995
p334
sVHEIGHT
p335
V6-7
p336
sVPLAYER
p337
VKelly Oubre Jr.
p338
sVTeamID
p339
I1610612764
sVNUM
p340
V12
p341
sVEXP
p342
g43
sVLeagueID
p343
V00
p344
sVPOSITION
p345
g133
sVPLAYER_ID
p346
I1626162
ssI1627763
(dp347
VSCHOOL
p348
VVirginia
p349
sVWEIGHT
p350
V215
p351
sVSEASON
p352
V2017
p353
sVAGE
p354
F24.0
sVBIRTH_DATE
p355
VDEC 11, 1992
p356
sVHEIGHT
p357
V6-5
p358
sVPLAYER
p359
VMalcolm Brogdon
p360
sVTeamID
p361
I1610612749
sVNUM
p362
V13
p363
sVEXP
p364
g109
sVLeagueID
p365
V00
p366
sVPOSITION
p367
g47
sVPLAYER_ID
p368
I1627763
ssI1626164
(dp369
VSCHOOL
p370
VKentucky
p371
sVWEIGHT
p372
V210
p373
sVSEASON
p374
V2017
p375
sVAGE
p376
F21.0
sVBIRTH_DATE
p377
VOCT 30, 1996
p378
sVHEIGHT
p379
V6-6
p380
sVPLAYER
p381
VDevin Booker
p382
sVTeamID
p383
I1610612756
sVNUM
p384
g109
sVEXP
p385
g43
sVLeagueID
p386
V00
p387
sVPOSITION
p388
g47
sVPLAYER_ID
p389
I1626164
ssI200757
(dp390
VSCHOOL
p391
VVevey, Switzerland
p392
sVWEIGHT
p393
V220
p394
sVSEASON
p395
V2017
p396
sVAGE
p397
F33.0
sVBIRTH_DATE
p398
VMAY 02, 1984
p399
sVHEIGHT
p400
V6-7
p401
sVPLAYER
p402
VThabo Sefolosha
p403
sVTeamID
p404
I1610612762
sVNUM
p405
V22
p406
sVEXP
p407
V11
p408
sVLeagueID
p409
V00
p410
sVPOSITION
p411
g133
sVPLAYER_ID
p412
I200757
ssI1626166
(dp413
VSCHOOL
p414
VMurray State
p415
sVWEIGHT
p416
V185
p417
sVSEASON
p418
V2017
p419
sVAGE
p420
F23.0
sVBIRTH_DATE
p421
VAUG 08, 1994
p422
sVHEIGHT
p423
V6-3
p424
sVPLAYER
p425
VCameron Payne
p426
sVTeamID
p427
I1610612741
sVNUM
p428
V22
p429
sVEXP
p430
g43
sVLeagueID
p431
V00
p432
sVPOSITION
p433
g47
sVPLAYER_ID
p434
I1626166
ssI1626167
(dp435
VSCHOOL
p436
VTexas
p437
sVWEIGHT
p438
V255
p439
sVSEASON
p440
V2017
p441
sVAGE
p442
F21.0
sVBIRTH_DATE
p443
VMAR 24, 1996
p444
sVHEIGHT
p445
V6-11
p446
sVPLAYER
p447
VMyles Turner
p448
sVTeamID
p449
I1610612754
sVNUM
p450
V33
p451
sVEXP
p452
g43
sVLeagueID
p453
V00
p454
sVPOSITION
p455
g70
sVPLAYER_ID
p456
I1626167
ssI1626168
(dp457
g73
VKentucky
p458
sg74
V234
p459
sg76
V2017
p460
sg78
F22.0
sg79
VNOV 05, 1995
p461
sg81
V6-10
p462
sg83
VTrey Lyles
p463
sg85
I1610612743
sg86
g229
sg88
g43
sg89
V00
p464
sg91
g133
sg92
I1626168
ssI1626169
(dp465
g26
VArizona
p466
sg28
V245
p467
sg30
V2017
p468
sg32
F21.0
sg33
VMAY 29, 1996
p469
sg35
V6-7
p470
sg37
VStanley Johnson
p471
sg39
I1610612765
sg40
g229
sg42
g43
sg44
V00
p472
sg46
g133
sg48
I1626169
ssI1626170
(dp473
g414
VNotre Dame
p474
sg416
V198
p475
sg418
V2017
p476
sg420
F25.0
sg421
VOCT 09, 1992
p477
sg423
V6-4
p478
sg425
VJerian Grant
p479
sg427
I1610612741
sg428
g43
sg430
g43
sg431
V00
p480
sg433
g47
sg434
I1626170
ssI1626171
(dp481
g414
VArkansas
p482
sg416
V248
p483
sg418
V2017
p484
sg420
F22.0
sg421
VFEB 10, 1995
p485
sg423
V6-11
p486
sg425
VBobby Portis
p487
sg427
I1610612741
sg428
g19
sg430
g43
sg431
V00
p488
sg433
g133
sg434
I1626171
ssI1626172
(dp489
VSCHOOL
p490
VUCLA
p491
sVWEIGHT
p492
V220
p493
sVSEASON
p494
V2017
p495
sVAGE
p496
F21.0
sVBIRTH_DATE
p497
VFEB 06, 1996
p498
sVHEIGHT
p499
V6-9
p500
sVPLAYER
p501
VKevon Looney
p502
sVTeamID
p503
I1610612744
sVNUM
p504
g19
sVEXP
p505
g43
sVLeagueID
p506
V00
p507
sVPOSITION
p508
g133
sVPLAYER_ID
p509
I1626172
ssI1626173
(dp510
g348
VUNLV
p511
sg350
V202
p512
sg352
V2017
p513
sg354
F21.0
sg355
VAUG 16, 1996
p514
sg357
V6-6
p515
sg359
VRashad Vaughn
p516
sg361
I1610612749
sg362
V20
p517
sg364
g43
sg365
V00
p518
sg367
g47
sg368
I1626173
ssI1626175
(dp519
g272
VLouisiana State
p520
sg274
V235
p521
sg276
V2017
p522
sg278
F23.0
sg279
VJUL 09, 1994
p523
sg281
V6-8
p524
sg283
VJordan Mickey
p525
sg285
I1610612748
sg286
V25
p526
sg288
g43
sg289
V00
p527
sg291
VC-F
p528
sg292
I1626175
ssI200768
(dp529
g178
VVillanova
p530
sg180
V205
p531
sg182
V2017
p532
sg184
F31.0
sg185
VMAR 25, 1986
p533
sg187
V6-0
p534
sg189
VKyle Lowry
p535
sg191
I1610612761
sg192
g229
sg194
V11
p536
sg195
V00
p537
sg197
g47
sg198
I200768
ssI1626177
(dp538
VSCHOOL
p539
VKentucky
p540
sVWEIGHT
p541
V255
p542
sVSEASON
p543
V2017
p544
sVAGE
p545
F22.0
sVBIRTH_DATE
p546
VSEP 22, 1995
p547
sVHEIGHT
p548
V7-0
p549
sVPLAYER
p550
VDakari Johnson
p551
sVTeamID
p552
I1610612760
sVNUM
p553
V44
p554
sVEXP
p555
VR
p556
sVLeagueID
p557
V00
p558
sVPOSITION
p559
g70
sVPLAYER_ID
p560
I1626177
ssI1626178
(dp561
g232
VArizona
p562
sg234
V214
p563
sg236
V2017
p564
sg238
F22.0
sg239
VJAN 03, 1995
p565
sg241
V6-7
p566
sg243
VRondae Hollis-Jefferson
p567
sg245
I1610612751
sg246
V24
p568
sg247
g43
sg248
V00
p569
sg250
g133
sg251
I1626178
ssI1626179
(dp570
VSCHOOL
p571
VLouisville
p572
sVWEIGHT
p573
V190
p574
sVSEASON
p575
V2017
p576
sVAGE
p577
F23.0
sVBIRTH_DATE
p578
VMAR 17, 1994
p579
sVHEIGHT
p580
V6-2
p581
sVPLAYER
p582
VTerry Rozier
p583
sVTeamID
p584
I1610612738
sVNUM
p585
V12
p586
sVEXP
p587
g43
sVLeagueID
p588
V00
p589
sVPOSITION
p590
g47
sVPLAYER_ID
p591
I1626179
ssI1626181
(dp592
g178
VUCLA
p593
sg180
V215
p594
sg182
V2017
p595
sg184
F24.0
sg185
VMAY 25, 1993
p596
sg187
V6-4
p597
sg189
VNorman Powell
p598
sg191
I1610612761
sg192
V24
p599
sg194
g43
sg195
V00
p600
sg197
VF-G
p601
sg198
I1626181
ssI1626185
(dp602
g157
VLouisiana State
p603
sg159
V239
p604
sg161
V2017
p605
sg163
F23.0
sg164
VMAY 24, 1994
p606
sg166
V6-10
p607
sg168
VJarell Martin
p608
sg170
I1610612763
sg171
g109
sg172
g43
sg173
V00
p609
sg175
g133
sg176
I1626185
ssI1626188
(dp610
g490
VDuke
p611
sg492
V179
p612
sg494
V2017
p613
sg496
F24.0
sg497
VMAR 23, 1993
p614
sg499
V6-2
p615
sg501
VQuinn Cook
p616
sg503
I1610612744
sg504
V4
p617
sg505
g109
sg506
V00
p618
sg508
g47
sg509
I1626188
ssI200782
(dp619
VSCHOOL
p620
VTexas
p621
sVWEIGHT
p622
V245
p623
sVSEASON
p624
V2017
p625
sVAGE
p626
F32.0
sVBIRTH_DATE
p627
VMAY 05, 1985
p628
sVHEIGHT
p629
V6-6
p630
sVPLAYER
p631
VPJ Tucker
p632
sVTeamID
p633
I1610612745
sVNUM
p634
g617
sVEXP
p635
V6
p636
sVLeagueID
p637
V00
p638
sVPOSITION
p639
g133
sVPLAYER_ID
p640
I200782
ssI1626191
(dp641
g326
VSyracuse
p642
sg328
V215
p643
sg330
V2017
p644
sg332
F22.0
sg333
VFEB 05, 1995
p645
sg335
V6-9
p646
sg337
VChris McCullough
p647
sg339
I1610612764
sg340
g109
sg342
g43
sg343
V00
p648
sg345
g133
sg346
I1626191
ssI1626192
(dp649
VSCHOOL
p650
VNotre Dame
p651
sVWEIGHT
p652
V210
p653
sVSEASON
p654
V2017
p655
sVAGE
p656
F24.0
sVBIRTH_DATE
p657
VJAN 06, 1993
p658
sVHEIGHT
p659
V6-5
p660
sVPLAYER
p661
VPat Connaughton
p662
sVTeamID
p663
I1610612757
sVNUM
p664
g19
sVEXP
p665
g43
sVLeagueID
p666
V00
p667
sVPOSITION
p668
VG-F
p669
sVPLAYER_ID
p670
I1626192
ssI1626195
(dp671
VSCHOOL
p672
VSpain
p673
sVWEIGHT
p674
V240
p675
sVSEASON
p676
V2017
p677
sVAGE
p678
F23.0
sVBIRTH_DATE
p679
VMAY 27, 1994
p680
sVHEIGHT
p681
V6-11
p682
sVPLAYER
p683
VWilly Hernangomez
p684
sVTeamID
p685
I1610612752
sVNUM
p686
V14
p687
sVEXP
p688
g109
sVLeagueID
p689
V00
p690
sVPOSITION
p691
g70
sVPLAYER_ID
p692
I1626195
ssI1626196
(dp693
g272
VTennessee
p694
sg274
V200
p695
sg276
V2017
p696
sg278
F24.0
sg279
VSEP 15, 1993
p697
sg281
V6-6
p698
sg283
VJosh Richardson
p699
sg285
I1610612748
sg286
g87
sg288
g43
sg289
V00
p700
sg291
g133
sg292
I1626196
ssI1626199
(dp701
g200
VVillanova
p702
sg202
V220
p703
sg204
V2017
p704
sg206
F24.0
sg207
VAPR 13, 1993
p705
sg209
V6-6
p706
sg211
VDarrun Hilliard
p707
sg213
I1610612759
sg214
V24
p708
sg216
g43
sg218
V00
p709
sg220
g47
sg221
I1626199
ssI200794
(dp710
g73
VLouisiana Tech
p711
sg74
V246
p712
sg76
V2017
p713
sg78
F32.0
sg79
VFEB 10, 1985
p714
sg81
V6-8
p715
sg83
VPaul Millsap
p716
sg85
I1610612743
sg86
g617
sg88
V11
p717
sg89
V00
p718
sg91
g133
sg92
I200794
ssI1626204
(dp719
VSCHOOL
p720
VWyoming
p721
sVWEIGHT
p722
V230
p723
sVSEASON
p724
V2017
p725
sVAGE
p726
F24.0
sVBIRTH_DATE
p727
VJAN 01, 1993
p728
sVHEIGHT
p729
V6-9
p730
sVPLAYER
p731
VLarry Nance Jr.
p732
sVTeamID
p733
I1610612747
sVNUM
p734
g229
sVEXP
p735
g43
sVLeagueID
p736
V00
p737
sVPOSITION
p738
g133
sVPLAYER_ID
p739
I1626204
ssI1626205
(dp740
g157
VTexas-El Paso
p741
sg159
V208
p742
sg161
V2017
p743
sg163
F23.0
sg164
VAUG 05, 1994
p744
sg166
V6-8
p745
sg168
VVincent Hunter
p746
sg170
I1610612763
sg171
V32
p747
sg172
g556
sg173
V00
p748
sg175
g133
sg176
I1626205
ssI1626209
(dp749
g2
VCroatia
p750
sg4
V218
p751
sg6
V2017
p752
sg8
F22.0
sg9
VFEB 25, 1995
p753
sg11
V6-8
p754
sg13
VMario Hezonja
p755
sg15
I1610612753
sg16
g65
sg18
g43
sg20
V00
p756
sg22
VG-F
p757
sg24
I1626209
ssI1626210
(dp758
g370
VCalifornia-Santa Barbara
p759
sg372
V265
p760
sg374
V2017
p761
sg376
F24.0
sg377
VJAN 28, 1993
p762
sg379
V6-8
p763
sg381
VAlan Williams
p764
sg383
I1610612756
sg384
V15
p765
sg385
g43
sg386
V00
p766
sg388
VF-C
p767
sg389
I1626210
ssI1626220
(dp768
g391
VBaylor
p769
sg393
V226
p770
sg395
V2017
p771
sg397
F24.0
sg398
VJUN 05, 1993
p772
sg400
V6-6
p773
sg402
VRoyce O'Neale
p774
sg404
I1610612762
sg405
V23
p775
sg407
g556
sg409
V00
p776
sg411
g133
sg412
I1626220
ssI1626224
(dp777
VSCHOOL
p778
VAnadolu Efes
p779
sVWEIGHT
p780
V215
p781
sVSEASON
p782
V2017
p783
sVAGE
p784
F22.0
sVBIRTH_DATE
p785
VAPR 08, 1995
p786
sVHEIGHT
p787
V6-8
p788
sVPLAYER
p789
VCedi Osman
p790
sVTeamID
p791
I1610612739
sVNUM
p792
V16
p793
sVEXP
p794
g556
sVLeagueID
p795
V00
p796
sVPOSITION
p797
g133
sVPLAYER_ID
p798
I1626224
ssI202340
(dp799
g26
VTexas
p800
sg28
V180
p801
sg30
V2017
p802
sg32
F26.0
sg33
VNOV 26, 1990
p803
sg35
V6-2
p804
sg37
VAvery Bradley
p805
sg39
I1610612765
sg40
V22
p806
sg42
g229
sg44
V00
p807
sg46
g47
sg48
I202340
ssI200826
(dp808
VSCHOOL
p809
VNortheastern
p810
sVWEIGHT
p811
V185
p812
sVSEASON
p813
V2017
p814
sVAGE
p815
F33.0
sVBIRTH_DATE
p816
VJUN 26, 1984
p817
sVHEIGHT
p818
V6-0
p819
sVPLAYER
p820
VJ.J. Barea
p821
sVTeamID
p822
I1610612742
sVNUM
p823
g19
sVEXP
p824
V11
p825
sVLeagueID
p826
V00
p827
sVPOSITION
p828
g47
sVPLAYER_ID
p829
I200826
ssI1626242
(dp830
g26
VWestchester CC NY
p831
sg28
V200
p832
sg30
V2017
p833
sg32
F24.0
sg33
VAPR 06, 1993
p834
sg35
V6-7
p835
sg37
VLuis Montero
p836
sg39
I1610612765
sg40
V44
p837
sg42
g109
sg44
V00
p838
sg46
g47
sg48
I1626242
ssI1626245
(dp839
g414
Nsg416
V280
p840
sg418
V2017
p841
sg420
F25.0
sg421
VJUL 07, 1992
p842
sg423
V6-9
p843
sg425
VCristiano Felicio
p844
sg427
I1610612741
sg428
g636
sg430
g43
sg431
V00
p845
sg433
VC-F
p846
sg434
I1626245
ssI1626246
(dp847
g26
Nsg28
V290
p848
sg30
V2017
p849
sg32
F29.0
sg33
VAUG 15, 1988
p850
sg35
V7-3
p851
sg37
VBoban Marjanovic
p852
sg39
I1610612765
sg40
V51
p853
sg42
g43
sg44
V00
p854
sg46
g70
sg48
I1626246
ssI203458
(dp855
g370
VMaryland
p856
sg372
V250
p857
sg374
V2017
p858
sg376
F24.0
sg377
VJUN 16, 1993
p859
sg379
V7-1
p860
sg381
VAlex Len
p861
sg383
I1610612756
sg384
V21
p862
sg385
g617
sg386
V00
p863
sg388
g70
sg389
I203458
ssI1626257
(dp864
g809
Nsg811
V235
p865
sg813
V2017
p866
sg815
F31.0
sg816
VJUN 15, 1986
p867
sg818
V7-2
p868
sg820
VSalah Mejri
p869
sg822
I1610612742
sg823
V50
p870
sg824
g43
sg826
V00
p871
sg828
g70
sg829
I1626257
ssI1626259
(dp872
g178
VHoly Cross
p873
sg180
V210
p874
sg182
V2017
p875
sg184
F24.0
sg185
VMAR 06, 1993
p876
sg187
V6-7
p877
sg189
VMalcolm Miller
p878
sg191
I1610612761
sg192
V13
p879
sg194
g556
sg195
V00
p880
sg197
g133
sg198
I1626259
ssI2199
(dp881
g370
VDominquez H.S
p882
sg372
V240
p883
sg374
V2017
p884
sg376
F35.0
sg377
VOCT 02, 1982
p885
sg379
V7-1
p886
sg381
VTyson Chandler
p887
sg383
I1610612756
sg384
g617
sg385
V16
p888
sg386
V00
p889
sg388
g70
sg389
I2199
ssI2200
(dp890
g200
VBarcelona, Spain
p891
sg202
V250
p892
sg204
V2017
p893
sg206
F37.0
sg207
VJUL 06, 1980
p894
sg209
V7-0
p895
sg211
VPau Gasol
p896
sg213
I1610612759
sg214
V16
p897
sg216
V16
p898
sg218
V00
p899
sg220
g70
sg221
I2200
ssI2207
(dp900
g391
VArkansas
p901
sg393
V240
p902
sg395
V2017
p903
sg397
F36.0
sg398
VJUN 29, 1981
p904
sg400
V6-7
p905
sg402
VJoe Johnson
p906
sg404
I1610612762
sg405
g636
sg407
V16
p907
sg409
V00
p908
sg411
VG-F
p909
sg412
I2207
ssI2210
(dp910
g73
VArizona
p911
sg74
V233
p912
sg76
V2017
p913
sg78
F37.0
sg79
VJUN 21, 1980
p914
sg81
V6-7
p915
sg83
VRichard Jefferson
p916
sg85
I1610612743
sg86
V22
p917
sg88
V16
p918
sg89
V00
p919
sg91
g133
sg92
I2210
ssI2216
(dp920
g304
VMichigan State
p921
sg306
V250
p922
sg308
V2017
p923
sg310
F36.0
sg311
VJUL 16, 1981
p924
sg313
V6-9
p925
sg315
VZach Randolph
p926
sg317
I1610612758
sg318
V50
p927
sg320
V16
p928
sg321
V00
p929
sg323
g133
sg324
I2216
ssI2225
(dp930
g200
VParis, France
p931
sg202
V185
p932
sg204
V2017
p933
sg206
F35.0
sg207
VMAY 17, 1982
p934
sg209
V6-2
p935
sg211
VTony Parker
p936
sg213
I1610612759
sg214
V9
p937
sg216
V16
p938
sg218
V00
p939
sg220
g47
sg221
I2225
ssI1628365
(dp940
g50
VWashington
p941
sg52
V200
p942
sg54
V2017
p943
sg56
F19.0
sg57
VMAY 29, 1998
p944
sg59
V6-4
p945
sg61
VMarkelle Fultz
p946
sg63
I1610612755
sg64
V20
p947
sg66
g556
sg67
V00
p948
sg69
g47
sg71
I1628365
ssI1628366
(dp949
g720
VCalifornia-Los Angeles
p950
sg722
V190
p951
sg724
V2017
p952
sg726
F20.0
sg727
VOCT 27, 1997
p953
sg729
V6-6
p954
sg731
VLonzo Ball
p955
sg733
I1610612747
sg734
g43
sg735
g556
sg736
V00
p956
sg738
g47
sg739
I1628366
ssI1628367
(dp957
g370
VKansas
p958
sg372
V200
p959
sg374
V2017
p960
sg376
F20.0
sg377
VFEB 10, 1997
p961
sg379
V6-8
p962
sg381
VJosh Jackson
p963
sg383
I1610612756
sg384
V20
p964
sg385
g556
sg386
V00
p965
sg388
g133
sg389
I1628367
ssI1628368
(dp966
g304
VKentucky
p967
sg306
V175
p968
sg308
V2017
p969
sg310
F19.0
sg311
VDEC 20, 1997
p970
sg313
V6-3
p971
sg315
VDe'Aaron Fox
p972
sg317
I1610612758
sg318
g19
sg320
g556
sg321
V00
p973
sg323
g47
sg324
I1628368
ssI1628369
(dp974
g571
VDuke
p975
sg573
V205
p976
sg575
V2017
p977
sg577
F19.0
sg578
VMAR 03, 1998
p978
sg580
V6-8
p979
sg582
VJayson Tatum
p980
sg584
I1610612738
sg585
g87
sg587
g556
sg588
V00
p981
sg590
g133
sg591
I1628369
ssI1628371
(dp982
g2
VFlorida State
p983
sg4
V210
p984
sg6
V2017
p985
sg8
F20.0
sg9
VOCT 03, 1997
p986
sg11
V6-10
p987
sg13
VJonathan Isaac
p988
sg15
I1610612753
sg16
g109
sg18
g556
sg20
V00
p989
sg22
g133
sg24
I1628371
ssI1628372
(dp990
g809
VNorth Carolina State
p991
sg811
V195
p992
sg813
V2017
p993
sg815
F19.0
sg816
VNOV 25, 1997
p994
sg818
V6-3
p995
sg820
VDennis Smith Jr.
p996
sg822
I1610612742
sg823
g109
sg824
g556
sg826
V00
p997
sg828
g47
sg829
I1628372
ssI1628373
(dp998
g672
Nsg674
V190
p999
sg676
V2017
p1000
sg678
F19.0
sg679
VJUL 28, 1998
p1001
sg681
V6-5
p1002
sg683
VFrank Ntilikina
p1003
sg685
I1610612752
sg686
V11
p1004
sg688
g556
sg689
V00
p1005
sg691
g47
sg692
I1628373
ssI1628374
(dp1006
g414
VArizona
p1007
sg416
V230
p1008
sg418
V2017
p1009
sg420
F20.0
sg421
VMAY 22, 1997
p1010
sg423
V7-0
p1011
sg425
VLauri Markkanen
p1012
sg427
I1610612741
sg428
V24
p1013
sg430
g556
sg431
V00
p1014
sg433
g133
sg434
I1628374
ssI1628378
(dp1015
g391
VLouisville
p1016
sg393
V215
p1017
sg395
V2017
p1018
sg397
F21.0
sg398
VSEP 07, 1996
p1019
sg400
V6-3
p1020
sg402
VDonovan Mitchell
p1021
sg404
I1610612762
sg405
V45
p1022
sg407
g556
sg409
V00
p1023
sg411
g47
sg412
I1628378
ssI1628379
(dp1024
g26
VDuke
p1025
sg28
V200
p1026
sg30
V2017
p1027
sg32
F21.0
sg33
VJUN 24, 1996
p1028
sg35
V6-5
p1029
sg37
VLuke Kennard
p1030
sg39
I1610612765
sg40
g19
sg42
g556
sg44
V00
p1031
sg46
g47
sg48
I1628379
ssI1628380
(dp1032
g650
VGonzaga
p1033
sg652
V230
p1034
sg654
V2017
p1035
sg656
F19.0
sg657
VNOV 19, 1997
p1036
sg659
V7-0
p1037
sg661
VZach Collins
p1038
sg663
I1610612757
sg664
V33
p1039
sg665
g556
sg666
V00
p1040
sg668
VC-F
p1041
sg670
I1628380
ssI1628381
(dp1042
VSCHOOL
p1043
VWake Forest
p1044
sVWEIGHT
p1045
V235
p1046
sVSEASON
p1047
V2017
p1048
sVAGE
p1049
F20.0
sVBIRTH_DATE
p1050
VSEP 23, 1997
p1051
sVHEIGHT
p1052
V6-10
p1053
sVPLAYER
p1054
VJohn Collins
p1055
sVTeamID
p1056
I1610612737
sVNUM
p1057
V20
p1058
sVEXP
p1059
g556
sVLeagueID
p1060
V00
p1061
sVPOSITION
p1062
VF-C
p1063
sVPLAYER_ID
p1064
I1628381
ssI1628382
(dp1065
g304
VNorth Carolina
p1066
sg306
V210
p1067
sg308
V2017
p1068
sg310
F22.0
sg311
VMAR 28, 1995
p1069
sg313
V6-8
p1070
sg315
VJustin Jackson
p1071
sg317
I1610612758
sg318
V25
p1072
sg320
g556
sg321
V00
p1073
sg323
g133
sg324
I1628382
ssI1628383
(dp1074
g94
VCreighton
p1075
sg96
V236
p1076
sg98
V2017
p1077
sg100
F20.0
sg101
VJUN 14, 1997
p1078
sg103
V7-0
p1079
sg105
VJustin Patton
p1080
sg107
I1610612750
sg108
V24
p1081
sg110
g556
sg111
V00
p1082
sg113
g70
sg114
I1628383
ssI1628384
(dp1083
g178
VIndiana
p1084
sg180
V235
p1085
sg182
V2017
p1086
sg184
F20.0
sg185
VJUL 17, 1997
p1087
sg187
V6-8
p1088
sg189
VOG Anunoby
p1089
sg191
I1610612761
sg192
g131
sg194
g556
sg195
V00
p1090
sg197
g133
sg198
I1628384
ssI1628385
(dp1091
g304
VDuke
p1092
sg306
V240
p1093
sg308
V2017
p1094
sg310
F19.0
sg311
VAPR 22, 1998
p1095
sg313
V6-10
p1096
sg315
VHarry Giles
p1097
sg317
I1610612758
sg318
V20
p1098
sg320
g556
sg321
V00
p1099
sg323
VF-C
p1100
sg324
I1628385
ssI1628386
(dp1101
g232
VTexas
p1102
sg234
V234
p1103
sg236
V2017
p1104
sg238
F19.0
sg239
VAPR 21, 1998
p1105
sg241
V6-11
p1106
sg243
VJarrett Allen
p1107
sg245
I1610612751
sg246
V31
p1108
sg247
g556
sg248
V00
p1109
sg250
g70
sg251
I1628386
ssI1628387
(dp1110
g436
VCalifornia-Los Angeles
p1111
sg438
V262
p1112
sg440
V2017
p1113
sg442
F19.0
sg443
VOCT 16, 1998
p1114
sg445
V6-10
p1115
sg447
VIke Anigbogu
p1116
sg449
I1610612754
sg450
V13
p1117
sg452
g556
sg453
V00
p1118
sg455
g70
sg456
I1628387
ssI1628388
(dp1119
g436
VCalifornia-Los Angeles
p1120
sg438
V230
p1121
sg440
V2017
p1122
sg442
F20.0
sg443
VAPR 30, 1997
p1123
sg445
V6-10
p1124
sg447
VTJ Leaf
p1125
sg449
I1610612754
sg450
V22
p1126
sg452
g556
sg453
V00
p1127
sg455
g133
sg456
I1628388
ssI1628389
(dp1128
g272
VKentucky
p1129
sg274
V255
p1130
sg276
V2017
p1131
sg278
F20.0
sg279
VJUL 18, 1997
p1132
sg281
V6-10
p1133
sg283
VBam Adebayo
p1134
sg285
I1610612748
sg286
V13
p1135
sg288
g556
sg289
V00
p1136
sg291
VC-F
p1137
sg292
I1628389
ssI1628390
(dp1138
g539
Nsg541
V184
p1139
sg543
V2017
p1140
sg545
F19.0
sg546
VMAY 17, 1998
p1141
sg548
V6-7
p1142
sg550
VTerrance Ferguson
p1143
sg552
I1610612760
sg553
V23
p1144
sg555
g556
sg557
V00
p1145
sg559
g47
sg560
I1628390
ssI1628391
(dp1146
g348
VMichigan
p1147
sg350
V236
p1148
sg352
V2017
p1149
sg354
F21.0
sg355
VFEB 19, 1996
p1150
sg357
V6-10
p1151
sg359
VD.J. Wilson
p1152
sg361
I1610612749
sg362
g19
sg364
g556
sg365
V00
p1153
sg367
g133
sg368
I1628391
ssI1628393
(dp1154
g135
VOklahoma State
p1155
sg137
V190
p1156
sg139
V2017
p1157
sg141
F21.0
sg142
VJUL 26, 1996
p1158
sg144
V6-0
p1159
sg146
VJawun Evans
p1160
sg148
I1610612746
sg149
g109
sg150
g556
sg151
V00
p1161
sg153
g47
sg155
I1628393
ssI1628395
(dp1162
g490
VOregon
p1163
sg492
V224
p1164
sg494
V2017
p1165
sg496
F22.0
sg497
VJAN 07, 1995
p1166
sg499
V6-9
p1167
sg501
VJordan Bell
p1168
sg503
I1610612744
sg504
g43
sg505
g556
sg506
V00
p1169
sg508
g133
sg509
I1628395
ssI1628396
(dp1170
g391
VNorth Carolina
p1171
sg393
V248
p1172
sg395
V2017
p1173
sg397
F19.0
sg398
VJAN 08, 1998
p1174
sg400
V6-10
p1175
sg402
VTony Bradley
p1176
sg404
I1610612762
sg405
V13
p1177
sg407
g556
sg409
V00
p1178
sg411
g70
sg412
I1628396
ssI1628397
(dp1179
g157
VCalifornia
p1180
sg159
V220
p1181
sg161
V2017
p1182
sg163
F20.0
sg164
VFEB 04, 1997
p1183
sg166
V6-10
p1184
sg168
VIvan Rabb
p1185
sg170
I1610612763
sg171
V10
p1186
sg172
g556
sg173
V00
p1187
sg175
g133
sg176
I1628397
ssI1628398
(dp1188
g720
VUtah
p1189
sg722
V220
p1190
sg724
V2017
p1191
sg726
F22.0
sg727
VJUL 24, 1995
p1192
sg729
V6-9
p1193
sg731
VKyle Kuzma
p1194
sg733
I1610612747
sg734
g87
sg735
g556
sg736
V00
p1195
sg738
g133
sg739
I1628398
ssI1628399
(dp1196
g73
VSyracuse
p1197
sg74
V220
p1198
sg76
V2017
p1199
sg78
F21.0
sg79
VAPR 09, 1996
p1200
sg81
V6-9
p1201
sg83
VTyler Lydon
p1202
sg85
I1610612743
sg86
V20
p1203
sg88
g556
sg89
V00
p1204
sg91
g133
sg92
I1628399
ssI1628400
(dp1205
g571
VSouthern Methodist
p1206
sg573
V235
p1207
sg575
V2017
p1208
sg577
F22.0
sg578
VDEC 05, 1994
p1209
sg580
V6-7
p1210
sg582
VSemi Ojeleye
p1211
sg584
I1610612738
sg585
V37
p1212
sg587
g556
sg588
V00
p1213
sg590
g133
sg591
I1628400
ssI1628401
(dp1214
g200
VColorado
p1215
sg202
V190
p1216
sg204
V2017
p1217
sg206
F23.0
sg207
VJUL 02, 1994
p1218
sg209
V6-4
p1219
sg211
VDerrick White
p1220
sg213
I1610612759
sg214
g617
sg216
g556
sg218
V00
p1221
sg220
g47
sg221
I1628401
ssI1628402
(dp1222
VSCHOOL
p1223
VDuke
p1224
sVWEIGHT
p1225
V205
p1226
sVSEASON
p1227
V2017
p1228
sVAGE
p1229
F19.0
sVBIRTH_DATE
p1230
VMAY 04, 1998
p1231
sVHEIGHT
p1232
V6-3
p1233
sVPLAYER
p1234
VFrank Jackson
p1235
sVTeamID
p1236
I1610612740
sVNUM
p1237
V15
p1238
sVEXP
p1239
g556
sVLeagueID
p1240
V00
p1241
sVPOSITION
p1242
g47
sVPLAYER_ID
p1243
I1628402
ssI1628403
(dp1244
g650
VPurdue
p1245
sg652
V250
p1246
sg654
V2017
p1247
sg656
F20.0
sg657
VAPR 18, 1997
p1248
sg659
V6-8
p1249
sg661
VCaleb Swanigan
p1250
sg663
I1610612757
sg664
V50
p1251
sg665
g556
sg666
V00
p1252
sg668
VF-C
p1253
sg670
I1628403
ssI1628404
(dp1254
g720
VVillanova
p1255
sg722
V215
p1256
sg724
V2017
p1257
sg726
F22.0
sg727
VMAR 06, 1995
p1258
sg729
V6-5
p1259
sg731
VJosh Hart
p1260
sg733
I1610612747
sg734
g19
sg735
g556
sg736
V00
p1261
sg738
g47
sg739
I1628404
ssI1628405
(dp1262
g809
VBaylor
p1263
sg811
V230
p1264
sg813
V2017
p1265
sg815
F22.0
sg816
VMAY 04, 1995
p1266
sg818
V6-10
p1267
sg820
VJohnathan Motley
p1268
sg822
I1610612742
sg823
g636
sg824
g556
sg826
V00
p1269
sg828
g133
sg829
I1628405
ssI1628408
(dp1270
g539
VSouth Carolina
p1271
sg541
V205
p1272
sg543
V2017
p1273
sg545
F21.0
sg546
VOCT 25, 1996
p1274
sg548
V6-6
p1275
sg550
VPJ Dozier
p1276
sg552
I1610612760
sg553
V35
p1277
sg555
g556
sg557
V00
p1278
sg559
g47
sg560
I1628408
ssI203476
(dp1279
g94
VLouisville
p1280
sg96
V251
p1281
sg98
V2017
p1282
sg100
F27.0
sg101
VJAN 18, 1990
p1283
sg103
V6-11
p1284
sg105
VGorgui Dieng
p1285
sg107
I1610612750
sg108
g19
sg110
g617
sg111
V00
p1286
sg113
g70
sg114
I203476
ssI1628410
(dp1287
g436
VXavier
p1288
sg438
V188
p1289
sg440
V2017
p1290
sg442
F21.0
sg443
VDEC 31, 1995
p1291
sg445
V6-5
p1292
sg447
VEdmond Sumner
p1293
sg449
I1610612754
sg450
g19
sg452
g556
sg453
V00
p1294
sg455
g47
sg456
I1628410
ssI1628411
(dp1295
g2
VKansas State
p1296
sg4
V195
p1297
sg6
V2017
p1298
sg8
F22.0
sg9
VDEC 20, 1994
p1299
sg11
V6-7
p1300
sg13
VWes Iwundu
p1301
sg15
I1610612753
sg16
V25
p1302
sg18
g556
sg20
V00
p1303
sg22
g133
sg24
I1628411
ssI1628412
(dp1304
g304
VKansas
p1305
sg306
V190
p1306
sg308
V2017
p1307
sg310
F23.0
sg311
VAPR 03, 1994
p1308
sg313
V5-11
p1309
sg315
VFrank Mason
p1310
sg317
I1610612758
sg318
V10
p1311
sg320
g556
sg321
V00
p1312
sg323
g47
sg324
I1628412
ssI1628414
(dp1313
g135
VSouth Carolina
p1314
sg137
V215
p1315
sg139
V2017
p1316
sg141
F22.0
sg142
VNOV 15, 1994
p1317
sg144
V6-5
p1318
sg146
VSindarius Thornwell
p1319
sg148
I1610612746
sg149
g87
sg150
g556
sg151
V00
p1320
sg153
g47
sg155
I1628414
ssI1628415
(dp1321
g157
VOregon
p1322
sg159
V220
p1323
sg161
V2017
p1324
sg163
F21.0
sg164
VJAN 22, 1996
p1325
sg166
V6-6
p1326
sg168
VDillon Brooks
p1327
sg170
I1610612763
sg171
V24
p1328
sg172
g556
sg173
V00
p1329
sg175
VF-G
p1330
sg176
I1628415
ssI1628416
(dp1331
g1043
VOregon
p1332
sg1045
V183
p1333
sg1047
V2017
p1334
sg1049
F21.0
sg1050
VFEB 18, 1996
p1335
sg1052
V6-4
p1336
sg1054
VTyler Dorsey
p1337
sg1056
I1610612737
sg1057
g43
sg1059
g556
sg1060
V00
p1338
sg1062
g47
sg1064
I1628416
ssI1628418
(dp1339
g720
VIndiana
p1340
sg722
V248
p1341
sg724
V2017
p1342
sg726
F20.0
sg727
VJUL 31, 1997
p1343
sg729
V6-10
p1344
sg731
VThomas Bryant
p1345
sg733
I1610612747
sg734
V31
p1346
sg735
g556
sg736
V00
p1347
sg738
g70
sg739
I1628418
ssI1628420
(dp1348
g73
VIowa State
p1349
sg74
V175
p1350
sg76
V2017
p1351
sg78
F22.0
sg79
VJUN 27, 1995
p1352
sg81
V6-3
p1353
sg83
VMonte Morris
p1354
sg85
I1610612743
sg86
V11
p1355
sg88
g556
sg89
V00
p1356
sg91
g47
sg92
I1628420
ssI1628421
(dp1357
g326
VFlorida
p1358
sg328
V200
p1359
sg330
V2017
p1360
sg332
F22.0
sg333
VMAR 07, 1995
p1361
sg335
V6-8
p1362
sg337
VDevin Robinson
p1363
sg339
I1610612764
sg340
g229
sg342
g556
sg343
V00
p1364
sg345
g133
sg346
I1628421
ssI1628422
(dp1365
g672
VHouston
p1366
sg674
V210
p1367
sg676
V2017
p1368
sg678
F23.0
sg679
VMAY 06, 1994
p1369
sg681
V6-5
p1370
sg683
VDamyean Dotson
p1371
sg685
I1610612752
sg686
V21
p1372
sg688
g556
sg689
V00
p1373
sg691
g47
sg692
I1628422
ssI1628424
(dp1374
g157
VArizona
p1375
sg159
V170
p1376
sg161
V2017
p1377
sg163
F20.0
sg164
VJUL 04, 1997
p1378
sg166
V6-4
p1379
sg168
VKobi Simmons
p1380
sg170
I1610612763
sg171
g43
sg172
g556
sg173
V00
p1381
sg175
g47
sg176
I1628424
ssI1628425
(dp1382
g348
VSouthern Methodist
p1383
sg350
V230
p1384
sg352
V2017
p1385
sg354
F22.0
sg355
VFEB 10, 1995
p1386
sg357
V6-6
p1387
sg359
VSterling Brown
p1388
sg361
I1610612749
sg362
V23
p1389
sg364
g556
sg365
V00
p1390
sg367
g47
sg368
I1628425
ssI1628429
(dp1391
g1223
VDayton
p1392
sg1225
V196
p1393
sg1227
V2017
p1394
sg1229
F23.0
sg1230
VJUL 01, 1994
p1395
sg1232
V6-5
p1396
sg1234
VCharles Cooke
p1397
sg1236
I1610612740
sg1237
g617
sg1239
g556
sg1240
V00
p1398
sg1242
g47
sg1243
I1628429
ssI1628432
(dp1399
g370
VMiami (FL)
p1400
sg372
V210
p1401
sg374
V2017
p1402
sg376
F22.0
sg377
VJUN 11, 1995
p1403
sg379
V6-6
p1404
sg381
VDavon Reed
p1405
sg383
I1610612756
sg384
V32
p1406
sg385
g556
sg386
V00
p1407
sg388
g47
sg389
I1628432
ssI1628436
(dp1408
g672
VVanderbilt
p1409
sg674
V250
p1410
sg676
V2017
p1411
sg678
F22.0
sg679
VJUL 15, 1995
p1412
sg681
V7-1
p1413
sg683
VLuke Kornet
p1414
sg685
I1610612752
sg686
g43
sg688
g556
sg689
V00
p1415
sg691
VF-C
p1416
sg692
I1628436
ssI1628439
(dp1417
g672
VNorth Carolina
p1418
sg674
V242
p1419
sg676
V2017
p1420
sg678
F23.0
sg679
VJUL 24, 1994
p1421
sg681
V6-9
p1422
sg683
VIsaiah Hicks
p1423
sg685
I1610612752
sg686
g617
sg688
g556
sg689
V00
p1424
sg691
g133
sg692
I1628439
ssI1628443
(dp1425
g571
VArizona
p1426
sg573
V200
p1427
sg575
V2017
p1428
sg577
F24.0
sg578
VJAN 15, 1993
p1429
sg580
V6-3
p1430
sg582
VKadeem Allen
p1431
sg584
I1610612738
sg585
V45
p1432
sg587
g556
sg588
V00
p1433
sg590
g47
sg591
I1628443
ssI1628444
(dp1434
g571
VCalifornia
p1435
sg573
V198
p1436
sg575
V2017
p1437
sg577
F23.0
sg578
VJUL 03, 1994
p1438
sg580
V6-6
p1439
sg582
VJabari Bird
p1440
sg584
I1610612738
sg585
V26
p1441
sg587
g556
sg588
V00
p1442
sg590
g47
sg591
I1628444
ssI1628449
(dp1443
g490
VOregon
p1444
sg492
V200
p1445
sg494
V2017
p1446
sg496
F24.0
sg497
VJAN 11, 1993
p1447
sg499
V6-10
p1448
sg501
VChris Boucher
p1449
sg503
I1610612744
sg504
V25
p1450
sg505
g556
sg506
V00
p1451
sg508
g133
sg509
I1628449
ssI1628451
(dp1452
g232
VEastern Washington
p1453
sg234
V223
p1454
sg236
V2017
p1455
sg238
F23.0
sg239
VSEP 04, 1994
p1456
sg241
V6-8
p1457
sg243
VJacob Wiley
p1458
sg245
I1610612751
sg246
V21
p1459
sg247
g556
sg248
V00
p1460
sg250
g133
sg251
I1628451
ssI1628454
(dp1461
g326
VPittsburgh
p1462
sg328
V235
p1463
sg330
V2017
p1464
sg332
F23.0
sg333
VSEP 05, 1994
p1465
sg335
V6-9
p1466
sg337
VMike Young
p1467
sg339
I1610612764
sg340
g617
sg342
g556
sg343
V00
p1468
sg345
g133
sg346
I1628454
ssI1628455
(dp1469
g370
VLamar
p1470
sg372
V195
p1471
sg374
V2017
p1472
sg376
F27.0
sg377
VAUG 18, 1990
p1473
sg379
V6-1
p1474
sg381
VMike James
p1475
sg383
I1610612756
sg384
V55
p1476
sg385
g556
sg386
V00
p1477
sg388
g47
sg389
I1628455
ssI1628462
(dp1478
g135
Nsg137
V196
p1479
sg139
V2017
p1480
sg141
F30.0
sg142
VMAR 19, 1987
p1481
sg144
V6-5
p1482
sg146
VMilos Teodosic
p1483
sg148
I1610612746
sg149
g617
sg150
g556
sg151
V00
p1484
sg153
g47
sg155
I1628462
ssI1628463
(dp1485
g1043
VGeorge Washington
p1486
sg1045
V238
p1487
sg1047
V2017
p1488
sg1049
F23.0
sg1050
VFEB 09, 1994
p1489
sg1052
V6-9
p1490
sg1054
VTyler Cavanaugh
p1491
sg1056
I1610612737
sg1057
V34
p1492
sg1059
g556
sg1060
V00
p1493
sg1062
g133
sg1064
I1628463
ssI1628464
(dp1494
g571
Nsg573
V243
p1495
sg575
V2017
p1496
sg577
F25.0
sg578
VAPR 04, 1992
p1497
sg580
V6-9
p1498
sg582
VDaniel Theis
p1499
sg584
I1610612738
sg585
V27
p1500
sg587
g556
sg588
V00
p1501
sg590
VF-C
p1502
sg591
I1628464
ssI1628467
(dp1503
g809
Nsg811
V220
p1504
sg813
V2017
p1505
sg815
F25.0
sg816
VJAN 29, 1992
p1506
sg818
V6-11
p1507
sg820
VMaxi Kleber
p1508
sg822
I1610612742
sg823
V42
p1509
sg824
g556
sg826
V00
p1510
sg828
g133
sg829
I1628467
ssI1628469
(dp1511
g414
VLouisiana State
p1512
sg416
V197
p1513
sg418
V2017
p1514
sg420
F21.0
sg421
VOCT 04, 1996
p1515
sg423
V6-4
p1516
sg425
VAntonio Blakeney
p1517
sg427
I1610612741
sg428
g937
sg430
g556
sg431
V00
p1518
sg433
g47
sg434
I1628469
ssI1628470
(dp1519
g73
VSouth Carolina Upstate
p1520
sg74
V215
p1521
sg76
V2017
p1522
sg78
F26.0
sg79
VDEC 19, 1990
p1523
sg81
V6-6
p1524
sg83
VTorrey Craig
p1525
sg85
I1610612743
sg86
g131
sg88
g556
sg89
V00
p1526
sg91
VG-F
p1527
sg92
I1628470
ssI1628473
(dp1528
g232
Nsg234
V220
p1529
sg236
V2017
p1530
sg238
F25.0
sg239
VJAN 24, 1992
p1531
sg241
V6-4
p1532
sg243
VYakuba Ouattara
p1533
sg245
I1610612751
sg246
V00
p1534
sg247
g556
sg248
V00
p1535
sg250
g47
sg251
I1628473
ssI1628475
(dp1536
g272
VCentral Florida
p1537
sg274
V210
p1538
sg276
V2017
p1539
sg278
F24.0
sg279
VOCT 14, 1993
p1540
sg281
V6-5
p1541
sg283
VMatt Williams Jr.
p1542
sg285
I1610612748
sg286
V12
p1543
sg288
g556
sg289
V00
p1544
sg291
g47
sg292
I1628475
ssI1628476
(dp1545
g272
VMichigan
p1546
sg274
V185
p1547
sg276
V2017
p1548
sg278
F22.0
sg279
VAPR 03, 1995
p1549
sg281
V6-1
p1550
sg283
VDerrick Walton Jr.
p1551
sg285
I1610612748
sg286
V14
p1552
sg288
g556
sg289
V00
p1553
sg291
g47
sg292
I1628476
ssI203076
(dp1554
g1223
VKentucky
p1555
sg1225
V253
p1556
sg1227
V2017
p1557
sg1229
F24.0
sg1230
VMAR 11, 1993
p1558
sg1232
V6-10
p1559
sg1234
VAnthony Davis
p1560
sg1236
I1610612740
sg1237
V23
p1561
sg1239
g19
sg1240
V00
p1562
sg1242
VF-C
p1563
sg1243
I203076
ssI203078
(dp1564
g326
VFlorida
p1565
sg328
V207
p1566
sg330
V2017
p1567
sg332
F24.0
sg333
VJUN 28, 1993
p1568
sg335
V6-5
p1569
sg337
VBradley Beal
p1570
sg339
I1610612764
sg340
g131
sg342
g19
sg343
V00
p1571
sg345
g47
sg346
I203078
ssI203079
(dp1572
g272
VSyracuse
p1573
sg274
V215
p1574
sg276
V2017
p1575
sg278
F25.0
sg279
VDEC 10, 1991
p1576
sg281
V6-4
p1577
sg283
VDion Waiters
p1578
sg285
I1610612748
sg286
V11
p1579
sg288
g19
sg289
V00
p1580
sg291
g47
sg292
I203079
ssI203081
(dp1581
g650
VWeber State
p1582
sg652
V195
p1583
sg654
V2017
p1584
sg656
F27.0
sg657
VJUL 15, 1990
p1585
sg659
V6-3
p1586
sg661
VDamian Lillard
p1587
sg663
I1610612757
sg664
g87
sg665
g19
sg666
V00
p1588
sg668
g47
sg670
I203081
ssI203082
(dp1589
g2
VWashington
p1590
sg4
V206
p1591
sg6
V2017
p1592
sg8
F26.0
sg9
VFEB 05, 1991
p1593
sg11
V6-7
p1594
sg13
VTerrence Ross
p1595
sg15
I1610612753
sg16
V31
p1596
sg18
g19
sg20
V00
p1597
sg22
VG-F
p1598
sg24
I203082
ssI203083
(dp1599
g26
VConnecticut
p1600
sg28
V279
p1601
sg30
V2017
p1602
sg32
F24.0
sg33
VAUG 10, 1993
p1603
sg35
V6-11
p1604
sg37
VAndre Drummond
p1605
sg39
I1610612765
sg40
g87
sg42
g19
sg44
V00
p1606
sg46
g70
sg48
I203083
ssI1628492
(dp1607
g809
VColorado State
p1608
sg811
V185
p1609
sg813
V2017
p1610
sg815
F23.0
sg816
VNOV 26, 1993
p1611
sg818
V6-4
p1612
sg820
VGian Clavell
p1613
sg822
I1610612742
sg823
g65
sg824
g556
sg826
V00
p1614
sg828
g47
sg829
I1628492
ssI203085
(dp1615
g135
VDuke
p1616
sg137
V200
p1617
sg139
V2017
p1618
sg141
F25.0
sg142
VAUG 01, 1992
p1619
sg144
V6-4
p1620
sg146
VAustin Rivers
p1621
sg148
I1610612746
sg149
V25
p1622
sg150
g19
sg151
V00
p1623
sg153
g47
sg155
I203085
ssI203086
(dp1624
g650
VIllinois
p1625
sg652
V255
p1626
sg654
V2017
p1627
sg656
F25.0
sg657
VFEB 27, 1992
p1628
sg659
V7-1
p1629
sg661
VMeyers Leonard
p1630
sg663
I1610612757
sg664
V11
p1631
sg665
g19
sg666
V00
p1632
sg668
g70
sg670
I203086
ssI203089
(dp1633
g348
VNorth Carolina
p1634
sg350
V229
p1635
sg352
V2017
p1636
sg354
F26.0
sg355
VDEC 28, 1990
p1637
sg357
V6-11
p1638
sg359
VJohn Henson
p1639
sg361
I1610612749
sg362
V31
p1640
sg364
g19
sg365
V00
p1641
sg367
VF-C
p1642
sg368
I203089
ssI203090
(dp1643
g650
VSt. John's (NY)
p1644
sg652
V220
p1645
sg654
V2017
p1646
sg656
F24.0
sg657
VMAY 11, 1993
p1647
sg659
V6-9
p1648
sg661
VMaurice Harkless
p1649
sg663
I1610612757
sg664
g617
sg665
g19
sg666
V00
p1650
sg668
g133
sg670
I203090
ssI203092
(dp1651
g232
VNorth Carolina
p1652
sg234
V250
p1653
sg236
V2017
p1654
sg238
F27.0
sg239
VJAN 17, 1990
p1655
sg241
V7-0
p1656
sg243
VTyler Zeller
p1657
sg245
I1610612751
sg246
V44
p1658
sg247
g19
sg248
V00
p1659
sg250
g70
sg251
I203092
ssI1628503
(dp1660
g2
VPittsburgh
p1661
sg4
V213
p1662
sg6
V2017
p1663
sg8
F24.0
sg9
VJAN 12, 1993
p1664
sg11
V6-7
p1665
sg13
VJamel Artis
p1666
sg15
I1610612753
sg16
g87
sg18
g556
sg20
V00
p1667
sg22
g47
sg24
I1628503
ssI1628506
(dp1668
g778
VVirginia
p1669
sg780
V190
p1670
sg782
V2017
p1671
sg784
F23.0
sg785
VOCT 03, 1994
p1672
sg787
V6-2
p1673
sg789
VLondon Perrantes
p1674
sg791
I1610612739
sg792
V15
p1675
sg794
g556
sg795
V00
p1676
sg797
g47
sg798
I1628506
ssI203101
(dp1677
g1043
VDuke
p1678
sg1045
V249
p1679
sg1047
V2017
p1680
sg1049
F29.0
sg1050
VSEP 01, 1988
p1681
sg1052
V6-11
p1682
sg1054
VMiles Plumlee
p1683
sg1056
I1610612737
sg1057
V18
p1684
sg1059
g19
sg1060
V00
p1685
sg1062
g70
sg1064
I203101
ssI2403
(dp1686
g620
VSao Carlos, Brazil
p1687
sg622
V250
p1688
sg624
V2017
p1689
sg626
F35.0
sg627
VSEP 13, 1982
p1690
sg629
V6-11
p1691
sg631
VNene
p1692
sg633
I1610612745
sg634
V42
p1693
sg635
V15
p1694
sg637
V00
p1695
sg639
VC-F
p1696
sg640
I2403
ssI203109
(dp1697
g778
VMarquette
p1698
sg780
V235
p1699
sg782
V2017
p1700
sg784
F27.0
sg785
VJUL 06, 1990
p1701
sg787
V6-6
p1702
sg789
VJae Crowder
p1703
sg791
I1610612739
sg792
V99
p1704
sg794
g19
sg795
V00
p1705
sg797
g133
sg798
I203109
ssI203110
(dp1706
g490
VMichigan State
p1707
sg492
V230
p1708
sg494
V2017
p1709
sg496
F27.0
sg497
VMAR 04, 1990
p1710
sg499
V6-7
p1711
sg501
VDraymond Green
p1712
sg503
I1610612744
sg504
V23
p1713
sg505
g19
sg506
V00
p1714
sg508
g133
sg509
I203110
ssI203112
(dp1715
g232
VBaylor
p1716
sg234
V240
p1717
sg236
V2017
p1718
sg238
F27.0
sg239
VOCT 06, 1990
p1719
sg241
V6-7
p1720
sg243
VQuincy Acy
p1721
sg245
I1610612751
sg246
V13
p1722
sg247
g19
sg248
V00
p1723
sg250
g133
sg251
I203112
ssI203114
(dp1724
g348
VTexas A&M
p1725
sg350
V234
p1726
sg352
V2017
p1727
sg354
F26.0
sg355
VAUG 12, 1991
p1728
sg357
V6-8
p1729
sg359
VKhris Middleton
p1730
sg361
I1610612749
sg362
V22
p1731
sg364
g19
sg365
V00
p1732
sg367
g133
sg368
I203114
ssI203115
(dp1733
g73
VMemphis
p1734
sg74
V190
p1735
sg76
V2017
p1736
sg78
F26.0
sg79
VJAN 06, 1991
p1737
sg81
V6-6
p1738
sg83
VWill Barton
p1739
sg85
I1610612743
sg86
g19
sg88
g19
sg89
V00
p1740
sg91
VG-F
p1741
sg92
I203115
ssI203118
(dp1742
g326
VVirginia
p1743
sg328
V237
p1744
sg330
V2017
p1745
sg332
F29.0
sg333
VJUL 16, 1988
p1746
sg335
V6-8
p1747
sg337
VMike Scott
p1748
sg339
I1610612764
sg340
V30
p1749
sg342
g19
sg343
V00
p1750
sg345
g133
sg346
I203118
ssI200765
(dp1751
g1223
VKentucky
p1752
sg1225
V186
p1753
sg1227
V2017
p1754
sg1229
F31.0
sg1230
VFEB 22, 1986
p1755
sg1232
V6-1
p1756
sg1234
VRajon Rondo
p1757
sg1236
I1610612740
sg1237
g937
sg1239
V11
p1758
sg1240
V00
p1759
sg1242
g47
sg1243
I200765
ssI203121
(dp1760
g1223
VKentucky
p1761
sg1225
V225
p1762
sg1227
V2017
p1763
sg1229
F27.0
sg1230
VMAR 21, 1990
p1764
sg1232
V6-8
p1765
sg1234
VDarius Miller
p1766
sg1236
I1610612740
sg1237
V21
p1767
sg1239
g131
sg1240
V00
p1768
sg1242
g133
sg1243
I203121
ssI203124
(dp1769
g672
VNorfolk State
p1770
sg674
V250
p1771
sg676
V2017
p1772
sg678
F27.0
sg679
VMAR 26, 1990
p1773
sg681
V6-10
p1774
sg683
VKyle O'Quinn
p1775
sg685
I1610612752
sg686
g937
sg688
g19
sg689
V00
p1776
sg691
VC-F
p1777
sg692
I203124
ssI203141
(dp1778
g348
VBosnia
p1779
sg350
V242
p1780
sg352
V2017
p1781
sg354
F32.0
sg355
VSEP 17, 1985
p1782
sg357
V6-9
p1783
sg359
VMirza Teletovic
p1784
sg361
I1610612749
sg362
V35
p1785
sg364
g19
sg365
V00
p1786
sg367
g133
sg368
I203141
ssI203145
(dp1787
g1043
VOld Dominion
p1788
sg1045
V201
p1789
sg1047
V2017
p1790
sg1049
F28.0
sg1050
VJUL 01, 1989
p1791
sg1052
V6-5
p1792
sg1054
VKent Bazemore
p1793
sg1056
I1610612737
sg1057
V24
p1794
sg1059
g19
sg1060
V00
p1795
sg1062
g47
sg1064
I203145
ssI203506
(dp1796
g436
VIndiana
p1797
sg438
V210
p1798
sg440
V2017
p1799
sg442
F25.0
sg443
VMAY 04, 1992
p1800
sg445
V6-4
p1801
sg447
VVictor Oladipo
p1802
sg449
I1610612754
sg450
g617
sg452
g617
sg453
V00
p1803
sg455
g47
sg456
I203506
ssI203186
(dp1804
g135
VSaint Louis
p1805
sg137
V245
p1806
sg139
V2017
p1807
sg141
F27.0
sg142
VMAY 16, 1990
p1808
sg144
V6-11
p1809
sg146
VWillie Reed
p1810
sg148
I1610612746
sg149
V35
p1811
sg150
g43
sg151
V00
p1812
sg153
g70
sg155
I203186
ssI201142
(dp1813
g490
VTexas
p1814
sg492
V240
p1815
sg494
V2017
p1816
sg496
F29.0
sg497
VSEP 29, 1988
p1817
sg499
V6-9
p1818
sg501
VKevin Durant
p1819
sg503
I1610612744
sg504
V35
p1820
sg505
V10
p1821
sg506
V00
p1822
sg508
g133
sg509
I201142
ssI201143
(dp1823
g571
VFlorida
p1824
sg573
V245
p1825
sg575
V2017
p1826
sg577
F31.0
sg578
VJUN 03, 1986
p1827
sg580
V6-10
p1828
sg582
VAl Horford
p1829
sg584
I1610612738
sg585
V42
p1830
sg587
V10
p1831
sg588
V00
p1832
sg590
VF-C
p1833
sg591
I201143
ssI201144
(dp1834
g157
VOhio State
p1835
sg159
V175
p1836
sg161
V2017
p1837
sg163
F30.0
sg164
VOCT 11, 1987
p1838
sg166
V6-1
p1839
sg168
VMike Conley
p1840
sg170
I1610612763
sg171
V11
p1841
sg172
V10
p1842
sg173
V00
p1843
sg175
g47
sg176
I201144
ssI201145
(dp1844
g778
VGeorgetown
p1845
sg780
V235
p1846
sg782
V2017
p1847
sg784
F31.0
sg785
VAUG 28, 1986
p1848
sg787
V6-9
p1849
sg789
VJeff Green
p1850
sg791
I1610612739
sg792
V32
p1851
sg794
g937
sg795
V00
p1852
sg797
g133
sg798
I201145
ssI201147
(dp1853
g720
VFlorida
p1854
sg722
V186
p1855
sg724
V2017
p1856
sg726
F31.0
sg727
VMAR 05, 1986
p1857
sg729
V6-9
p1858
sg731
VCorey Brewer
p1859
sg733
I1610612747
sg734
g131
sg735
V10
p1860
sg736
V00
p1861
sg738
g133
sg739
I201147
ssI201148
(dp1862
g157
VNorth Carolina
p1863
sg159
V235
p1864
sg161
V2017
p1865
sg163
F30.0
sg164
VOCT 05, 1987
p1866
sg166
V6-10
p1867
sg168
VBrandan Wright
p1868
sg170
I1610612763
sg171
V34
p1869
sg172
g937
sg173
V00
p1870
sg175
VF-C
p1871
sg176
I201148
ssI201149
(dp1872
g672
VFlorida
p1873
sg674
V230
p1874
sg676
V2017
p1875
sg678
F32.0
sg679
VFEB 25, 1985
p1876
sg681
V6-11
p1877
sg683
VJoakim Noah
p1878
sg685
I1610612752
sg686
V13
p1879
sg688
V10
p1880
sg689
V00
p1881
sg691
g70
sg692
I201149
ssI203200
(dp1882
g414
VWashington
p1883
sg416
V185
p1884
sg418
V2017
p1885
sg420
F28.0
sg421
VAPR 05, 1989
p1886
sg423
V6-6
p1887
sg425
VJustin Holiday
p1888
sg427
I1610612741
sg428
g229
sg430
g617
sg431
V00
p1889
sg433
g47
sg434
I203200
ssI201156
(dp1890
g490
VSouthern California
p1891
sg492
V210
p1892
sg494
V2017
p1893
sg496
F32.0
sg497
VJUN 01, 1985
p1894
sg499
V6-7
p1895
sg501
VNick Young
p1896
sg503
I1610612744
sg504
g636
sg505
V10
p1897
sg506
V00
p1898
sg508
VG-F
p1899
sg509
I201156
ssI201158
(dp1900
g1043
VBologna, Italy
p1901
sg1045
V210
p1902
sg1047
V2017
p1903
sg1049
F31.0
sg1050
VMAR 25, 1986
p1904
sg1052
V6-5
p1905
sg1054
VMarco Belinelli
p1906
sg1056
I1610612737
sg1057
g131
sg1059
V10
p1907
sg1060
V00
p1908
sg1062
VG-F
p1909
sg1064
I201158
ssI201160
(dp1910
g326
VColorado State
p1911
sg328
V240
p1912
sg330
V2017
p1913
sg332
F31.0
sg333
VMAR 02, 1986
p1914
sg335
V7-0
p1915
sg337
VJason Smith
p1916
sg339
I1610612764
sg340
V14
p1917
sg342
g937
sg343
V00
p1918
sg345
VF-C
p1919
sg346
I201160
ssI203210
(dp1920
g157
VAlabama
p1921
sg159
V227
p1922
sg161
V2017
p1923
sg163
F27.0
sg164
VJUN 21, 1990
p1924
sg166
V6-9
p1925
sg168
VJaMychal Green
p1926
sg170
I1610612763
sg171
g87
sg172
g131
sg173
V00
p1927
sg175
g133
sg176
I203210
ssI201163
(dp1928
g73
VDePaul
p1929
sg74
V225
p1930
sg76
V2017
p1931
sg78
F30.0
sg79
VMAY 10, 1987
p1932
sg81
V6-9
p1933
sg83
VWilson Chandler
p1934
sg85
I1610612743
sg86
V21
p1935
sg88
g937
sg89
V00
p1936
sg91
g133
sg92
I201163
ssI201166
(dp1937
g94
VOregon
p1938
sg96
V161
p1939
sg98
V2017
p1940
sg100
F32.0
sg101
VJAN 14, 1985
p1941
sg103
V6-0
p1942
sg105
VAaron Brooks
p1943
sg107
I1610612750
sg108
V30
p1944
sg110
g937
sg111
V00
p1945
sg113
g47
sg114
I201166
ssI201167
(dp1946
g2
VUCLA
p1947
sg4
V210
p1948
sg6
V2017
p1949
sg8
F32.0
sg9
VOCT 15, 1985
p1950
sg11
V6-5
p1951
sg13
VArron Afflalo
p1952
sg15
I1610612753
sg16
g617
sg18
V10
p1953
sg20
V00
p1954
sg22
g47
sg24
I201167
ssI101112
(dp1955
g778
VArizona
p1956
sg780
V255
p1957
sg782
V2017
p1958
sg784
F34.0
sg785
VMAY 17, 1983
p1959
sg787
V6-11
p1960
sg789
VChanning Frye
p1961
sg791
I1610612739
sg792
g65
sg794
V11
p1962
sg795
V00
p1963
sg797
g133
sg798
I101112
ssI201177
(dp1964
g809
VDuke
p1965
sg811
V240
p1966
sg813
V2017
p1967
sg815
F30.0
sg816
VFEB 28, 1987
p1968
sg818
V6-10
p1969
sg820
VJosh McRoberts
p1970
sg822
I1610612742
sg823
V13
p1971
sg824
V10
p1972
sg826
V00
p1973
sg828
VF-C
p1974
sg829
I201177
ssI201188
(dp1975
g157
VBarcelona, Spain
p1976
sg159
V255
p1977
sg161
V2017
p1978
sg163
F32.0
sg164
VJAN 29, 1985
p1979
sg166
V7-1
p1980
sg168
VMarc Gasol
p1981
sg170
I1610612763
sg171
V33
p1982
sg172
g937
sg173
V00
p1983
sg175
g70
sg176
I201188
ssI201196
(dp1984
g672
VNevada
p1985
sg674
V190
p1986
sg676
V2017
p1987
sg678
F31.0
sg679
VAPR 11, 1986
p1988
sg681
V6-3
p1989
sg683
VRamon Sessions
p1990
sg685
I1610612752
sg686
g109
sg688
V10
p1991
sg689
V00
p1992
sg691
g47
sg692
I201196
ssI2544
(dp1993
g778
VSt. Vincent-St. Mary HS (OH)
p1994
sg780
V250
p1995
sg782
V2017
p1996
sg784
F32.0
sg785
VDEC 30, 1984
p1997
sg787
V6-8
p1998
sg789
VLeBron James
p1999
sg791
I1610612739
sg792
V23
p2000
sg794
V14
p2001
sg795
V00
p2002
sg797
VF-G
p2003
sg798
I2544
ssI2546
(dp2004
g539
VSyracuse
p2005
sg541
V240
p2006
sg543
V2017
p2007
sg545
F33.0
sg546
VMAY 29, 1984
p2008
sg548
V6-8
p2009
sg550
VCarmelo Anthony
p2010
sg552
I1610612760
sg553
g229
sg555
V14
p2011
sg557
V00
p2012
sg559
g133
sg560
I2546
ssI2548
(dp2013
g778
VMarquette
p2014
sg780
V220
p2015
sg782
V2017
p2016
sg784
F35.0
sg785
VJAN 17, 1982
p2017
sg787
V6-4
p2018
sg789
VDwyane Wade
p2019
sg791
I1610612739
sg792
g937
sg794
V14
p2020
sg795
V00
p2021
sg797
g47
sg798
I2548
ssI2555
(dp2022
g539
VKansas
p2023
sg541
V255
p2024
sg543
V2017
p2025
sg545
F37.0
sg546
VOCT 26, 1980
p2026
sg548
V6-10
p2027
sg550
VNick Collison
p2028
sg552
I1610612760
sg553
g617
sg555
V13
p2029
sg557
V00
p2030
sg559
g133
sg560
I2555
ssI2561
(dp2031
g490
VXavier
p2032
sg492
V250
p2033
sg494
V2017
p2034
sg496
F37.0
sg497
VAUG 29, 1980
p2035
sg499
V6-9
p2036
sg501
VDavid West
p2037
sg503
I1610612744
sg504
g131
sg505
V14
p2038
sg506
V00
p2039
sg508
g133
sg509
I2561
ssI201229
(dp2040
g26
VCreighton
p2041
sg28
V240
p2042
sg30
V2017
p2043
sg32
F32.0
sg33
VJUN 01, 1985
p2044
sg35
V6-8
p2045
sg37
VAnthony Tolliver
p2046
sg39
I1610612765
sg40
V43
p2047
sg42
g937
sg44
V00
p2048
sg46
g133
sg48
I201229
ssI1626643
(dp2049
g50
VKansas State
p2050
sg52
V200
p2051
sg54
V2017
p2052
sg56
F28.0
sg57
VNOV 10, 1989
p2053
sg59
V6-1
p2054
sg61
VJacob Pullen
p2055
sg63
I1610612755
sg64
V00
p2056
sg66
g556
sg67
V00
p2057
sg69
g47
sg71
I1626643
ssI2585
(dp2058
g490
VTbilisi, Georgia
p2059
sg492
V270
p2060
sg494
V2017
p2061
sg496
F33.0
sg497
VFEB 10, 1984
p2062
sg499
V6-11
p2063
sg501
VZaza Pachulia
p2064
sg503
I1610612744
sg504
V27
p2065
sg505
V14
p2066
sg506
V00
p2067
sg508
g70
sg509
I2585
ssI1626202
(dp2068
g436
VOregon
p2069
sg438
V185
p2070
sg440
V2017
p2071
sg442
F25.0
sg443
VJUN 27, 1992
p2072
sg445
V6-2
p2073
sg447
VJoe Young
p2074
sg449
I1610612754
sg450
g131
sg452
g43
sg453
V00
p2075
sg455
g47
sg456
I1626202
ssI2594
(dp2076
g778
VCreighton
p2077
sg780
V212
p2078
sg782
V2017
p2079
sg784
F36.0
sg785
VMAR 17, 1981
p2080
sg787
V6-7
p2081
sg789
VKyle Korver
p2082
sg791
I1610612739
sg792
V26
p2083
sg794
V14
p2084
sg795
V00
p2085
sg797
g47
sg798
I2594
ssI2617
(dp2086
g272
VFlorida
p2087
sg274
V235
p2088
sg276
V2017
p2089
sg278
F37.0
sg279
VJUN 09, 1980
p2090
sg281
V6-8
p2091
sg283
VUdonis Haslem
p2092
sg285
I1610612748
sg286
V40
p2093
sg288
V14
p2094
sg289
V00
p2095
sg291
g133
sg292
I2617
ssI203107
(dp2096
g326
Nsg328
V210
p2097
sg330
V2017
p2098
sg332
F26.0
sg333
VOCT 30, 1991
p2099
sg335
V6-7
p2100
sg337
VTomas Satoransky
p2101
sg339
I1610612764
sg340
V31
p2102
sg342
g109
sg343
V00
p2103
sg345
VF-G
p2104
sg346
I203107
ssI203382
(dp2105
g571
VWashington State
p2106
sg573
V260
p2107
sg575
V2017
p2108
sg577
F30.0
sg578
VDEC 09, 1986
p2109
sg580
V6-10
p2110
sg582
VAron Baynes
p2111
sg584
I1610612738
sg585
V46
p2112
sg587
g19
sg588
V00
p2113
sg590
g70
sg591
I203382
ssI201152
(dp2114
g436
VGeorgia Tech
p2115
sg438
V230
p2116
sg440
V2017
p2117
sg442
F29.0
sg443
VJUN 21, 1988
p2118
sg445
V6-8
p2119
sg447
VThaddeus Young
p2120
sg449
I1610612754
sg450
V21
p2121
sg452
V10
p2122
sg453
V00
p2123
sg455
g133
sg456
I201152
ssI2733
(dp2124
g490
VPeoria Central HS (IL)
p2125
sg492
V192
p2126
sg494
V2017
p2127
sg496
F32.0
sg497
VSEP 11, 1985
p2128
sg499
V6-7
p2129
sg501
VShaun Livingston
p2130
sg503
I1610612744
sg504
V34
p2131
sg505
V12
p2132
sg506
V00
p2133
sg508
g47
sg509
I2733
ssI2734
(dp2134
g809
VWisconsin
p2135
sg811
V185
p2136
sg813
V2017
p2137
sg815
F34.0
sg816
VFEB 27, 1983
p2138
sg818
V6-3
p2139
sg820
VDevin Harris
p2140
sg822
I1610612742
sg823
V34
p2141
sg824
V13
p2142
sg826
V00
p2143
sg828
g47
sg829
I2734
ssI2736
(dp2144
g720
VDuke
p2145
sg722
V220
p2146
sg724
V2017
p2147
sg726
F32.0
sg727
VAPR 16, 1985
p2148
sg729
V6-9
p2149
sg731
VLuol Deng
p2150
sg733
I1610612747
sg734
g937
sg735
V13
p2151
sg736
V00
p2152
sg738
g133
sg739
I2736
ssI2738
(dp2153
g490
VArizona
p2154
sg492
V215
p2155
sg494
V2017
p2156
sg496
F33.0
sg497
VJAN 28, 1984
p2157
sg499
V6-6
p2158
sg501
VAndre Iguodala
p2159
sg503
I1610612744
sg504
g937
sg505
V13
p2160
sg506
V00
p2161
sg508
VG-F
p2162
sg509
I2738
ssI2744
(dp2163
g436
VPrentiss HS (MS)
p2164
sg438
V280
p2165
sg440
V2017
p2166
sg442
F32.0
sg443
VJAN 04, 1985
p2167
sg445
V6-10
p2168
sg447
VAl Jefferson
p2169
sg449
I1610612754
sg450
V25
p2170
sg452
V13
p2171
sg453
V00
p2172
sg455
g70
sg456
I2744
ssI2747
(dp2173
g778
VSt. Benedict's Prep (NJ)
p2174
sg780
V225
p2175
sg782
V2017
p2176
sg784
F32.0
sg785
VSEP 09, 1985
p2177
sg787
V6-6
p2178
sg789
VJR Smith
p2179
sg791
I1610612739
sg792
g19
sg794
V13
p2180
sg795
V00
p2181
sg797
VG-F
p2182
sg798
I2747
ssI2749
(dp2183
g1223
VSaint Joseph's
p2184
sg1225
V190
p2185
sg1227
V2017
p2186
sg1229
F35.0
sg1230
VFEB 09, 1982
p2187
sg1232
V6-0
p2188
sg1234
VJameer Nelson
p2189
sg1236
I1610612740
sg1237
V14
p2190
sg1239
V13
p2191
sg1240
V00
p2192
sg1242
g47
sg1243
I2749
ssI203457
(dp2193
g809
VKentucky
p2194
sg811
V220
p2195
sg813
V2017
p2196
sg815
F23.0
sg816
VAPR 10, 1994
p2197
sg818
V6-11
p2198
sg820
VNerlens Noel
p2199
sg822
I1610612742
sg823
g131
sg824
g131
sg826
V00
p2200
sg828
g70
sg829
I203457
ssI2754
(dp2201
g1223
VOklahoma State
p2202
sg1225
V213
p2203
sg1227
V2017
p2204
sg1229
F35.0
sg1230
VJAN 11, 1982
p2205
sg1232
V6-4
p2206
sg1234
VTony Allen
p2207
sg1236
I1610612740
sg1237
V24
p2208
sg1239
V13
p2209
sg1240
V00
p2210
sg1242
VG-F
p2211
sg1243
I2754
ssI203459
(dp2212
g232
VCalifornia
p2213
sg234
V215
p2214
sg236
V2017
p2215
sg238
F25.0
sg239
VAPR 09, 1992
p2216
sg241
V6-6
p2217
sg243
VAllen Crabbe
p2218
sg245
I1610612751
sg246
V33
p2219
sg247
g617
sg248
V00
p2220
sg250
VG-F
p2221
sg251
I203459
ssI203460
(dp2222
g539
VColorado
p2223
sg541
V210
p2224
sg543
V2017
p2225
sg545
F25.0
sg546
VDEC 04, 1991
p2226
sg548
V6-7
p2227
sg550
VAndre Roberson
p2228
sg552
I1610612760
sg553
V21
p2229
sg555
g617
sg557
V00
p2230
sg559
g47
sg560
I203460
ssI203463
(dp2231
g157
VKansas
p2232
sg159
V195
p2233
sg161
V2017
p2234
sg163
F24.0
sg164
VFEB 11, 1993
p2235
sg166
V6-5
p2236
sg168
VBen McLemore
p2237
sg170
I1610612763
sg171
V23
p2238
sg172
g617
sg173
V00
p2239
sg175
g47
sg176
I203463
ssI203464
(dp2240
g200
Nsg202
V200
p2241
sg204
V2017
p2242
sg206
F26.0
sg207
VAPR 30, 1991
p2243
sg209
V6-4
p2244
sg211
VBrandon Paul
p2245
sg213
I1610612759
sg214
g131
sg216
g556
sg218
V00
p2246
sg220
g47
sg221
I203464
ssI203468
(dp2247
g650
VLehigh
p2248
sg652
V190
p2249
sg654
V2017
p2250
sg656
F26.0
sg657
VSEP 19, 1991
p2251
sg659
V6-3
p2252
sg661
VCJ McCollum
p2253
sg663
I1610612757
sg664
g131
sg665
g617
sg666
V00
p2254
sg668
g47
sg670
I203468
ssI203471
(dp2255
g1043
VGermany
p2256
sg1045
V172
p2257
sg1047
V2017
p2258
sg1049
F24.0
sg1050
VSEP 15, 1993
p2259
sg1052
V6-1
p2260
sg1054
VDennis Schroder
p2261
sg1056
I1610612737
sg1057
V17
p2262
sg1059
g617
sg1060
V00
p2263
sg1062
g47
sg1064
I203471
ssI203473
(dp2264
g1043
VSouthern California
p2265
sg1045
V245
p2266
sg1047
V2017
p2267
sg1049
F28.0
sg1050
VAUG 12, 1989
p2268
sg1052
V7-0
p2269
sg1054
VDewayne Dedmon
p2270
sg1056
I1610612737
sg1057
V14
p2271
sg1059
g617
sg1060
V00
p2272
sg1062
g70
sg1064
I203473
ssI2772
(dp2273
g620
VUCLA
p2274
sg622
V215
p2275
sg624
V2017
p2276
sg626
F32.0
sg627
VJUN 30, 1985
p2277
sg629
V6-8
p2278
sg631
VTrevor Ariza
p2279
sg633
I1610612745
sg634
g109
sg635
V13
p2280
sg637
V00
p2281
sg639
VF-G
p2282
sg640
I2772
ssI203481
(dp2283
g809
VKansas
p2284
sg811
V230
p2285
sg813
V2017
p2286
sg815
F27.0
sg816
VMAR 07, 1990
p2287
sg818
V7-0
p2288
sg820
VJeff Withey
p2289
sg822
I1610612742
sg823
V17
p2290
sg824
g617
sg826
V00
p2291
sg828
g70
sg829
I203481
ssI203482
(dp2292
g272
VGonzaga
p2293
sg274
V245
p2294
sg276
V2017
p2295
sg278
F26.0
sg279
VAPR 19, 1991
p2296
sg281
V7-0
p2297
sg283
VKelly Olynyk
p2298
sg285
I1610612748
sg286
g937
sg288
g617
sg289
V00
p2299
sg291
VC-F
p2300
sg292
I203482
ssI203484
(dp2301
g720
VGeorgia
p2302
sg722
V205
p2303
sg724
V2017
p2304
sg726
F24.0
sg727
VFEB 18, 1993
p2305
sg729
V6-5
p2306
sg731
VKentavious Caldwell-Pope
p2307
sg733
I1610612747
sg734
g109
sg735
g617
sg736
V00
p2308
sg738
g47
sg739
I203484
ssI203485
(dp2309
g178
VNorth Carolina State
p2310
sg180
V189
p2311
sg182
V2017
p2312
sg184
F27.0
sg185
VAUG 26, 1990
p2313
sg187
V6-5
p2314
sg189
VLorenzo Brown
p2315
sg191
I1610612761
sg192
g617
sg194
g131
sg195
V00
p2316
sg197
g47
sg198
I203485
ssI203486
(dp2317
g73
VDuke
p2318
sg74
V255
p2319
sg76
V2017
p2320
sg78
F27.0
sg79
VMAR 05, 1990
p2321
sg81
V6-11
p2322
sg83
VMason Plumlee
p2323
sg85
I1610612743
sg86
V24
p2324
sg88
g617
sg89
V00
p2325
sg91
VC-F
p2326
sg92
I203486
ssI203488
(dp2327
g1043
VBucknell
p2328
sg1045
V240
p2329
sg1047
V2017
p2330
sg1049
F26.0
sg1050
VJUL 01, 1991
p2331
sg1052
V6-11
p2332
sg1054
VMike Muscala
p2333
sg1056
I1610612737
sg1057
V31
p2334
sg1059
g617
sg1060
V00
p2335
sg1062
VF-C
p2336
sg1064
I203488
ssI203489
(dp2337
g391
VSouth Dakota State
p2338
sg393
V190
p2339
sg395
V2017
p2340
sg397
F26.0
sg398
VMAY 15, 1991
p2341
sg400
V6-4
p2342
sg402
VNate Wolters
p2343
sg404
I1610612762
sg405
V16
p2344
sg407
g43
sg409
V00
p2345
sg411
g47
sg412
I203489
ssI203490
(dp2346
g326
VGeorgetown
p2347
sg328
V198
p2348
sg330
V2017
p2349
sg332
F24.0
sg333
VJUN 03, 1993
p2350
sg335
V6-8
p2351
sg337
VOtto Porter Jr.
p2352
sg339
I1610612764
sg340
V22
p2353
sg342
g617
sg343
V00
p2354
sg345
g133
sg346
I203490
ssI203493
(dp2355
g26
VNorth Carolina
p2356
sg28
V205
p2357
sg30
V2017
p2358
sg32
F26.0
sg33
VMAR 16, 1991
p2359
sg35
V6-7
p2360
sg37
VReggie Bullock
p2361
sg39
I1610612765
sg40
V25
p2362
sg42
g617
sg44
V00
p2363
sg46
g133
sg48
I203493
ssI203496
(dp2364
g50
VTennessee State
p2365
sg52
V225
p2366
sg54
V2017
p2367
sg56
F26.0
sg57
VDEC 14, 1990
p2368
sg59
V6-9
p2369
sg61
VRobert Covington
p2370
sg63
I1610612755
sg64
V33
p2371
sg66
g617
sg67
V00
p2372
sg69
g133
sg71
I203496
ssI203497
(dp2373
g391
VFrance
p2374
sg393
V245
p2375
sg395
V2017
p2376
sg397
F25.0
sg398
VJUN 26, 1992
p2377
sg400
V7-1
p2378
sg402
VRudy Gobert
p2379
sg404
I1610612762
sg405
V27
p2380
sg407
g617
sg409
V00
p2381
sg411
g70
sg412
I203497
ssI203498
(dp2382
g94
VUCLA
p2383
sg96
V221
p2384
sg98
V2017
p2385
sg100
F24.0
sg101
VNOV 13, 1992
p2386
sg103
V6-6
p2387
sg105
VShabazz Muhammad
p2388
sg107
I1610612750
sg108
V15
p2389
sg110
g617
sg111
V00
p2390
sg113
VG-F
p2391
sg114
I203498
ssI203499
(dp2392
g571
VMiami (FL)
p2393
sg573
V175
p2394
sg575
V2017
p2395
sg577
F25.0
sg578
VOCT 02, 1992
p2396
sg580
V5-11
p2397
sg582
VShane Larkin
p2398
sg584
I1610612738
sg585
g65
sg587
g131
sg588
V00
p2399
sg590
g47
sg591
I203499
ssI203500
(dp2400
g539
VPittsburgh
p2401
sg541
V255
p2402
sg543
V2017
p2403
sg545
F24.0
sg546
VJUL 20, 1993
p2404
sg548
V7-0
p2405
sg550
VSteven Adams
p2406
sg552
I1610612760
sg553
V12
p2407
sg555
g617
sg557
V00
p2408
sg559
g70
sg560
I203500
ssI203501
(dp2409
g672
VMichigan
p2410
sg674
V205
p2411
sg676
V2017
p2412
sg678
F25.0
sg679
VMAR 16, 1992
p2413
sg681
V6-6
p2414
sg683
VTim Hardaway Jr.
p2415
sg685
I1610612752
sg686
g131
sg688
g617
sg689
V00
p2416
sg691
VF-G
p2417
sg692
I203501
ssI203503
(dp2418
g348
VNew Mexico
p2419
sg350
V221
p2420
sg352
V2017
p2421
sg354
F26.0
sg355
VNOV 10, 1991
p2422
sg357
V6-7
p2423
sg359
VTony Snell
p2424
sg361
I1610612749
sg362
V21
p2425
sg364
g617
sg365
V00
p2426
sg367
g47
sg368
I203503
ssI203505
(dp2427
g720
VMarquette
p2428
sg722
V200
p2429
sg724
V2017
p2430
sg726
F25.0
sg727
VJUL 17, 1992
p2431
sg729
V6-5
p2432
sg731
VVander Blue
p2433
sg733
I1610612747
sg734
V17
p2434
sg735
g43
sg736
V00
p2435
sg738
g47
sg739
I203505
ssI101106
(dp2436
g720
VUtah
p2437
sg722
V260
p2438
sg724
V2017
p2439
sg726
F32.0
sg727
VNOV 28, 1984
p2440
sg729
V7-0
p2441
sg731
VAndrew Bogut
p2442
sg733
I1610612747
sg734
V66
p2443
sg735
V12
p2444
sg736
V00
p2445
sg738
g70
sg739
I101106
ssI203507
(dp2446
g348
VGreece
p2447
sg350
V222
p2448
sg352
V2017
p2449
sg354
F22.0
sg355
VDEC 06, 1994
p2450
sg357
V6-11
p2451
sg359
VGiannis Antetokounmpo
p2452
sg361
I1610612749
sg362
V34
p2453
sg364
g617
sg365
V00
p2454
sg367
g133
sg368
I203507
ssI101108
(dp2455
g620
VWake Forest
p2456
sg622
V175
p2457
sg624
V2017
p2458
sg626
F32.0
sg627
VMAY 06, 1985
p2459
sg629
V6-0
p2460
sg631
VChris Paul
p2461
sg633
I1610612745
sg634
g131
sg635
V12
p2462
sg637
V00
p2463
sg639
g47
sg640
I101108
ssI101109
(dp2464
g539
VNorth Carolina
p2465
sg541
V205
p2466
sg543
V2017
p2467
sg545
F33.0
sg546
VJUN 26, 1984
p2468
sg548
V6-1
p2469
sg550
VRaymond Felton
p2470
sg552
I1610612760
sg553
g43
sg555
V12
p2471
sg557
V00
p2472
sg559
g47
sg560
I101109
ssI203512
(dp2473
g178
Nsg180
V220
p2474
sg182
V2017
p2475
sg184
F25.0
sg185
VJUL 26, 1992
p2476
sg187
V7-0
p2477
sg189
VLucas Nogueira
p2478
sg191
I1610612761
sg192
V92
p2479
sg194
g131
sg195
V00
p2480
sg197
g70
sg198
I203512
ssI203516
(dp2481
g157
VLong Beach State
p2482
sg159
V210
p2483
sg161
V2017
p2484
sg163
F27.0
sg164
VJUL 01, 1990
p2485
sg166
V6-7
p2486
sg168
VJames Ennis III
p2487
sg170
I1610612763
sg171
g65
sg172
g131
sg173
V00
p2488
sg175
g133
sg176
I203516
ssI203518
(dp2489
g539
Nsg541
V190
p2490
sg543
V2017
p2491
sg545
F24.0
sg546
VAUG 01, 1993
p2492
sg548
V6-6
p2493
sg550
VAlex Abrines
p2494
sg552
I1610612760
sg553
g65
sg555
g109
sg557
V00
p2495
sg559
g47
sg560
I203518
ssI203521
(dp2496
g348
VSaint Mary's (CA)
p2497
sg350
V198
p2498
sg352
V2017
p2499
sg354
F27.0
sg355
VSEP 08, 1990
p2500
sg357
V6-4
p2501
sg359
VMatthew Dellavedova
p2502
sg361
I1610612749
sg362
g65
sg364
g617
sg365
V00
p2503
sg367
g47
sg368
I203521
ssI203524
(dp2504
g1223
VArizona
p2505
sg1225
V225
p2506
sg1227
V2017
p2507
sg1229
F26.0
sg1230
VMAR 18, 1991
p2508
sg1232
V6-7
p2509
sg1234
VSolomon Hill
p2510
sg1236
I1610612740
sg1237
V44
p2511
sg1239
g617
sg1240
V00
p2512
sg1242
g133
sg1243
I203524
ssI203526
(dp2513
g391
Nsg393
V179
p2514
sg395
V2017
p2515
sg397
F25.0
sg398
VMAY 19, 1992
p2516
sg400
V6-1
p2517
sg402
VRaul Neto
p2518
sg404
I1610612762
sg405
V25
p2519
sg407
g43
sg409
V00
p2520
sg411
g47
sg412
I203526
ssI101127
(dp2521
g672
VGeorgia Tech
p2522
sg674
V200
p2523
sg676
V2017
p2524
sg678
F34.0
sg679
VOCT 28, 1983
p2525
sg681
V6-3
p2526
sg683
VJarrett Jack
p2527
sg685
I1610612752
sg686
V55
p2528
sg688
V12
p2529
sg689
V00
p2530
sg691
g47
sg692
I101127
ssI203530
(dp2531
g200
Nsg202
V260
p2532
sg204
V2017
p2533
sg206
F26.0
sg207
VSEP 30, 1991
p2534
sg209
V6-11
p2535
sg211
VJoffrey Lauvergne
p2536
sg213
I1610612759
sg214
V77
p2537
sg216
g131
sg218
V00
p2538
sg220
g70
sg221
I203530
ssI101133
(dp2539
g326
VRouen, France
p2540
sg328
V262
p2541
sg330
V2017
p2542
sg332
F31.0
sg333
VNOV 05, 1986
p2543
sg335
V6-11
p2544
sg337
VIan Mahinmi
p2545
sg339
I1610612764
sg340
V28
p2546
sg342
g937
sg343
V00
p2547
sg345
g70
sg346
I101133
ssI101139
(dp2548
g178
VSkyline HS (TX)
p2549
sg180
V225
p2550
sg182
V2017
p2551
sg184
F30.0
sg185
VMAR 18, 1987
p2552
sg187
V6-6
p2553
sg189
VCJ Miles
p2554
sg191
I1610612761
sg192
g87
sg194
V12
p2555
sg195
V00
p2556
sg197
VF-G
p2557
sg198
I101139
ssI101141
(dp2558
g1043
VEskisehir, Turkey
p2559
sg1045
V235
p2560
sg1047
V2017
p2561
sg1049
F30.0
sg1050
VMAY 15, 1987
p2562
sg1052
V6-10
p2563
sg1054
VErsan Ilyasova
p2564
sg1056
I1610612737
sg1057
g229
sg1059
g937
sg1060
V00
p2565
sg1062
g133
sg1064
I101141
ssI203546
(dp2566
g1223
VBelmont
p2567
sg1225
V175
p2568
sg1227
V2017
p2569
sg1229
F26.0
sg1230
VMAR 07, 1991
p2570
sg1232
V6-3
p2571
sg1234
VIan Clark
p2572
sg1236
I1610612740
sg1237
g43
sg1239
g617
sg1240
V00
p2573
sg1242
g47
sg1243
I203546
ssI203547
(dp2574
g391
VCampbell
p2575
sg393
V205
p2576
sg395
V2017
p2577
sg397
F27.0
sg398
VMAY 26, 1990
p2578
sg400
V6-8
p2579
sg402
VEric Griffin
p2580
sg404
I1610612762
sg405
V17
p2581
sg407
g556
sg409
V00
p2582
sg411
VC-F
p2583
sg412
I203547
ssI101150
(dp2584
g135
VSouth Gwinnett HS (GA)
p2585
sg137
V175
p2586
sg139
V2017
p2587
sg141
F31.0
sg142
VOCT 27, 1986
p2588
sg144
V6-1
p2589
sg146
VLou Williams
p2590
sg148
I1610612746
sg149
V23
p2591
sg150
V12
p2592
sg151
V00
p2593
sg153
g47
sg155
I101150
ssI203552
(dp2594
g809
VDuke
p2595
sg811
V185
p2596
sg813
V2017
p2597
sg815
F27.0
sg816
VAUG 23, 1990
p2598
sg818
V6-2
p2599
sg820
VSeth Curry
p2600
sg822
I1610612742
sg823
V30
p2601
sg824
g617
sg826
V00
p2602
sg828
g47
sg829
I203552
ssI101161
(dp2603
g50
VWestchester HS (Los Angeles)
p2604
sg52
V240
p2605
sg54
V2017
p2606
sg56
F30.0
sg57
VMAY 01, 1987
p2607
sg59
V6-9
p2608
sg61
VAmir Johnson
p2609
sg63
I1610612755
sg64
g19
sg66
V12
p2610
sg67
V00
p2611
sg69
VF-C
p2612
sg71
I101161
ssI101162
(dp2613
g326
VLodz, Poland
p2614
sg328
V240
p2615
sg330
V2017
p2616
sg332
F33.0
sg333
VFEB 17, 1984
p2617
sg335
V6-11
p2618
sg337
VMarcin Gortat
p2619
sg339
I1610612764
sg340
V13
p2620
sg342
V10
p2621
sg343
V00
p2622
sg345
g70
sg346
I101162
ssI2863
(dp2623
g436
VGeorgia
p2624
sg438
V217
p2625
sg440
V2017
p2626
sg442
F37.0
sg443
VJAN 11, 1980
p2627
sg445
V6-6
p2628
sg447
VDamien Wilkins
p2629
sg449
I1610612754
sg450
V12
p2630
sg452
g937
sg453
V00
p2631
sg455
VG-F
p2632
sg456
I2863
ssI101181
(dp2633
g778
VVillanueva de la Serena, Spain
p2634
sg780
V200
p2635
sg782
V2017
p2636
sg784
F36.0
sg785
VSEP 28, 1981
p2637
sg787
V6-3
p2638
sg789
VJose Calderon
p2639
sg791
I1610612739
sg792
V81
p2640
sg794
V12
p2641
sg795
V00
p2642
sg797
g47
sg798
I101181
ssI203584
(dp2643
g370
VVirginia Commonwealth
p2644
sg372
V205
p2645
sg374
V2017
p2646
sg376
F26.0
sg377
VJUL 15, 1991
p2647
sg379
V6-4
p2648
sg381
VTroy Daniels
p2649
sg383
I1610612756
sg384
V30
p2650
sg385
g617
sg386
V00
p2651
sg388
g47
sg389
I203584
ssI203585
(dp2652
g272
VKansas State
p2653
sg274
V200
p2654
sg276
V2017
p2655
sg278
F26.0
sg279
VJUL 29, 1991
p2656
sg281
V6-4
p2657
sg283
VRodney McGruder
p2658
sg285
I1610612748
sg286
V17
p2659
sg288
g109
sg289
V00
p2660
sg291
VG-F
p2661
sg292
I203585
ssI201563
(dp2662
g672
VKansas State
p2663
sg674
V235
p2664
sg676
V2017
p2665
sg678
F28.0
sg679
VJAN 09, 1989
p2666
sg681
V6-9
p2667
sg683
VMichael Beasley
p2668
sg685
I1610612752
sg686
g65
sg688
g937
sg689
V00
p2669
sg691
g133
sg692
I201563
ssI201565
(dp2670
g778
VMemphis
p2671
sg780
V190
p2672
sg782
V2017
p2673
sg784
F29.0
sg785
VOCT 04, 1988
p2674
sg787
V6-3
p2675
sg789
VDerrick Rose
p2676
sg791
I1610612739
sg792
g109
sg794
g65
sg795
V00
p2677
sg797
g47
sg798
I201565
ssI201566
(dp2678
g539
VUCLA
p2679
sg541
V200
p2680
sg543
V2017
p2681
sg545
F28.0
sg546
VNOV 12, 1988
p2682
sg548
V6-3
p2683
sg550
VRussell Westbrook
p2684
sg552
I1610612760
sg553
g87
sg555
g937
sg557
V00
p2685
sg559
g47
sg560
I201566
ssI201567
(dp2686
g778
VUCLA
p2687
sg780
V251
p2688
sg782
V2017
p2689
sg784
F29.0
sg785
VSEP 07, 1988
p2690
sg787
V6-10
p2691
sg789
VKevin Love
p2692
sg791
I1610612739
sg792
g87
sg794
g937
sg795
V00
p2693
sg797
VF-C
p2694
sg798
I201567
ssI201568
(dp2695
g135
VSant'Angelo Lodigiano, Italy
p2696
sg137
V225
p2697
sg139
V2017
p2698
sg141
F29.0
sg142
VAUG 08, 1988
p2699
sg144
V6-10
p2700
sg146
VDanilo Gallinari
p2701
sg148
I1610612746
sg149
g65
sg150
g65
sg151
V00
p2702
sg153
g133
sg155
I201568
ssI201569
(dp2703
g620
VIndiana
p2704
sg622
V215
p2705
sg624
V2017
p2706
sg626
F28.0
sg627
VDEC 25, 1988
p2707
sg629
V6-4
p2708
sg631
VEric Gordon
p2709
sg633
I1610612745
sg634
V10
p2710
sg635
g937
sg637
V00
p2711
sg639
g47
sg640
I201569
ssI201571
(dp2712
g2
VTexas
p2713
sg4
V183
p2714
sg6
V2017
p2715
sg8
F30.0
sg9
VNOV 10, 1987
p2716
sg11
V6-0
p2717
sg13
VD.J. Augustin
p2718
sg15
I1610612753
sg16
V14
p2719
sg18
g937
sg20
V00
p2720
sg22
g47
sg24
I201571
ssI201572
(dp2721
g720
VStanford
p2722
sg722
V268
p2723
sg724
V2017
p2724
sg726
F29.0
sg727
VAPR 01, 1988
p2725
sg729
V7-0
p2726
sg731
VBrook Lopez
p2727
sg733
I1610612747
sg734
V11
p2728
sg735
g937
sg736
V00
p2729
sg738
g70
sg739
I201572
ssI201573
(dp2730
g50
VArizona
p2731
sg52
V200
p2732
sg54
V2017
p2733
sg56
F29.0
sg57
VAUG 20, 1988
p2734
sg59
V6-3
p2735
sg61
VJerryd Bayless
p2736
sg63
I1610612755
sg64
g87
sg66
g937
sg67
V00
p2737
sg69
g47
sg71
I201573
ssI201577
(dp2738
g414
VStanford
p2739
sg416
V277
p2740
sg418
V2017
p2741
sg420
F29.0
sg421
VAPR 01, 1988
p2742
sg423
V7-0
p2743
sg425
VRobin Lopez
p2744
sg427
I1610612741
sg428
V42
p2745
sg430
g937
sg431
V00
p2746
sg433
g70
sg434
I201577
ssI201578
(dp2747
g2
VFlorida
p2748
sg4
V255
p2749
sg6
V2017
p2750
sg8
F30.0
sg9
VAUG 04, 1987
p2751
sg11
V6-10
p2752
sg13
VMarreese Speights
p2753
sg15
I1610612753
sg16
g19
sg18
g937
sg20
V00
p2754
sg22
VF-C
p2755
sg24
I201578
ssI201580
(dp2756
g490
VNevada
p2757
sg492
V270
p2758
sg494
V2017
p2759
sg496
F29.0
sg497
VJAN 19, 1988
p2760
sg499
V7-0
p2761
sg501
VJaVale McGee
p2762
sg503
I1610612744
sg504
g109
sg505
g937
sg506
V00
p2763
sg508
g70
sg509
I201580
ssI201582
(dp2764
g1223
VSaint Etienne, France
p2765
sg1225
V248
p2766
sg1227
V2017
p2767
sg1229
F29.0
sg1230
VMAY 06, 1988
p2768
sg1232
V7-2
p2769
sg1234
VAlexis Ajinca
p2770
sg1236
I1610612740
sg1237
V42
p2771
sg1239
g229
sg1240
V00
p2772
sg1242
g70
sg1243
I201582
ssI201583
(dp2773
g620
VCalifornia
p2774
sg622
V240
p2775
sg624
V2017
p2776
sg626
F29.0
sg627
VMAY 06, 1988
p2777
sg629
V6-10
p2778
sg631
VRyan Anderson
p2779
sg633
I1610612745
sg634
V33
p2780
sg635
g937
sg637
V00
p2781
sg639
g133
sg640
I201583
ssI201584
(dp2782
g672
VWestern Kentucky
p2783
sg674
V200
p2784
sg676
V2017
p2785
sg678
F32.0
sg679
VOCT 03, 1985
p2786
sg681
V6-5
p2787
sg683
VCourtney Lee
p2788
sg685
I1610612752
sg686
g19
sg688
g937
sg689
V00
p2789
sg691
g47
sg692
I201584
ssI201585
(dp2790
g304
VOhio State
p2791
sg306
V265
p2792
sg308
V2017
p2793
sg310
F28.0
sg311
VFEB 24, 1989
p2794
sg313
V7-0
p2795
sg315
VKosta Koufos
p2796
sg317
I1610612758
sg318
V41
p2797
sg320
g937
sg321
V00
p2798
sg323
g70
sg324
I201585
ssI201586
(dp2799
g178
VBrazzaville, Rep. of Congo
p2800
sg180
V235
p2801
sg182
V2017
p2802
sg184
F28.0
sg185
VSEP 18, 1989
p2803
sg187
V6-10
p2804
sg189
VSerge Ibaka
p2805
sg191
I1610612761
sg192
g937
sg194
g65
sg195
V00
p2806
sg197
g133
sg198
I201586
ssI201588
(dp2807
g304
VIndiana Purdue-Indianapolis
p2808
sg306
V188
p2809
sg308
V2017
p2810
sg310
F31.0
sg311
VMAY 04, 1986
p2811
sg313
V6-3
p2812
sg315
VGeorge Hill
p2813
sg317
I1610612758
sg318
g131
sg320
g937
sg321
V00
p2814
sg323
g47
sg324
I201588
ssI201589
(dp2815
g73
VKansas
p2816
sg74
V235
p2817
sg76
V2017
p2818
sg78
F29.0
sg79
VMAR 25, 1988
p2819
sg81
V6-9
p2820
sg83
VDarrell Arthur
p2821
sg85
I1610612743
sg86
V00
p2822
sg88
g65
sg89
V00
p2823
sg91
g133
sg92
I201589
ssI201596
(dp2824
g157
VKansas
p2825
sg159
V190
p2826
sg161
V2017
p2827
sg163
F31.0
sg164
VMAY 19, 1986
p2828
sg166
V6-2
p2829
sg168
VMario Chalmers
p2830
sg170
I1610612763
sg171
g636
sg172
g65
sg173
V00
p2831
sg175
g47
sg176
I201596
ssI201599
(dp2832
g135
VTexas A&M
p2833
sg137
V265
p2834
sg139
V2017
p2835
sg141
F29.0
sg142
VJUL 21, 1988
p2836
sg144
V6-11
p2837
sg146
VDeAndre Jordan
p2838
sg148
I1610612746
sg149
g636
sg150
g937
sg151
V00
p2839
sg153
g70
sg155
I201599
ssI201600
(dp2840
g1223
VTurkey
p2841
sg1225
V255
p2842
sg1227
V2017
p2843
sg1229
F31.0
sg1230
VJUL 04, 1986
p2844
sg1232
V7-0
p2845
sg1234
VOmer Asik
p2846
sg1236
I1610612740
sg1237
g131
sg1239
g229
sg1240
V00
p2847
sg1242
g70
sg1243
I201600
ssI201601
(dp2848
g620
VUCLA
p2849
sg622
V230
p2850
sg624
V2017
p2851
sg626
F31.0
sg627
VSEP 09, 1986
p2852
sg629
V6-8
p2853
sg631
VLuc Mbah a Moute
p2854
sg633
I1610612745
sg634
V12
p2855
sg635
g937
sg637
V00
p2856
sg639
g133
sg640
I201601
ssI201609
(dp2857
g272
VLjubljana, Slovenia
p2858
sg274
V190
p2859
sg276
V2017
p2860
sg278
F31.0
sg279
VMAY 06, 1986
p2861
sg281
V6-3
p2862
sg283
VGoran Dragic
p2863
sg285
I1610612748
sg286
g229
sg288
g937
sg289
V00
p2864
sg291
g47
sg292
I201609
ssI201628
(dp2865
g620
VCal State-Fullerton
p2866
sg622
V175
p2867
sg624
V2017
p2868
sg626
F33.0
sg627
VSEP 24, 1984
p2869
sg629
V6-2
p2870
sg631
VBobby Brown
p2871
sg633
I1610612745
sg634
g636
sg635
g131
sg637
V00
p2872
sg639
g47
sg640
I201628
ssI203705
(dp2873
g1043
VAlabama-Huntsville
p2874
sg1045
V160
p2875
sg1047
V2017
p2876
sg1049
F27.0
sg1050
VNOV 28, 1989
p2877
sg1052
V6-1
p2878
sg1054
VJosh Magette
p2879
sg1056
I1610612737
sg1057
V11
p2880
sg1059
g556
sg1060
V00
p2881
sg1062
g47
sg1064
I203705
ssI203710
(dp2882
g135
VNorth Carolina State
p2883
sg137
V230
p2884
sg139
V2017
p2885
sg141
F27.0
sg142
VFEB 06, 1990
p2886
sg144
V6-5
p2887
sg146
VC.J. Williams
p2888
sg148
I1610612746
sg149
g937
sg150
g556
sg151
V00
p2889
sg153
g47
sg155
I203710
ssI1627098
(dp2890
g1043
VVirginia Tech
p2891
sg1045
V190
p2892
sg1047
V2017
p2893
sg1049
F28.0
sg1050
VMAR 11, 1989
p2894
sg1052
V6-3
p2895
sg1054
VMalcolm Delaney
p2896
sg1056
I1610612737
sg1057
g19
sg1059
g109
sg1060
V00
p2897
sg1062
g47
sg1064
I1627098
ssI203613
(dp2898
g2
VHouston
p2899
sg4
V195
p2900
sg6
V2017
p2901
sg8
F28.0
sg9
VSEP 14, 1989
p2902
sg11
V6-6
p2903
sg13
VJonathon Simmons
p2904
sg15
I1610612753
sg16
V17
p2905
sg18
g43
sg20
V00
p2906
sg22
g133
sg24
I203613
ssI203894
(dp2907
g650
VConnecticut
p2908
sg652
V175
p2909
sg654
V2017
p2910
sg656
F26.0
sg657
VJUL 14, 1991
p2911
sg659
V6-1
p2912
sg661
VShabazz Napier
p2913
sg663
I1610612757
sg664
g636
sg665
g131
sg666
V00
p2914
sg668
g47
sg670
I203894
ssI203897
(dp2915
g414
VUCLA
p2916
sg416
V185
p2917
sg418
V2017
p2918
sg420
F22.0
sg421
VMAR 10, 1995
p2919
sg423
V6-5
p2920
sg425
VZach LaVine
p2921
sg427
I1610612741
sg428
g65
sg430
g131
sg431
V00
p2922
sg433
g47
sg434
I203897
ssI203898
(dp2923
g720
VSyracuse
p2924
sg722
V194
p2925
sg724
V2017
p2926
sg726
F23.0
sg727
VAUG 24, 1994
p2927
sg729
V6-3
p2928
sg731
VTyler Ennis
p2929
sg733
I1610612747
sg734
V10
p2930
sg735
g131
sg736
V00
p2931
sg738
g47
sg739
I203898
ssI203901
(dp2932
g2
VLouisiana-Lafayette
p2933
sg4
V185
p2934
sg6
V2017
p2935
sg8
F23.0
sg9
VFEB 22, 1994
p2936
sg11
V6-4
p2937
sg13
VElfrid Payton
p2938
sg15
I1610612753
sg16
g43
sg18
g131
sg20
V00
p2939
sg22
g47
sg24
I203901
ssI203903
(dp2940
g720
VMissouri
p2941
sg722
V194
p2942
sg724
V2017
p2943
sg726
F25.0
sg727
VJUN 07, 1992
p2944
sg729
V6-5
p2945
sg731
VJordan Clarkson
p2946
sg733
I1610612747
sg734
g636
sg735
g131
sg736
V00
p2947
sg738
g47
sg739
I203903
ssI203912
(dp2948
g650
VWashington
p2949
sg652
V195
p2950
sg654
V2017
p2951
sg656
F26.0
sg657
VDEC 30, 1990
p2952
sg659
V6-5
p2953
sg661
VCJ Wilcox
p2954
sg663
I1610612757
sg664
V23
p2955
sg665
g131
sg666
V00
p2956
sg668
g47
sg670
I203912
ssI203914
(dp2957
g73
VMichigan State
p2958
sg74
V210
p2959
sg76
V2017
p2960
sg78
F23.0
sg79
VSEP 14, 1994
p2961
sg81
V6-4
p2962
sg83
VGary Harris
p2963
sg85
I1610612743
sg86
V14
p2964
sg88
g131
sg89
V00
p2965
sg91
g47
sg92
I203914
ssI203915
(dp2966
g232
VColorado
p2967
sg234
V200
p2968
sg236
V2017
p2969
sg238
F24.0
sg239
VAPR 06, 1993
p2970
sg241
V6-6
p2971
sg243
VSpencer Dinwiddie
p2972
sg245
I1610612751
sg246
g65
sg247
g131
sg248
V00
p2973
sg250
g47
sg251
I203915
ssI203917
(dp2974
g50
VMichigan
p2975
sg52
V205
p2976
sg54
V2017
p2977
sg56
F24.0
sg57
VOCT 07, 1993
p2978
sg59
V6-6
p2979
sg61
VNik Stauskas
p2980
sg63
I1610612755
sg64
V11
p2981
sg66
g131
sg67
V00
p2982
sg69
g47
sg71
I203917
ssI203918
(dp2983
g391
VDuke
p2984
sg393
V206
p2985
sg395
V2017
p2986
sg397
F25.0
sg398
VOCT 20, 1992
p2987
sg400
V6-8
p2988
sg402
VRodney Hood
p2989
sg404
I1610612762
sg405
g19
sg407
g131
sg409
V00
p2990
sg411
g47
sg412
I203918
ssI203920
(dp2991
g2
VNevada-Las Vegas
p2992
sg4
V220
p2993
sg6
V2017
p2994
sg8
F25.0
sg9
VSEP 28, 1992
p2995
sg11
V6-9
p2996
sg13
VKhem Birch
p2997
sg15
I1610612753
sg16
V24
p2998
sg18
g556
sg20
V00
p2999
sg22
g70
sg24
I203920
ssI203922
(dp3000
g436
VMichigan
p3001
sg438
V215
p3002
sg440
V2017
p3003
sg442
F23.0
sg443
VJAN 08, 1994
p3004
sg445
V6-7
p3005
sg447
VGlenn Robinson III
p3006
sg449
I1610612754
sg450
V40
p3007
sg452
g131
sg453
V00
p3008
sg455
VG-F
p3009
sg456
I203922
ssI203924
(dp3010
g539
VSyracuse
p3011
sg541
V220
p3012
sg543
V2017
p3013
sg545
F23.0
sg546
VMAR 12, 1994
p3014
sg548
V6-9
p3015
sg550
VJerami Grant
p3016
sg552
I1610612760
sg553
g937
sg555
g131
sg557
V00
p3017
sg559
g133
sg560
I203924
ssI203925
(dp3018
g232
VVirginia
p3019
sg234
V219
p3020
sg236
V2017
p3021
sg238
F26.0
sg239
VSEP 06, 1991
p3022
sg241
V6-6
p3023
sg243
VJoe Harris
p3024
sg245
I1610612751
sg246
V12
p3025
sg247
g131
sg248
V00
p3026
sg250
g47
sg251
I203925
ssI203926
(dp3027
g672
VCreighton
p3028
sg674
V219
p3029
sg676
V2017
p3030
sg678
F25.0
sg679
VJAN 03, 1992
p3031
sg681
V6-8
p3032
sg683
VDoug McDermott
p3033
sg685
I1610612752
sg686
V20
p3034
sg688
g131
sg689
V00
p3035
sg691
g133
sg692
I203926
ssI203930
(dp3036
g232
VCincinnati
p3037
sg234
V212
p3038
sg236
V2017
p3039
sg238
F27.0
sg239
VJAN 06, 1990
p3040
sg241
V6-4
p3041
sg243
VSean Kilpatrick
p3042
sg245
I1610612751
sg246
g636
sg247
g131
sg248
V00
p3043
sg250
g47
sg251
I203930
ssI203932
(dp3044
g2
VArizona
p3045
sg4
V220
p3046
sg6
V2017
p3047
sg8
F22.0
sg9
VSEP 16, 1995
p3048
sg11
V6-9
p3049
sg13
VAaron Gordon
p3050
sg15
I1610612753
sg16
V00
p3051
sg18
g131
sg20
V00
p3052
sg22
g133
sg24
I203932
ssI203933
(dp3053
g370
VNorth Carolina State
p3054
sg372
V215
p3055
sg374
V2017
p3056
sg376
F24.0
sg377
VSEP 05, 1993
p3057
sg379
V6-8
p3058
sg381
VTJ Warren
p3059
sg383
I1610612756
sg384
V12
p3060
sg385
g131
sg386
V00
p3061
sg388
g133
sg389
I203933
ssI203935
(dp3062
g571
VOklahoma State
p3063
sg573
V220
p3064
sg575
V2017
p3065
sg577
F23.0
sg578
VMAR 06, 1994
p3066
sg580
V6-4
p3067
sg582
VMarcus Smart
p3068
sg584
I1610612738
sg585
V36
p3069
sg587
g131
sg588
V00
p3070
sg590
g47
sg591
I203935
ssI203937
(dp3071
g200
VUCLA
p3072
sg202
V230
p3073
sg204
V2017
p3074
sg206
F24.0
sg207
VSEP 20, 1993
p3075
sg209
V6-9
p3076
sg211
VKyle Anderson
p3077
sg213
I1610612759
sg214
g109
sg216
g131
sg218
V00
p3078
sg220
g133
sg221
I203937
ssI203939
(dp3079
g809
VStanford
p3080
sg811
V240
p3081
sg813
V2017
p3082
sg815
F26.0
sg816
VJUL 20, 1991
p3083
sg818
V6-11
p3084
sg820
VDwight Powell
p3085
sg822
I1610612742
sg823
g229
sg824
g131
sg826
V00
p3086
sg828
VF-C
p3087
sg829
I203939
ssI203940
(dp3088
g2
VMichigan State
p3089
sg4
V237
p3090
sg6
V2017
p3091
sg8
F26.0
sg9
VFEB 19, 1991
p3092
sg11
V6-10
p3093
sg13
VAdreian Payne
p3094
sg15
I1610612753
sg16
V33
p3095
sg18
g131
sg20
V00
p3096
sg22
g133
sg24
I203940
ssI203943
(dp3097
g650
VIndiana
p3098
sg652
V245
p3099
sg654
V2017
p3100
sg656
F22.0
sg657
VAUG 24, 1995
p3101
sg659
V6-9
p3102
sg661
VNoah Vonleh
p3103
sg663
I1610612757
sg664
V21
p3104
sg665
g131
sg666
V00
p3105
sg668
g133
sg670
I203943
ssI203944
(dp3106
g720
VKentucky
p3107
sg722
V250
p3108
sg724
V2017
p3109
sg726
F22.0
sg727
VNOV 29, 1994
p3110
sg729
V6-9
p3111
sg731
VJulius Randle
p3112
sg733
I1610612747
sg734
V30
p3113
sg735
g131
sg736
V00
p3114
sg738
VF-C
p3115
sg739
I203944
ssI203949
(dp3116
g50
VNorth Carolina
p3117
sg52
V230
p3118
sg54
V2017
p3119
sg56
F24.0
sg57
VJAN 04, 1993
p3120
sg59
V6-9
p3121
sg61
VJames Michael McAdoo
p3122
sg63
I1610612755
sg64
V14
p3123
sg66
g131
sg67
V00
p3124
sg69
g133
sg71
I203949
ssI203952
(dp3125
g94
VKansas
p3126
sg96
V202
p3127
sg98
V2017
p3128
sg100
F22.0
sg101
VFEB 23, 1995
p3129
sg103
V6-8
p3130
sg105
VAndrew Wiggins
p3131
sg107
I1610612750
sg108
V22
p3132
sg110
g131
sg111
V00
p3133
sg113
g133
sg114
I203952
ssI203953
(dp3134
g348
VDuke
p3135
sg350
V250
p3136
sg352
V2017
p3137
sg354
F22.0
sg355
VMAR 15, 1995
p3138
sg357
V6-8
p3139
sg359
VJabari Parker
p3140
sg361
I1610612749
sg362
V12
p3141
sg364
g131
sg365
V00
p3142
sg367
g133
sg368
I203953
ssI203954
(dp3143
g50
VKansas
p3144
sg52
V250
p3145
sg54
V2017
p3146
sg56
F23.0
sg57
VMAR 16, 1994
p3147
sg59
V7-0
p3148
sg61
VJoel Embiid
p3149
sg63
I1610612755
sg64
V21
p3150
sg66
g109
sg67
V00
p3151
sg69
g70
sg71
I203954
ssI203957
(dp3152
g391
Nsg393
V190
p3153
sg395
V2017
p3154
sg397
F22.0
sg398
VJUL 13, 1995
p3155
sg400
V6-6
p3156
sg402
VDante Exum
p3157
sg404
I1610612762
sg405
V11
p3158
sg407
g43
sg409
V00
p3159
sg411
g47
sg412
I203957
ssI203960
(dp3160
g304
VSt. John's (NY)
p3161
sg306
V207
p3162
sg308
V2017
p3163
sg310
F24.0
sg311
VMAR 20, 1993
p3164
sg313
V6-9
p3165
sg315
VJaKarr Sampson
p3166
sg317
I1610612758
sg318
V29
p3167
sg320
g43
sg321
V00
p3168
sg323
g133
sg324
I203960
ssI203961
(dp3169
g26
VOregon State
p3170
sg28
V238
p3171
sg30
V2017
p3172
sg32
F25.0
sg33
VDEC 24, 1991
p3173
sg35
V6-10
p3174
sg37
VEric Moreland
p3175
sg39
I1610612765
sg40
V24
p3176
sg42
g43
sg44
V00
p3177
sg46
VF-C
p3178
sg48
I203961
ssI203962
(dp3179
g539
VStanford
p3180
sg541
V230
p3181
sg543
V2017
p3182
sg545
F25.0
sg546
VDEC 19, 1991
p3183
sg548
V6-7
p3184
sg550
VJosh Huestis
p3185
sg552
I1610612760
sg553
V34
p3186
sg555
g43
sg557
V00
p3187
sg559
g133
sg560
I203962
ssI203966
(dp3188
g135
VMarquette
p3189
sg137
V229
p3190
sg139
V2017
p3191
sg141
F26.0
sg142
VNOV 21, 1990
p3192
sg144
V6-7
p3193
sg146
VJamil Wilson
p3194
sg148
I1610612746
sg149
V13
p3195
sg150
g556
sg151
V00
p3196
sg153
g133
sg155
I203966
ssI203967
(dp3197
g50
Nsg52
V223
p3198
sg54
V2017
p3199
sg56
F23.0
sg57
VAPR 08, 1994
p3200
sg59
V6-10
p3201
sg61
VDario Saric
p3202
sg63
I1610612755
sg64
g937
sg66
g109
sg67
V00
p3203
sg69
g133
sg71
I203967
ssI201933
(dp3204
g135
VOklahoma
p3205
sg137
V251
p3206
sg139
V2017
p3207
sg141
F28.0
sg142
VMAR 16, 1989
p3208
sg144
V6-10
p3209
sg146
VBlake Griffin
p3210
sg148
I1610612746
sg149
V32
p3211
sg150
g229
sg151
V00
p3212
sg153
g133
sg155
I201933
ssI201935
(dp3213
g620
VArizona State
p3214
sg622
V220
p3215
sg624
V2017
p3216
sg626
F28.0
sg627
VAUG 26, 1989
p3217
sg629
V6-5
p3218
sg631
VJames Harden
p3219
sg633
I1610612745
sg634
V13
p3220
sg635
g65
sg637
V00
p3221
sg639
g47
sg640
I201935
ssI201936
(dp3222
g157
VMemphis
p3223
sg159
V220
p3224
sg161
V2017
p3225
sg163
F28.0
sg164
VSEP 19, 1989
p3226
sg166
V6-6
p3227
sg168
VTyreke Evans
p3228
sg170
I1610612763
sg171
V12
p3229
sg172
g65
sg173
V00
p3230
sg175
VG-F
p3231
sg176
I201936
ssI201937
(dp3232
g391
VEl Masnou, Spain
p3233
sg393
V190
p3234
sg395
V2017
p3235
sg397
F27.0
sg398
VOCT 21, 1990
p3236
sg400
V6-4
p3237
sg402
VRicky Rubio
p3238
sg404
I1610612762
sg405
g131
sg407
g636
sg409
V00
p3239
sg411
g47
sg412
I201937
ssI201939
(dp3240
g490
VDavidson
p3241
sg492
V190
p3242
sg494
V2017
p3243
sg496
F29.0
sg497
VMAR 14, 1988
p3244
sg499
V6-3
p3245
sg501
VStephen Curry
p3246
sg503
I1610612744
sg504
V30
p3247
sg505
g65
sg506
V00
p3248
sg508
g47
sg509
I201939
ssI201942
(dp3249
g178
VSouthern California
p3250
sg180
V220
p3251
sg182
V2017
p3252
sg184
F28.0
sg185
VAUG 07, 1989
p3253
sg187
V6-7
p3254
sg189
VDeMar DeRozan
p3255
sg191
I1610612761
sg192
V10
p3256
sg194
g65
sg195
V00
p3257
sg197
g47
sg198
I201942
ssI203991
(dp3258
g620
Nsg622
V240
p3259
sg624
V2017
p3260
sg626
F23.0
sg627
VMAY 18, 1994
p3261
sg629
V6-10
p3262
sg631
VClint Capela
p3263
sg633
I1610612745
sg634
V15
p3264
sg635
g131
sg637
V00
p3265
sg639
g70
sg640
I203991
ssI203992
(dp3266
g304
Nsg306
V205
p3267
sg308
V2017
p3268
sg310
F25.0
sg311
VAUG 18, 1992
p3269
sg313
V6-6
p3270
sg315
VBogdan Bogdanovic
p3271
sg317
I1610612758
sg318
g65
sg320
g556
sg321
V00
p3272
sg323
g47
sg324
I203992
ssI203994
(dp3273
g650
Nsg652
V280
p3274
sg654
V2017
p3275
sg656
F23.0
sg657
VAUG 23, 1994
p3276
sg659
V7-0
p3277
sg661
VJusuf Nurkic
p3278
sg663
I1610612757
sg664
V27
p3279
sg665
g131
sg666
V00
p3280
sg668
g70
sg670
I203994
ssI201949
(dp3281
g272
VWake Forest
p3282
sg274
V240
p3283
sg276
V2017
p3284
sg278
F30.0
sg279
VFEB 20, 1987
p3285
sg281
V6-8
p3286
sg283
VJames Johnson
p3287
sg285
I1610612748
sg286
V16
p3288
sg288
g65
sg289
V00
p3289
sg291
g133
sg292
I201949
ssI201950
(dp3290
g1223
VUCLA
p3291
sg1225
V205
p3292
sg1227
V2017
p3293
sg1229
F27.0
sg1230
VJUN 12, 1990
p3294
sg1232
V6-4
p3295
sg1234
VJrue Holiday
p3296
sg1236
I1610612740
sg1237
V11
p3297
sg1239
g65
sg1240
V00
p3298
sg1242
g47
sg1243
I201950
ssI203999
(dp3299
g73
Nsg74
V250
p3300
sg76
V2017
p3301
sg78
F22.0
sg79
VFEB 19, 1995
p3302
sg81
V6-10
p3303
sg83
VNikola Jokic
p3304
sg85
I1610612743
sg86
V15
p3305
sg88
g43
sg89
V00
p3306
sg91
g70
sg92
I203999
ssI201952
(dp3307
g94
VWake Forest
p3308
sg96
V189
p3309
sg98
V2017
p3310
sg100
F29.0
sg101
VJUN 10, 1988
p3311
sg103
V6-2
p3312
sg105
VJeff Teague
p3313
sg107
I1610612750
sg108
g87
sg110
g65
sg111
V00
p3314
sg113
g47
sg114
I201952
ssI204001
(dp3315
g672
Nsg674
V240
p3316
sg676
V2017
p3317
sg678
F22.0
sg679
VAUG 02, 1995
p3318
sg681
V7-3
p3319
sg683
VKristaps Porzingis
p3320
sg685
I1610612752
sg686
g636
sg688
g43
sg689
V00
p3321
sg691
VF-C
p3322
sg692
I204001
ssI1627362
(dp3323
g620
VVirginia Commonwealth
p3324
sg622
V165
p3325
sg624
V2017
p3326
sg626
F24.0
sg627
VDEC 29, 1992
p3327
sg629
V6-2
p3328
sg631
VBriante Weber
p3329
sg633
I1610612745
sg634
g87
sg635
g43
sg637
V00
p3330
sg639
g47
sg640
I1627362
ssI201956
(dp3331
g490
VYavne, Israel
p3332
sg492
V225
p3333
sg494
V2017
p3334
sg496
F29.0
sg497
VJUN 22, 1988
p3335
sg499
V6-9
p3336
sg501
VOmri Casspi
p3337
sg503
I1610612744
sg504
V18
p3338
sg505
g65
sg506
V00
p3339
sg508
g133
sg509
I201956
ssI201959
(dp3340
g94
VSouthern California
p3341
sg96
V235
p3342
sg98
V2017
p3343
sg100
F32.0
sg101
VJUN 24, 1985
p3344
sg103
V6-9
p3345
sg105
VTaj Gibson
p3346
sg107
I1610612750
sg108
V67
p3347
sg110
g65
sg111
V00
p3348
sg113
g133
sg114
I201959
ssI201960
(dp3349
g232
VMissouri
p3350
sg234
V215
p3351
sg236
V2017
p3352
sg238
F31.0
sg239
VJUL 27, 1986
p3353
sg241
V6-8
p3354
sg243
VDeMarre Carroll
p3355
sg245
I1610612751
sg246
g937
sg247
g65
sg248
V00
p3356
sg250
g133
sg251
I201960
ssI201961
(dp3357
g272
VNorth Carolina
p3358
sg274
V200
p3359
sg276
V2017
p3360
sg278
F29.0
sg279
VNOV 29, 1987
p3361
sg281
V6-5
p3362
sg283
VWayne Ellington
p3363
sg285
I1610612748
sg286
g43
sg288
g65
sg289
V00
p3364
sg291
g47
sg292
I201961
ssI201967
(dp3365
g1223
VVillanova
p3366
sg1225
V230
p3367
sg1227
V2017
p3368
sg1229
F30.0
sg1230
VAPR 22, 1987
p3369
sg1232
V6-8
p3370
sg1234
VDante Cunningham
p3371
sg1236
I1610612740
sg1237
V33
p3372
sg1239
g65
sg1240
V00
p3373
sg1242
g133
sg1243
I201967
ssI204020
(dp3374
g272
VFresno State
p3375
sg274
V190
p3376
sg276
V2017
p3377
sg278
F25.0
sg279
VMAY 07, 1992
p3378
sg281
V6-4
p3379
sg283
VTyler Johnson
p3380
sg285
I1610612748
sg286
g65
sg288
g131
sg289
V00
p3381
sg291
g47
sg292
I204020
ssI201973
(dp3382
g391
VKinna, Sweden
p3383
sg393
V231
p3384
sg395
V2017
p3385
sg397
F30.0
sg398
VMAR 02, 1987
p3386
sg400
V6-10
p3387
sg402
VJonas Jerebko
p3388
sg404
I1610612762
sg405
g65
sg407
g229
sg409
V00
p3389
sg411
g133
sg412
I201973
ssI204022
(dp3390
g304
VNotre Dame
p3391
sg306
V274
p3392
sg308
V2017
p3393
sg310
F26.0
sg311
VAPR 12, 1991
p3394
sg313
V6-10
p3395
sg315
VJack Cooley
p3396
sg317
I1610612758
sg318
V45
p3397
sg320
g109
sg321
V00
p3398
sg323
g70
sg324
I204022
ssI201975
(dp3399
g326
VKentucky
p3400
sg328
V210
p3401
sg330
V2017
p3402
sg332
F30.0
sg333
VAUG 21, 1987
p3403
sg335
V6-4
p3404
sg337
VJodie Meeks
p3405
sg339
I1610612764
sg340
V20
p3406
sg342
g65
sg343
V00
p3407
sg345
g47
sg346
I201975
ssI201976
(dp3408
g135
VArkansas
p3409
sg137
V185
p3410
sg139
V2017
p3411
sg141
F29.0
sg142
VJUL 12, 1988
p3412
sg144
V6-1
p3413
sg146
VPatrick Beverley
p3414
sg148
I1610612746
sg149
V21
p3415
sg150
g19
sg151
V00
p3416
sg153
g47
sg155
I201976
ssI204025
(dp3417
g326
Nsg328
V170
p3418
sg330
V2017
p3419
sg332
F27.0
sg333
VNOV 01, 1990
p3420
sg335
V6-1
p3421
sg337
VTim Frazier
p3422
sg339
I1610612764
sg340
g65
sg342
g131
sg343
V00
p3423
sg345
g47
sg346
I204025
ssI201980
(dp3424
g200
VNorth Carolina
p3425
sg202
V215
p3426
sg204
V2017
p3427
sg206
F30.0
sg207
VJUN 22, 1987
p3428
sg209
V6-6
p3429
sg211
VDanny Green
p3430
sg213
I1610612759
sg214
V14
p3431
sg216
g65
sg218
V00
p3432
sg220
VG-F
p3433
sg221
I201980
ssI201988
(dp3434
g200
VSaint Mary's (CA)
p3435
sg202
V185
p3436
sg204
V2017
p3437
sg206
F29.0
sg207
VAUG 11, 1988
p3438
sg209
V6-0
p3439
sg211
VPatty Mills
p3440
sg213
I1610612759
sg214
g65
sg216
g65
sg218
V00
p3441
sg220
g47
sg221
I201988
ssI204038
(dp3442
g26
VSaint Joseph's
p3443
sg28
V200
p3444
sg30
V2017
p3445
sg32
F25.0
sg33
VDEC 09, 1991
p3446
sg35
V6-2
p3447
sg37
VLangston Galloway
p3448
sg39
I1610612765
sg40
g937
sg42
g131
sg44
V00
p3449
sg46
g47
sg48
I204038
ssI204060
(dp3450
g391
Nsg393
V226
p3451
sg395
V2017
p3452
sg397
F30.0
sg398
VOCT 02, 1987
p3453
sg400
V6-8
p3454
sg402
VJoe Ingles
p3455
sg404
I1610612762
sg405
g43
sg407
g131
sg409
V00
p3456
sg411
g133
sg412
I204060
ssI204066
(dp3457
g778
VBoston U.
p3458
sg780
V205
p3459
sg782
V2017
p3460
sg784
F29.0
sg785
VNOV 06, 1988
p3461
sg787
V6-5
p3462
sg789
VJohn Holland
p3463
sg791
I1610612739
sg792
V10
p3464
sg794
g109
sg795
V00
p3465
sg797
VG-F
p3466
sg798
I204066
ssI203998
(dp3467
g178
Nsg180
V205
p3468
sg182
V2017
p3469
sg184
F22.0
sg185
VSEP 21, 1995
p3470
sg187
V6-9
p3471
sg189
VBruno Caboclo
p3472
sg191
I1610612761
sg192
g19
sg194
g131
sg195
V00
p3473
sg197
g133
sg198
I203998
ssI201954
(dp3474
g436
VUCLA
p3475
sg438
V185
p3476
sg440
V2017
p3477
sg442
F30.0
sg443
VAUG 23, 1987
p3478
sg445
V6-2
p3479
sg447
VDarren Collison
p3480
sg449
I1610612754
sg450
g43
sg452
g65
sg453
V00
p3481
sg455
g47
sg456
I201954
ssI202066
(dp3482
g304
VLouisiana State
p3483
sg306
V195
p3484
sg308
V2017
p3485
sg310
F31.0
sg311
VMAY 08, 1986
p3486
sg313
V6-6
p3487
sg315
VGarrett Temple
p3488
sg317
I1610612758
sg318
V17
p3489
sg320
g229
sg321
V00
p3490
sg323
g47
sg324
I202066
ssI202083
(dp3491
g809
VMarquette
p3492
sg811
V220
p3493
sg813
V2017
p3494
sg815
F31.0
sg816
VOCT 14, 1986
p3495
sg818
V6-5
p3496
sg820
VWesley Matthews
p3497
sg822
I1610612742
sg823
V23
p3498
sg824
g65
sg826
V00
p3499
sg828
VG-F
p3500
sg829
I202083
ssI1628409
(dp3501
g370
VValparaiso
p3502
sg372
V235
p3503
sg374
V2017
p3504
sg376
F22.0
sg377
VAPR 13, 1995
p3505
sg379
V6-9
p3506
sg381
VAlec Peters
p3507
sg383
I1610612756
sg384
V25
p3508
sg385
g556
sg386
V00
p3509
sg388
g133
sg389
I1628409
ssI204028
(dp3510
g620
VKansas
p3511
sg622
V250
p3512
sg624
V2017
p3513
sg626
F25.0
sg627
VNOV 22, 1991
p3514
sg629
V6-9
p3515
sg631
VTarik Black
p3516
sg633
I1610612745
sg634
V28
p3517
sg635
g131
sg637
V00
p3518
sg639
VF-C
p3519
sg640
I204028
ssI202323
(dp3520
g650
VOhio State
p3521
sg652
V220
p3522
sg654
V2017
p3523
sg656
F29.0
sg657
VOCT 27, 1988
p3524
sg659
V6-7
p3525
sg661
VEvan Turner
p3526
sg663
I1610612757
sg664
g109
sg665
g229
sg666
V00
p3527
sg668
VG-F
p3528
sg670
I202323
ssI1627732
(dp3529
g50
VLouisiana State
p3530
sg52
V230
p3531
sg54
V2017
p3532
sg56
F21.0
sg57
VJUL 20, 1996
p3533
sg59
V6-10
p3534
sg61
VBen Simmons
p3535
sg63
I1610612755
sg64
V25
p3536
sg66
g556
sg67
V00
p3537
sg69
VG-F
p3538
sg71
I1627732
ssI1627733
(dp3539
g370
Nsg372
V225
p3540
sg374
V2017
p3541
sg376
F19.0
sg377
VNOV 17, 1997
p3542
sg379
V7-1
p3543
sg381
VDragan Bender
p3544
sg383
I1610612756
sg384
V35
p3545
sg385
g109
sg386
V00
p3546
sg388
g133
sg389
I1627733
ssI1627734
(dp3547
g436
VGonzaga
p3548
sg438
V252
p3549
sg440
V2017
p3550
sg442
F21.0
sg443
VMAY 03, 1996
p3551
sg445
V6-10
p3552
sg447
VDomantas Sabonis
p3553
sg449
I1610612754
sg450
V11
p3554
sg452
g109
sg453
V00
p3555
sg455
VC-F
p3556
sg456
I1627734
ssI1627735
(dp3557
g650
VVanderbilt
p3558
sg652
V202
p3559
sg654
V2017
p3560
sg656
F21.0
sg657
VMAR 29, 1996
p3561
sg659
V6-4
p3562
sg661
VWade Baldwin IV
p3563
sg663
I1610612757
sg664
g43
sg665
g109
sg666
V00
p3564
sg668
g47
sg670
I1627735
ssI202328
(dp3565
g370
VGeorgetown
p3566
sg372
V265
p3567
sg374
V2017
p3568
sg376
F27.0
sg377
VJUN 04, 1990
p3569
sg379
V6-11
p3570
sg381
VGreg Monroe
p3571
sg383
I1610612756
sg384
V14
p3572
sg385
g229
sg386
V00
p3573
sg388
VC-F
p3574
sg389
I202328
ssI1627737
(dp3575
g370
VWashington
p3576
sg372
V240
p3577
sg374
V2017
p3578
sg376
F20.0
sg377
VJUL 02, 1997
p3579
sg379
V6-10
p3580
sg381
VMarquese Chriss
p3581
sg383
I1610612756
sg384
g87
sg385
g109
sg386
V00
p3582
sg388
g133
sg389
I1627737
ssI202330
(dp3583
g571
VButler
p3584
sg573
V226
p3585
sg575
V2017
p3586
sg577
F27.0
sg578
VMAR 23, 1990
p3587
sg580
V6-8
p3588
sg582
VGordon Hayward
p3589
sg584
I1610612738
sg585
V20
p3590
sg587
g229
sg588
V00
p3591
sg590
g133
sg591
I202330
ssI202331
(dp3592
g539
VFresno State
p3593
sg541
V220
p3594
sg543
V2017
p3595
sg545
F27.0
sg546
VMAY 02, 1990
p3596
sg548
V6-9
p3597
sg550
VPaul George
p3598
sg552
I1610612760
sg553
V13
p3599
sg555
g229
sg557
V00
p3600
sg559
g133
sg560
I202331
ssI1627740
(dp3601
g26
VMarquette
p3602
sg28
V245
p3603
sg30
V2017
p3604
sg32
F20.0
sg33
VJAN 13, 1997
p3605
sg35
V6-11
p3606
sg37
VHenry Ellenson
p3607
sg39
I1610612765
sg40
g65
sg42
g109
sg44
V00
p3608
sg46
g133
sg48
I1627740
ssI202334
(dp3609
g650
VNorth Carolina
p3610
sg652
V245
p3611
sg654
V2017
p3612
sg656
F28.0
sg657
VJUN 05, 1989
p3613
sg659
V6-10
p3614
sg661
VEd Davis
p3615
sg663
I1610612757
sg664
V17
p3616
sg665
g229
sg666
V00
p3617
sg668
VF-C
p3618
sg670
I202334
ssI1627743
(dp3619
g620
VNotre Dame
p3620
sg622
V201
p3621
sg624
V2017
p3622
sg626
F23.0
sg627
VSEP 07, 1994
p3623
sg629
V6-1
p3624
sg631
VDemetrius Jackson
p3625
sg633
I1610612745
sg634
g43
sg635
g109
sg637
V00
p3626
sg639
g47
sg640
I1627743
ssI201162
(dp3627
g370
VBoston College
p3628
sg372
V240
p3629
sg374
V2017
p3630
sg376
F32.0
sg377
VJUL 10, 1985
p3631
sg379
V6-7
p3632
sg381
VJared Dudley
p3633
sg383
I1610612756
sg384
g131
sg385
V10
p3634
sg386
V00
p3635
sg388
g133
sg389
I201162
ssI1627745
(dp3636
g490
VVanderbilt
p3637
sg492
V245
p3638
sg494
V2017
p3639
sg496
F22.0
sg497
VJUN 30, 1995
p3640
sg499
V7-0
p3641
sg501
VDamian Jones
p3642
sg503
I1610612744
sg504
V15
p3643
sg505
g109
sg506
V00
p3644
sg508
g70
sg509
I1627745
ssI202322
(dp3645
g326
VKentucky
p3646
sg328
V210
p3647
sg330
V2017
p3648
sg332
F27.0
sg333
VSEP 06, 1990
p3649
sg335
V6-4
p3650
sg337
VJohn Wall
p3651
sg339
I1610612764
sg340
g43
sg342
g229
sg343
V00
p3652
sg345
g47
sg346
I202322
ssI1627747
(dp3653
g232
VMichigan
p3654
sg234
V203
p3655
sg236
V2017
p3656
sg238
F23.0
sg239
VAUG 25, 1994
p3657
sg241
V6-7
p3658
sg243
VCaris LeVert
p3659
sg245
I1610612751
sg246
V22
p3660
sg247
g109
sg248
V00
p3661
sg250
VG-F
p3662
sg251
I1627747
ssI202324
(dp3663
g391
VGeorgia Tech
p3664
sg393
V265
p3665
sg395
V2017
p3666
sg397
F26.0
sg398
VJUL 15, 1991
p3667
sg400
V6-10
p3668
sg402
VDerrick Favors
p3669
sg404
I1610612762
sg405
V15
p3670
sg407
g229
sg409
V00
p3671
sg411
VF-C
p3672
sg412
I202324
ssI202325
(dp3673
g135
VSyracuse
p3674
sg137
V215
p3675
sg139
V2017
p3676
sg141
F30.0
sg142
VJUL 11, 1987
p3677
sg144
V6-7
p3678
sg146
VWesley Johnson
p3679
sg148
I1610612746
sg149
V33
p3680
sg150
g229
sg151
V00
p3681
sg153
g133
sg155
I202325
ssI202326
(dp3682
g1223
VKentucky
p3683
sg1225
V270
p3684
sg1227
V2017
p3685
sg1229
F27.0
sg1230
VAUG 13, 1990
p3686
sg1232
V6-11
p3687
sg1234
VDeMarcus Cousins
p3688
sg1236
I1610612740
sg1237
g87
sg1239
g229
sg1240
V00
p3689
sg1242
g70
sg1243
I202326
ssI202327
(dp3690
g391
VBaylor
p3691
sg393
V245
p3692
sg395
V2017
p3693
sg397
F30.0
sg398
VMAY 20, 1987
p3694
sg400
V6-10
p3695
sg402
VEkpe Udoh
p3696
sg404
I1610612762
sg405
V33
p3697
sg407
g19
sg409
V00
p3698
sg411
VC-F
p3699
sg412
I202327
ssI1627736
(dp3700
g73
VFlorida State
p3701
sg74
V196
p3702
sg76
V2017
p3703
sg78
F20.0
sg79
VNOV 26, 1996
p3704
sg81
V6-5
p3705
sg83
VMalik Beasley
p3706
sg85
I1610612743
sg86
V25
p3707
sg88
g109
sg89
V00
p3708
sg91
g47
sg92
I1627736
ssI202329
(dp3709
g650
VWake Forest
p3710
sg652
V220
p3711
sg654
V2017
p3712
sg656
F27.0
sg657
VSEP 21, 1990
p3713
sg659
V6-9
p3714
sg661
VAl-Farouq Aminu
p3715
sg663
I1610612757
sg664
g65
sg665
g229
sg666
V00
p3716
sg668
g133
sg670
I202329
ssI1627738
(dp3717
g157
VMichigan State
p3718
sg159
V237
p3719
sg161
V2017
p3720
sg163
F20.0
sg164
VDEC 02, 1996
p3721
sg166
V6-11
p3722
sg168
VDeyonta Davis
p3723
sg170
I1610612763
sg171
V21
p3724
sg172
g109
sg173
V00
p3725
sg175
VC-F
p3726
sg176
I1627738
ssI1627739
(dp3727
g414
VProvidence
p3728
sg416
V210
p3729
sg418
V2017
p3730
sg420
F23.0
sg421
VMAR 18, 1994
p3731
sg423
V6-4
p3732
sg425
VKris Dunn
p3733
sg427
I1610612741
sg428
V32
p3734
sg430
g109
sg431
V00
p3735
sg433
g47
sg434
I1627739
ssI202332
(dp3736
g94
VKansas
p3737
sg96
V253
p3738
sg98
V2017
p3739
sg100
F29.0
sg101
VOCT 31, 1988
p3740
sg103
V6-11
p3741
sg105
VCole Aldrich
p3742
sg107
I1610612750
sg108
V45
p3743
sg110
g229
sg111
V00
p3744
sg113
g70
sg114
I202332
ssI1627741
(dp3745
g304
VOklahoma
p3746
sg306
V214
p3747
sg308
V2017
p3748
sg310
F23.0
sg311
VDEC 17, 1993
p3749
sg313
V6-4
p3750
sg315
VBuddy Hield
p3751
sg317
I1610612758
sg318
V24
p3752
sg320
g109
sg321
V00
p3753
sg323
g47
sg324
I1627741
ssI1627742
(dp3754
g720
VDuke
p3755
sg722
V190
p3756
sg724
V2017
p3757
sg726
F20.0
sg727
VSEP 02, 1997
p3758
sg729
V6-9
p3759
sg731
VBrandon Ingram
p3760
sg733
I1610612747
sg734
V14
p3761
sg735
g109
sg736
V00
p3762
sg738
VF-G
p3763
sg739
I1627742
ssI202335
(dp3764
g539
VKentucky
p3765
sg541
V230
p3766
sg543
V2017
p3767
sg545
F28.0
sg546
VMAR 14, 1989
p3768
sg548
V6-9
p3769
sg550
VPatrick Patterson
p3770
sg552
I1610612760
sg553
V54
p3771
sg555
g229
sg557
V00
p3772
sg559
g133
sg560
I202335
ssI1627744
(dp3773
g135
VNorth Carolina
p3774
sg137
V230
p3775
sg139
V2017
p3776
sg141
F23.0
sg142
VJUN 27, 1994
p3777
sg144
V6-10
p3778
sg146
VBrice Johnson
p3779
sg148
I1610612746
sg149
V11
p3780
sg150
g109
sg151
V00
p3781
sg153
g133
sg155
I1627744
ssI202337
(dp3782
g1043
VNevada
p3783
sg1045
V225
p3784
sg1047
V2017
p3785
sg1049
F28.0
sg1050
VJUN 20, 1989
p3786
sg1052
V6-9
p3787
sg1054
VLuke Babbitt
p3788
sg1056
I1610612737
sg1057
g65
sg1059
g229
sg1060
V00
p3789
sg1062
g133
sg1064
I202337
ssI1627746
(dp3790
g304
VKentucky
p3791
sg306
V225
p3792
sg308
V2017
p3793
sg310
F21.0
sg311
VMAR 18, 1996
p3794
sg313
V6-11
p3795
sg315
VSkal Labissiere
p3796
sg317
I1610612758
sg318
g229
sg320
g109
sg321
V00
p3797
sg323
VF-C
p3798
sg324
I1627746
ssI202339
(dp3799
g348
VKentucky
p3800
sg350
V205
p3801
sg352
V2017
p3802
sg354
F27.0
sg355
VDEC 09, 1989
p3803
sg357
V6-1
p3804
sg359
VEric Bledsoe
p3805
sg361
I1610612749
sg362
g636
sg364
g229
sg365
V00
p3806
sg367
g47
sg368
I202339
ssI1627748
(dp3807
g348
Nsg350
V223
p3808
sg352
V2017
p3809
sg354
F20.0
sg355
VFEB 25, 1997
p3810
sg357
V7-1
p3811
sg359
VThon Maker
p3812
sg361
I1610612749
sg362
g229
sg364
g109
sg365
V00
p3813
sg367
VC-F
p3814
sg368
I1627748
ssI1627749
(dp3815
g200
VWashington
p3816
sg202
V170
p3817
sg204
V2017
p3818
sg206
F21.0
sg207
VSEP 19, 1996
p3819
sg209
V6-5
p3820
sg211
VDejounte Murray
p3821
sg213
I1610612759
sg214
g19
sg216
g109
sg218
V00
p3822
sg220
g47
sg221
I1627749
ssI1627750
(dp3823
g73
VKentucky
p3824
sg74
V207
p3825
sg76
V2017
p3826
sg78
F20.0
sg79
VFEB 23, 1997
p3827
sg81
V6-4
p3828
sg83
VJamal Murray
p3829
sg85
I1610612743
sg86
V27
p3830
sg88
g109
sg89
V00
p3831
sg91
g47
sg92
I1627750
ssI1627751
(dp3832
g178
VUtah
p3833
sg180
V230
p3834
sg182
V2017
p3835
sg184
F22.0
sg185
VOCT 15, 1995
p3836
sg187
V7-0
p3837
sg189
VJakob Poeltl
p3838
sg191
I1610612761
sg192
V42
p3839
sg194
g109
sg195
V00
p3840
sg197
g70
sg198
I1627751
ssI1627752
(dp3841
g1043
VBaylor
p3842
sg1045
V220
p3843
sg1047
V2017
p3844
sg1049
F23.0
sg1050
VMAR 22, 1994
p3845
sg1052
V6-8
p3846
sg1054
VTaurean Prince
p3847
sg1056
I1610612737
sg1057
V12
p3848
sg1059
g109
sg1060
V00
p3849
sg1062
g133
sg1064
I1627752
ssI1627753
(dp3850
g620
Nsg622
V210
p3851
sg624
V2017
p3852
sg626
F21.0
sg627
VJAN 16, 1996
p3853
sg629
V7-1
p3854
sg631
VQi Qi
p3855
sg633
I1610612745
sg634
g937
sg635
g556
sg637
V00
p3856
sg639
VF-C
p3857
sg640
I1627753
ssI202347
(dp3858
g414
VWashington
p3859
sg416
V225
p3860
sg418
V2017
p3861
sg420
F29.0
sg421
VMAR 10, 1988
p3862
sg423
V6-7
p3863
sg425
VQuincy Pondexter
p3864
sg427
I1610612741
sg428
V20
p3865
sg430
g19
sg431
V00
p3866
sg433
g47
sg434
I202347
ssI1627756
(dp3867
g414
VMichigan State
p3868
sg416
V214
p3869
sg418
V2017
p3870
sg420
F23.0
sg421
VNOV 16, 1993
p3871
sg423
V6-6
p3872
sg425
VDenzel Valentine
p3873
sg427
I1610612741
sg428
V45
p3874
sg430
g109
sg431
V00
p3875
sg433
g133
sg434
I1627756
ssI1627758
(dp3876
g672
VWichita State
p3877
sg674
V220
p3878
sg676
V2017
p3879
sg678
F24.0
sg679
VMAR 30, 1993
p3880
sg681
V6-4
p3881
sg683
VRon Baker
p3882
sg685
I1610612752
sg686
V31
p3883
sg688
g109
sg689
V00
p3884
sg691
g47
sg692
I1627758
ssI1627759
(dp3885
g571
VCalifornia
p3886
sg573
V225
p3887
sg575
V2017
p3888
sg577
F21.0
sg578
VOCT 24, 1996
p3889
sg580
V6-7
p3890
sg582
VJaylen Brown
p3891
sg584
I1610612738
sg585
g229
sg587
g109
sg588
V00
p3892
sg590
VG-F
p3893
sg591
I1627759
ssI202344
(dp3894
g232
VClemson
p3895
sg234
V228
p3896
sg236
V2017
p3897
sg238
F29.0
sg239
VNOV 25, 1987
p3898
sg241
V6-8
p3899
sg243
VTrevor Booker
p3900
sg245
I1610612751
sg246
V35
p3901
sg247
g229
sg248
V00
p3902
sg250
g133
sg251
I202344
ssI1627762
(dp3903
g348
VWeber State
p3904
sg350
V235
p3905
sg352
V2017
p3906
sg354
F23.0
sg355
VJAN 28, 1994
p3907
sg357
V6-9
p3908
sg359
VJoel Bolomboy
p3909
sg361
I1610612749
sg362
V24
p3910
sg364
g109
sg365
V00
p3911
sg367
VF-C
p3912
sg368
I1627762
ssI202355
(dp3913
g272
VMarshall
p3914
sg274
V265
p3915
sg276
V2017
p3916
sg278
F28.0
sg279
VJUN 13, 1989
p3917
sg281
V7-0
p3918
sg283
VHassan Whiteside
p3919
sg285
I1610612748
sg286
V21
p3920
sg288
g19
sg289
V00
p3921
sg291
g70
sg292
I202355
ssI202357
(dp3922
g94
Nsg96
V230
p3923
sg98
V2017
p3924
sg100
F29.0
sg101
VMAY 09, 1988
p3925
sg103
V6-10
p3926
sg105
VNemanja Bjelica
p3927
sg107
I1610612750
sg108
g65
sg110
g43
sg111
V00
p3928
sg113
g133
sg114
I202357
ssI1627767
(dp3929
g1223
VKansas
p3930
sg1225
V220
p3931
sg1227
V2017
p3932
sg1229
F21.0
sg1230
VSEP 13, 1996
p3933
sg1232
V6-9
p3934
sg1234
VCheick Diallo
p3935
sg1236
I1610612740
sg1237
V13
p3936
sg1239
g109
sg1240
V00
p3937
sg1242
g133
sg1243
I1627767
ssI1627770
(dp3938
g414
VOakland
p3939
sg416
V176
p3940
sg418
V2017
p3941
sg420
F22.0
sg421
VMAR 29, 1995
p3942
sg423
V5-9
p3943
sg425
VKay Felder
p3944
sg427
I1610612741
sg428
g131
sg430
g109
sg431
V00
p3945
sg433
g47
sg434
I1627770
ssI1627772
(dp3946
g539
VConnecticut
p3947
sg541
V195
p3948
sg543
V2017
p3949
sg545
F22.0
sg546
VAUG 08, 1995
p3950
sg548
V6-7
p3951
sg550
VDaniel Hamilton
p3952
sg552
I1610612760
sg553
V25
p3953
sg555
g556
sg557
V00
p3954
sg559
g47
sg560
I1627772
ssI1627773
(dp3955
g272
VPurdue
p3956
sg274
V260
p3957
sg276
V2017
p3958
sg278
F25.0
sg279
VAUG 27, 1992
p3959
sg281
V7-0
p3960
sg283
VAJ Hammons
p3961
sg285
I1610612748
sg286
g617
sg288
g109
sg289
V00
p3962
sg291
g70
sg292
I1627773
ssI1627774
(dp3963
g650
VMaryland
p3964
sg652
V210
p3965
sg654
V2017
p3966
sg656
F23.0
sg657
VMAR 07, 1994
p3967
sg659
V6-9
p3968
sg661
VJake Layman
p3969
sg663
I1610612757
sg664
V10
p3970
sg665
g109
sg666
V00
p3971
sg668
g133
sg670
I1627774
ssI1627775
(dp3972
g490
VNevada-Las Vegas
p3973
sg492
V185
p3974
sg494
V2017
p3975
sg496
F22.0
sg497
VOCT 25, 1995
p3976
sg499
V6-7
p3977
sg501
VPatrick McCaw
p3978
sg503
I1610612744
sg504
g87
sg505
g109
sg506
V00
p3979
sg508
g47
sg509
I1627775
ssI200755
(dp3980
g50
VDuke
p3981
sg52
V200
p3982
sg54
V2017
p3983
sg56
F33.0
sg57
VJUN 24, 1984
p3984
sg59
V6-4
p3985
sg61
VJJ Redick
p3986
sg63
I1610612755
sg64
V17
p3987
sg66
V11
p3988
sg67
V00
p3989
sg69
VF-G
p3990
sg71
I200755
ssI1627778
(dp3991
g620
VLouisville
p3992
sg622
V245
p3993
sg624
V2017
p3994
sg626
F21.0
sg627
VNOV 01, 1996
p3995
sg629
V6-10
p3996
sg631
VChinanu Onuaku
p3997
sg633
I1610612745
sg634
V21
p3998
sg635
g109
sg637
V00
p3999
sg639
g70
sg640
I1627778
ssI1627755
(dp4000
g370
VKentucky
p4001
sg372
V160
p4002
sg374
V2017
p4003
sg376
F21.0
sg377
VJAN 05, 1996
p4004
sg379
V5-10
p4005
sg381
VTyler Ulis
p4006
sg383
I1610612756
sg384
g65
sg385
g109
sg386
V00
p4007
sg388
g47
sg389
I1627755
ssI1627780
(dp4008
g348
VOregon State
p4009
sg350
V190
p4010
sg352
V2017
p4011
sg354
F24.0
sg355
VDEC 01, 1992
p4012
sg357
V6-3
p4013
sg359
VGary Payton II
p4014
sg361
I1610612749
sg362
g87
sg364
g109
sg365
V00
p4015
sg367
g47
sg368
I1627780
ssI1627781
(dp4016
g304
VSyracuse
p4017
sg306
V205
p4018
sg308
V2017
p4019
sg310
F21.0
sg311
VJAN 05, 1996
p4020
sg313
V6-6
p4021
sg315
VMalachi Richardson
p4022
sg317
I1610612758
sg318
V23
p4023
sg320
g109
sg321
V00
p4024
sg323
g47
sg324
I1627781
ssI1627782
(dp4025
g157
VKansas
p4026
sg159
V230
p4027
sg161
V2017
p4028
sg163
F23.0
sg164
VSEP 30, 1994
p4029
sg166
V6-5
p4030
sg168
VWayne Selden
p4031
sg170
I1610612763
sg171
g229
sg172
g109
sg173
V00
p4032
sg175
VG-F
p4033
sg176
I1627782
ssI1627783
(dp4034
g178
VNew Mexico State
p4035
sg180
V230
p4036
sg182
V2017
p4037
sg184
F23.0
sg185
VAPR 02, 1994
p4038
sg187
V6-9
p4039
sg189
VPascal Siakam
p4040
sg191
I1610612761
sg192
V43
p4041
sg194
g109
sg195
V00
p4042
sg197
g133
sg198
I1627783
ssI1627785
(dp4043
g232
VSeton Hall
p4044
sg234
V213
p4045
sg236
V2017
p4046
sg238
F22.0
sg239
VMAR 08, 1995
p4047
sg241
V6-4
p4048
sg243
VIsaiah Whitehead
p4049
sg245
I1610612751
sg246
V15
p4050
sg247
g109
sg248
V00
p4051
sg250
g47
sg251
I1627785
ssI1627786
(dp4052
g620
VIndiana
p4053
sg622
V218
p4054
sg624
V2017
p4055
sg626
F22.0
sg627
VDEC 30, 1994
p4056
sg629
V6-7
p4057
sg631
VTroy Williams
p4058
sg633
I1610612745
sg634
g19
sg635
g109
sg637
V00
p4059
sg639
g133
sg640
I1627786
ssI1627788
(dp4060
g50
Nsg52
V190
p4061
sg54
V2017
p4062
sg56
F20.0
sg57
VJUL 24, 1997
p4063
sg59
V6-7
p4064
sg61
VFurkan Korkmaz
p4065
sg63
I1610612755
sg64
V30
p4066
sg66
g556
sg67
V00
p4067
sg69
VG-F
p4068
sg71
I1627788
ssI1627789
(dp4069
g50
Nsg52
V200
p4070
sg54
V2017
p4071
sg56
F22.0
sg57
VMAY 09, 1995
p4072
sg59
V6-6
p4073
sg61
VTimothe Luwawu-Cabarrot
p4074
sg63
I1610612755
sg64
g229
sg66
g109
sg67
V00
p4075
sg69
VG-F
p4076
sg71
I1627789
ssI1627790
(dp4077
g778
Nsg780
V250
p4078
sg782
V2017
p4079
sg784
F20.0
sg785
VJAN 04, 1997
p4080
sg787
V6-11
p4081
sg789
VAnte Zizic
p4082
sg791
I1610612739
sg792
V41
p4083
sg794
g556
sg795
V00
p4084
sg797
VF-C
p4085
sg798
I1627790
ssI202389
(dp4086
g232
VSt. Petersburg, Russia
p4087
sg234
V275
p4088
sg236
V2017
p4089
sg238
F31.0
sg239
VJUL 16, 1986
p4090
sg241
V7-1
p4091
sg243
VTimofey Mozgov
p4092
sg245
I1610612751
sg246
V20
p4093
sg247
g229
sg248
V00
p4094
sg250
g70
sg251
I202389
ssI202391
(dp4095
g232
VHarvard
p4096
sg234
V200
p4097
sg236
V2017
p4098
sg238
F29.0
sg239
VAUG 23, 1988
p4099
sg241
V6-3
p4100
sg243
VJeremy Lin
p4101
sg245
I1610612751
sg246
g229
sg247
g229
sg248
V00
p4102
sg250
g47
sg251
I202391
ssI202397
(dp4103
g26
VWake Forest
p4104
sg28
V175
p4105
sg30
V2017
p4106
sg32
F29.0
sg33
VJUL 05, 1988
p4107
sg35
V6-0
p4108
sg37
VIsh Smith
p4109
sg39
I1610612765
sg40
V14
p4110
sg42
g229
sg44
V00
p4111
sg46
g47
sg48
I202397
ssI1627812
(dp4112
g809
VIndiana
p4113
sg811
V180
p4114
sg813
V2017
p4115
sg815
F24.0
sg816
VMAY 09, 1993
p4116
sg818
V6-0
p4117
sg820
VYogi Ferrell
p4118
sg822
I1610612742
sg823
V11
p4119
sg824
g109
sg826
V00
p4120
sg828
g47
sg829
I1627812
ssI1627761
(dp4121
g1043
VSaint Joseph's
p4122
sg1045
V210
p4123
sg1047
V2017
p4124
sg1049
F23.0
sg1050
VJUL 04, 1994
p4125
sg1052
V6-6
p4126
sg1054
VDeAndre' Bembry
p4127
sg1056
I1610612737
sg1057
V95
p4128
sg1059
g109
sg1060
V00
p4129
sg1062
VF-G
p4130
sg1064
I1627761
ssI204456
(dp4131
g50
VArizona
p4132
sg52
V190
p4133
sg54
V2017
p4134
sg56
F25.0
sg57
VMAR 25, 1992
p4135
sg59
V6-2
p4136
sg61
VT.J. McConnell
p4137
sg63
I1610612755
sg64
V12
p4138
sg66
g43
sg67
V00
p4139
sg69
g47
sg71
I204456
ssI1627819
(dp4140
g1043
VTexas
p4141
sg1045
V170
p4142
sg1047
V2017
p4143
sg1049
F23.0
sg1050
VJUL 11, 1994
p4144
sg1052
V6-3
p4145
sg1054
VIsaiah Taylor
p4146
sg1056
I1610612737
sg1057
V22
p4147
sg1059
g109
sg1060
V00
p4148
sg1062
g47
sg1064
I1627819
ssI1627823
(dp4149
g73
Nsg74
V230
p4150
sg76
V2017
p4151
sg78
F22.0
sg79
VSEP 28, 1995
p4152
sg81
V6-9
p4153
sg83
VJuan Hernangomez
p4154
sg85
I1610612743
sg86
V41
p4155
sg88
g109
sg89
V00
p4156
sg91
g133
sg92
I1627823
ssI1627824
(dp4157
g571
Nsg573
V260
p4158
sg575
V2017
p4159
sg577
F21.0
sg578
VDEC 17, 1995
p4160
sg580
V6-8
p4161
sg582
VGuerschon Yabusele
p4162
sg584
I1610612738
sg585
V30
p4163
sg587
g556
sg588
V00
p4164
sg590
g133
sg591
I1627824
ssI1713
(dp4165
g304
VNorth Carolina
p4166
sg306
V220
p4167
sg308
V2017
p4168
sg310
F40.0
sg311
VJAN 26, 1977
p4169
sg313
V6-6
p4170
sg315
VVince Carter
p4171
sg317
I1610612758
sg318
V15
p4172
sg320
V19
p4173
sg321
V00
p4174
sg323
VG-F
p4175
sg324
I1713
ssI1627826
(dp4176
g720
Nsg722
V240
p4177
sg724
V2017
p4178
sg726
F20.0
sg727
VMAR 18, 1997
p4179
sg729
V7-1
p4180
sg731
VIvica Zubac
p4181
sg733
I1610612747
sg734
V40
p4182
sg735
g109
sg736
V00
p4183
sg738
g70
sg739
I1627826
ssI1627827
(dp4184
g809
VFlorida
p4185
sg811
V220
p4186
sg813
V2017
p4187
sg815
F24.0
sg816
VMAY 04, 1993
p4188
sg818
V6-8
p4189
sg820
VDorian Finney-Smith
p4190
sg822
I1610612742
sg823
V10
p4191
sg824
g109
sg826
V00
p4192
sg828
g133
sg829
I1627827
ssI1717
(dp4193
g809
VWurzburg, Germany
p4194
sg811
V245
p4195
sg813
V2017
p4196
sg815
F39.0
sg816
VJUN 19, 1978
p4197
sg818
V7-0
p4198
sg820
VDirk Nowitzki
p4199
sg822
I1610612742
sg823
V41
p4200
sg824
V19
p4201
sg826
V00
p4202
sg828
VF-C
p4203
sg829
I1717
ssI1627832
(dp4204
g178
VWichita State
p4205
sg180
V195
p4206
sg182
V2017
p4207
sg184
F23.0
sg185
VFEB 25, 1994
p4208
sg187
V6-0
p4209
sg189
VFred VanVleet
p4210
sg191
I1610612761
sg192
V23
p4211
sg194
g109
sg195
V00
p4212
sg197
g47
sg198
I1627832
ssI1627834
(dp4213
g304
Nsg306
V240
p4214
sg308
V2017
p4215
sg310
F20.0
sg311
VJUL 03, 1997
p4216
sg313
V7-1
p4217
sg315
VGeorgios Papagiannis
p4218
sg317
I1610612758
sg318
V13
p4219
sg320
g109
sg321
V00
p4220
sg323
g70
sg324
I1627834
ssI1627835
(dp4221
g414
Nsg416
V226
p4222
sg418
V2017
p4223
sg420
F23.0
sg421
VFEB 18, 1994
p4224
sg423
V6-8
p4225
sg425
VPaul Zipser
p4226
sg427
I1610612741
sg428
V16
p4227
sg430
g109
sg431
V00
p4228
sg433
g133
sg434
I1627835
ssI1627846
(dp4229
g571
VIowa State
p4230
sg573
V230
p4231
sg575
V2017
p4232
sg577
F24.0
sg578
VSEP 25, 1993
p4233
sg580
V6-6
p4234
sg582
VAbdel Nader
p4235
sg584
I1610612738
sg585
V28
p4236
sg587
g556
sg588
V00
p4237
sg590
g133
sg591
I1627846
ssI1627851
(dp4238
g672
Nsg674
V215
p4239
sg676
V2017
p4240
sg678
F28.0
sg679
VOCT 19, 1989
p4241
sg681
V6-9
p4242
sg683
VMindaugas Kuzminskas
p4243
sg685
I1610612752
sg686
V91
p4244
sg688
g109
sg689
V00
p4245
sg691
g133
sg692
I1627851
ssI1627852
(dp4246
g1043
Nsg1045
V195
p4247
sg1047
V2017
p4248
sg1049
F24.0
sg1050
VMAR 02, 1993
p4249
sg1052
V6-8
p4250
sg1054
VNicolas Brussino
p4251
sg1056
I1610612737
sg1057
V16
p4252
sg1059
g109
sg1060
V00
p4253
sg1062
g133
sg1064
I1627852
ssI1627853
(dp4254
g414
VVillanova
p4255
sg416
V195
p4256
sg418
V2017
p4257
sg420
F23.0
sg421
VMAR 26, 1994
p4258
sg423
V6-3
p4259
sg425
VRyan Arcidiacono
p4260
sg427
I1610612741
sg428
V15
p4261
sg430
g556
sg431
V00
p4262
sg433
g47
sg434
I1627853
ssI1627854
(dp4263
g200
VMichigan State
p4264
sg202
V190
p4265
sg204
V2017
p4266
sg206
F24.0
sg207
VJUL 23, 1993
p4267
sg209
V6-3
p4268
sg211
VBryn Forbes
p4269
sg213
I1610612759
sg214
V11
p4270
sg216
g109
sg218
V00
p4271
sg220
g47
sg221
I1627854
ssI1627855
(dp4272
g272
VFlorida State
p4273
sg274
V215
p4274
sg276
V2017
p4275
sg278
F25.0
sg279
VAUG 13, 1992
p4276
sg281
V6-8
p4277
sg283
VOkaro White
p4278
sg285
I1610612748
sg286
V15
p4279
sg288
g109
sg289
V00
p4280
sg291
g133
sg292
I1627855
ssI1627856
(dp4281
g200
VMichigan State
p4282
sg202
V240
p4283
sg204
V2017
p4284
sg206
F24.0
sg207
VAUG 05, 1993
p4285
sg209
V6-10
p4286
sg211
VMatt Costello
p4287
sg213
I1610612759
sg214
V10
p4288
sg216
g556
sg218
V00
p4289
sg220
VF-C
p4290
sg221
I1627856
ssI202362
(dp4291
g436
VCincinnati
p4292
sg438
V230
p4293
sg440
V2017
p4294
sg442
F27.0
sg443
VSEP 05, 1990
p4295
sg445
V6-6
p4296
sg447
VLance Stephenson
p4297
sg449
I1610612754
sg450
g109
sg452
g229
sg453
V00
p4298
sg455
g47
sg456
I202362
ssI1627875
(dp4299
g94
VGeorgia Tech
p4300
sg96
V226
p4301
sg98
V2017
p4302
sg100
F23.0
sg101
VMAR 28, 1994
p4303
sg103
V6-5
p4304
sg105
VMarcus Georges-Hunt
p4305
sg107
I1610612750
sg108
V13
p4306
sg110
g109
sg111
V00
p4307
sg113
g47
sg114
I1627875
ssI1627883
(dp4308
g1223
VTexas A&M
p4309
sg1225
V220
p4310
sg1227
V2017
p4311
sg1229
F24.0
sg1230
VMAY 27, 1993
p4312
sg1232
V6-7
p4313
sg1234
VJalen Jones
p4314
sg1236
I1610612740
sg1237
V12
p4315
sg1239
g556
sg1240
V00
p4316
sg1242
g133
sg1243
I1627883
ssI1627884
(dp4317
g370
VNevada-Las Vegas
p4318
sg372
V195
p4319
sg374
V2017
p4320
sg376
F20.0
sg377
VFEB 15, 1997
p4321
sg379
V6-7
p4322
sg381
VDerrick Jones Jr.
p4323
sg383
I1610612756
sg384
V10
p4324
sg385
g109
sg386
V00
p4325
sg388
VF-G
p4326
sg389
I1627884
ssI202498
(dp4327
g672
VDuke
p4328
sg674
V235
p4329
sg676
V2017
p4330
sg678
F29.0
sg679
VAPR 24, 1988
p4331
sg681
V6-8
p4332
sg683
VLance Thomas
p4333
sg685
I1610612752
sg686
V42
p4334
sg688
g636
sg689
V00
p4335
sg691
g133
sg692
I202498
ssI1627936
(dp4336
g720
VTexas A&M
p4337
sg722
V186
p4338
sg724
V2017
p4339
sg726
F23.0
sg727
VFEB 28, 1994
p4340
sg729
V6-5
p4341
sg731
VAlex Caruso
p4342
sg733
I1610612747
sg734
g617
sg735
g556
sg736
V00
p4343
sg738
g47
sg739
I1627936
ssI1891
(dp4344
g348
VArizona
p4345
sg350
V185
p4346
sg352
V2017
p4347
sg354
F40.0
sg355
VSEP 15, 1977
p4348
sg357
V6-2
p4349
sg359
VJason Terry
p4350
sg361
I1610612749
sg362
g131
sg364
V18
p4351
sg365
V00
p4352
sg367
g47
sg368
I1891
ssI1628021
(dp4353
g414
VCal Poly-S.L.O.
p4354
sg416
V209
p4355
sg418
V2017
p4356
sg420
F24.0
sg421
VJAN 14, 1993
p4357
sg423
V6-4
p4358
sg425
VDavid Nwaba
p4359
sg427
I1610612741
sg428
V11
p4360
sg430
g109
sg431
V00
p4361
sg433
g47
sg434
I1628021
ssI1628035
(dp4362
g178
VWisc.-Green Bay
p4363
sg180
V215
p4364
sg182
V2017
p4365
sg184
F25.0
sg185
VSEP 17, 1992
p4366
sg187
V6-8
p4367
sg189
VAlfonzo McKinnie
p4368
sg191
I1610612761
sg192
V34
p4369
sg194
g556
sg195
V00
p4370
sg197
g133
sg198
I1628035
ssI1938
(dp4371
g200
VBahia Blanca, Argentina
p4372
sg202
V205
p4373
sg204
V2017
p4374
sg206
F40.0
sg207
VJUL 28, 1977
p4375
sg209
V6-6
p4376
sg211
VManu Ginobili
p4377
sg213
I1610612759
sg214
V20
p4378
sg216
V15
p4379
sg218
V00
p4380
sg220
g47
sg221
I1938
ssI203084
(dp4381
g809
VNorth Carolina
p4382
sg811
V225
p4383
sg813
V2017
p4384
sg815
F25.0
sg816
VMAY 30, 1992
p4385
sg818
V6-8
p4386
sg820
VHarrison Barnes
p4387
sg822
I1610612742
sg823
V40
p4388
sg824
g19
sg826
V00
p4389
sg828
g133
sg829
I203084
ssI202681
(dp4390
g571
VDuke
p4391
sg573
V193
p4392
sg575
V2017
p4393
sg577
F25.0
sg578
VMAR 23, 1992
p4394
sg580
V6-3
p4395
sg582
VKyrie Irving
p4396
sg584
I1610612738
sg585
V11
p4397
sg587
g636
sg588
V00
p4398
sg590
g47
sg591
I202681
ssI202683
(dp4399
g672
VKentucky
p4400
sg674
V245
p4401
sg676
V2017
p4402
sg678
F25.0
sg679
VMAY 20, 1992
p4403
sg681
V6-11
p4404
sg683
VEnes Kanter
p4405
sg685
I1610612752
sg686
V00
p4406
sg688
g636
sg689
V00
p4407
sg691
g70
sg692
I202683
ssI202684
(dp4408
g778
VTexas
p4409
sg780
V238
p4410
sg782
V2017
p4411
sg784
F26.0
sg785
VMAR 13, 1991
p4412
sg787
V6-9
p4413
sg789
VTristan Thompson
p4414
sg791
I1610612739
sg792
V13
p4415
sg794
g636
sg795
V00
p4416
sg797
VC-F
p4417
sg798
I202684
ssI202685
(dp4418
g178
VUtena, Lithuania
p4419
sg180
V255
p4420
sg182
V2017
p4421
sg184
F25.0
sg185
VMAY 06, 1992
p4422
sg187
V7-0
p4423
sg189
VJonas Valanciunas
p4424
sg191
I1610612761
sg192
V17
p4425
sg194
g19
sg195
V00
p4426
sg197
g70
sg198
I202685
ssI202687
(dp4427
g2
VLubumbashi, DR Congo
p4428
sg4
V255
p4429
sg6
V2017
p4430
sg8
F25.0
sg9
VAUG 28, 1992
p4431
sg11
V6-9
p4432
sg13
VBismack Biyombo
p4433
sg15
I1610612753
sg16
V11
p4434
sg18
g636
sg20
V00
p4435
sg22
g70
sg24
I202687
ssI202688
(dp4436
g370
VKentucky
p4437
sg372
V195
p4438
sg374
V2017
p4439
sg376
F25.0
sg377
VDEC 02, 1991
p4440
sg379
V6-3
p4441
sg381
VBrandon Knight
p4442
sg383
I1610612756
sg384
V11
p4443
sg385
g636
sg386
V00
p4444
sg388
g47
sg389
I202688
ssI202691
(dp4445
g490
VWashington State
p4446
sg492
V215
p4447
sg494
V2017
p4448
sg496
F27.0
sg497
VFEB 08, 1990
p4449
sg499
V6-7
p4450
sg501
VKlay Thompson
p4451
sg503
I1610612744
sg504
V11
p4452
sg505
g636
sg506
V00
p4453
sg508
g47
sg509
I202691
ssI202692
(dp4454
g391
VColorado
p4455
sg393
V214
p4456
sg395
V2017
p4457
sg397
F26.0
sg398
VJUL 20, 1991
p4458
sg400
V6-6
p4459
sg402
VAlec Burks
p4460
sg404
I1610612762
sg405
V10
p4461
sg407
g636
sg409
V00
p4462
sg411
g47
sg412
I202692
ssI202693
(dp4463
g326
VKansas
p4464
sg328
V245
p4465
sg330
V2017
p4466
sg332
F28.0
sg333
VSEP 02, 1989
p4467
sg335
V6-10
p4468
sg337
VMarkieff Morris
p4469
sg339
I1610612764
sg340
g19
sg342
g636
sg343
V00
p4470
sg345
g133
sg346
I202693
ssI202694
(dp4471
g571
VKansas
p4472
sg573
V235
p4473
sg575
V2017
p4474
sg577
F28.0
sg578
VSEP 02, 1989
p4475
sg580
V6-9
p4476
sg582
VMarcus Morris
p4477
sg584
I1610612738
sg585
V13
p4478
sg587
g636
sg588
V00
p4479
sg590
g133
sg591
I202694
ssI202695
(dp4480
g200
VSan Diego State
p4481
sg202
V230
p4482
sg204
V2017
p4483
sg206
F26.0
sg207
VJUN 29, 1991
p4484
sg209
V6-7
p4485
sg211
VKawhi Leonard
p4486
sg213
I1610612759
sg214
g43
sg216
g636
sg218
V00
p4487
sg220
g133
sg221
I202695
ssI202696
(dp4488
g2
VSouthern California
p4489
sg4
V260
p4490
sg6
V2017
p4491
sg8
F27.0
sg9
VOCT 24, 1990
p4492
sg11
V7-0
p4493
sg13
VNikola Vucevic
p4494
sg15
I1610612753
sg16
g937
sg18
g636
sg20
V00
p4495
sg22
g70
sg24
I202696
ssI202697
(dp4496
g778
VGeorgia Tech
p4497
sg780
V220
p4498
sg782
V2017
p4499
sg784
F27.0
sg785
VJUN 26, 1990
p4500
sg787
V6-5
p4501
sg789
VIman Shumpert
p4502
sg791
I1610612739
sg792
g617
sg794
g636
sg795
V00
p4503
sg797
g47
sg798
I202697
ssI202699
(dp4504
g26
VTennessee
p4505
sg28
V235
p4506
sg30
V2017
p4507
sg32
F25.0
sg33
VJUL 15, 1992
p4508
sg35
V6-9
p4509
sg37
VTobias Harris
p4510
sg39
I1610612765
sg40
V34
p4511
sg42
g636
sg44
V00
p4512
sg46
g133
sg48
I202699
ssI202702
(dp4513
g73
VMorehead State
p4514
sg74
V228
p4515
sg76
V2017
p4516
sg78
F27.0
sg79
VNOV 19, 1989
p4517
sg81
V6-8
p4518
sg83
VKenneth Faried
p4519
sg85
I1610612743
sg86
V35
p4520
sg88
g636
sg89
V00
p4521
sg91
g133
sg92
I202702
ssI202703
(dp4522
g414
Nsg416
V238
p4523
sg418
V2017
p4524
sg420
F26.0
sg421
VFEB 11, 1991
p4525
sg423
V6-10
p4526
sg425
VNikola Mirotic
p4527
sg427
I1610612741
sg428
V44
p4528
sg430
g131
sg431
V00
p4529
sg433
g133
sg434
I202703
ssI202704
(dp4530
g26
VBoston College
p4531
sg28
V208
p4532
sg30
V2017
p4533
sg32
F27.0
sg33
VAPR 16, 1990
p4534
sg35
V6-3
p4535
sg37
VReggie Jackson
p4536
sg39
I1610612765
sg40
g109
sg42
g636
sg44
V00
p4537
sg46
g47
sg48
I202704
ssI202709
(dp4538
g436
VTexas
p4539
sg438
V190
p4540
sg440
V2017
p4541
sg442
F26.0
sg443
VAUG 20, 1991
p4542
sg445
V6-3
p4543
sg447
VCory Joseph
p4544
sg449
I1610612754
sg450
g636
sg452
g636
sg453
V00
p4545
sg455
g47
sg456
I202709
ssI202710
(dp4546
g94
VMarquette
p4547
sg96
V236
p4548
sg98
V2017
p4549
sg100
F28.0
sg101
VSEP 14, 1989
p4550
sg103
V6-8
p4551
sg105
VJimmy Butler
p4552
sg107
I1610612750
sg108
V23
p4553
sg110
g636
sg111
V00
p4554
sg113
g47
sg114
I202710
ssI202711
(dp4555
g436
Nsg438
V230
p4556
sg440
V2017
p4557
sg442
F28.0
sg443
VAPR 18, 1989
p4558
sg445
V6-8
p4559
sg447
VBojan Bogdanovic
p4560
sg449
I1610612754
sg450
V44
p4561
sg452
g131
sg453
V00
p4562
sg455
g133
sg456
I202711
ssI202713
(dp4563
g539
VDuke
p4564
sg541
V228
p4565
sg543
V2017
p4566
sg545
F29.0
sg546
VMAY 04, 1988
p4567
sg548
V6-8
p4568
sg550
VKyle Singler
p4569
sg552
I1610612760
sg553
V15
p4570
sg555
g19
sg557
V00
p4571
sg559
g133
sg560
I202713
ssI202714
(dp4572
g2
VButler
p4573
sg4
V203
p4574
sg6
V2017
p4575
sg8
F27.0
sg9
VAPR 22, 1990
p4576
sg11
V6-3
p4577
sg13
VShelvin Mack
p4578
sg15
I1610612753
sg16
g229
sg18
g636
sg20
V00
p4579
sg22
g47
sg24
I202714
ssI202718
(dp4580
g157
VFlorida
p4581
sg159
V230
p4582
sg161
V2017
p4583
sg163
F29.0
sg164
VOCT 25, 1988
p4584
sg166
V6-10
p4585
sg168
VChandler Parsons
p4586
sg170
I1610612763
sg171
V25
p4587
sg172
g636
sg173
V00
p4588
sg175
g133
sg176
I202718
ssI202720
(dp4589
g26
VWisconsin
p4590
sg28
V228
p4591
sg30
V2017
p4592
sg32
F28.0
sg33
VMAY 14, 1989
p4593
sg35
V6-10
p4594
sg37
VJon Leuer
p4595
sg39
I1610612765
sg40
V30
p4596
sg42
g636
sg44
V00
p4597
sg46
VF-C
p4598
sg48
I202720
ssI202722
(dp4599
g200
Nsg202
V210
p4600
sg204
V2017
p4601
sg206
F24.0
sg207
VNOV 12, 1992
p4602
sg209
V6-10
p4603
sg211
VDavis Bertans
p4604
sg213
I1610612759
sg214
V42
p4605
sg216
g109
sg218
V00
p4606
sg220
g133
sg221
I202722
ssI1627815
(dp4607
g326
VMiami (Fla.)
p4608
sg328
V200
p4609
sg330
V2017
p4610
sg332
F24.0
sg333
VDEC 21, 1992
p4611
sg335
V6-6
p4612
sg337
VSheldon Mac
p4613
sg339
I1610612764
sg340
g937
sg342
g109
sg343
V00
p4614
sg345
VG-F
p4615
sg346
I1627815
ssI202732
(dp4616
g348
VKentucky
p4617
sg350
V209
p4618
sg352
V2017
p4619
sg354
F29.0
sg355
VMAR 31, 1988
p4620
sg357
V6-6
p4621
sg359
VDeAndre Liggins
p4622
sg361
I1610612749
sg362
V25
p4623
sg364
g617
sg365
V00
p4624
sg367
g47
sg368
I202732
ssI202734
(dp4625
g1223
VPurdue
p4626
sg1225
V191
p4627
sg1227
V2017
p4628
sg1229
F28.0
sg1230
VFEB 25, 1989
p4629
sg1232
V6-4
p4630
sg1234
VE'Twaun Moore
p4631
sg1236
I1610612740
sg1237
V55
p4632
sg1239
g636
sg1240
V00
p4633
sg1242
g47
sg1243
I202734
ssI1627816
(dp4634
g436
VKentucky
p4635
sg438
V235
p4636
sg440
V2017
p4637
sg442
F24.0
sg443
VSEP 06, 1993
p4638
sg445
V6-9
p4639
sg447
VAlex Poythress
p4640
sg449
I1610612754
sg450
g87
sg452
g109
sg453
V00
p4641
sg455
g133
sg456
I1627816
ssI202738
(dp4642
g778
VWashington
p4643
sg780
V185
p4644
sg782
V2017
p4645
sg784
F28.0
sg785
VFEB 07, 1989
p4646
sg787
V5-9
p4647
sg789
VIsaiah Thomas
p4648
sg791
I1610612739
sg792
g131
sg794
g636
sg795
V00
p4649
sg797
g47
sg798
I202738
ssI2037
(dp4650
g94
VMichigan
p4651
sg96
V185
p4652
sg98
V2017
p4653
sg100
F37.0
sg101
VMAR 20, 1980
p4654
sg103
V6-5
p4655
sg105
VJamal Crawford
p4656
sg107
I1610612750
sg108
V11
p4657
sg110
V17
p4658
sg111
V00
p4659
sg113
g47
sg114
I2037
ss.