(dp0
I203095
(dp1
VSCHOOL
p2
VFrance
p3
sVWEIGHT
p4
V205
p5
sVSEASON
p6
V2017
p7
sVAGE
p8
F25.0
sVBIRTH_DATE
p9
VOCT 29, 1992
p10
sVHEIGHT
p11
V6-7
p12
sVPLAYER
p13
VEvan Fournier
p14
sVTeamID
p15
I1610612753
sVNUM
p16
V10
p17
sVEXP
p18
V5
p19
sVLeagueID
p20
V00
p21
sVPOSITION
p22
VF-G
p23
sVPLAYER_ID
p24
I203095
ssI1626143
(dp25
VSCHOOL
p26
VDuke
p27
sVWEIGHT
p28
V260
p29
sVSEASON
p30
V2017
p31
sVAGE
p32
F21.0
sVBIRTH_DATE
p33
VDEC 15, 1995
p34
sVHEIGHT
p35
V6-11
p36
sVPLAYER
p37
VJahlil Okafor
p38
sVTeamID
p39
I1610612755
sVNUM
p40
V8
p41
sVEXP
p42
V2
p43
sVLeagueID
p44
V00
p45
sVPOSITION
p46
VC
p47
sVPLAYER_ID
p48
I1626143
ssI1626144
(dp49
VSCHOOL
p50
NsVWEIGHT
p51
V200
p52
sVSEASON
p53
V2017
p54
sVAGE
p55
F21.0
sVBIRTH_DATE
p56
VMAR 05, 1996
p57
sVHEIGHT
p58
V6-5
p59
sVPLAYER
p60
VEmmanuel Mudiay
p61
sVTeamID
p62
I1610612743
sVNUM
p63
V0
p64
sVEXP
p65
g43
sVLeagueID
p66
V00
p67
sVPOSITION
p68
VG
p69
sVPLAYER_ID
p70
I1626144
ssI1626145
(dp71
VSCHOOL
p72
VDuke
p73
sVWEIGHT
p74
V184
p75
sVSEASON
p76
V2017
p77
sVAGE
p78
F21.0
sVBIRTH_DATE
p79
VMAY 10, 1996
p80
sVHEIGHT
p81
V6-2
p82
sVPLAYER
p83
VTyus Jones
p84
sVTeamID
p85
I1610612750
sVNUM
p86
V1
p87
sVEXP
p88
g43
sVLeagueID
p89
V00
p90
sVPOSITION
p91
g69
sVPLAYER_ID
p92
I1626145
ssI1626147
(dp93
g26
VVirginia
p94
sg28
V230
p95
sg30
V2017
p96
sg32
F23.0
sg33
VNOV 19, 1993
p97
sg35
V6-6
p98
sg37
VJustin Anderson
p99
sg39
I1610612755
sg40
g87
sg42
g43
sg44
V00
p100
sg46
VG-F
p101
sg48
I1626147
ssI1626148
(dp102
g72
VStanford
p103
sg74
V224
p104
sg76
V2017
p105
sg78
F25.0
sg79
VOCT 10, 1992
p106
sg81
V6-7
p107
sg83
VAnthony Brown
p108
sg85
I1610612750
sg86
V3
p109
sg88
g43
sg89
V00
p110
sg91
VF
p111
sg92
I1626148
ssI1626149
(dp112
VSCHOOL
p113
VLouisville
p114
sVWEIGHT
p115
V240
p116
sVSEASON
p117
V2017
p118
sVAGE
p119
F23.0
sVBIRTH_DATE
p120
VJAN 26, 1994
p121
sVHEIGHT
p122
V6-8
p123
sVPLAYER
p124
VMontrezl Harrell
p125
sVTeamID
p126
I1610612746
sVNUM
p127
g19
sVEXP
p128
g43
sVLeagueID
p129
V00
p130
sVPOSITION
p131
VF-C
p132
sVPLAYER_ID
p133
I1626149
ssI1626150
(dp134
VSCHOOL
p135
VKentucky
p136
sVWEIGHT
p137
V213
p138
sVSEASON
p139
V2017
p140
sVAGE
p141
F23.0
sVBIRTH_DATE
p142
VOCT 28, 1994
p143
sVHEIGHT
p144
V6-6
p145
sVPLAYER
p146
VAndrew Harrison
p147
sVTeamID
p148
I1610612763
sVNUM
p149
g19
sVEXP
p150
g87
sVLeagueID
p151
V00
p152
sVPOSITION
p153
g69
sVPLAYER_ID
p154
I1626150
ssI1626153
(dp155
VSCHOOL
p156
VUtah
p157
sVWEIGHT
p158
V190
p159
sVSEASON
p160
V2017
p161
sVAGE
p162
F25.0
sVBIRTH_DATE
p163
VAPR 26, 1992
p164
sVHEIGHT
p165
V6-5
p166
sVPLAYER
p167
VDelon Wright
p168
sVTeamID
p169
I1610612761
sVNUM
p170
V55
p171
sVEXP
p172
g43
sVLeagueID
p173
V00
p174
sVPOSITION
p175
g69
sVPLAYER_ID
p176
I1626153
ssI200746
(dp177
VSCHOOL
p178
VTexas
p179
sVWEIGHT
p180
V260
p181
sVSEASON
p182
V2017
p183
sVAGE
p184
F32.0
sVBIRTH_DATE
p185
VJUL 19, 1985
p186
sVHEIGHT
p187
V6-11
p188
sVPLAYER
p189
VLaMarcus Aldridge
p190
sVTeamID
p191
I1610612759
sVNUM
p192
V12
p193
sVEXP
p194
V11
p195
sVLeagueID
p196
V00
p197
sVPOSITION
p198
g111
sVPLAYER_ID
p199
I200746
ssI1626155
(dp200
g113
VWisconsin
p201
sg115
V230
p202
sg117
V2017
p203
sg119
F23.0
sg120
VMAY 08, 1994
p204
sg122
V6-9
p205
sg124
VSam Dekker
p206
sg126
I1610612746
sg127
V7
p207
sg128
g43
sg129
V00
p208
sg131
g111
sg133
I1626155
ssI1626156
(dp209
VSCHOOL
p210
VOhio State
p211
sVWEIGHT
p212
V195
p213
sVSEASON
p214
V2017
p215
sVAGE
p216
F21.0
sVBIRTH_DATE
p217
VFEB 23, 1996
p218
sVHEIGHT
p219
V6-5
p220
sVPLAYER
p221
VD'Angelo Russell
p222
sVTeamID
p223
I1610612751
sVNUM
p224
g87
sVEXP
p225
g43
sVLeagueID
p226
V00
p227
sVPOSITION
p228
g69
sVPLAYER_ID
p229
I1626156
ssI1626157
(dp230
g72
VKentucky
p231
sg74
V248
p232
sg76
V2017
p233
sg78
F21.0
sg79
VNOV 15, 1995
p234
sg81
V7-0
p235
sg83
VKarl-Anthony Towns
p236
sg85
I1610612750
sg86
V32
p237
sg88
g43
sg89
V00
p238
sg91
g47
sg92
I1626157
ssI1626158
(dp239
g26
VBowling Green
p240
sg28
V235
p241
sg30
V2017
p242
sg32
F24.0
sg33
VOCT 15, 1993
p243
sg35
V6-10
p244
sg37
VRichaun Holmes
p245
sg39
I1610612755
sg40
V22
p246
sg42
g43
sg44
V00
p247
sg46
VF-C
p248
sg48
I1626158
ssI1626159
(dp249
VSCHOOL
p250
VDuke
p251
sVWEIGHT
p252
V225
p253
sVSEASON
p254
V2017
p255
sVAGE
p256
F21.0
sVBIRTH_DATE
p257
VMAR 26, 1996
p258
sVHEIGHT
p259
V6-7
p260
sVPLAYER
p261
VJustise Winslow
p262
sVTeamID
p263
I1610612748
sVNUM
p264
V20
p265
sVEXP
p266
g43
sVLeagueID
p267
V00
p268
sVPOSITION
p269
g111
sVPLAYER_ID
p270
I1626159
ssI200752
(dp271
g178
VConnecticut
p272
sg180
V230
p273
sg182
V2017
p274
sg184
F31.0
sg185
VAUG 17, 1986
p275
sg187
V6-8
p276
sg189
VRudy Gay
p277
sg191
I1610612759
sg192
V22
p278
sg194
V11
p279
sg196
V00
p280
sg198
g111
sg199
I200752
ssI1626161
(dp281
VSCHOOL
p282
VKentucky
p283
sVWEIGHT
p284
V240
p285
sVSEASON
p286
V2017
p287
sVAGE
p288
F24.0
sVBIRTH_DATE
p289
VAUG 18, 1993
p290
sVHEIGHT
p291
V7-0
p292
sVPLAYER
p293
VWillie Cauley-Stein
p294
sVTeamID
p295
I1610612758
sVNUM
p296
V00
p297
sVEXP
p298
g43
sVLeagueID
p299
V00
p300
sVPOSITION
p301
g47
sVPLAYER_ID
p302
I1626161
ssI1627763
(dp303
VSCHOOL
p304
VVirginia
p305
sVWEIGHT
p306
V215
p307
sVSEASON
p308
V2017
p309
sVAGE
p310
F24.0
sVBIRTH_DATE
p311
VDEC 11, 1992
p312
sVHEIGHT
p313
V6-5
p314
sVPLAYER
p315
VMalcolm Brogdon
p316
sVTeamID
p317
I1610612749
sVNUM
p318
V13
p319
sVEXP
p320
g87
sVLeagueID
p321
V00
p322
sVPOSITION
p323
g69
sVPLAYER_ID
p324
I1627763
ssI200757
(dp325
VSCHOOL
p326
VVevey, Switzerland
p327
sVWEIGHT
p328
V220
p329
sVSEASON
p330
V2017
p331
sVAGE
p332
F33.0
sVBIRTH_DATE
p333
VMAY 02, 1984
p334
sVHEIGHT
p335
V6-7
p336
sVPLAYER
p337
VThabo Sefolosha
p338
sVTeamID
p339
I1610612762
sVNUM
p340
V22
p341
sVEXP
p342
V11
p343
sVLeagueID
p344
V00
p345
sVPOSITION
p346
g111
sVPLAYER_ID
p347
I200757
ssI1626166
(dp348
VSCHOOL
p349
VMurray State
p350
sVWEIGHT
p351
V185
p352
sVSEASON
p353
V2017
p354
sVAGE
p355
F23.0
sVBIRTH_DATE
p356
VAUG 08, 1994
p357
sVHEIGHT
p358
V6-3
p359
sVPLAYER
p360
VCameron Payne
p361
sVTeamID
p362
I1610612741
sVNUM
p363
V22
p364
sVEXP
p365
g43
sVLeagueID
p366
V00
p367
sVPOSITION
p368
g69
sVPLAYER_ID
p369
I1626166
ssI1626167
(dp370
VSCHOOL
p371
VTexas
p372
sVWEIGHT
p373
V255
p374
sVSEASON
p375
V2017
p376
sVAGE
p377
F21.0
sVBIRTH_DATE
p378
VMAR 24, 1996
p379
sVHEIGHT
p380
V6-11
p381
sVPLAYER
p382
VMyles Turner
p383
sVTeamID
p384
I1610612754
sVNUM
p385
V33
p386
sVEXP
p387
g43
sVLeagueID
p388
V00
p389
sVPOSITION
p390
g47
sVPLAYER_ID
p391
I1626167
ssI1626168
(dp392
g50
VKentucky
p393
sg51
V234
p394
sg53
V2017
p395
sg55
F22.0
sg56
VNOV 05, 1995
p396
sg58
V6-10
p397
sg60
VTrey Lyles
p398
sg62
I1610612743
sg63
g207
sg65
g43
sg66
V00
p399
sg68
g111
sg70
I1626168
ssI1626170
(dp400
g349
VNotre Dame
p401
sg351
V198
p402
sg353
V2017
p403
sg355
F25.0
sg356
VOCT 09, 1992
p404
sg358
V6-4
p405
sg360
VJerian Grant
p406
sg362
I1610612741
sg363
g43
sg365
g43
sg366
V00
p407
sg368
g69
sg369
I1626170
ssI1626171
(dp408
g349
VArkansas
p409
sg351
V248
p410
sg353
V2017
p411
sg355
F22.0
sg356
VFEB 10, 1995
p412
sg358
V6-11
p413
sg360
VBobby Portis
p414
sg362
I1610612741
sg363
g19
sg365
g43
sg366
V00
p415
sg368
g111
sg369
I1626171
ssI1626172
(dp416
VSCHOOL
p417
VUCLA
p418
sVWEIGHT
p419
V220
p420
sVSEASON
p421
V2017
p422
sVAGE
p423
F21.0
sVBIRTH_DATE
p424
VFEB 06, 1996
p425
sVHEIGHT
p426
V6-9
p427
sVPLAYER
p428
VKevon Looney
p429
sVTeamID
p430
I1610612744
sVNUM
p431
g19
sVEXP
p432
g43
sVLeagueID
p433
V00
p434
sVPOSITION
p435
g111
sVPLAYER_ID
p436
I1626172
ssI1626173
(dp437
g304
VUNLV
p438
sg306
V202
p439
sg308
V2017
p440
sg310
F21.0
sg311
VAUG 16, 1996
p441
sg313
V6-6
p442
sg315
VRashad Vaughn
p443
sg317
I1610612749
sg318
V20
p444
sg320
g43
sg321
V00
p445
sg323
g69
sg324
I1626173
ssI1626175
(dp446
g250
VLouisiana State
p447
sg252
V235
p448
sg254
V2017
p449
sg256
F23.0
sg257
VJUL 09, 1994
p450
sg259
V6-8
p451
sg261
VJordan Mickey
p452
sg263
I1610612748
sg264
V25
p453
sg266
g43
sg267
V00
p454
sg269
VC-F
p455
sg270
I1626175
ssI200768
(dp456
g156
VVillanova
p457
sg158
V205
p458
sg160
V2017
p459
sg162
F31.0
sg163
VMAR 25, 1986
p460
sg165
V6-0
p461
sg167
VKyle Lowry
p462
sg169
I1610612761
sg170
g207
sg172
V11
p463
sg173
V00
p464
sg175
g69
sg176
I200768
ssI1626177
(dp465
VSCHOOL
p466
VKentucky
p467
sVWEIGHT
p468
V255
p469
sVSEASON
p470
V2017
p471
sVAGE
p472
F22.0
sVBIRTH_DATE
p473
VSEP 22, 1995
p474
sVHEIGHT
p475
V7-0
p476
sVPLAYER
p477
VDakari Johnson
p478
sVTeamID
p479
I1610612760
sVNUM
p480
V44
p481
sVEXP
p482
VR
p483
sVLeagueID
p484
V00
p485
sVPOSITION
p486
g47
sVPLAYER_ID
p487
I1626177
ssI1626178
(dp488
g210
VArizona
p489
sg212
V214
p490
sg214
V2017
p491
sg216
F22.0
sg217
VJAN 03, 1995
p492
sg219
V6-7
p493
sg221
VRondae Hollis-Jefferson
p494
sg223
I1610612751
sg224
V24
p495
sg225
g43
sg226
V00
p496
sg228
g111
sg229
I1626178
ssI1626179
(dp497
VSCHOOL
p498
VLouisville
p499
sVWEIGHT
p500
V190
p501
sVSEASON
p502
V2017
p503
sVAGE
p504
F23.0
sVBIRTH_DATE
p505
VMAR 17, 1994
p506
sVHEIGHT
p507
V6-2
p508
sVPLAYER
p509
VTerry Rozier
p510
sVTeamID
p511
I1610612738
sVNUM
p512
V12
p513
sVEXP
p514
g43
sVLeagueID
p515
V00
p516
sVPOSITION
p517
g69
sVPLAYER_ID
p518
I1626179
ssI1626181
(dp519
g156
VUCLA
p520
sg158
V215
p521
sg160
V2017
p522
sg162
F24.0
sg163
VMAY 25, 1993
p523
sg165
V6-4
p524
sg167
VNorman Powell
p525
sg169
I1610612761
sg170
V24
p526
sg172
g43
sg173
V00
p527
sg175
VF-G
p528
sg176
I1626181
ssI1626185
(dp529
g135
VLouisiana State
p530
sg137
V239
p531
sg139
V2017
p532
sg141
F23.0
sg142
VMAY 24, 1994
p533
sg144
V6-10
p534
sg146
VJarell Martin
p535
sg148
I1610612763
sg149
g87
sg150
g43
sg151
V00
p536
sg153
g111
sg154
I1626185
ssI1626188
(dp537
g417
VDuke
p538
sg419
V179
p539
sg421
V2017
p540
sg423
F24.0
sg424
VMAR 23, 1993
p541
sg426
V6-2
p542
sg428
VQuinn Cook
p543
sg430
I1610612744
sg431
V4
p544
sg432
g87
sg433
V00
p545
sg435
g69
sg436
I1626188
ssI200782
(dp546
VSCHOOL
p547
VTexas
p548
sVWEIGHT
p549
V245
p550
sVSEASON
p551
V2017
p552
sVAGE
p553
F32.0
sVBIRTH_DATE
p554
VMAY 05, 1985
p555
sVHEIGHT
p556
V6-6
p557
sVPLAYER
p558
VPJ Tucker
p559
sVTeamID
p560
I1610612745
sVNUM
p561
g544
sVEXP
p562
V6
p563
sVLeagueID
p564
V00
p565
sVPOSITION
p566
g111
sVPLAYER_ID
p567
I200782
ssI1626192
(dp568
VSCHOOL
p569
VNotre Dame
p570
sVWEIGHT
p571
V210
p572
sVSEASON
p573
V2017
p574
sVAGE
p575
F24.0
sVBIRTH_DATE
p576
VJAN 06, 1993
p577
sVHEIGHT
p578
V6-5
p579
sVPLAYER
p580
VPat Connaughton
p581
sVTeamID
p582
I1610612757
sVNUM
p583
g19
sVEXP
p584
g43
sVLeagueID
p585
V00
p586
sVPOSITION
p587
VG-F
p588
sVPLAYER_ID
p589
I1626192
ssI1626195
(dp590
VSCHOOL
p591
VSpain
p592
sVWEIGHT
p593
V240
p594
sVSEASON
p595
V2017
p596
sVAGE
p597
F23.0
sVBIRTH_DATE
p598
VMAY 27, 1994
p599
sVHEIGHT
p600
V6-11
p601
sVPLAYER
p602
VWilly Hernangomez
p603
sVTeamID
p604
I1610612752
sVNUM
p605
V14
p606
sVEXP
p607
g87
sVLeagueID
p608
V00
p609
sVPOSITION
p610
g47
sVPLAYER_ID
p611
I1626195
ssI1626196
(dp612
g250
VTennessee
p613
sg252
V200
p614
sg254
V2017
p615
sg256
F24.0
sg257
VSEP 15, 1993
p616
sg259
V6-6
p617
sg261
VJosh Richardson
p618
sg263
I1610612748
sg264
g64
sg266
g43
sg267
V00
p619
sg269
g111
sg270
I1626196
ssI1626199
(dp620
g178
VVillanova
p621
sg180
V220
p622
sg182
V2017
p623
sg184
F24.0
sg185
VAPR 13, 1993
p624
sg187
V6-6
p625
sg189
VDarrun Hilliard
p626
sg191
I1610612759
sg192
V24
p627
sg194
g43
sg196
V00
p628
sg198
g69
sg199
I1626199
ssI200794
(dp629
g50
VLouisiana Tech
p630
sg51
V246
p631
sg53
V2017
p632
sg55
F32.0
sg56
VFEB 10, 1985
p633
sg58
V6-8
p634
sg60
VPaul Millsap
p635
sg62
I1610612743
sg63
g544
sg65
V11
p636
sg66
V00
p637
sg68
g111
sg70
I200794
ssI1626204
(dp638
VSCHOOL
p639
VWyoming
p640
sVWEIGHT
p641
V230
p642
sVSEASON
p643
V2017
p644
sVAGE
p645
F24.0
sVBIRTH_DATE
p646
VJAN 01, 1993
p647
sVHEIGHT
p648
V6-9
p649
sVPLAYER
p650
VLarry Nance Jr.
p651
sVTeamID
p652
I1610612747
sVNUM
p653
g207
sVEXP
p654
g43
sVLeagueID
p655
V00
p656
sVPOSITION
p657
g111
sVPLAYER_ID
p658
I1626204
ssI1626205
(dp659
g135
VTexas-El Paso
p660
sg137
V208
p661
sg139
V2017
p662
sg141
F23.0
sg142
VAUG 05, 1994
p663
sg144
V6-8
p664
sg146
VVincent Hunter
p665
sg148
I1610612763
sg149
V32
p666
sg150
g483
sg151
V00
p667
sg153
g111
sg154
I1626205
ssI1626209
(dp668
g2
VCroatia
p669
sg4
V218
p670
sg6
V2017
p671
sg8
F22.0
sg9
VFEB 25, 1995
p672
sg11
V6-8
p673
sg13
VMario Hezonja
p674
sg15
I1610612753
sg16
g41
sg18
g43
sg20
V00
p675
sg22
VG-F
p676
sg24
I1626209
ssI1626220
(dp677
g326
VBaylor
p678
sg328
V226
p679
sg330
V2017
p680
sg332
F24.0
sg333
VJUN 05, 1993
p681
sg335
V6-6
p682
sg337
VRoyce O'Neale
p683
sg339
I1610612762
sg340
V23
p684
sg342
g483
sg344
V00
p685
sg346
g111
sg347
I1626220
ssI1626224
(dp686
VSCHOOL
p687
VAnadolu Efes
p688
sVWEIGHT
p689
V215
p690
sVSEASON
p691
V2017
p692
sVAGE
p693
F22.0
sVBIRTH_DATE
p694
VAPR 08, 1995
p695
sVHEIGHT
p696
V6-8
p697
sVPLAYER
p698
VCedi Osman
p699
sVTeamID
p700
I1610612739
sVNUM
p701
V16
p702
sVEXP
p703
g483
sVLeagueID
p704
V00
p705
sVPOSITION
p706
g111
sVPLAYER_ID
p707
I1626224
ssI200826
(dp708
VSCHOOL
p709
VNortheastern
p710
sVWEIGHT
p711
V185
p712
sVSEASON
p713
V2017
p714
sVAGE
p715
F33.0
sVBIRTH_DATE
p716
VJUN 26, 1984
p717
sVHEIGHT
p718
V6-0
p719
sVPLAYER
p720
VJ.J. Barea
p721
sVTeamID
p722
I1610612742
sVNUM
p723
g19
sVEXP
p724
V11
p725
sVLeagueID
p726
V00
p727
sVPOSITION
p728
g69
sVPLAYER_ID
p729
I200826
ssI1626245
(dp730
g349
Nsg351
V280
p731
sg353
V2017
p732
sg355
F25.0
sg356
VJUL 07, 1992
p733
sg358
V6-9
p734
sg360
VCristiano Felicio
p735
sg362
I1610612741
sg363
g563
sg365
g43
sg366
V00
p736
sg368
VC-F
p737
sg369
I1626245
ssI1626257
(dp738
g709
Nsg711
V235
p739
sg713
V2017
p740
sg715
F31.0
sg716
VJUN 15, 1986
p741
sg718
V7-2
p742
sg720
VSalah Mejri
p743
sg722
I1610612742
sg723
V50
p744
sg724
g43
sg726
V00
p745
sg728
g47
sg729
I1626257
ssI1626259
(dp746
g156
VHoly Cross
p747
sg158
V210
p748
sg160
V2017
p749
sg162
F24.0
sg163
VMAR 06, 1993
p750
sg165
V6-7
p751
sg167
VMalcolm Miller
p752
sg169
I1610612761
sg170
V13
p753
sg172
g483
sg173
V00
p754
sg175
g111
sg176
I1626259
ssI2200
(dp755
g178
VBarcelona, Spain
p756
sg180
V250
p757
sg182
V2017
p758
sg184
F37.0
sg185
VJUL 06, 1980
p759
sg187
V7-0
p760
sg189
VPau Gasol
p761
sg191
I1610612759
sg192
V16
p762
sg194
V16
p763
sg196
V00
p764
sg198
g47
sg199
I2200
ssI2207
(dp765
g326
VArkansas
p766
sg328
V240
p767
sg330
V2017
p768
sg332
F36.0
sg333
VJUN 29, 1981
p769
sg335
V6-7
p770
sg337
VJoe Johnson
p771
sg339
I1610612762
sg340
g563
sg342
V16
p772
sg344
V00
p773
sg346
VG-F
p774
sg347
I2207
ssI2210
(dp775
g50
VArizona
p776
sg51
V233
p777
sg53
V2017
p778
sg55
F37.0
sg56
VJUN 21, 1980
p779
sg58
V6-7
p780
sg60
VRichard Jefferson
p781
sg62
I1610612743
sg63
V22
p782
sg65
V16
p783
sg66
V00
p784
sg68
g111
sg70
I2210
ssI2216
(dp785
g282
VMichigan State
p786
sg284
V250
p787
sg286
V2017
p788
sg288
F36.0
sg289
VJUL 16, 1981
p789
sg291
V6-9
p790
sg293
VZach Randolph
p791
sg295
I1610612758
sg296
V50
p792
sg298
V16
p793
sg299
V00
p794
sg301
g111
sg302
I2216
ssI2225
(dp795
g178
VParis, France
p796
sg180
V185
p797
sg182
V2017
p798
sg184
F35.0
sg185
VMAY 17, 1982
p799
sg187
V6-2
p800
sg189
VTony Parker
p801
sg191
I1610612759
sg192
V9
p802
sg194
V16
p803
sg196
V00
p804
sg198
g69
sg199
I2225
ssI1628365
(dp805
g26
VWashington
p806
sg28
V200
p807
sg30
V2017
p808
sg32
F19.0
sg33
VMAY 29, 1998
p809
sg35
V6-4
p810
sg37
VMarkelle Fultz
p811
sg39
I1610612755
sg40
V20
p812
sg42
g483
sg44
V00
p813
sg46
g69
sg48
I1628365
ssI1628366
(dp814
g639
VCalifornia-Los Angeles
p815
sg641
V190
p816
sg643
V2017
p817
sg645
F20.0
sg646
VOCT 27, 1997
p818
sg648
V6-6
p819
sg650
VLonzo Ball
p820
sg652
I1610612747
sg653
g43
sg654
g483
sg655
V00
p821
sg657
g69
sg658
I1628366
ssI1628368
(dp822
g282
VKentucky
p823
sg284
V175
p824
sg286
V2017
p825
sg288
F19.0
sg289
VDEC 20, 1997
p826
sg291
V6-3
p827
sg293
VDe'Aaron Fox
p828
sg295
I1610612758
sg296
g19
sg298
g483
sg299
V00
p829
sg301
g69
sg302
I1628368
ssI1628369
(dp830
g498
VDuke
p831
sg500
V205
p832
sg502
V2017
p833
sg504
F19.0
sg505
VMAR 03, 1998
p834
sg507
V6-8
p835
sg509
VJayson Tatum
p836
sg511
I1610612738
sg512
g64
sg514
g483
sg515
V00
p837
sg517
g111
sg518
I1628369
ssI1628371
(dp838
g2
VFlorida State
p839
sg4
V210
p840
sg6
V2017
p841
sg8
F20.0
sg9
VOCT 03, 1997
p842
sg11
V6-10
p843
sg13
VJonathan Isaac
p844
sg15
I1610612753
sg16
g87
sg18
g483
sg20
V00
p845
sg22
g111
sg24
I1628371
ssI1628372
(dp846
g709
VNorth Carolina State
p847
sg711
V195
p848
sg713
V2017
p849
sg715
F19.0
sg716
VNOV 25, 1997
p850
sg718
V6-3
p851
sg720
VDennis Smith Jr.
p852
sg722
I1610612742
sg723
g87
sg724
g483
sg726
V00
p853
sg728
g69
sg729
I1628372
ssI1628373
(dp854
g591
Nsg593
V190
p855
sg595
V2017
p856
sg597
F19.0
sg598
VJUL 28, 1998
p857
sg600
V6-5
p858
sg602
VFrank Ntilikina
p859
sg604
I1610612752
sg605
V11
p860
sg607
g483
sg608
V00
p861
sg610
g69
sg611
I1628373
ssI1628374
(dp862
g349
VArizona
p863
sg351
V230
p864
sg353
V2017
p865
sg355
F20.0
sg356
VMAY 22, 1997
p866
sg358
V7-0
p867
sg360
VLauri Markkanen
p868
sg362
I1610612741
sg363
V24
p869
sg365
g483
sg366
V00
p870
sg368
g111
sg369
I1628374
ssI1628378
(dp871
g326
VLouisville
p872
sg328
V215
p873
sg330
V2017
p874
sg332
F21.0
sg333
VSEP 07, 1996
p875
sg335
V6-3
p876
sg337
VDonovan Mitchell
p877
sg339
I1610612762
sg340
V45
p878
sg342
g483
sg344
V00
p879
sg346
g69
sg347
I1628378
ssI1628380
(dp880
g569
VGonzaga
p881
sg571
V230
p882
sg573
V2017
p883
sg575
F19.0
sg576
VNOV 19, 1997
p884
sg578
V7-0
p885
sg580
VZach Collins
p886
sg582
I1610612757
sg583
V33
p887
sg584
g483
sg585
V00
p888
sg587
VC-F
p889
sg589
I1628380
ssI1628381
(dp890
VSCHOOL
p891
VWake Forest
p892
sVWEIGHT
p893
V235
p894
sVSEASON
p895
V2017
p896
sVAGE
p897
F20.0
sVBIRTH_DATE
p898
VSEP 23, 1997
p899
sVHEIGHT
p900
V6-10
p901
sVPLAYER
p902
VJohn Collins
p903
sVTeamID
p904
I1610612737
sVNUM
p905
V20
p906
sVEXP
p907
g483
sVLeagueID
p908
V00
p909
sVPOSITION
p910
VF-C
p911
sVPLAYER_ID
p912
I1628381
ssI1628382
(dp913
g282
VNorth Carolina
p914
sg284
V210
p915
sg286
V2017
p916
sg288
F22.0
sg289
VMAR 28, 1995
p917
sg291
V6-8
p918
sg293
VJustin Jackson
p919
sg295
I1610612758
sg296
V25
p920
sg298
g483
sg299
V00
p921
sg301
g111
sg302
I1628382
ssI1628383
(dp922
g72
VCreighton
p923
sg74
V236
p924
sg76
V2017
p925
sg78
F20.0
sg79
VJUN 14, 1997
p926
sg81
V7-0
p927
sg83
VJustin Patton
p928
sg85
I1610612750
sg86
V24
p929
sg88
g483
sg89
V00
p930
sg91
g47
sg92
I1628383
ssI1628384
(dp931
g156
VIndiana
p932
sg158
V235
p933
sg160
V2017
p934
sg162
F20.0
sg163
VJUL 17, 1997
p935
sg165
V6-8
p936
sg167
VOG Anunoby
p937
sg169
I1610612761
sg170
g109
sg172
g483
sg173
V00
p938
sg175
g111
sg176
I1628384
ssI1628385
(dp939
g282
VDuke
p940
sg284
V240
p941
sg286
V2017
p942
sg288
F19.0
sg289
VAPR 22, 1998
p943
sg291
V6-10
p944
sg293
VHarry Giles
p945
sg295
I1610612758
sg296
V20
p946
sg298
g483
sg299
V00
p947
sg301
VF-C
p948
sg302
I1628385
ssI1628386
(dp949
g210
VTexas
p950
sg212
V234
p951
sg214
V2017
p952
sg216
F19.0
sg217
VAPR 21, 1998
p953
sg219
V6-11
p954
sg221
VJarrett Allen
p955
sg223
I1610612751
sg224
V31
p956
sg225
g483
sg226
V00
p957
sg228
g47
sg229
I1628386
ssI1628387
(dp958
g371
VCalifornia-Los Angeles
p959
sg373
V262
p960
sg375
V2017
p961
sg377
F19.0
sg378
VOCT 16, 1998
p962
sg380
V6-10
p963
sg382
VIke Anigbogu
p964
sg384
I1610612754
sg385
V13
p965
sg387
g483
sg388
V00
p966
sg390
g47
sg391
I1628387
ssI1628388
(dp967
g371
VCalifornia-Los Angeles
p968
sg373
V230
p969
sg375
V2017
p970
sg377
F20.0
sg378
VAPR 30, 1997
p971
sg380
V6-10
p972
sg382
VTJ Leaf
p973
sg384
I1610612754
sg385
V22
p974
sg387
g483
sg388
V00
p975
sg390
g111
sg391
I1628388
ssI1628389
(dp976
g250
VKentucky
p977
sg252
V255
p978
sg254
V2017
p979
sg256
F20.0
sg257
VJUL 18, 1997
p980
sg259
V6-10
p981
sg261
VBam Adebayo
p982
sg263
I1610612748
sg264
V13
p983
sg266
g483
sg267
V00
p984
sg269
VC-F
p985
sg270
I1628389
ssI1628390
(dp986
g466
Nsg468
V184
p987
sg470
V2017
p988
sg472
F19.0
sg473
VMAY 17, 1998
p989
sg475
V6-7
p990
sg477
VTerrance Ferguson
p991
sg479
I1610612760
sg480
V23
p992
sg482
g483
sg484
V00
p993
sg486
g69
sg487
I1628390
ssI1628391
(dp994
g304
VMichigan
p995
sg306
V236
p996
sg308
V2017
p997
sg310
F21.0
sg311
VFEB 19, 1996
p998
sg313
V6-10
p999
sg315
VD.J. Wilson
p1000
sg317
I1610612749
sg318
g19
sg320
g483
sg321
V00
p1001
sg323
g111
sg324
I1628391
ssI1628393
(dp1002
g113
VOklahoma State
p1003
sg115
V190
p1004
sg117
V2017
p1005
sg119
F21.0
sg120
VJUL 26, 1996
p1006
sg122
V6-0
p1007
sg124
VJawun Evans
p1008
sg126
I1610612746
sg127
g87
sg128
g483
sg129
V00
p1009
sg131
g69
sg133
I1628393
ssI1628395
(dp1010
g417
VOregon
p1011
sg419
V224
p1012
sg421
V2017
p1013
sg423
F22.0
sg424
VJAN 07, 1995
p1014
sg426
V6-9
p1015
sg428
VJordan Bell
p1016
sg430
I1610612744
sg431
g43
sg432
g483
sg433
V00
p1017
sg435
g111
sg436
I1628395
ssI1628396
(dp1018
g326
VNorth Carolina
p1019
sg328
V248
p1020
sg330
V2017
p1021
sg332
F19.0
sg333
VJAN 08, 1998
p1022
sg335
V6-10
p1023
sg337
VTony Bradley
p1024
sg339
I1610612762
sg340
V13
p1025
sg342
g483
sg344
V00
p1026
sg346
g47
sg347
I1628396
ssI1628397
(dp1027
g135
VCalifornia
p1028
sg137
V220
p1029
sg139
V2017
p1030
sg141
F20.0
sg142
VFEB 04, 1997
p1031
sg144
V6-10
p1032
sg146
VIvan Rabb
p1033
sg148
I1610612763
sg149
V10
p1034
sg150
g483
sg151
V00
p1035
sg153
g111
sg154
I1628397
ssI1628398
(dp1036
g639
VUtah
p1037
sg641
V220
p1038
sg643
V2017
p1039
sg645
F22.0
sg646
VJUL 24, 1995
p1040
sg648
V6-9
p1041
sg650
VKyle Kuzma
p1042
sg652
I1610612747
sg653
g64
sg654
g483
sg655
V00
p1043
sg657
g111
sg658
I1628398
ssI1628399
(dp1044
g50
VSyracuse
p1045
sg51
V220
p1046
sg53
V2017
p1047
sg55
F21.0
sg56
VAPR 09, 1996
p1048
sg58
V6-9
p1049
sg60
VTyler Lydon
p1050
sg62
I1610612743
sg63
V20
p1051
sg65
g483
sg66
V00
p1052
sg68
g111
sg70
I1628399
ssI1628400
(dp1053
g498
VSouthern Methodist
p1054
sg500
V235
p1055
sg502
V2017
p1056
sg504
F22.0
sg505
VDEC 05, 1994
p1057
sg507
V6-7
p1058
sg509
VSemi Ojeleye
p1059
sg511
I1610612738
sg512
V37
p1060
sg514
g483
sg515
V00
p1061
sg517
g111
sg518
I1628400
ssI1628401
(dp1062
g178
VColorado
p1063
sg180
V190
p1064
sg182
V2017
p1065
sg184
F23.0
sg185
VJUL 02, 1994
p1066
sg187
V6-4
p1067
sg189
VDerrick White
p1068
sg191
I1610612759
sg192
g544
sg194
g483
sg196
V00
p1069
sg198
g69
sg199
I1628401
ssI1628402
(dp1070
VSCHOOL
p1071
VDuke
p1072
sVWEIGHT
p1073
V205
p1074
sVSEASON
p1075
V2017
p1076
sVAGE
p1077
F19.0
sVBIRTH_DATE
p1078
VMAY 04, 1998
p1079
sVHEIGHT
p1080
V6-3
p1081
sVPLAYER
p1082
VFrank Jackson
p1083
sVTeamID
p1084
I1610612740
sVNUM
p1085
V15
p1086
sVEXP
p1087
g483
sVLeagueID
p1088
V00
p1089
sVPOSITION
p1090
g69
sVPLAYER_ID
p1091
I1628402
ssI1628403
(dp1092
g569
VPurdue
p1093
sg571
V250
p1094
sg573
V2017
p1095
sg575
F20.0
sg576
VAPR 18, 1997
p1096
sg578
V6-8
p1097
sg580
VCaleb Swanigan
p1098
sg582
I1610612757
sg583
V50
p1099
sg584
g483
sg585
V00
p1100
sg587
VF-C
p1101
sg589
I1628403
ssI1628404
(dp1102
g639
VVillanova
p1103
sg641
V215
p1104
sg643
V2017
p1105
sg645
F22.0
sg646
VMAR 06, 1995
p1106
sg648
V6-5
p1107
sg650
VJosh Hart
p1108
sg652
I1610612747
sg653
g19
sg654
g483
sg655
V00
p1109
sg657
g69
sg658
I1628404
ssI1628405
(dp1110
g709
VBaylor
p1111
sg711
V230
p1112
sg713
V2017
p1113
sg715
F22.0
sg716
VMAY 04, 1995
p1114
sg718
V6-10
p1115
sg720
VJohnathan Motley
p1116
sg722
I1610612742
sg723
g563
sg724
g483
sg726
V00
p1117
sg728
g111
sg729
I1628405
ssI1628408
(dp1118
g466
VSouth Carolina
p1119
sg468
V205
p1120
sg470
V2017
p1121
sg472
F21.0
sg473
VOCT 25, 1996
p1122
sg475
V6-6
p1123
sg477
VPJ Dozier
p1124
sg479
I1610612760
sg480
V35
p1125
sg482
g483
sg484
V00
p1126
sg486
g69
sg487
I1628408
ssI203476
(dp1127
g72
VLouisville
p1128
sg74
V251
p1129
sg76
V2017
p1130
sg78
F27.0
sg79
VJAN 18, 1990
p1131
sg81
V6-11
p1132
sg83
VGorgui Dieng
p1133
sg85
I1610612750
sg86
g19
sg88
g544
sg89
V00
p1134
sg91
g47
sg92
I203476
ssI1628410
(dp1135
g371
VXavier
p1136
sg373
V188
p1137
sg375
V2017
p1138
sg377
F21.0
sg378
VDEC 31, 1995
p1139
sg380
V6-5
p1140
sg382
VEdmond Sumner
p1141
sg384
I1610612754
sg385
g19
sg387
g483
sg388
V00
p1142
sg390
g69
sg391
I1628410
ssI1628411
(dp1143
g2
VKansas State
p1144
sg4
V195
p1145
sg6
V2017
p1146
sg8
F22.0
sg9
VDEC 20, 1994
p1147
sg11
V6-7
p1148
sg13
VWes Iwundu
p1149
sg15
I1610612753
sg16
V25
p1150
sg18
g483
sg20
V00
p1151
sg22
g111
sg24
I1628411
ssI1628412
(dp1152
g282
VKansas
p1153
sg284
V190
p1154
sg286
V2017
p1155
sg288
F23.0
sg289
VAPR 03, 1994
p1156
sg291
V5-11
p1157
sg293
VFrank Mason
p1158
sg295
I1610612758
sg296
V10
p1159
sg298
g483
sg299
V00
p1160
sg301
g69
sg302
I1628412
ssI1628414
(dp1161
g113
VSouth Carolina
p1162
sg115
V215
p1163
sg117
V2017
p1164
sg119
F22.0
sg120
VNOV 15, 1994
p1165
sg122
V6-5
p1166
sg124
VSindarius Thornwell
p1167
sg126
I1610612746
sg127
g64
sg128
g483
sg129
V00
p1168
sg131
g69
sg133
I1628414
ssI1628415
(dp1169
g135
VOregon
p1170
sg137
V220
p1171
sg139
V2017
p1172
sg141
F21.0
sg142
VJAN 22, 1996
p1173
sg144
V6-6
p1174
sg146
VDillon Brooks
p1175
sg148
I1610612763
sg149
V24
p1176
sg150
g483
sg151
V00
p1177
sg153
VF-G
p1178
sg154
I1628415
ssI1628416
(dp1179
g891
VOregon
p1180
sg893
V183
p1181
sg895
V2017
p1182
sg897
F21.0
sg898
VFEB 18, 1996
p1183
sg900
V6-4
p1184
sg902
VTyler Dorsey
p1185
sg904
I1610612737
sg905
g43
sg907
g483
sg908
V00
p1186
sg910
g69
sg912
I1628416
ssI1628418
(dp1187
g639
VIndiana
p1188
sg641
V248
p1189
sg643
V2017
p1190
sg645
F20.0
sg646
VJUL 31, 1997
p1191
sg648
V6-10
p1192
sg650
VThomas Bryant
p1193
sg652
I1610612747
sg653
V31
p1194
sg654
g483
sg655
V00
p1195
sg657
g47
sg658
I1628418
ssI1628420
(dp1196
g50
VIowa State
p1197
sg51
V175
p1198
sg53
V2017
p1199
sg55
F22.0
sg56
VJUN 27, 1995
p1200
sg58
V6-3
p1201
sg60
VMonte Morris
p1202
sg62
I1610612743
sg63
V11
p1203
sg65
g483
sg66
V00
p1204
sg68
g69
sg70
I1628420
ssI1628422
(dp1205
g591
VHouston
p1206
sg593
V210
p1207
sg595
V2017
p1208
sg597
F23.0
sg598
VMAY 06, 1994
p1209
sg600
V6-5
p1210
sg602
VDamyean Dotson
p1211
sg604
I1610612752
sg605
V21
p1212
sg607
g483
sg608
V00
p1213
sg610
g69
sg611
I1628422
ssI1628424
(dp1214
g135
VArizona
p1215
sg137
V170
p1216
sg139
V2017
p1217
sg141
F20.0
sg142
VJUL 04, 1997
p1218
sg144
V6-4
p1219
sg146
VKobi Simmons
p1220
sg148
I1610612763
sg149
g43
sg150
g483
sg151
V00
p1221
sg153
g69
sg154
I1628424
ssI1628425
(dp1222
g304
VSouthern Methodist
p1223
sg306
V230
p1224
sg308
V2017
p1225
sg310
F22.0
sg311
VFEB 10, 1995
p1226
sg313
V6-6
p1227
sg315
VSterling Brown
p1228
sg317
I1610612749
sg318
V23
p1229
sg320
g483
sg321
V00
p1230
sg323
g69
sg324
I1628425
ssI1628429
(dp1231
g1071
VDayton
p1232
sg1073
V196
p1233
sg1075
V2017
p1234
sg1077
F23.0
sg1078
VJUL 01, 1994
p1235
sg1080
V6-5
p1236
sg1082
VCharles Cooke
p1237
sg1084
I1610612740
sg1085
g544
sg1087
g483
sg1088
V00
p1238
sg1090
g69
sg1091
I1628429
ssI1628436
(dp1239
g591
VVanderbilt
p1240
sg593
V250
p1241
sg595
V2017
p1242
sg597
F22.0
sg598
VJUL 15, 1995
p1243
sg600
V7-1
p1244
sg602
VLuke Kornet
p1245
sg604
I1610612752
sg605
g43
sg607
g483
sg608
V00
p1246
sg610
VF-C
p1247
sg611
I1628436
ssI1628439
(dp1248
g591
VNorth Carolina
p1249
sg593
V242
p1250
sg595
V2017
p1251
sg597
F23.0
sg598
VJUL 24, 1994
p1252
sg600
V6-9
p1253
sg602
VIsaiah Hicks
p1254
sg604
I1610612752
sg605
g544
sg607
g483
sg608
V00
p1255
sg610
g111
sg611
I1628439
ssI1628443
(dp1256
g498
VArizona
p1257
sg500
V200
p1258
sg502
V2017
p1259
sg504
F24.0
sg505
VJAN 15, 1993
p1260
sg507
V6-3
p1261
sg509
VKadeem Allen
p1262
sg511
I1610612738
sg512
V45
p1263
sg514
g483
sg515
V00
p1264
sg517
g69
sg518
I1628443
ssI1628444
(dp1265
g498
VCalifornia
p1266
sg500
V198
p1267
sg502
V2017
p1268
sg504
F23.0
sg505
VJUL 03, 1994
p1269
sg507
V6-6
p1270
sg509
VJabari Bird
p1271
sg511
I1610612738
sg512
V26
p1272
sg514
g483
sg515
V00
p1273
sg517
g69
sg518
I1628444
ssI1628449
(dp1274
g417
VOregon
p1275
sg419
V200
p1276
sg421
V2017
p1277
sg423
F24.0
sg424
VJAN 11, 1993
p1278
sg426
V6-10
p1279
sg428
VChris Boucher
p1280
sg430
I1610612744
sg431
V25
p1281
sg432
g483
sg433
V00
p1282
sg435
g111
sg436
I1628449
ssI1628451
(dp1283
g210
VEastern Washington
p1284
sg212
V223
p1285
sg214
V2017
p1286
sg216
F23.0
sg217
VSEP 04, 1994
p1287
sg219
V6-8
p1288
sg221
VJacob Wiley
p1289
sg223
I1610612751
sg224
V21
p1290
sg225
g483
sg226
V00
p1291
sg228
g111
sg229
I1628451
ssI1628462
(dp1292
g113
Nsg115
V196
p1293
sg117
V2017
p1294
sg119
F30.0
sg120
VMAR 19, 1987
p1295
sg122
V6-5
p1296
sg124
VMilos Teodosic
p1297
sg126
I1610612746
sg127
g544
sg128
g483
sg129
V00
p1298
sg131
g69
sg133
I1628462
ssI1628463
(dp1299
g891
VGeorge Washington
p1300
sg893
V238
p1301
sg895
V2017
p1302
sg897
F23.0
sg898
VFEB 09, 1994
p1303
sg900
V6-9
p1304
sg902
VTyler Cavanaugh
p1305
sg904
I1610612737
sg905
V34
p1306
sg907
g483
sg908
V00
p1307
sg910
g111
sg912
I1628463
ssI1628464
(dp1308
g498
Nsg500
V243
p1309
sg502
V2017
p1310
sg504
F25.0
sg505
VAPR 04, 1992
p1311
sg507
V6-9
p1312
sg509
VDaniel Theis
p1313
sg511
I1610612738
sg512
V27
p1314
sg514
g483
sg515
V00
p1315
sg517
VF-C
p1316
sg518
I1628464
ssI1628467
(dp1317
g709
Nsg711
V220
p1318
sg713
V2017
p1319
sg715
F25.0
sg716
VJAN 29, 1992
p1320
sg718
V6-11
p1321
sg720
VMaxi Kleber
p1322
sg722
I1610612742
sg723
V42
p1323
sg724
g483
sg726
V00
p1324
sg728
g111
sg729
I1628467
ssI1628469
(dp1325
g349
VLouisiana State
p1326
sg351
V197
p1327
sg353
V2017
p1328
sg355
F21.0
sg356
VOCT 04, 1996
p1329
sg358
V6-4
p1330
sg360
VAntonio Blakeney
p1331
sg362
I1610612741
sg363
g802
sg365
g483
sg366
V00
p1332
sg368
g69
sg369
I1628469
ssI1628470
(dp1333
g50
VSouth Carolina Upstate
p1334
sg51
V215
p1335
sg53
V2017
p1336
sg55
F26.0
sg56
VDEC 19, 1990
p1337
sg58
V6-6
p1338
sg60
VTorrey Craig
p1339
sg62
I1610612743
sg63
g109
sg65
g483
sg66
V00
p1340
sg68
VG-F
p1341
sg70
I1628470
ssI1628473
(dp1342
g210
Nsg212
V220
p1343
sg214
V2017
p1344
sg216
F25.0
sg217
VJAN 24, 1992
p1345
sg219
V6-4
p1346
sg221
VYakuba Ouattara
p1347
sg223
I1610612751
sg224
V00
p1348
sg225
g483
sg226
V00
p1349
sg228
g69
sg229
I1628473
ssI1628475
(dp1350
g250
VCentral Florida
p1351
sg252
V210
p1352
sg254
V2017
p1353
sg256
F24.0
sg257
VOCT 14, 1993
p1354
sg259
V6-5
p1355
sg261
VMatt Williams Jr.
p1356
sg263
I1610612748
sg264
V12
p1357
sg266
g483
sg267
V00
p1358
sg269
g69
sg270
I1628475
ssI1628476
(dp1359
g250
VMichigan
p1360
sg252
V185
p1361
sg254
V2017
p1362
sg256
F22.0
sg257
VAPR 03, 1995
p1363
sg259
V6-1
p1364
sg261
VDerrick Walton Jr.
p1365
sg263
I1610612748
sg264
V14
p1366
sg266
g483
sg267
V00
p1367
sg269
g69
sg270
I1628476
ssI203076
(dp1368
g1071
VKentucky
p1369
sg1073
V253
p1370
sg1075
V2017
p1371
sg1077
F24.0
sg1078
VMAR 11, 1993
p1372
sg1080
V6-10
p1373
sg1082
VAnthony Davis
p1374
sg1084
I1610612740
sg1085
V23
p1375
sg1087
g19
sg1088
V00
p1376
sg1090
VF-C
p1377
sg1091
I203076
ssI203079
(dp1378
g250
VSyracuse
p1379
sg252
V215
p1380
sg254
V2017
p1381
sg256
F25.0
sg257
VDEC 10, 1991
p1382
sg259
V6-4
p1383
sg261
VDion Waiters
p1384
sg263
I1610612748
sg264
V11
p1385
sg266
g19
sg267
V00
p1386
sg269
g69
sg270
I203079
ssI203081
(dp1387
g569
VWeber State
p1388
sg571
V195
p1389
sg573
V2017
p1390
sg575
F27.0
sg576
VJUL 15, 1990
p1391
sg578
V6-3
p1392
sg580
VDamian Lillard
p1393
sg582
I1610612757
sg583
g64
sg584
g19
sg585
V00
p1394
sg587
g69
sg589
I203081
ssI203082
(dp1395
g2
VWashington
p1396
sg4
V206
p1397
sg6
V2017
p1398
sg8
F26.0
sg9
VFEB 05, 1991
p1399
sg11
V6-7
p1400
sg13
VTerrence Ross
p1401
sg15
I1610612753
sg16
V31
p1402
sg18
g19
sg20
V00
p1403
sg22
VG-F
p1404
sg24
I203082
ssI1628492
(dp1405
g709
VColorado State
p1406
sg711
V185
p1407
sg713
V2017
p1408
sg715
F23.0
sg716
VNOV 26, 1993
p1409
sg718
V6-4
p1410
sg720
VGian Clavell
p1411
sg722
I1610612742
sg723
g41
sg724
g483
sg726
V00
p1412
sg728
g69
sg729
I1628492
ssI203085
(dp1413
g113
VDuke
p1414
sg115
V200
p1415
sg117
V2017
p1416
sg119
F25.0
sg120
VAUG 01, 1992
p1417
sg122
V6-4
p1418
sg124
VAustin Rivers
p1419
sg126
I1610612746
sg127
V25
p1420
sg128
g19
sg129
V00
p1421
sg131
g69
sg133
I203085
ssI203086
(dp1422
g569
VIllinois
p1423
sg571
V255
p1424
sg573
V2017
p1425
sg575
F25.0
sg576
VFEB 27, 1992
p1426
sg578
V7-1
p1427
sg580
VMeyers Leonard
p1428
sg582
I1610612757
sg583
V11
p1429
sg584
g19
sg585
V00
p1430
sg587
g47
sg589
I203086
ssI203089
(dp1431
g304
VNorth Carolina
p1432
sg306
V229
p1433
sg308
V2017
p1434
sg310
F26.0
sg311
VDEC 28, 1990
p1435
sg313
V6-11
p1436
sg315
VJohn Henson
p1437
sg317
I1610612749
sg318
V31
p1438
sg320
g19
sg321
V00
p1439
sg323
VF-C
p1440
sg324
I203089
ssI203090
(dp1441
g569
VSt. John's (NY)
p1442
sg571
V220
p1443
sg573
V2017
p1444
sg575
F24.0
sg576
VMAY 11, 1993
p1445
sg578
V6-9
p1446
sg580
VMaurice Harkless
p1447
sg582
I1610612757
sg583
g544
sg584
g19
sg585
V00
p1448
sg587
g111
sg589
I203090
ssI203092
(dp1449
g210
VNorth Carolina
p1450
sg212
V250
p1451
sg214
V2017
p1452
sg216
F27.0
sg217
VJAN 17, 1990
p1453
sg219
V7-0
p1454
sg221
VTyler Zeller
p1455
sg223
I1610612751
sg224
V44
p1456
sg225
g19
sg226
V00
p1457
sg228
g47
sg229
I203092
ssI1628503
(dp1458
g2
VPittsburgh
p1459
sg4
V213
p1460
sg6
V2017
p1461
sg8
F24.0
sg9
VJAN 12, 1993
p1462
sg11
V6-7
p1463
sg13
VJamel Artis
p1464
sg15
I1610612753
sg16
g64
sg18
g483
sg20
V00
p1465
sg22
g69
sg24
I1628503
ssI1628506
(dp1466
g687
VVirginia
p1467
sg689
V190
p1468
sg691
V2017
p1469
sg693
F23.0
sg694
VOCT 03, 1994
p1470
sg696
V6-2
p1471
sg698
VLondon Perrantes
p1472
sg700
I1610612739
sg701
V15
p1473
sg703
g483
sg704
V00
p1474
sg706
g69
sg707
I1628506
ssI203101
(dp1475
g891
VDuke
p1476
sg893
V249
p1477
sg895
V2017
p1478
sg897
F29.0
sg898
VSEP 01, 1988
p1479
sg900
V6-11
p1480
sg902
VMiles Plumlee
p1481
sg904
I1610612737
sg905
V18
p1482
sg907
g19
sg908
V00
p1483
sg910
g47
sg912
I203101
ssI2403
(dp1484
g547
VSao Carlos, Brazil
p1485
sg549
V250
p1486
sg551
V2017
p1487
sg553
F35.0
sg554
VSEP 13, 1982
p1488
sg556
V6-11
p1489
sg558
VNene
p1490
sg560
I1610612745
sg561
V42
p1491
sg562
V15
p1492
sg564
V00
p1493
sg566
VC-F
p1494
sg567
I2403
ssI203109
(dp1495
g687
VMarquette
p1496
sg689
V235
p1497
sg691
V2017
p1498
sg693
F27.0
sg694
VJUL 06, 1990
p1499
sg696
V6-6
p1500
sg698
VJae Crowder
p1501
sg700
I1610612739
sg701
V99
p1502
sg703
g19
sg704
V00
p1503
sg706
g111
sg707
I203109
ssI203110
(dp1504
g417
VMichigan State
p1505
sg419
V230
p1506
sg421
V2017
p1507
sg423
F27.0
sg424
VMAR 04, 1990
p1508
sg426
V6-7
p1509
sg428
VDraymond Green
p1510
sg430
I1610612744
sg431
V23
p1511
sg432
g19
sg433
V00
p1512
sg435
g111
sg436
I203110
ssI203112
(dp1513
g210
VBaylor
p1514
sg212
V240
p1515
sg214
V2017
p1516
sg216
F27.0
sg217
VOCT 06, 1990
p1517
sg219
V6-7
p1518
sg221
VQuincy Acy
p1519
sg223
I1610612751
sg224
V13
p1520
sg225
g19
sg226
V00
p1521
sg228
g111
sg229
I203112
ssI203114
(dp1522
g304
VTexas A&M
p1523
sg306
V234
p1524
sg308
V2017
p1525
sg310
F26.0
sg311
VAUG 12, 1991
p1526
sg313
V6-8
p1527
sg315
VKhris Middleton
p1528
sg317
I1610612749
sg318
V22
p1529
sg320
g19
sg321
V00
p1530
sg323
g111
sg324
I203114
ssI203115
(dp1531
g50
VMemphis
p1532
sg51
V190
p1533
sg53
V2017
p1534
sg55
F26.0
sg56
VJAN 06, 1991
p1535
sg58
V6-6
p1536
sg60
VWill Barton
p1537
sg62
I1610612743
sg63
g19
sg65
g19
sg66
V00
p1538
sg68
VG-F
p1539
sg70
I203115
ssI200765
(dp1540
g1071
VKentucky
p1541
sg1073
V186
p1542
sg1075
V2017
p1543
sg1077
F31.0
sg1078
VFEB 22, 1986
p1544
sg1080
V6-1
p1545
sg1082
VRajon Rondo
p1546
sg1084
I1610612740
sg1085
g802
sg1087
V11
p1547
sg1088
V00
p1548
sg1090
g69
sg1091
I200765
ssI203121
(dp1549
g1071
VKentucky
p1550
sg1073
V225
p1551
sg1075
V2017
p1552
sg1077
F27.0
sg1078
VMAR 21, 1990
p1553
sg1080
V6-8
p1554
sg1082
VDarius Miller
p1555
sg1084
I1610612740
sg1085
V21
p1556
sg1087
g109
sg1088
V00
p1557
sg1090
g111
sg1091
I203121
ssI203124
(dp1558
g591
VNorfolk State
p1559
sg593
V250
p1560
sg595
V2017
p1561
sg597
F27.0
sg598
VMAR 26, 1990
p1562
sg600
V6-10
p1563
sg602
VKyle O'Quinn
p1564
sg604
I1610612752
sg605
g802
sg607
g19
sg608
V00
p1565
sg610
VC-F
p1566
sg611
I203124
ssI203141
(dp1567
g304
VBosnia
p1568
sg306
V242
p1569
sg308
V2017
p1570
sg310
F32.0
sg311
VSEP 17, 1985
p1571
sg313
V6-9
p1572
sg315
VMirza Teletovic
p1573
sg317
I1610612749
sg318
V35
p1574
sg320
g19
sg321
V00
p1575
sg323
g111
sg324
I203141
ssI203145
(dp1576
g891
VOld Dominion
p1577
sg893
V201
p1578
sg895
V2017
p1579
sg897
F28.0
sg898
VJUL 01, 1989
p1580
sg900
V6-5
p1581
sg902
VKent Bazemore
p1582
sg904
I1610612737
sg905
V24
p1583
sg907
g19
sg908
V00
p1584
sg910
g69
sg912
I203145
ssI203506
(dp1585
g371
VIndiana
p1586
sg373
V210
p1587
sg375
V2017
p1588
sg377
F25.0
sg378
VMAY 04, 1992
p1589
sg380
V6-4
p1590
sg382
VVictor Oladipo
p1591
sg384
I1610612754
sg385
g544
sg387
g544
sg388
V00
p1592
sg390
g69
sg391
I203506
ssI203186
(dp1593
g113
VSaint Louis
p1594
sg115
V245
p1595
sg117
V2017
p1596
sg119
F27.0
sg120
VMAY 16, 1990
p1597
sg122
V6-11
p1598
sg124
VWillie Reed
p1599
sg126
I1610612746
sg127
V35
p1600
sg128
g43
sg129
V00
p1601
sg131
g47
sg133
I203186
ssI201142
(dp1602
g417
VTexas
p1603
sg419
V240
p1604
sg421
V2017
p1605
sg423
F29.0
sg424
VSEP 29, 1988
p1606
sg426
V6-9
p1607
sg428
VKevin Durant
p1608
sg430
I1610612744
sg431
V35
p1609
sg432
V10
p1610
sg433
V00
p1611
sg435
g111
sg436
I201142
ssI201143
(dp1612
g498
VFlorida
p1613
sg500
V245
p1614
sg502
V2017
p1615
sg504
F31.0
sg505
VJUN 03, 1986
p1616
sg507
V6-10
p1617
sg509
VAl Horford
p1618
sg511
I1610612738
sg512
V42
p1619
sg514
V10
p1620
sg515
V00
p1621
sg517
VF-C
p1622
sg518
I201143
ssI201144
(dp1623
g135
VOhio State
p1624
sg137
V175
p1625
sg139
V2017
p1626
sg141
F30.0
sg142
VOCT 11, 1987
p1627
sg144
V6-1
p1628
sg146
VMike Conley
p1629
sg148
I1610612763
sg149
V11
p1630
sg150
V10
p1631
sg151
V00
p1632
sg153
g69
sg154
I201144
ssI201145
(dp1633
g687
VGeorgetown
p1634
sg689
V235
p1635
sg691
V2017
p1636
sg693
F31.0
sg694
VAUG 28, 1986
p1637
sg696
V6-9
p1638
sg698
VJeff Green
p1639
sg700
I1610612739
sg701
V32
p1640
sg703
g802
sg704
V00
p1641
sg706
g111
sg707
I201145
ssI201147
(dp1642
g639
VFlorida
p1643
sg641
V186
p1644
sg643
V2017
p1645
sg645
F31.0
sg646
VMAR 05, 1986
p1646
sg648
V6-9
p1647
sg650
VCorey Brewer
p1648
sg652
I1610612747
sg653
g109
sg654
V10
p1649
sg655
V00
p1650
sg657
g111
sg658
I201147
ssI201148
(dp1651
g135
VNorth Carolina
p1652
sg137
V235
p1653
sg139
V2017
p1654
sg141
F30.0
sg142
VOCT 05, 1987
p1655
sg144
V6-10
p1656
sg146
VBrandan Wright
p1657
sg148
I1610612763
sg149
V34
p1658
sg150
g802
sg151
V00
p1659
sg153
VF-C
p1660
sg154
I201148
ssI201149
(dp1661
g591
VFlorida
p1662
sg593
V230
p1663
sg595
V2017
p1664
sg597
F32.0
sg598
VFEB 25, 1985
p1665
sg600
V6-11
p1666
sg602
VJoakim Noah
p1667
sg604
I1610612752
sg605
V13
p1668
sg607
V10
p1669
sg608
V00
p1670
sg610
g47
sg611
I201149
ssI203200
(dp1671
g349
VWashington
p1672
sg351
V185
p1673
sg353
V2017
p1674
sg355
F28.0
sg356
VAPR 05, 1989
p1675
sg358
V6-6
p1676
sg360
VJustin Holiday
p1677
sg362
I1610612741
sg363
g207
sg365
g544
sg366
V00
p1678
sg368
g69
sg369
I203200
ssI201156
(dp1679
g417
VSouthern California
p1680
sg419
V210
p1681
sg421
V2017
p1682
sg423
F32.0
sg424
VJUN 01, 1985
p1683
sg426
V6-7
p1684
sg428
VNick Young
p1685
sg430
I1610612744
sg431
g563
sg432
V10
p1686
sg433
V00
p1687
sg435
VG-F
p1688
sg436
I201156
ssI201158
(dp1689
g891
VBologna, Italy
p1690
sg893
V210
p1691
sg895
V2017
p1692
sg897
F31.0
sg898
VMAR 25, 1986
p1693
sg900
V6-5
p1694
sg902
VMarco Belinelli
p1695
sg904
I1610612737
sg905
g109
sg907
V10
p1696
sg908
V00
p1697
sg910
VG-F
p1698
sg912
I201158
ssI203210
(dp1699
g135
VAlabama
p1700
sg137
V227
p1701
sg139
V2017
p1702
sg141
F27.0
sg142
VJUN 21, 1990
p1703
sg144
V6-9
p1704
sg146
VJaMychal Green
p1705
sg148
I1610612763
sg149
g64
sg150
g109
sg151
V00
p1706
sg153
g111
sg154
I203210
ssI201163
(dp1707
g50
VDePaul
p1708
sg51
V225
p1709
sg53
V2017
p1710
sg55
F30.0
sg56
VMAY 10, 1987
p1711
sg58
V6-9
p1712
sg60
VWilson Chandler
p1713
sg62
I1610612743
sg63
V21
p1714
sg65
g802
sg66
V00
p1715
sg68
g111
sg70
I201163
ssI201166
(dp1716
g72
VOregon
p1717
sg74
V161
p1718
sg76
V2017
p1719
sg78
F32.0
sg79
VJAN 14, 1985
p1720
sg81
V6-0
p1721
sg83
VAaron Brooks
p1722
sg85
I1610612750
sg86
V30
p1723
sg88
g802
sg89
V00
p1724
sg91
g69
sg92
I201166
ssI201167
(dp1725
g2
VUCLA
p1726
sg4
V210
p1727
sg6
V2017
p1728
sg8
F32.0
sg9
VOCT 15, 1985
p1729
sg11
V6-5
p1730
sg13
VArron Afflalo
p1731
sg15
I1610612753
sg16
g544
sg18
V10
p1732
sg20
V00
p1733
sg22
g69
sg24
I201167
ssI101112
(dp1734
g687
VArizona
p1735
sg689
V255
p1736
sg691
V2017
p1737
sg693
F34.0
sg694
VMAY 17, 1983
p1738
sg696
V6-11
p1739
sg698
VChanning Frye
p1740
sg700
I1610612739
sg701
g41
sg703
V11
p1741
sg704
V00
p1742
sg706
g111
sg707
I101112
ssI201177
(dp1743
g709
VDuke
p1744
sg711
V240
p1745
sg713
V2017
p1746
sg715
F30.0
sg716
VFEB 28, 1987
p1747
sg718
V6-10
p1748
sg720
VJosh McRoberts
p1749
sg722
I1610612742
sg723
V13
p1750
sg724
V10
p1751
sg726
V00
p1752
sg728
VF-C
p1753
sg729
I201177
ssI201188
(dp1754
g135
VBarcelona, Spain
p1755
sg137
V255
p1756
sg139
V2017
p1757
sg141
F32.0
sg142
VJAN 29, 1985
p1758
sg144
V7-1
p1759
sg146
VMarc Gasol
p1760
sg148
I1610612763
sg149
V33
p1761
sg150
g802
sg151
V00
p1762
sg153
g47
sg154
I201188
ssI201196
(dp1763
g591
VNevada
p1764
sg593
V190
p1765
sg595
V2017
p1766
sg597
F31.0
sg598
VAPR 11, 1986
p1767
sg600
V6-3
p1768
sg602
VRamon Sessions
p1769
sg604
I1610612752
sg605
g87
sg607
V10
p1770
sg608
V00
p1771
sg610
g69
sg611
I201196
ssI2544
(dp1772
g687
VSt. Vincent-St. Mary HS (OH)
p1773
sg689
V250
p1774
sg691
V2017
p1775
sg693
F32.0
sg694
VDEC 30, 1984
p1776
sg696
V6-8
p1777
sg698
VLeBron James
p1778
sg700
I1610612739
sg701
V23
p1779
sg703
V14
p1780
sg704
V00
p1781
sg706
VF-G
p1782
sg707
I2544
ssI2546
(dp1783
g466
VSyracuse
p1784
sg468
V240
p1785
sg470
V2017
p1786
sg472
F33.0
sg473
VMAY 29, 1984
p1787
sg475
V6-8
p1788
sg477
VCarmelo Anthony
p1789
sg479
I1610612760
sg480
g207
sg482
V14
p1790
sg484
V00
p1791
sg486
g111
sg487
I2546
ssI2548
(dp1792
g687
VMarquette
p1793
sg689
V220
p1794
sg691
V2017
p1795
sg693
F35.0
sg694
VJAN 17, 1982
p1796
sg696
V6-4
p1797
sg698
VDwyane Wade
p1798
sg700
I1610612739
sg701
g802
sg703
V14
p1799
sg704
V00
p1800
sg706
g69
sg707
I2548
ssI2555
(dp1801
g466
VKansas
p1802
sg468
V255
p1803
sg470
V2017
p1804
sg472
F37.0
sg473
VOCT 26, 1980
p1805
sg475
V6-10
p1806
sg477
VNick Collison
p1807
sg479
I1610612760
sg480
g544
sg482
V13
p1808
sg484
V00
p1809
sg486
g111
sg487
I2555
ssI2561
(dp1810
g417
VXavier
p1811
sg419
V250
p1812
sg421
V2017
p1813
sg423
F37.0
sg424
VAUG 29, 1980
p1814
sg426
V6-9
p1815
sg428
VDavid West
p1816
sg430
I1610612744
sg431
g109
sg432
V14
p1817
sg433
V00
p1818
sg435
g111
sg436
I2561
ssI1626643
(dp1819
g26
VKansas State
p1820
sg28
V200
p1821
sg30
V2017
p1822
sg32
F28.0
sg33
VNOV 10, 1989
p1823
sg35
V6-1
p1824
sg37
VJacob Pullen
p1825
sg39
I1610612755
sg40
V00
p1826
sg42
g483
sg44
V00
p1827
sg46
g69
sg48
I1626643
ssI2585
(dp1828
g417
VTbilisi, Georgia
p1829
sg419
V270
p1830
sg421
V2017
p1831
sg423
F33.0
sg424
VFEB 10, 1984
p1832
sg426
V6-11
p1833
sg428
VZaza Pachulia
p1834
sg430
I1610612744
sg431
V27
p1835
sg432
V14
p1836
sg433
V00
p1837
sg435
g47
sg436
I2585
ssI1626202
(dp1838
g371
VOregon
p1839
sg373
V185
p1840
sg375
V2017
p1841
sg377
F25.0
sg378
VJUN 27, 1992
p1842
sg380
V6-2
p1843
sg382
VJoe Young
p1844
sg384
I1610612754
sg385
g109
sg387
g43
sg388
V00
p1845
sg390
g69
sg391
I1626202
ssI2594
(dp1846
g687
VCreighton
p1847
sg689
V212
p1848
sg691
V2017
p1849
sg693
F36.0
sg694
VMAR 17, 1981
p1850
sg696
V6-7
p1851
sg698
VKyle Korver
p1852
sg700
I1610612739
sg701
V26
p1853
sg703
V14
p1854
sg704
V00
p1855
sg706
g69
sg707
I2594
ssI2617
(dp1856
g250
VFlorida
p1857
sg252
V235
p1858
sg254
V2017
p1859
sg256
F37.0
sg257
VJUN 09, 1980
p1860
sg259
V6-8
p1861
sg261
VUdonis Haslem
p1862
sg263
I1610612748
sg264
V40
p1863
sg266
V14
p1864
sg267
V00
p1865
sg269
g111
sg270
I2617
ssI203382
(dp1866
g498
VWashington State
p1867
sg500
V260
p1868
sg502
V2017
p1869
sg504
F30.0
sg505
VDEC 09, 1986
p1870
sg507
V6-10
p1871
sg509
VAron Baynes
p1872
sg511
I1610612738
sg512
V46
p1873
sg514
g19
sg515
V00
p1874
sg517
g47
sg518
I203382
ssI201152
(dp1875
g371
VGeorgia Tech
p1876
sg373
V230
p1877
sg375
V2017
p1878
sg377
F29.0
sg378
VJUN 21, 1988
p1879
sg380
V6-8
p1880
sg382
VThaddeus Young
p1881
sg384
I1610612754
sg385
V21
p1882
sg387
V10
p1883
sg388
V00
p1884
sg390
g111
sg391
I201152
ssI2733
(dp1885
g417
VPeoria Central HS (IL)
p1886
sg419
V192
p1887
sg421
V2017
p1888
sg423
F32.0
sg424
VSEP 11, 1985
p1889
sg426
V6-7
p1890
sg428
VShaun Livingston
p1891
sg430
I1610612744
sg431
V34
p1892
sg432
V12
p1893
sg433
V00
p1894
sg435
g69
sg436
I2733
ssI2734
(dp1895
g709
VWisconsin
p1896
sg711
V185
p1897
sg713
V2017
p1898
sg715
F34.0
sg716
VFEB 27, 1983
p1899
sg718
V6-3
p1900
sg720
VDevin Harris
p1901
sg722
I1610612742
sg723
V34
p1902
sg724
V13
p1903
sg726
V00
p1904
sg728
g69
sg729
I2734
ssI2736
(dp1905
g639
VDuke
p1906
sg641
V220
p1907
sg643
V2017
p1908
sg645
F32.0
sg646
VAPR 16, 1985
p1909
sg648
V6-9
p1910
sg650
VLuol Deng
p1911
sg652
I1610612747
sg653
g802
sg654
V13
p1912
sg655
V00
p1913
sg657
g111
sg658
I2736
ssI2738
(dp1914
g417
VArizona
p1915
sg419
V215
p1916
sg421
V2017
p1917
sg423
F33.0
sg424
VJAN 28, 1984
p1918
sg426
V6-6
p1919
sg428
VAndre Iguodala
p1920
sg430
I1610612744
sg431
g802
sg432
V13
p1921
sg433
V00
p1922
sg435
VG-F
p1923
sg436
I2738
ssI2744
(dp1924
g371
VPrentiss HS (MS)
p1925
sg373
V280
p1926
sg375
V2017
p1927
sg377
F32.0
sg378
VJAN 04, 1985
p1928
sg380
V6-10
p1929
sg382
VAl Jefferson
p1930
sg384
I1610612754
sg385
V25
p1931
sg387
V13
p1932
sg388
V00
p1933
sg390
g47
sg391
I2744
ssI2747
(dp1934
g687
VSt. Benedict's Prep (NJ)
p1935
sg689
V225
p1936
sg691
V2017
p1937
sg693
F32.0
sg694
VSEP 09, 1985
p1938
sg696
V6-6
p1939
sg698
VJR Smith
p1940
sg700
I1610612739
sg701
g19
sg703
V13
p1941
sg704
V00
p1942
sg706
VG-F
p1943
sg707
I2747
ssI2749
(dp1944
g1071
VSaint Joseph's
p1945
sg1073
V190
p1946
sg1075
V2017
p1947
sg1077
F35.0
sg1078
VFEB 09, 1982
p1948
sg1080
V6-0
p1949
sg1082
VJameer Nelson
p1950
sg1084
I1610612740
sg1085
V14
p1951
sg1087
V13
p1952
sg1088
V00
p1953
sg1090
g69
sg1091
I2749
ssI203457
(dp1954
g709
VKentucky
p1955
sg711
V220
p1956
sg713
V2017
p1957
sg715
F23.0
sg716
VAPR 10, 1994
p1958
sg718
V6-11
p1959
sg720
VNerlens Noel
p1960
sg722
I1610612742
sg723
g109
sg724
g109
sg726
V00
p1961
sg728
g47
sg729
I203457
ssI2754
(dp1962
g1071
VOklahoma State
p1963
sg1073
V213
p1964
sg1075
V2017
p1965
sg1077
F35.0
sg1078
VJAN 11, 1982
p1966
sg1080
V6-4
p1967
sg1082
VTony Allen
p1968
sg1084
I1610612740
sg1085
V24
p1969
sg1087
V13
p1970
sg1088
V00
p1971
sg1090
VG-F
p1972
sg1091
I2754
ssI203459
(dp1973
g210
VCalifornia
p1974
sg212
V215
p1975
sg214
V2017
p1976
sg216
F25.0
sg217
VAPR 09, 1992
p1977
sg219
V6-6
p1978
sg221
VAllen Crabbe
p1979
sg223
I1610612751
sg224
V33
p1980
sg225
g544
sg226
V00
p1981
sg228
VG-F
p1982
sg229
I203459
ssI203460
(dp1983
g466
VColorado
p1984
sg468
V210
p1985
sg470
V2017
p1986
sg472
F25.0
sg473
VDEC 04, 1991
p1987
sg475
V6-7
p1988
sg477
VAndre Roberson
p1989
sg479
I1610612760
sg480
V21
p1990
sg482
g544
sg484
V00
p1991
sg486
g69
sg487
I203460
ssI203463
(dp1992
g135
VKansas
p1993
sg137
V195
p1994
sg139
V2017
p1995
sg141
F24.0
sg142
VFEB 11, 1993
p1996
sg144
V6-5
p1997
sg146
VBen McLemore
p1998
sg148
I1610612763
sg149
V23
p1999
sg150
g544
sg151
V00
p2000
sg153
g69
sg154
I203463
ssI203464
(dp2001
g178
Nsg180
V200
p2002
sg182
V2017
p2003
sg184
F26.0
sg185
VAPR 30, 1991
p2004
sg187
V6-4
p2005
sg189
VBrandon Paul
p2006
sg191
I1610612759
sg192
g109
sg194
g483
sg196
V00
p2007
sg198
g69
sg199
I203464
ssI203468
(dp2008
g569
VLehigh
p2009
sg571
V190
p2010
sg573
V2017
p2011
sg575
F26.0
sg576
VSEP 19, 1991
p2012
sg578
V6-3
p2013
sg580
VCJ McCollum
p2014
sg582
I1610612757
sg583
g109
sg584
g544
sg585
V00
p2015
sg587
g69
sg589
I203468
ssI203471
(dp2016
g891
VGermany
p2017
sg893
V172
p2018
sg895
V2017
p2019
sg897
F24.0
sg898
VSEP 15, 1993
p2020
sg900
V6-1
p2021
sg902
VDennis Schroder
p2022
sg904
I1610612737
sg905
V17
p2023
sg907
g544
sg908
V00
p2024
sg910
g69
sg912
I203471
ssI203473
(dp2025
g891
VSouthern California
p2026
sg893
V245
p2027
sg895
V2017
p2028
sg897
F28.0
sg898
VAUG 12, 1989
p2029
sg900
V7-0
p2030
sg902
VDewayne Dedmon
p2031
sg904
I1610612737
sg905
V14
p2032
sg907
g544
sg908
V00
p2033
sg910
g47
sg912
I203473
ssI2772
(dp2034
g547
VUCLA
p2035
sg549
V215
p2036
sg551
V2017
p2037
sg553
F32.0
sg554
VJUN 30, 1985
p2038
sg556
V6-8
p2039
sg558
VTrevor Ariza
p2040
sg560
I1610612745
sg561
g87
sg562
V13
p2041
sg564
V00
p2042
sg566
VF-G
p2043
sg567
I2772
ssI203481
(dp2044
g709
VKansas
p2045
sg711
V230
p2046
sg713
V2017
p2047
sg715
F27.0
sg716
VMAR 07, 1990
p2048
sg718
V7-0
p2049
sg720
VJeff Withey
p2050
sg722
I1610612742
sg723
V17
p2051
sg724
g544
sg726
V00
p2052
sg728
g47
sg729
I203481
ssI203482
(dp2053
g250
VGonzaga
p2054
sg252
V245
p2055
sg254
V2017
p2056
sg256
F26.0
sg257
VAPR 19, 1991
p2057
sg259
V7-0
p2058
sg261
VKelly Olynyk
p2059
sg263
I1610612748
sg264
g802
sg266
g544
sg267
V00
p2060
sg269
VC-F
p2061
sg270
I203482
ssI203484
(dp2062
g639
VGeorgia
p2063
sg641
V205
p2064
sg643
V2017
p2065
sg645
F24.0
sg646
VFEB 18, 1993
p2066
sg648
V6-5
p2067
sg650
VKentavious Caldwell-Pope
p2068
sg652
I1610612747
sg653
g87
sg654
g544
sg655
V00
p2069
sg657
g69
sg658
I203484
ssI203485
(dp2070
g156
VNorth Carolina State
p2071
sg158
V189
p2072
sg160
V2017
p2073
sg162
F27.0
sg163
VAUG 26, 1990
p2074
sg165
V6-5
p2075
sg167
VLorenzo Brown
p2076
sg169
I1610612761
sg170
g544
sg172
g109
sg173
V00
p2077
sg175
g69
sg176
I203485
ssI203486
(dp2078
g50
VDuke
p2079
sg51
V255
p2080
sg53
V2017
p2081
sg55
F27.0
sg56
VMAR 05, 1990
p2082
sg58
V6-11
p2083
sg60
VMason Plumlee
p2084
sg62
I1610612743
sg63
V24
p2085
sg65
g544
sg66
V00
p2086
sg68
VC-F
p2087
sg70
I203486
ssI203488
(dp2088
g891
VBucknell
p2089
sg893
V240
p2090
sg895
V2017
p2091
sg897
F26.0
sg898
VJUL 01, 1991
p2092
sg900
V6-11
p2093
sg902
VMike Muscala
p2094
sg904
I1610612737
sg905
V31
p2095
sg907
g544
sg908
V00
p2096
sg910
VF-C
p2097
sg912
I203488
ssI203489
(dp2098
g326
VSouth Dakota State
p2099
sg328
V190
p2100
sg330
V2017
p2101
sg332
F26.0
sg333
VMAY 15, 1991
p2102
sg335
V6-4
p2103
sg337
VNate Wolters
p2104
sg339
I1610612762
sg340
V16
p2105
sg342
g43
sg344
V00
p2106
sg346
g69
sg347
I203489
ssI203496
(dp2107
g26
VTennessee State
p2108
sg28
V225
p2109
sg30
V2017
p2110
sg32
F26.0
sg33
VDEC 14, 1990
p2111
sg35
V6-9
p2112
sg37
VRobert Covington
p2113
sg39
I1610612755
sg40
V33
p2114
sg42
g544
sg44
V00
p2115
sg46
g111
sg48
I203496
ssI203497
(dp2116
g326
VFrance
p2117
sg328
V245
p2118
sg330
V2017
p2119
sg332
F25.0
sg333
VJUN 26, 1992
p2120
sg335
V7-1
p2121
sg337
VRudy Gobert
p2122
sg339
I1610612762
sg340
V27
p2123
sg342
g544
sg344
V00
p2124
sg346
g47
sg347
I203497
ssI203498
(dp2125
g72
VUCLA
p2126
sg74
V221
p2127
sg76
V2017
p2128
sg78
F24.0
sg79
VNOV 13, 1992
p2129
sg81
V6-6
p2130
sg83
VShabazz Muhammad
p2131
sg85
I1610612750
sg86
V15
p2132
sg88
g544
sg89
V00
p2133
sg91
VG-F
p2134
sg92
I203498
ssI203499
(dp2135
g498
VMiami (FL)
p2136
sg500
V175
p2137
sg502
V2017
p2138
sg504
F25.0
sg505
VOCT 02, 1992
p2139
sg507
V5-11
p2140
sg509
VShane Larkin
p2141
sg511
I1610612738
sg512
g41
sg514
g109
sg515
V00
p2142
sg517
g69
sg518
I203499
ssI203500
(dp2143
g466
VPittsburgh
p2144
sg468
V255
p2145
sg470
V2017
p2146
sg472
F24.0
sg473
VJUL 20, 1993
p2147
sg475
V7-0
p2148
sg477
VSteven Adams
p2149
sg479
I1610612760
sg480
V12
p2150
sg482
g544
sg484
V00
p2151
sg486
g47
sg487
I203500
ssI203501
(dp2152
g591
VMichigan
p2153
sg593
V205
p2154
sg595
V2017
p2155
sg597
F25.0
sg598
VMAR 16, 1992
p2156
sg600
V6-6
p2157
sg602
VTim Hardaway Jr.
p2158
sg604
I1610612752
sg605
g109
sg607
g544
sg608
V00
p2159
sg610
VF-G
p2160
sg611
I203501
ssI203503
(dp2161
g304
VNew Mexico
p2162
sg306
V221
p2163
sg308
V2017
p2164
sg310
F26.0
sg311
VNOV 10, 1991
p2165
sg313
V6-7
p2166
sg315
VTony Snell
p2167
sg317
I1610612749
sg318
V21
p2168
sg320
g544
sg321
V00
p2169
sg323
g69
sg324
I203503
ssI203505
(dp2170
g639
VMarquette
p2171
sg641
V200
p2172
sg643
V2017
p2173
sg645
F25.0
sg646
VJUL 17, 1992
p2174
sg648
V6-5
p2175
sg650
VVander Blue
p2176
sg652
I1610612747
sg653
V17
p2177
sg654
g43
sg655
V00
p2178
sg657
g69
sg658
I203505
ssI101106
(dp2179
g639
VUtah
p2180
sg641
V260
p2181
sg643
V2017
p2182
sg645
F32.0
sg646
VNOV 28, 1984
p2183
sg648
V7-0
p2184
sg650
VAndrew Bogut
p2185
sg652
I1610612747
sg653
V66
p2186
sg654
V12
p2187
sg655
V00
p2188
sg657
g47
sg658
I101106
ssI203507
(dp2189
g304
VGreece
p2190
sg306
V222
p2191
sg308
V2017
p2192
sg310
F22.0
sg311
VDEC 06, 1994
p2193
sg313
V6-11
p2194
sg315
VGiannis Antetokounmpo
p2195
sg317
I1610612749
sg318
V34
p2196
sg320
g544
sg321
V00
p2197
sg323
g111
sg324
I203507
ssI101108
(dp2198
g547
VWake Forest
p2199
sg549
V175
p2200
sg551
V2017
p2201
sg553
F32.0
sg554
VMAY 06, 1985
p2202
sg556
V6-0
p2203
sg558
VChris Paul
p2204
sg560
I1610612745
sg561
g109
sg562
V12
p2205
sg564
V00
p2206
sg566
g69
sg567
I101108
ssI101109
(dp2207
g466
VNorth Carolina
p2208
sg468
V205
p2209
sg470
V2017
p2210
sg472
F33.0
sg473
VJUN 26, 1984
p2211
sg475
V6-1
p2212
sg477
VRaymond Felton
p2213
sg479
I1610612760
sg480
g43
sg482
V12
p2214
sg484
V00
p2215
sg486
g69
sg487
I101109
ssI203512
(dp2216
g156
Nsg158
V220
p2217
sg160
V2017
p2218
sg162
F25.0
sg163
VJUL 26, 1992
p2219
sg165
V7-0
p2220
sg167
VLucas Nogueira
p2221
sg169
I1610612761
sg170
V92
p2222
sg172
g109
sg173
V00
p2223
sg175
g47
sg176
I203512
ssI203516
(dp2224
g135
VLong Beach State
p2225
sg137
V210
p2226
sg139
V2017
p2227
sg141
F27.0
sg142
VJUL 01, 1990
p2228
sg144
V6-7
p2229
sg146
VJames Ennis III
p2230
sg148
I1610612763
sg149
g41
sg150
g109
sg151
V00
p2231
sg153
g111
sg154
I203516
ssI203518
(dp2232
g466
Nsg468
V190
p2233
sg470
V2017
p2234
sg472
F24.0
sg473
VAUG 01, 1993
p2235
sg475
V6-6
p2236
sg477
VAlex Abrines
p2237
sg479
I1610612760
sg480
g41
sg482
g87
sg484
V00
p2238
sg486
g69
sg487
I203518
ssI203521
(dp2239
g304
VSaint Mary's (CA)
p2240
sg306
V198
p2241
sg308
V2017
p2242
sg310
F27.0
sg311
VSEP 08, 1990
p2243
sg313
V6-4
p2244
sg315
VMatthew Dellavedova
p2245
sg317
I1610612749
sg318
g41
sg320
g544
sg321
V00
p2246
sg323
g69
sg324
I203521
ssI203524
(dp2247
g1071
VArizona
p2248
sg1073
V225
p2249
sg1075
V2017
p2250
sg1077
F26.0
sg1078
VMAR 18, 1991
p2251
sg1080
V6-7
p2252
sg1082
VSolomon Hill
p2253
sg1084
I1610612740
sg1085
V44
p2254
sg1087
g544
sg1088
V00
p2255
sg1090
g111
sg1091
I203524
ssI203526
(dp2256
g326
Nsg328
V179
p2257
sg330
V2017
p2258
sg332
F25.0
sg333
VMAY 19, 1992
p2259
sg335
V6-1
p2260
sg337
VRaul Neto
p2261
sg339
I1610612762
sg340
V25
p2262
sg342
g43
sg344
V00
p2263
sg346
g69
sg347
I203526
ssI101127
(dp2264
g591
VGeorgia Tech
p2265
sg593
V200
p2266
sg595
V2017
p2267
sg597
F34.0
sg598
VOCT 28, 1983
p2268
sg600
V6-3
p2269
sg602
VJarrett Jack
p2270
sg604
I1610612752
sg605
V55
p2271
sg607
V12
p2272
sg608
V00
p2273
sg610
g69
sg611
I101127
ssI203530
(dp2274
g178
Nsg180
V260
p2275
sg182
V2017
p2276
sg184
F26.0
sg185
VSEP 30, 1991
p2277
sg187
V6-11
p2278
sg189
VJoffrey Lauvergne
p2279
sg191
I1610612759
sg192
V77
p2280
sg194
g109
sg196
V00
p2281
sg198
g47
sg199
I203530
ssI101139
(dp2282
g156
VSkyline HS (TX)
p2283
sg158
V225
p2284
sg160
V2017
p2285
sg162
F30.0
sg163
VMAR 18, 1987
p2286
sg165
V6-6
p2287
sg167
VCJ Miles
p2288
sg169
I1610612761
sg170
g64
sg172
V12
p2289
sg173
V00
p2290
sg175
VF-G
p2291
sg176
I101139
ssI101141
(dp2292
g891
VEskisehir, Turkey
p2293
sg893
V235
p2294
sg895
V2017
p2295
sg897
F30.0
sg898
VMAY 15, 1987
p2296
sg900
V6-10
p2297
sg902
VErsan Ilyasova
p2298
sg904
I1610612737
sg905
g207
sg907
g802
sg908
V00
p2299
sg910
g111
sg912
I101141
ssI203546
(dp2300
g1071
VBelmont
p2301
sg1073
V175
p2302
sg1075
V2017
p2303
sg1077
F26.0
sg1078
VMAR 07, 1991
p2304
sg1080
V6-3
p2305
sg1082
VIan Clark
p2306
sg1084
I1610612740
sg1085
g43
sg1087
g544
sg1088
V00
p2307
sg1090
g69
sg1091
I203546
ssI203547
(dp2308
g326
VCampbell
p2309
sg328
V205
p2310
sg330
V2017
p2311
sg332
F27.0
sg333
VMAY 26, 1990
p2312
sg335
V6-8
p2313
sg337
VEric Griffin
p2314
sg339
I1610612762
sg340
V17
p2315
sg342
g483
sg344
V00
p2316
sg346
VC-F
p2317
sg347
I203547
ssI101150
(dp2318
g113
VSouth Gwinnett HS (GA)
p2319
sg115
V175
p2320
sg117
V2017
p2321
sg119
F31.0
sg120
VOCT 27, 1986
p2322
sg122
V6-1
p2323
sg124
VLou Williams
p2324
sg126
I1610612746
sg127
V23
p2325
sg128
V12
p2326
sg129
V00
p2327
sg131
g69
sg133
I101150
ssI203552
(dp2328
g709
VDuke
p2329
sg711
V185
p2330
sg713
V2017
p2331
sg715
F27.0
sg716
VAUG 23, 1990
p2332
sg718
V6-2
p2333
sg720
VSeth Curry
p2334
sg722
I1610612742
sg723
V30
p2335
sg724
g544
sg726
V00
p2336
sg728
g69
sg729
I203552
ssI101161
(dp2337
g26
VWestchester HS (Los Angeles)
p2338
sg28
V240
p2339
sg30
V2017
p2340
sg32
F30.0
sg33
VMAY 01, 1987
p2341
sg35
V6-9
p2342
sg37
VAmir Johnson
p2343
sg39
I1610612755
sg40
g19
sg42
V12
p2344
sg44
V00
p2345
sg46
VF-C
p2346
sg48
I101161
ssI2863
(dp2347
g371
VGeorgia
p2348
sg373
V217
p2349
sg375
V2017
p2350
sg377
F37.0
sg378
VJAN 11, 1980
p2351
sg380
V6-6
p2352
sg382
VDamien Wilkins
p2353
sg384
I1610612754
sg385
V12
p2354
sg387
g802
sg388
V00
p2355
sg390
VG-F
p2356
sg391
I2863
ssI101181
(dp2357
g687
VVillanueva de la Serena, Spain
p2358
sg689
V200
p2359
sg691
V2017
p2360
sg693
F36.0
sg694
VSEP 28, 1981
p2361
sg696
V6-3
p2362
sg698
VJose Calderon
p2363
sg700
I1610612739
sg701
V81
p2364
sg703
V12
p2365
sg704
V00
p2366
sg706
g69
sg707
I101181
ssI203585
(dp2367
g250
VKansas State
p2368
sg252
V200
p2369
sg254
V2017
p2370
sg256
F26.0
sg257
VJUL 29, 1991
p2371
sg259
V6-4
p2372
sg261
VRodney McGruder
p2373
sg263
I1610612748
sg264
V17
p2374
sg266
g87
sg267
V00
p2375
sg269
VG-F
p2376
sg270
I203585
ssI201563
(dp2377
g591
VKansas State
p2378
sg593
V235
p2379
sg595
V2017
p2380
sg597
F28.0
sg598
VJAN 09, 1989
p2381
sg600
V6-9
p2382
sg602
VMichael Beasley
p2383
sg604
I1610612752
sg605
g41
sg607
g802
sg608
V00
p2384
sg610
g111
sg611
I201563
ssI201565
(dp2385
g687
VMemphis
p2386
sg689
V190
p2387
sg691
V2017
p2388
sg693
F29.0
sg694
VOCT 04, 1988
p2389
sg696
V6-3
p2390
sg698
VDerrick Rose
p2391
sg700
I1610612739
sg701
g87
sg703
g41
sg704
V00
p2392
sg706
g69
sg707
I201565
ssI201566
(dp2393
g466
VUCLA
p2394
sg468
V200
p2395
sg470
V2017
p2396
sg472
F28.0
sg473
VNOV 12, 1988
p2397
sg475
V6-3
p2398
sg477
VRussell Westbrook
p2399
sg479
I1610612760
sg480
g64
sg482
g802
sg484
V00
p2400
sg486
g69
sg487
I201566
ssI201567
(dp2401
g687
VUCLA
p2402
sg689
V251
p2403
sg691
V2017
p2404
sg693
F29.0
sg694
VSEP 07, 1988
p2405
sg696
V6-10
p2406
sg698
VKevin Love
p2407
sg700
I1610612739
sg701
g64
sg703
g802
sg704
V00
p2408
sg706
VF-C
p2409
sg707
I201567
ssI201568
(dp2410
g113
VSant'Angelo Lodigiano, Italy
p2411
sg115
V225
p2412
sg117
V2017
p2413
sg119
F29.0
sg120
VAUG 08, 1988
p2414
sg122
V6-10
p2415
sg124
VDanilo Gallinari
p2416
sg126
I1610612746
sg127
g41
sg128
g41
sg129
V00
p2417
sg131
g111
sg133
I201568
ssI201569
(dp2418
g547
VIndiana
p2419
sg549
V215
p2420
sg551
V2017
p2421
sg553
F28.0
sg554
VDEC 25, 1988
p2422
sg556
V6-4
p2423
sg558
VEric Gordon
p2424
sg560
I1610612745
sg561
V10
p2425
sg562
g802
sg564
V00
p2426
sg566
g69
sg567
I201569
ssI201571
(dp2427
g2
VTexas
p2428
sg4
V183
p2429
sg6
V2017
p2430
sg8
F30.0
sg9
VNOV 10, 1987
p2431
sg11
V6-0
p2432
sg13
VD.J. Augustin
p2433
sg15
I1610612753
sg16
V14
p2434
sg18
g802
sg20
V00
p2435
sg22
g69
sg24
I201571
ssI201572
(dp2436
g639
VStanford
p2437
sg641
V268
p2438
sg643
V2017
p2439
sg645
F29.0
sg646
VAPR 01, 1988
p2440
sg648
V7-0
p2441
sg650
VBrook Lopez
p2442
sg652
I1610612747
sg653
V11
p2443
sg654
g802
sg655
V00
p2444
sg657
g47
sg658
I201572
ssI201573
(dp2445
g26
VArizona
p2446
sg28
V200
p2447
sg30
V2017
p2448
sg32
F29.0
sg33
VAUG 20, 1988
p2449
sg35
V6-3
p2450
sg37
VJerryd Bayless
p2451
sg39
I1610612755
sg40
g64
sg42
g802
sg44
V00
p2452
sg46
g69
sg48
I201573
ssI201577
(dp2453
g349
VStanford
p2454
sg351
V277
p2455
sg353
V2017
p2456
sg355
F29.0
sg356
VAPR 01, 1988
p2457
sg358
V7-0
p2458
sg360
VRobin Lopez
p2459
sg362
I1610612741
sg363
V42
p2460
sg365
g802
sg366
V00
p2461
sg368
g47
sg369
I201577
ssI201578
(dp2462
g2
VFlorida
p2463
sg4
V255
p2464
sg6
V2017
p2465
sg8
F30.0
sg9
VAUG 04, 1987
p2466
sg11
V6-10
p2467
sg13
VMarreese Speights
p2468
sg15
I1610612753
sg16
g19
sg18
g802
sg20
V00
p2469
sg22
VF-C
p2470
sg24
I201578
ssI201580
(dp2471
g417
VNevada
p2472
sg419
V270
p2473
sg421
V2017
p2474
sg423
F29.0
sg424
VJAN 19, 1988
p2475
sg426
V7-0
p2476
sg428
VJaVale McGee
p2477
sg430
I1610612744
sg431
g87
sg432
g802
sg433
V00
p2478
sg435
g47
sg436
I201580
ssI201582
(dp2479
g1071
VSaint Etienne, France
p2480
sg1073
V248
p2481
sg1075
V2017
p2482
sg1077
F29.0
sg1078
VMAY 06, 1988
p2483
sg1080
V7-2
p2484
sg1082
VAlexis Ajinca
p2485
sg1084
I1610612740
sg1085
V42
p2486
sg1087
g207
sg1088
V00
p2487
sg1090
g47
sg1091
I201582
ssI201583
(dp2488
g547
VCalifornia
p2489
sg549
V240
p2490
sg551
V2017
p2491
sg553
F29.0
sg554
VMAY 06, 1988
p2492
sg556
V6-10
p2493
sg558
VRyan Anderson
p2494
sg560
I1610612745
sg561
V33
p2495
sg562
g802
sg564
V00
p2496
sg566
g111
sg567
I201583
ssI201584
(dp2497
g591
VWestern Kentucky
p2498
sg593
V200
p2499
sg595
V2017
p2500
sg597
F32.0
sg598
VOCT 03, 1985
p2501
sg600
V6-5
p2502
sg602
VCourtney Lee
p2503
sg604
I1610612752
sg605
g19
sg607
g802
sg608
V00
p2504
sg610
g69
sg611
I201584
ssI201585
(dp2505
g282
VOhio State
p2506
sg284
V265
p2507
sg286
V2017
p2508
sg288
F28.0
sg289
VFEB 24, 1989
p2509
sg291
V7-0
p2510
sg293
VKosta Koufos
p2511
sg295
I1610612758
sg296
V41
p2512
sg298
g802
sg299
V00
p2513
sg301
g47
sg302
I201585
ssI201586
(dp2514
g156
VBrazzaville, Rep. of Congo
p2515
sg158
V235
p2516
sg160
V2017
p2517
sg162
F28.0
sg163
VSEP 18, 1989
p2518
sg165
V6-10
p2519
sg167
VSerge Ibaka
p2520
sg169
I1610612761
sg170
g802
sg172
g41
sg173
V00
p2521
sg175
g111
sg176
I201586
ssI201588
(dp2522
g282
VIndiana Purdue-Indianapolis
p2523
sg284
V188
p2524
sg286
V2017
p2525
sg288
F31.0
sg289
VMAY 04, 1986
p2526
sg291
V6-3
p2527
sg293
VGeorge Hill
p2528
sg295
I1610612758
sg296
g109
sg298
g802
sg299
V00
p2529
sg301
g69
sg302
I201588
ssI201589
(dp2530
g50
VKansas
p2531
sg51
V235
p2532
sg53
V2017
p2533
sg55
F29.0
sg56
VMAR 25, 1988
p2534
sg58
V6-9
p2535
sg60
VDarrell Arthur
p2536
sg62
I1610612743
sg63
V00
p2537
sg65
g41
sg66
V00
p2538
sg68
g111
sg70
I201589
ssI201596
(dp2539
g135
VKansas
p2540
sg137
V190
p2541
sg139
V2017
p2542
sg141
F31.0
sg142
VMAY 19, 1986
p2543
sg144
V6-2
p2544
sg146
VMario Chalmers
p2545
sg148
I1610612763
sg149
g563
sg150
g41
sg151
V00
p2546
sg153
g69
sg154
I201596
ssI201599
(dp2547
g113
VTexas A&M
p2548
sg115
V265
p2549
sg117
V2017
p2550
sg119
F29.0
sg120
VJUL 21, 1988
p2551
sg122
V6-11
p2552
sg124
VDeAndre Jordan
p2553
sg126
I1610612746
sg127
g563
sg128
g802
sg129
V00
p2554
sg131
g47
sg133
I201599
ssI201600
(dp2555
g1071
VTurkey
p2556
sg1073
V255
p2557
sg1075
V2017
p2558
sg1077
F31.0
sg1078
VJUL 04, 1986
p2559
sg1080
V7-0
p2560
sg1082
VOmer Asik
p2561
sg1084
I1610612740
sg1085
g109
sg1087
g207
sg1088
V00
p2562
sg1090
g47
sg1091
I201600
ssI201601
(dp2563
g547
VUCLA
p2564
sg549
V230
p2565
sg551
V2017
p2566
sg553
F31.0
sg554
VSEP 09, 1986
p2567
sg556
V6-8
p2568
sg558
VLuc Mbah a Moute
p2569
sg560
I1610612745
sg561
V12
p2570
sg562
g802
sg564
V00
p2571
sg566
g111
sg567
I201601
ssI201609
(dp2572
g250
VLjubljana, Slovenia
p2573
sg252
V190
p2574
sg254
V2017
p2575
sg256
F31.0
sg257
VMAY 06, 1986
p2576
sg259
V6-3
p2577
sg261
VGoran Dragic
p2578
sg263
I1610612748
sg264
g207
sg266
g802
sg267
V00
p2579
sg269
g69
sg270
I201609
ssI201628
(dp2580
g547
VCal State-Fullerton
p2581
sg549
V175
p2582
sg551
V2017
p2583
sg553
F33.0
sg554
VSEP 24, 1984
p2584
sg556
V6-2
p2585
sg558
VBobby Brown
p2586
sg560
I1610612745
sg561
g563
sg562
g109
sg564
V00
p2587
sg566
g69
sg567
I201628
ssI203705
(dp2588
g891
VAlabama-Huntsville
p2589
sg893
V160
p2590
sg895
V2017
p2591
sg897
F27.0
sg898
VNOV 28, 1989
p2592
sg900
V6-1
p2593
sg902
VJosh Magette
p2594
sg904
I1610612737
sg905
V11
p2595
sg907
g483
sg908
V00
p2596
sg910
g69
sg912
I203705
ssI203710
(dp2597
g113
VNorth Carolina State
p2598
sg115
V230
p2599
sg117
V2017
p2600
sg119
F27.0
sg120
VFEB 06, 1990
p2601
sg122
V6-5
p2602
sg124
VC.J. Williams
p2603
sg126
I1610612746
sg127
g802
sg128
g483
sg129
V00
p2604
sg131
g69
sg133
I203710
ssI1627098
(dp2605
g891
VVirginia Tech
p2606
sg893
V190
p2607
sg895
V2017
p2608
sg897
F28.0
sg898
VMAR 11, 1989
p2609
sg900
V6-3
p2610
sg902
VMalcolm Delaney
p2611
sg904
I1610612737
sg905
g19
sg907
g87
sg908
V00
p2612
sg910
g69
sg912
I1627098
ssI203613
(dp2613
g2
VHouston
p2614
sg4
V195
p2615
sg6
V2017
p2616
sg8
F28.0
sg9
VSEP 14, 1989
p2617
sg11
V6-6
p2618
sg13
VJonathon Simmons
p2619
sg15
I1610612753
sg16
V17
p2620
sg18
g43
sg20
V00
p2621
sg22
g111
sg24
I203613
ssI203894
(dp2622
g569
VConnecticut
p2623
sg571
V175
p2624
sg573
V2017
p2625
sg575
F26.0
sg576
VJUL 14, 1991
p2626
sg578
V6-1
p2627
sg580
VShabazz Napier
p2628
sg582
I1610612757
sg583
g563
sg584
g109
sg585
V00
p2629
sg587
g69
sg589
I203894
ssI203897
(dp2630
g349
VUCLA
p2631
sg351
V185
p2632
sg353
V2017
p2633
sg355
F22.0
sg356
VMAR 10, 1995
p2634
sg358
V6-5
p2635
sg360
VZach LaVine
p2636
sg362
I1610612741
sg363
g41
sg365
g109
sg366
V00
p2637
sg368
g69
sg369
I203897
ssI203898
(dp2638
g639
VSyracuse
p2639
sg641
V194
p2640
sg643
V2017
p2641
sg645
F23.0
sg646
VAUG 24, 1994
p2642
sg648
V6-3
p2643
sg650
VTyler Ennis
p2644
sg652
I1610612747
sg653
V10
p2645
sg654
g109
sg655
V00
p2646
sg657
g69
sg658
I203898
ssI203901
(dp2647
g2
VLouisiana-Lafayette
p2648
sg4
V185
p2649
sg6
V2017
p2650
sg8
F23.0
sg9
VFEB 22, 1994
p2651
sg11
V6-4
p2652
sg13
VElfrid Payton
p2653
sg15
I1610612753
sg16
g43
sg18
g109
sg20
V00
p2654
sg22
g69
sg24
I203901
ssI203903
(dp2655
g639
VMissouri
p2656
sg641
V194
p2657
sg643
V2017
p2658
sg645
F25.0
sg646
VJUN 07, 1992
p2659
sg648
V6-5
p2660
sg650
VJordan Clarkson
p2661
sg652
I1610612747
sg653
g563
sg654
g109
sg655
V00
p2662
sg657
g69
sg658
I203903
ssI203912
(dp2663
g569
VWashington
p2664
sg571
V195
p2665
sg573
V2017
p2666
sg575
F26.0
sg576
VDEC 30, 1990
p2667
sg578
V6-5
p2668
sg580
VCJ Wilcox
p2669
sg582
I1610612757
sg583
V23
p2670
sg584
g109
sg585
V00
p2671
sg587
g69
sg589
I203912
ssI203914
(dp2672
g50
VMichigan State
p2673
sg51
V210
p2674
sg53
V2017
p2675
sg55
F23.0
sg56
VSEP 14, 1994
p2676
sg58
V6-4
p2677
sg60
VGary Harris
p2678
sg62
I1610612743
sg63
V14
p2679
sg65
g109
sg66
V00
p2680
sg68
g69
sg70
I203914
ssI203915
(dp2681
g210
VColorado
p2682
sg212
V200
p2683
sg214
V2017
p2684
sg216
F24.0
sg217
VAPR 06, 1993
p2685
sg219
V6-6
p2686
sg221
VSpencer Dinwiddie
p2687
sg223
I1610612751
sg224
g41
sg225
g109
sg226
V00
p2688
sg228
g69
sg229
I203915
ssI203917
(dp2689
g26
VMichigan
p2690
sg28
V205
p2691
sg30
V2017
p2692
sg32
F24.0
sg33
VOCT 07, 1993
p2693
sg35
V6-6
p2694
sg37
VNik Stauskas
p2695
sg39
I1610612755
sg40
V11
p2696
sg42
g109
sg44
V00
p2697
sg46
g69
sg48
I203917
ssI203918
(dp2698
g326
VDuke
p2699
sg328
V206
p2700
sg330
V2017
p2701
sg332
F25.0
sg333
VOCT 20, 1992
p2702
sg335
V6-8
p2703
sg337
VRodney Hood
p2704
sg339
I1610612762
sg340
g19
sg342
g109
sg344
V00
p2705
sg346
g69
sg347
I203918
ssI203920
(dp2706
g2
VNevada-Las Vegas
p2707
sg4
V220
p2708
sg6
V2017
p2709
sg8
F25.0
sg9
VSEP 28, 1992
p2710
sg11
V6-9
p2711
sg13
VKhem Birch
p2712
sg15
I1610612753
sg16
V24
p2713
sg18
g483
sg20
V00
p2714
sg22
g47
sg24
I203920
ssI203922
(dp2715
g371
VMichigan
p2716
sg373
V215
p2717
sg375
V2017
p2718
sg377
F23.0
sg378
VJAN 08, 1994
p2719
sg380
V6-7
p2720
sg382
VGlenn Robinson III
p2721
sg384
I1610612754
sg385
V40
p2722
sg387
g109
sg388
V00
p2723
sg390
VG-F
p2724
sg391
I203922
ssI203924
(dp2725
g466
VSyracuse
p2726
sg468
V220
p2727
sg470
V2017
p2728
sg472
F23.0
sg473
VMAR 12, 1994
p2729
sg475
V6-9
p2730
sg477
VJerami Grant
p2731
sg479
I1610612760
sg480
g802
sg482
g109
sg484
V00
p2732
sg486
g111
sg487
I203924
ssI203925
(dp2733
g210
VVirginia
p2734
sg212
V219
p2735
sg214
V2017
p2736
sg216
F26.0
sg217
VSEP 06, 1991
p2737
sg219
V6-6
p2738
sg221
VJoe Harris
p2739
sg223
I1610612751
sg224
V12
p2740
sg225
g109
sg226
V00
p2741
sg228
g69
sg229
I203925
ssI203926
(dp2742
g591
VCreighton
p2743
sg593
V219
p2744
sg595
V2017
p2745
sg597
F25.0
sg598
VJAN 03, 1992
p2746
sg600
V6-8
p2747
sg602
VDoug McDermott
p2748
sg604
I1610612752
sg605
V20
p2749
sg607
g109
sg608
V00
p2750
sg610
g111
sg611
I203926
ssI203930
(dp2751
g210
VCincinnati
p2752
sg212
V212
p2753
sg214
V2017
p2754
sg216
F27.0
sg217
VJAN 06, 1990
p2755
sg219
V6-4
p2756
sg221
VSean Kilpatrick
p2757
sg223
I1610612751
sg224
g563
sg225
g109
sg226
V00
p2758
sg228
g69
sg229
I203930
ssI203932
(dp2759
g2
VArizona
p2760
sg4
V220
p2761
sg6
V2017
p2762
sg8
F22.0
sg9
VSEP 16, 1995
p2763
sg11
V6-9
p2764
sg13
VAaron Gordon
p2765
sg15
I1610612753
sg16
V00
p2766
sg18
g109
sg20
V00
p2767
sg22
g111
sg24
I203932
ssI203935
(dp2768
g498
VOklahoma State
p2769
sg500
V220
p2770
sg502
V2017
p2771
sg504
F23.0
sg505
VMAR 06, 1994
p2772
sg507
V6-4
p2773
sg509
VMarcus Smart
p2774
sg511
I1610612738
sg512
V36
p2775
sg514
g109
sg515
V00
p2776
sg517
g69
sg518
I203935
ssI203937
(dp2777
g178
VUCLA
p2778
sg180
V230
p2779
sg182
V2017
p2780
sg184
F24.0
sg185
VSEP 20, 1993
p2781
sg187
V6-9
p2782
sg189
VKyle Anderson
p2783
sg191
I1610612759
sg192
g87
sg194
g109
sg196
V00
p2784
sg198
g111
sg199
I203937
ssI203939
(dp2785
g709
VStanford
p2786
sg711
V240
p2787
sg713
V2017
p2788
sg715
F26.0
sg716
VJUL 20, 1991
p2789
sg718
V6-11
p2790
sg720
VDwight Powell
p2791
sg722
I1610612742
sg723
g207
sg724
g109
sg726
V00
p2792
sg728
VF-C
p2793
sg729
I203939
ssI203940
(dp2794
g2
VMichigan State
p2795
sg4
V237
p2796
sg6
V2017
p2797
sg8
F26.0
sg9
VFEB 19, 1991
p2798
sg11
V6-10
p2799
sg13
VAdreian Payne
p2800
sg15
I1610612753
sg16
V33
p2801
sg18
g109
sg20
V00
p2802
sg22
g111
sg24
I203940
ssI203943
(dp2803
g569
VIndiana
p2804
sg571
V245
p2805
sg573
V2017
p2806
sg575
F22.0
sg576
VAUG 24, 1995
p2807
sg578
V6-9
p2808
sg580
VNoah Vonleh
p2809
sg582
I1610612757
sg583
V21
p2810
sg584
g109
sg585
V00
p2811
sg587
g111
sg589
I203943
ssI203944
(dp2812
g639
VKentucky
p2813
sg641
V250
p2814
sg643
V2017
p2815
sg645
F22.0
sg646
VNOV 29, 1994
p2816
sg648
V6-9
p2817
sg650
VJulius Randle
p2818
sg652
I1610612747
sg653
V30
p2819
sg654
g109
sg655
V00
p2820
sg657
VF-C
p2821
sg658
I203944
ssI203949
(dp2822
g26
VNorth Carolina
p2823
sg28
V230
p2824
sg30
V2017
p2825
sg32
F24.0
sg33
VJAN 04, 1993
p2826
sg35
V6-9
p2827
sg37
VJames Michael McAdoo
p2828
sg39
I1610612755
sg40
V14
p2829
sg42
g109
sg44
V00
p2830
sg46
g111
sg48
I203949
ssI203952
(dp2831
g72
VKansas
p2832
sg74
V202
p2833
sg76
V2017
p2834
sg78
F22.0
sg79
VFEB 23, 1995
p2835
sg81
V6-8
p2836
sg83
VAndrew Wiggins
p2837
sg85
I1610612750
sg86
V22
p2838
sg88
g109
sg89
V00
p2839
sg91
g111
sg92
I203952
ssI203953
(dp2840
g304
VDuke
p2841
sg306
V250
p2842
sg308
V2017
p2843
sg310
F22.0
sg311
VMAR 15, 1995
p2844
sg313
V6-8
p2845
sg315
VJabari Parker
p2846
sg317
I1610612749
sg318
V12
p2847
sg320
g109
sg321
V00
p2848
sg323
g111
sg324
I203953
ssI203954
(dp2849
g26
VKansas
p2850
sg28
V250
p2851
sg30
V2017
p2852
sg32
F23.0
sg33
VMAR 16, 1994
p2853
sg35
V7-0
p2854
sg37
VJoel Embiid
p2855
sg39
I1610612755
sg40
V21
p2856
sg42
g87
sg44
V00
p2857
sg46
g47
sg48
I203954
ssI203957
(dp2858
g326
Nsg328
V190
p2859
sg330
V2017
p2860
sg332
F22.0
sg333
VJUL 13, 1995
p2861
sg335
V6-6
p2862
sg337
VDante Exum
p2863
sg339
I1610612762
sg340
V11
p2864
sg342
g43
sg344
V00
p2865
sg346
g69
sg347
I203957
ssI203960
(dp2866
g282
VSt. John's (NY)
p2867
sg284
V207
p2868
sg286
V2017
p2869
sg288
F24.0
sg289
VMAR 20, 1993
p2870
sg291
V6-9
p2871
sg293
VJaKarr Sampson
p2872
sg295
I1610612758
sg296
V29
p2873
sg298
g43
sg299
V00
p2874
sg301
g111
sg302
I203960
ssI203962
(dp2875
g466
VStanford
p2876
sg468
V230
p2877
sg470
V2017
p2878
sg472
F25.0
sg473
VDEC 19, 1991
p2879
sg475
V6-7
p2880
sg477
VJosh Huestis
p2881
sg479
I1610612760
sg480
V34
p2882
sg482
g43
sg484
V00
p2883
sg486
g111
sg487
I203962
ssI203966
(dp2884
g113
VMarquette
p2885
sg115
V229
p2886
sg117
V2017
p2887
sg119
F26.0
sg120
VNOV 21, 1990
p2888
sg122
V6-7
p2889
sg124
VJamil Wilson
p2890
sg126
I1610612746
sg127
V13
p2891
sg128
g483
sg129
V00
p2892
sg131
g111
sg133
I203966
ssI203967
(dp2893
g26
Nsg28
V223
p2894
sg30
V2017
p2895
sg32
F23.0
sg33
VAPR 08, 1994
p2896
sg35
V6-10
p2897
sg37
VDario Saric
p2898
sg39
I1610612755
sg40
g802
sg42
g87
sg44
V00
p2899
sg46
g111
sg48
I203967
ssI201933
(dp2900
g113
VOklahoma
p2901
sg115
V251
p2902
sg117
V2017
p2903
sg119
F28.0
sg120
VMAR 16, 1989
p2904
sg122
V6-10
p2905
sg124
VBlake Griffin
p2906
sg126
I1610612746
sg127
V32
p2907
sg128
g207
sg129
V00
p2908
sg131
g111
sg133
I201933
ssI201935
(dp2909
g547
VArizona State
p2910
sg549
V220
p2911
sg551
V2017
p2912
sg553
F28.0
sg554
VAUG 26, 1989
p2913
sg556
V6-5
p2914
sg558
VJames Harden
p2915
sg560
I1610612745
sg561
V13
p2916
sg562
g41
sg564
V00
p2917
sg566
g69
sg567
I201935
ssI201936
(dp2918
g135
VMemphis
p2919
sg137
V220
p2920
sg139
V2017
p2921
sg141
F28.0
sg142
VSEP 19, 1989
p2922
sg144
V6-6
p2923
sg146
VTyreke Evans
p2924
sg148
I1610612763
sg149
V12
p2925
sg150
g41
sg151
V00
p2926
sg153
VG-F
p2927
sg154
I201936
ssI201937
(dp2928
g326
VEl Masnou, Spain
p2929
sg328
V190
p2930
sg330
V2017
p2931
sg332
F27.0
sg333
VOCT 21, 1990
p2932
sg335
V6-4
p2933
sg337
VRicky Rubio
p2934
sg339
I1610612762
sg340
g109
sg342
g563
sg344
V00
p2935
sg346
g69
sg347
I201937
ssI201939
(dp2936
g417
VDavidson
p2937
sg419
V190
p2938
sg421
V2017
p2939
sg423
F29.0
sg424
VMAR 14, 1988
p2940
sg426
V6-3
p2941
sg428
VStephen Curry
p2942
sg430
I1610612744
sg431
V30
p2943
sg432
g41
sg433
V00
p2944
sg435
g69
sg436
I201939
ssI201942
(dp2945
g156
VSouthern California
p2946
sg158
V220
p2947
sg160
V2017
p2948
sg162
F28.0
sg163
VAUG 07, 1989
p2949
sg165
V6-7
p2950
sg167
VDeMar DeRozan
p2951
sg169
I1610612761
sg170
V10
p2952
sg172
g41
sg173
V00
p2953
sg175
g69
sg176
I201942
ssI203991
(dp2954
g547
Nsg549
V240
p2955
sg551
V2017
p2956
sg553
F23.0
sg554
VMAY 18, 1994
p2957
sg556
V6-10
p2958
sg558
VClint Capela
p2959
sg560
I1610612745
sg561
V15
p2960
sg562
g109
sg564
V00
p2961
sg566
g47
sg567
I203991
ssI203992
(dp2962
g282
Nsg284
V205
p2963
sg286
V2017
p2964
sg288
F25.0
sg289
VAUG 18, 1992
p2965
sg291
V6-6
p2966
sg293
VBogdan Bogdanovic
p2967
sg295
I1610612758
sg296
g41
sg298
g483
sg299
V00
p2968
sg301
g69
sg302
I203992
ssI203994
(dp2969
g569
Nsg571
V280
p2970
sg573
V2017
p2971
sg575
F23.0
sg576
VAUG 23, 1994
p2972
sg578
V7-0
p2973
sg580
VJusuf Nurkic
p2974
sg582
I1610612757
sg583
V27
p2975
sg584
g109
sg585
V00
p2976
sg587
g47
sg589
I203994
ssI201949
(dp2977
g250
VWake Forest
p2978
sg252
V240
p2979
sg254
V2017
p2980
sg256
F30.0
sg257
VFEB 20, 1987
p2981
sg259
V6-8
p2982
sg261
VJames Johnson
p2983
sg263
I1610612748
sg264
V16
p2984
sg266
g41
sg267
V00
p2985
sg269
g111
sg270
I201949
ssI201950
(dp2986
g1071
VUCLA
p2987
sg1073
V205
p2988
sg1075
V2017
p2989
sg1077
F27.0
sg1078
VJUN 12, 1990
p2990
sg1080
V6-4
p2991
sg1082
VJrue Holiday
p2992
sg1084
I1610612740
sg1085
V11
p2993
sg1087
g41
sg1088
V00
p2994
sg1090
g69
sg1091
I201950
ssI203999
(dp2995
g50
Nsg51
V250
p2996
sg53
V2017
p2997
sg55
F22.0
sg56
VFEB 19, 1995
p2998
sg58
V6-10
p2999
sg60
VNikola Jokic
p3000
sg62
I1610612743
sg63
V15
p3001
sg65
g43
sg66
V00
p3002
sg68
g47
sg70
I203999
ssI201952
(dp3003
g72
VWake Forest
p3004
sg74
V189
p3005
sg76
V2017
p3006
sg78
F29.0
sg79
VJUN 10, 1988
p3007
sg81
V6-2
p3008
sg83
VJeff Teague
p3009
sg85
I1610612750
sg86
g64
sg88
g41
sg89
V00
p3010
sg91
g69
sg92
I201952
ssI204001
(dp3011
g591
Nsg593
V240
p3012
sg595
V2017
p3013
sg597
F22.0
sg598
VAUG 02, 1995
p3014
sg600
V7-3
p3015
sg602
VKristaps Porzingis
p3016
sg604
I1610612752
sg605
g563
sg607
g43
sg608
V00
p3017
sg610
VF-C
p3018
sg611
I204001
ssI1627362
(dp3019
g547
VVirginia Commonwealth
p3020
sg549
V165
p3021
sg551
V2017
p3022
sg553
F24.0
sg554
VDEC 29, 1992
p3023
sg556
V6-2
p3024
sg558
VBriante Weber
p3025
sg560
I1610612745
sg561
g64
sg562
g43
sg564
V00
p3026
sg566
g69
sg567
I1627362
ssI201956
(dp3027
g417
VYavne, Israel
p3028
sg419
V225
p3029
sg421
V2017
p3030
sg423
F29.0
sg424
VJUN 22, 1988
p3031
sg426
V6-9
p3032
sg428
VOmri Casspi
p3033
sg430
I1610612744
sg431
V18
p3034
sg432
g41
sg433
V00
p3035
sg435
g111
sg436
I201956
ssI201959
(dp3036
g72
VSouthern California
p3037
sg74
V235
p3038
sg76
V2017
p3039
sg78
F32.0
sg79
VJUN 24, 1985
p3040
sg81
V6-9
p3041
sg83
VTaj Gibson
p3042
sg85
I1610612750
sg86
V67
p3043
sg88
g41
sg89
V00
p3044
sg91
g111
sg92
I201959
ssI201960
(dp3045
g210
VMissouri
p3046
sg212
V215
p3047
sg214
V2017
p3048
sg216
F31.0
sg217
VJUL 27, 1986
p3049
sg219
V6-8
p3050
sg221
VDeMarre Carroll
p3051
sg223
I1610612751
sg224
g802
sg225
g41
sg226
V00
p3052
sg228
g111
sg229
I201960
ssI201961
(dp3053
g250
VNorth Carolina
p3054
sg252
V200
p3055
sg254
V2017
p3056
sg256
F29.0
sg257
VNOV 29, 1987
p3057
sg259
V6-5
p3058
sg261
VWayne Ellington
p3059
sg263
I1610612748
sg264
g43
sg266
g41
sg267
V00
p3060
sg269
g69
sg270
I201961
ssI201967
(dp3061
g1071
VVillanova
p3062
sg1073
V230
p3063
sg1075
V2017
p3064
sg1077
F30.0
sg1078
VAPR 22, 1987
p3065
sg1080
V6-8
p3066
sg1082
VDante Cunningham
p3067
sg1084
I1610612740
sg1085
V33
p3068
sg1087
g41
sg1088
V00
p3069
sg1090
g111
sg1091
I201967
ssI204020
(dp3070
g250
VFresno State
p3071
sg252
V190
p3072
sg254
V2017
p3073
sg256
F25.0
sg257
VMAY 07, 1992
p3074
sg259
V6-4
p3075
sg261
VTyler Johnson
p3076
sg263
I1610612748
sg264
g41
sg266
g109
sg267
V00
p3077
sg269
g69
sg270
I204020
ssI201973
(dp3078
g326
VKinna, Sweden
p3079
sg328
V231
p3080
sg330
V2017
p3081
sg332
F30.0
sg333
VMAR 02, 1987
p3082
sg335
V6-10
p3083
sg337
VJonas Jerebko
p3084
sg339
I1610612762
sg340
g41
sg342
g207
sg344
V00
p3085
sg346
g111
sg347
I201973
ssI204022
(dp3086
g282
VNotre Dame
p3087
sg284
V274
p3088
sg286
V2017
p3089
sg288
F26.0
sg289
VAPR 12, 1991
p3090
sg291
V6-10
p3091
sg293
VJack Cooley
p3092
sg295
I1610612758
sg296
V45
p3093
sg298
g87
sg299
V00
p3094
sg301
g47
sg302
I204022
ssI201976
(dp3095
g113
VArkansas
p3096
sg115
V185
p3097
sg117
V2017
p3098
sg119
F29.0
sg120
VJUL 12, 1988
p3099
sg122
V6-1
p3100
sg124
VPatrick Beverley
p3101
sg126
I1610612746
sg127
V21
p3102
sg128
g19
sg129
V00
p3103
sg131
g69
sg133
I201976
ssI201980
(dp3104
g178
VNorth Carolina
p3105
sg180
V215
p3106
sg182
V2017
p3107
sg184
F30.0
sg185
VJUN 22, 1987
p3108
sg187
V6-6
p3109
sg189
VDanny Green
p3110
sg191
I1610612759
sg192
V14
p3111
sg194
g41
sg196
V00
p3112
sg198
VG-F
p3113
sg199
I201980
ssI201988
(dp3114
g178
VSaint Mary's (CA)
p3115
sg180
V185
p3116
sg182
V2017
p3117
sg184
F29.0
sg185
VAUG 11, 1988
p3118
sg187
V6-0
p3119
sg189
VPatty Mills
p3120
sg191
I1610612759
sg192
g41
sg194
g41
sg196
V00
p3121
sg198
g69
sg199
I201988
ssI204060
(dp3122
g326
Nsg328
V226
p3123
sg330
V2017
p3124
sg332
F30.0
sg333
VOCT 02, 1987
p3125
sg335
V6-8
p3126
sg337
VJoe Ingles
p3127
sg339
I1610612762
sg340
g43
sg342
g109
sg344
V00
p3128
sg346
g111
sg347
I204060
ssI204066
(dp3129
g687
VBoston U.
p3130
sg689
V205
p3131
sg691
V2017
p3132
sg693
F29.0
sg694
VNOV 06, 1988
p3133
sg696
V6-5
p3134
sg698
VJohn Holland
p3135
sg700
I1610612739
sg701
V10
p3136
sg703
g87
sg704
V00
p3137
sg706
VG-F
p3138
sg707
I204066
ssI203998
(dp3139
g156
Nsg158
V205
p3140
sg160
V2017
p3141
sg162
F22.0
sg163
VSEP 21, 1995
p3142
sg165
V6-9
p3143
sg167
VBruno Caboclo
p3144
sg169
I1610612761
sg170
g19
sg172
g109
sg173
V00
p3145
sg175
g111
sg176
I203998
ssI201954
(dp3146
g371
VUCLA
p3147
sg373
V185
p3148
sg375
V2017
p3149
sg377
F30.0
sg378
VAUG 23, 1987
p3150
sg380
V6-2
p3151
sg382
VDarren Collison
p3152
sg384
I1610612754
sg385
g43
sg387
g41
sg388
V00
p3153
sg390
g69
sg391
I201954
ssI202066
(dp3154
g282
VLouisiana State
p3155
sg284
V195
p3156
sg286
V2017
p3157
sg288
F31.0
sg289
VMAY 08, 1986
p3158
sg291
V6-6
p3159
sg293
VGarrett Temple
p3160
sg295
I1610612758
sg296
V17
p3161
sg298
g207
sg299
V00
p3162
sg301
g69
sg302
I202066
ssI202083
(dp3163
g709
VMarquette
p3164
sg711
V220
p3165
sg713
V2017
p3166
sg715
F31.0
sg716
VOCT 14, 1986
p3167
sg718
V6-5
p3168
sg720
VWesley Matthews
p3169
sg722
I1610612742
sg723
V23
p3170
sg724
g41
sg726
V00
p3171
sg728
VG-F
p3172
sg729
I202083
ssI204028
(dp3173
g547
VKansas
p3174
sg549
V250
p3175
sg551
V2017
p3176
sg553
F25.0
sg554
VNOV 22, 1991
p3177
sg556
V6-9
p3178
sg558
VTarik Black
p3179
sg560
I1610612745
sg561
V28
p3180
sg562
g109
sg564
V00
p3181
sg566
VF-C
p3182
sg567
I204028
ssI202323
(dp3183
g569
VOhio State
p3184
sg571
V220
p3185
sg573
V2017
p3186
sg575
F29.0
sg576
VOCT 27, 1988
p3187
sg578
V6-7
p3188
sg580
VEvan Turner
p3189
sg582
I1610612757
sg583
g87
sg584
g207
sg585
V00
p3190
sg587
VG-F
p3191
sg589
I202323
ssI1627732
(dp3192
g26
VLouisiana State
p3193
sg28
V230
p3194
sg30
V2017
p3195
sg32
F21.0
sg33
VJUL 20, 1996
p3196
sg35
V6-10
p3197
sg37
VBen Simmons
p3198
sg39
I1610612755
sg40
V25
p3199
sg42
g483
sg44
V00
p3200
sg46
VG-F
p3201
sg48
I1627732
ssI1627734
(dp3202
g371
VGonzaga
p3203
sg373
V252
p3204
sg375
V2017
p3205
sg377
F21.0
sg378
VMAY 03, 1996
p3206
sg380
V6-10
p3207
sg382
VDomantas Sabonis
p3208
sg384
I1610612754
sg385
V11
p3209
sg387
g87
sg388
V00
p3210
sg390
VC-F
p3211
sg391
I1627734
ssI1627735
(dp3212
g569
VVanderbilt
p3213
sg571
V202
p3214
sg573
V2017
p3215
sg575
F21.0
sg576
VMAR 29, 1996
p3216
sg578
V6-4
p3217
sg580
VWade Baldwin IV
p3218
sg582
I1610612757
sg583
g43
sg584
g87
sg585
V00
p3219
sg587
g69
sg589
I1627735
ssI202330
(dp3220
g498
VButler
p3221
sg500
V226
p3222
sg502
V2017
p3223
sg504
F27.0
sg505
VMAR 23, 1990
p3224
sg507
V6-8
p3225
sg509
VGordon Hayward
p3226
sg511
I1610612738
sg512
V20
p3227
sg514
g207
sg515
V00
p3228
sg517
g111
sg518
I202330
ssI202331
(dp3229
g466
VFresno State
p3230
sg468
V220
p3231
sg470
V2017
p3232
sg472
F27.0
sg473
VMAY 02, 1990
p3233
sg475
V6-9
p3234
sg477
VPaul George
p3235
sg479
I1610612760
sg480
V13
p3236
sg482
g207
sg484
V00
p3237
sg486
g111
sg487
I202331
ssI202334
(dp3238
g569
VNorth Carolina
p3239
sg571
V245
p3240
sg573
V2017
p3241
sg575
F28.0
sg576
VJUN 05, 1989
p3242
sg578
V6-10
p3243
sg580
VEd Davis
p3244
sg582
I1610612757
sg583
V17
p3245
sg584
g207
sg585
V00
p3246
sg587
VF-C
p3247
sg589
I202334
ssI1627743
(dp3248
g547
VNotre Dame
p3249
sg549
V201
p3250
sg551
V2017
p3251
sg553
F23.0
sg554
VSEP 07, 1994
p3252
sg556
V6-1
p3253
sg558
VDemetrius Jackson
p3254
sg560
I1610612745
sg561
g43
sg562
g87
sg564
V00
p3255
sg566
g69
sg567
I1627743
ssI1627745
(dp3256
g417
VVanderbilt
p3257
sg419
V245
p3258
sg421
V2017
p3259
sg423
F22.0
sg424
VJUN 30, 1995
p3260
sg426
V7-0
p3261
sg428
VDamian Jones
p3262
sg430
I1610612744
sg431
V15
p3263
sg432
g87
sg433
V00
p3264
sg435
g47
sg436
I1627745
ssI1627747
(dp3265
g210
VMichigan
p3266
sg212
V203
p3267
sg214
V2017
p3268
sg216
F23.0
sg217
VAUG 25, 1994
p3269
sg219
V6-7
p3270
sg221
VCaris LeVert
p3271
sg223
I1610612751
sg224
V22
p3272
sg225
g87
sg226
V00
p3273
sg228
VG-F
p3274
sg229
I1627747
ssI202324
(dp3275
g326
VGeorgia Tech
p3276
sg328
V265
p3277
sg330
V2017
p3278
sg332
F26.0
sg333
VJUL 15, 1991
p3279
sg335
V6-10
p3280
sg337
VDerrick Favors
p3281
sg339
I1610612762
sg340
V15
p3282
sg342
g207
sg344
V00
p3283
sg346
VF-C
p3284
sg347
I202324
ssI202325
(dp3285
g113
VSyracuse
p3286
sg115
V215
p3287
sg117
V2017
p3288
sg119
F30.0
sg120
VJUL 11, 1987
p3289
sg122
V6-7
p3290
sg124
VWesley Johnson
p3291
sg126
I1610612746
sg127
V33
p3292
sg128
g207
sg129
V00
p3293
sg131
g111
sg133
I202325
ssI202326
(dp3294
g1071
VKentucky
p3295
sg1073
V270
p3296
sg1075
V2017
p3297
sg1077
F27.0
sg1078
VAUG 13, 1990
p3298
sg1080
V6-11
p3299
sg1082
VDeMarcus Cousins
p3300
sg1084
I1610612740
sg1085
g64
sg1087
g207
sg1088
V00
p3301
sg1090
g47
sg1091
I202326
ssI202327
(dp3302
g326
VBaylor
p3303
sg328
V245
p3304
sg330
V2017
p3305
sg332
F30.0
sg333
VMAY 20, 1987
p3306
sg335
V6-10
p3307
sg337
VEkpe Udoh
p3308
sg339
I1610612762
sg340
V33
p3309
sg342
g19
sg344
V00
p3310
sg346
VC-F
p3311
sg347
I202327
ssI1627736
(dp3312
g50
VFlorida State
p3313
sg51
V196
p3314
sg53
V2017
p3315
sg55
F20.0
sg56
VNOV 26, 1996
p3316
sg58
V6-5
p3317
sg60
VMalik Beasley
p3318
sg62
I1610612743
sg63
V25
p3319
sg65
g87
sg66
V00
p3320
sg68
g69
sg70
I1627736
ssI202329
(dp3321
g569
VWake Forest
p3322
sg571
V220
p3323
sg573
V2017
p3324
sg575
F27.0
sg576
VSEP 21, 1990
p3325
sg578
V6-9
p3326
sg580
VAl-Farouq Aminu
p3327
sg582
I1610612757
sg583
g41
sg584
g207
sg585
V00
p3328
sg587
g111
sg589
I202329
ssI1627738
(dp3329
g135
VMichigan State
p3330
sg137
V237
p3331
sg139
V2017
p3332
sg141
F20.0
sg142
VDEC 02, 1996
p3333
sg144
V6-11
p3334
sg146
VDeyonta Davis
p3335
sg148
I1610612763
sg149
V21
p3336
sg150
g87
sg151
V00
p3337
sg153
VC-F
p3338
sg154
I1627738
ssI1627739
(dp3339
g349
VProvidence
p3340
sg351
V210
p3341
sg353
V2017
p3342
sg355
F23.0
sg356
VMAR 18, 1994
p3343
sg358
V6-4
p3344
sg360
VKris Dunn
p3345
sg362
I1610612741
sg363
V32
p3346
sg365
g87
sg366
V00
p3347
sg368
g69
sg369
I1627739
ssI202332
(dp3348
g72
VKansas
p3349
sg74
V253
p3350
sg76
V2017
p3351
sg78
F29.0
sg79
VOCT 31, 1988
p3352
sg81
V6-11
p3353
sg83
VCole Aldrich
p3354
sg85
I1610612750
sg86
V45
p3355
sg88
g207
sg89
V00
p3356
sg91
g47
sg92
I202332
ssI1627741
(dp3357
g282
VOklahoma
p3358
sg284
V214
p3359
sg286
V2017
p3360
sg288
F23.0
sg289
VDEC 17, 1993
p3361
sg291
V6-4
p3362
sg293
VBuddy Hield
p3363
sg295
I1610612758
sg296
V24
p3364
sg298
g87
sg299
V00
p3365
sg301
g69
sg302
I1627741
ssI1627742
(dp3366
g639
VDuke
p3367
sg641
V190
p3368
sg643
V2017
p3369
sg645
F20.0
sg646
VSEP 02, 1997
p3370
sg648
V6-9
p3371
sg650
VBrandon Ingram
p3372
sg652
I1610612747
sg653
V14
p3373
sg654
g87
sg655
V00
p3374
sg657
VF-G
p3375
sg658
I1627742
ssI202335
(dp3376
g466
VKentucky
p3377
sg468
V230
p3378
sg470
V2017
p3379
sg472
F28.0
sg473
VMAR 14, 1989
p3380
sg475
V6-9
p3381
sg477
VPatrick Patterson
p3382
sg479
I1610612760
sg480
V54
p3383
sg482
g207
sg484
V00
p3384
sg486
g111
sg487
I202335
ssI1627744
(dp3385
g113
VNorth Carolina
p3386
sg115
V230
p3387
sg117
V2017
p3388
sg119
F23.0
sg120
VJUN 27, 1994
p3389
sg122
V6-10
p3390
sg124
VBrice Johnson
p3391
sg126
I1610612746
sg127
V11
p3392
sg128
g87
sg129
V00
p3393
sg131
g111
sg133
I1627744
ssI202337
(dp3394
g891
VNevada
p3395
sg893
V225
p3396
sg895
V2017
p3397
sg897
F28.0
sg898
VJUN 20, 1989
p3398
sg900
V6-9
p3399
sg902
VLuke Babbitt
p3400
sg904
I1610612737
sg905
g41
sg907
g207
sg908
V00
p3401
sg910
g111
sg912
I202337
ssI1627746
(dp3402
g282
VKentucky
p3403
sg284
V225
p3404
sg286
V2017
p3405
sg288
F21.0
sg289
VMAR 18, 1996
p3406
sg291
V6-11
p3407
sg293
VSkal Labissiere
p3408
sg295
I1610612758
sg296
g207
sg298
g87
sg299
V00
p3409
sg301
VF-C
p3410
sg302
I1627746
ssI202339
(dp3411
g304
VKentucky
p3412
sg306
V205
p3413
sg308
V2017
p3414
sg310
F27.0
sg311
VDEC 09, 1989
p3415
sg313
V6-1
p3416
sg315
VEric Bledsoe
p3417
sg317
I1610612749
sg318
g563
sg320
g207
sg321
V00
p3418
sg323
g69
sg324
I202339
ssI1627748
(dp3419
g304
Nsg306
V223
p3420
sg308
V2017
p3421
sg310
F20.0
sg311
VFEB 25, 1997
p3422
sg313
V7-1
p3423
sg315
VThon Maker
p3424
sg317
I1610612749
sg318
g207
sg320
g87
sg321
V00
p3425
sg323
VC-F
p3426
sg324
I1627748
ssI1627749
(dp3427
g178
VWashington
p3428
sg180
V170
p3429
sg182
V2017
p3430
sg184
F21.0
sg185
VSEP 19, 1996
p3431
sg187
V6-5
p3432
sg189
VDejounte Murray
p3433
sg191
I1610612759
sg192
g19
sg194
g87
sg196
V00
p3434
sg198
g69
sg199
I1627749
ssI1627750
(dp3435
g50
VKentucky
p3436
sg51
V207
p3437
sg53
V2017
p3438
sg55
F20.0
sg56
VFEB 23, 1997
p3439
sg58
V6-4
p3440
sg60
VJamal Murray
p3441
sg62
I1610612743
sg63
V27
p3442
sg65
g87
sg66
V00
p3443
sg68
g69
sg70
I1627750
ssI1627751
(dp3444
g156
VUtah
p3445
sg158
V230
p3446
sg160
V2017
p3447
sg162
F22.0
sg163
VOCT 15, 1995
p3448
sg165
V7-0
p3449
sg167
VJakob Poeltl
p3450
sg169
I1610612761
sg170
V42
p3451
sg172
g87
sg173
V00
p3452
sg175
g47
sg176
I1627751
ssI1627752
(dp3453
g891
VBaylor
p3454
sg893
V220
p3455
sg895
V2017
p3456
sg897
F23.0
sg898
VMAR 22, 1994
p3457
sg900
V6-8
p3458
sg902
VTaurean Prince
p3459
sg904
I1610612737
sg905
V12
p3460
sg907
g87
sg908
V00
p3461
sg910
g111
sg912
I1627752
ssI1627753
(dp3462
g547
Nsg549
V210
p3463
sg551
V2017
p3464
sg553
F21.0
sg554
VJAN 16, 1996
p3465
sg556
V7-1
p3466
sg558
VQi Qi
p3467
sg560
I1610612745
sg561
g802
sg562
g483
sg564
V00
p3468
sg566
VF-C
p3469
sg567
I1627753
ssI202347
(dp3470
g349
VWashington
p3471
sg351
V225
p3472
sg353
V2017
p3473
sg355
F29.0
sg356
VMAR 10, 1988
p3474
sg358
V6-7
p3475
sg360
VQuincy Pondexter
p3476
sg362
I1610612741
sg363
V20
p3477
sg365
g19
sg366
V00
p3478
sg368
g69
sg369
I202347
ssI1627756
(dp3479
g349
VMichigan State
p3480
sg351
V214
p3481
sg353
V2017
p3482
sg355
F23.0
sg356
VNOV 16, 1993
p3483
sg358
V6-6
p3484
sg360
VDenzel Valentine
p3485
sg362
I1610612741
sg363
V45
p3486
sg365
g87
sg366
V00
p3487
sg368
g111
sg369
I1627756
ssI1627758
(dp3488
g591
VWichita State
p3489
sg593
V220
p3490
sg595
V2017
p3491
sg597
F24.0
sg598
VMAR 30, 1993
p3492
sg600
V6-4
p3493
sg602
VRon Baker
p3494
sg604
I1610612752
sg605
V31
p3495
sg607
g87
sg608
V00
p3496
sg610
g69
sg611
I1627758
ssI1627759
(dp3497
g498
VCalifornia
p3498
sg500
V225
p3499
sg502
V2017
p3500
sg504
F21.0
sg505
VOCT 24, 1996
p3501
sg507
V6-7
p3502
sg509
VJaylen Brown
p3503
sg511
I1610612738
sg512
g207
sg514
g87
sg515
V00
p3504
sg517
VG-F
p3505
sg518
I1627759
ssI202344
(dp3506
g210
VClemson
p3507
sg212
V228
p3508
sg214
V2017
p3509
sg216
F29.0
sg217
VNOV 25, 1987
p3510
sg219
V6-8
p3511
sg221
VTrevor Booker
p3512
sg223
I1610612751
sg224
V35
p3513
sg225
g207
sg226
V00
p3514
sg228
g111
sg229
I202344
ssI1627762
(dp3515
g304
VWeber State
p3516
sg306
V235
p3517
sg308
V2017
p3518
sg310
F23.0
sg311
VJAN 28, 1994
p3519
sg313
V6-9
p3520
sg315
VJoel Bolomboy
p3521
sg317
I1610612749
sg318
V24
p3522
sg320
g87
sg321
V00
p3523
sg323
VF-C
p3524
sg324
I1627762
ssI202355
(dp3525
g250
VMarshall
p3526
sg252
V265
p3527
sg254
V2017
p3528
sg256
F28.0
sg257
VJUN 13, 1989
p3529
sg259
V7-0
p3530
sg261
VHassan Whiteside
p3531
sg263
I1610612748
sg264
V21
p3532
sg266
g19
sg267
V00
p3533
sg269
g47
sg270
I202355
ssI202357
(dp3534
g72
Nsg74
V230
p3535
sg76
V2017
p3536
sg78
F29.0
sg79
VMAY 09, 1988
p3537
sg81
V6-10
p3538
sg83
VNemanja Bjelica
p3539
sg85
I1610612750
sg86
g41
sg88
g43
sg89
V00
p3540
sg91
g111
sg92
I202357
ssI1627767
(dp3541
g1071
VKansas
p3542
sg1073
V220
p3543
sg1075
V2017
p3544
sg1077
F21.0
sg1078
VSEP 13, 1996
p3545
sg1080
V6-9
p3546
sg1082
VCheick Diallo
p3547
sg1084
I1610612740
sg1085
V13
p3548
sg1087
g87
sg1088
V00
p3549
sg1090
g111
sg1091
I1627767
ssI1627770
(dp3550
g349
VOakland
p3551
sg351
V176
p3552
sg353
V2017
p3553
sg355
F22.0
sg356
VMAR 29, 1995
p3554
sg358
V5-9
p3555
sg360
VKay Felder
p3556
sg362
I1610612741
sg363
g109
sg365
g87
sg366
V00
p3557
sg368
g69
sg369
I1627770
ssI1627772
(dp3558
g466
VConnecticut
p3559
sg468
V195
p3560
sg470
V2017
p3561
sg472
F22.0
sg473
VAUG 08, 1995
p3562
sg475
V6-7
p3563
sg477
VDaniel Hamilton
p3564
sg479
I1610612760
sg480
V25
p3565
sg482
g483
sg484
V00
p3566
sg486
g69
sg487
I1627772
ssI1627773
(dp3567
g250
VPurdue
p3568
sg252
V260
p3569
sg254
V2017
p3570
sg256
F25.0
sg257
VAUG 27, 1992
p3571
sg259
V7-0
p3572
sg261
VAJ Hammons
p3573
sg263
I1610612748
sg264
g544
sg266
g87
sg267
V00
p3574
sg269
g47
sg270
I1627773
ssI1627774
(dp3575
g569
VMaryland
p3576
sg571
V210
p3577
sg573
V2017
p3578
sg575
F23.0
sg576
VMAR 07, 1994
p3579
sg578
V6-9
p3580
sg580
VJake Layman
p3581
sg582
I1610612757
sg583
V10
p3582
sg584
g87
sg585
V00
p3583
sg587
g111
sg589
I1627774
ssI1627775
(dp3584
g417
VNevada-Las Vegas
p3585
sg419
V185
p3586
sg421
V2017
p3587
sg423
F22.0
sg424
VOCT 25, 1995
p3588
sg426
V6-7
p3589
sg428
VPatrick McCaw
p3590
sg430
I1610612744
sg431
g64
sg432
g87
sg433
V00
p3591
sg435
g69
sg436
I1627775
ssI200755
(dp3592
g26
VDuke
p3593
sg28
V200
p3594
sg30
V2017
p3595
sg32
F33.0
sg33
VJUN 24, 1984
p3596
sg35
V6-4
p3597
sg37
VJJ Redick
p3598
sg39
I1610612755
sg40
V17
p3599
sg42
V11
p3600
sg44
V00
p3601
sg46
VF-G
p3602
sg48
I200755
ssI1627778
(dp3603
g547
VLouisville
p3604
sg549
V245
p3605
sg551
V2017
p3606
sg553
F21.0
sg554
VNOV 01, 1996
p3607
sg556
V6-10
p3608
sg558
VChinanu Onuaku
p3609
sg560
I1610612745
sg561
V21
p3610
sg562
g87
sg564
V00
p3611
sg566
g47
sg567
I1627778
ssI1627780
(dp3612
g304
VOregon State
p3613
sg306
V190
p3614
sg308
V2017
p3615
sg310
F24.0
sg311
VDEC 01, 1992
p3616
sg313
V6-3
p3617
sg315
VGary Payton II
p3618
sg317
I1610612749
sg318
g64
sg320
g87
sg321
V00
p3619
sg323
g69
sg324
I1627780
ssI1627781
(dp3620
g282
VSyracuse
p3621
sg284
V205
p3622
sg286
V2017
p3623
sg288
F21.0
sg289
VJAN 05, 1996
p3624
sg291
V6-6
p3625
sg293
VMalachi Richardson
p3626
sg295
I1610612758
sg296
V23
p3627
sg298
g87
sg299
V00
p3628
sg301
g69
sg302
I1627781
ssI1627782
(dp3629
g135
VKansas
p3630
sg137
V230
p3631
sg139
V2017
p3632
sg141
F23.0
sg142
VSEP 30, 1994
p3633
sg144
V6-5
p3634
sg146
VWayne Selden
p3635
sg148
I1610612763
sg149
g207
sg150
g87
sg151
V00
p3636
sg153
VG-F
p3637
sg154
I1627782
ssI1627783
(dp3638
g156
VNew Mexico State
p3639
sg158
V230
p3640
sg160
V2017
p3641
sg162
F23.0
sg163
VAPR 02, 1994
p3642
sg165
V6-9
p3643
sg167
VPascal Siakam
p3644
sg169
I1610612761
sg170
V43
p3645
sg172
g87
sg173
V00
p3646
sg175
g111
sg176
I1627783
ssI1627785
(dp3647
g210
VSeton Hall
p3648
sg212
V213
p3649
sg214
V2017
p3650
sg216
F22.0
sg217
VMAR 08, 1995
p3651
sg219
V6-4
p3652
sg221
VIsaiah Whitehead
p3653
sg223
I1610612751
sg224
V15
p3654
sg225
g87
sg226
V00
p3655
sg228
g69
sg229
I1627785
ssI1627786
(dp3656
g547
VIndiana
p3657
sg549
V218
p3658
sg551
V2017
p3659
sg553
F22.0
sg554
VDEC 30, 1994
p3660
sg556
V6-7
p3661
sg558
VTroy Williams
p3662
sg560
I1610612745
sg561
g19
sg562
g87
sg564
V00
p3663
sg566
g111
sg567
I1627786
ssI1627788
(dp3664
g26
Nsg28
V190
p3665
sg30
V2017
p3666
sg32
F20.0
sg33
VJUL 24, 1997
p3667
sg35
V6-7
p3668
sg37
VFurkan Korkmaz
p3669
sg39
I1610612755
sg40
V30
p3670
sg42
g483
sg44
V00
p3671
sg46
VG-F
p3672
sg48
I1627788
ssI1627789
(dp3673
g26
Nsg28
V200
p3674
sg30
V2017
p3675
sg32
F22.0
sg33
VMAY 09, 1995
p3676
sg35
V6-6
p3677
sg37
VTimothe Luwawu-Cabarrot
p3678
sg39
I1610612755
sg40
g207
sg42
g87
sg44
V00
p3679
sg46
VG-F
p3680
sg48
I1627789
ssI1627790
(dp3681
g687
Nsg689
V250
p3682
sg691
V2017
p3683
sg693
F20.0
sg694
VJAN 04, 1997
p3684
sg696
V6-11
p3685
sg698
VAnte Zizic
p3686
sg700
I1610612739
sg701
V41
p3687
sg703
g483
sg704
V00
p3688
sg706
VF-C
p3689
sg707
I1627790
ssI202389
(dp3690
g210
VSt. Petersburg, Russia
p3691
sg212
V275
p3692
sg214
V2017
p3693
sg216
F31.0
sg217
VJUL 16, 1986
p3694
sg219
V7-1
p3695
sg221
VTimofey Mozgov
p3696
sg223
I1610612751
sg224
V20
p3697
sg225
g207
sg226
V00
p3698
sg228
g47
sg229
I202389
ssI202391
(dp3699
g210
VHarvard
p3700
sg212
V200
p3701
sg214
V2017
p3702
sg216
F29.0
sg217
VAUG 23, 1988
p3703
sg219
V6-3
p3704
sg221
VJeremy Lin
p3705
sg223
I1610612751
sg224
g207
sg225
g207
sg226
V00
p3706
sg228
g69
sg229
I202391
ssI1627812
(dp3707
g709
VIndiana
p3708
sg711
V180
p3709
sg713
V2017
p3710
sg715
F24.0
sg716
VMAY 09, 1993
p3711
sg718
V6-0
p3712
sg720
VYogi Ferrell
p3713
sg722
I1610612742
sg723
V11
p3714
sg724
g87
sg726
V00
p3715
sg728
g69
sg729
I1627812
ssI1627761
(dp3716
g891
VSaint Joseph's
p3717
sg893
V210
p3718
sg895
V2017
p3719
sg897
F23.0
sg898
VJUL 04, 1994
p3720
sg900
V6-6
p3721
sg902
VDeAndre' Bembry
p3722
sg904
I1610612737
sg905
V95
p3723
sg907
g87
sg908
V00
p3724
sg910
VF-G
p3725
sg912
I1627761
ssI204456
(dp3726
g26
VArizona
p3727
sg28
V190
p3728
sg30
V2017
p3729
sg32
F25.0
sg33
VMAR 25, 1992
p3730
sg35
V6-2
p3731
sg37
VT.J. McConnell
p3732
sg39
I1610612755
sg40
V12
p3733
sg42
g43
sg44
V00
p3734
sg46
g69
sg48
I204456
ssI1627819
(dp3735
g891
VTexas
p3736
sg893
V170
p3737
sg895
V2017
p3738
sg897
F23.0
sg898
VJUL 11, 1994
p3739
sg900
V6-3
p3740
sg902
VIsaiah Taylor
p3741
sg904
I1610612737
sg905
V22
p3742
sg907
g87
sg908
V00
p3743
sg910
g69
sg912
I1627819
ssI1627823
(dp3744
g50
Nsg51
V230
p3745
sg53
V2017
p3746
sg55
F22.0
sg56
VSEP 28, 1995
p3747
sg58
V6-9
p3748
sg60
VJuan Hernangomez
p3749
sg62
I1610612743
sg63
V41
p3750
sg65
g87
sg66
V00
p3751
sg68
g111
sg70
I1627823
ssI1627824
(dp3752
g498
Nsg500
V260
p3753
sg502
V2017
p3754
sg504
F21.0
sg505
VDEC 17, 1995
p3755
sg507
V6-8
p3756
sg509
VGuerschon Yabusele
p3757
sg511
I1610612738
sg512
V30
p3758
sg514
g483
sg515
V00
p3759
sg517
g111
sg518
I1627824
ssI1713
(dp3760
g282
VNorth Carolina
p3761
sg284
V220
p3762
sg286
V2017
p3763
sg288
F40.0
sg289
VJAN 26, 1977
p3764
sg291
V6-6
p3765
sg293
VVince Carter
p3766
sg295
I1610612758
sg296
V15
p3767
sg298
V19
p3768
sg299
V00
p3769
sg301
VG-F
p3770
sg302
I1713
ssI1627826
(dp3771
g639
Nsg641
V240
p3772
sg643
V2017
p3773
sg645
F20.0
sg646
VMAR 18, 1997
p3774
sg648
V7-1
p3775
sg650
VIvica Zubac
p3776
sg652
I1610612747
sg653
V40
p3777
sg654
g87
sg655
V00
p3778
sg657
g47
sg658
I1627826
ssI1627827
(dp3779
g709
VFlorida
p3780
sg711
V220
p3781
sg713
V2017
p3782
sg715
F24.0
sg716
VMAY 04, 1993
p3783
sg718
V6-8
p3784
sg720
VDorian Finney-Smith
p3785
sg722
I1610612742
sg723
V10
p3786
sg724
g87
sg726
V00
p3787
sg728
g111
sg729
I1627827
ssI1717
(dp3788
g709
VWurzburg, Germany
p3789
sg711
V245
p3790
sg713
V2017
p3791
sg715
F39.0
sg716
VJUN 19, 1978
p3792
sg718
V7-0
p3793
sg720
VDirk Nowitzki
p3794
sg722
I1610612742
sg723
V41
p3795
sg724
V19
p3796
sg726
V00
p3797
sg728
VF-C
p3798
sg729
I1717
ssI1627832
(dp3799
g156
VWichita State
p3800
sg158
V195
p3801
sg160
V2017
p3802
sg162
F23.0
sg163
VFEB 25, 1994
p3803
sg165
V6-0
p3804
sg167
VFred VanVleet
p3805
sg169
I1610612761
sg170
V23
p3806
sg172
g87
sg173
V00
p3807
sg175
g69
sg176
I1627832
ssI1627834
(dp3808
g282
Nsg284
V240
p3809
sg286
V2017
p3810
sg288
F20.0
sg289
VJUL 03, 1997
p3811
sg291
V7-1
p3812
sg293
VGeorgios Papagiannis
p3813
sg295
I1610612758
sg296
V13
p3814
sg298
g87
sg299
V00
p3815
sg301
g47
sg302
I1627834
ssI1627835
(dp3816
g349
Nsg351
V226
p3817
sg353
V2017
p3818
sg355
F23.0
sg356
VFEB 18, 1994
p3819
sg358
V6-8
p3820
sg360
VPaul Zipser
p3821
sg362
I1610612741
sg363
V16
p3822
sg365
g87
sg366
V00
p3823
sg368
g111
sg369
I1627835
ssI1627846
(dp3824
g498
VIowa State
p3825
sg500
V230
p3826
sg502
V2017
p3827
sg504
F24.0
sg505
VSEP 25, 1993
p3828
sg507
V6-6
p3829
sg509
VAbdel Nader
p3830
sg511
I1610612738
sg512
V28
p3831
sg514
g483
sg515
V00
p3832
sg517
g111
sg518
I1627846
ssI1627851
(dp3833
g591
Nsg593
V215
p3834
sg595
V2017
p3835
sg597
F28.0
sg598
VOCT 19, 1989
p3836
sg600
V6-9
p3837
sg602
VMindaugas Kuzminskas
p3838
sg604
I1610612752
sg605
V91
p3839
sg607
g87
sg608
V00
p3840
sg610
g111
sg611
I1627851
ssI1627852
(dp3841
g891
Nsg893
V195
p3842
sg895
V2017
p3843
sg897
F24.0
sg898
VMAR 02, 1993
p3844
sg900
V6-8
p3845
sg902
VNicolas Brussino
p3846
sg904
I1610612737
sg905
V16
p3847
sg907
g87
sg908
V00
p3848
sg910
g111
sg912
I1627852
ssI1627853
(dp3849
g349
VVillanova
p3850
sg351
V195
p3851
sg353
V2017
p3852
sg355
F23.0
sg356
VMAR 26, 1994
p3853
sg358
V6-3
p3854
sg360
VRyan Arcidiacono
p3855
sg362
I1610612741
sg363
V15
p3856
sg365
g483
sg366
V00
p3857
sg368
g69
sg369
I1627853
ssI1627854
(dp3858
g178
VMichigan State
p3859
sg180
V190
p3860
sg182
V2017
p3861
sg184
F24.0
sg185
VJUL 23, 1993
p3862
sg187
V6-3
p3863
sg189
VBryn Forbes
p3864
sg191
I1610612759
sg192
V11
p3865
sg194
g87
sg196
V00
p3866
sg198
g69
sg199
I1627854
ssI1627855
(dp3867
g250
VFlorida State
p3868
sg252
V215
p3869
sg254
V2017
p3870
sg256
F25.0
sg257
VAUG 13, 1992
p3871
sg259
V6-8
p3872
sg261
VOkaro White
p3873
sg263
I1610612748
sg264
V15
p3874
sg266
g87
sg267
V00
p3875
sg269
g111
sg270
I1627855
ssI1627856
(dp3876
g178
VMichigan State
p3877
sg180
V240
p3878
sg182
V2017
p3879
sg184
F24.0
sg185
VAUG 05, 1993
p3880
sg187
V6-10
p3881
sg189
VMatt Costello
p3882
sg191
I1610612759
sg192
V10
p3883
sg194
g483
sg196
V00
p3884
sg198
VF-C
p3885
sg199
I1627856
ssI202362
(dp3886
g371
VCincinnati
p3887
sg373
V230
p3888
sg375
V2017
p3889
sg377
F27.0
sg378
VSEP 05, 1990
p3890
sg380
V6-6
p3891
sg382
VLance Stephenson
p3892
sg384
I1610612754
sg385
g87
sg387
g207
sg388
V00
p3893
sg390
g69
sg391
I202362
ssI1627875
(dp3894
g72
VGeorgia Tech
p3895
sg74
V226
p3896
sg76
V2017
p3897
sg78
F23.0
sg79
VMAR 28, 1994
p3898
sg81
V6-5
p3899
sg83
VMarcus Georges-Hunt
p3900
sg85
I1610612750
sg86
V13
p3901
sg88
g87
sg89
V00
p3902
sg91
g69
sg92
I1627875
ssI1627883
(dp3903
g1071
VTexas A&M
p3904
sg1073
V220
p3905
sg1075
V2017
p3906
sg1077
F24.0
sg1078
VMAY 27, 1993
p3907
sg1080
V6-7
p3908
sg1082
VJalen Jones
p3909
sg1084
I1610612740
sg1085
V12
p3910
sg1087
g483
sg1088
V00
p3911
sg1090
g111
sg1091
I1627883
ssI202498
(dp3912
g591
VDuke
p3913
sg593
V235
p3914
sg595
V2017
p3915
sg597
F29.0
sg598
VAPR 24, 1988
p3916
sg600
V6-8
p3917
sg602
VLance Thomas
p3918
sg604
I1610612752
sg605
V42
p3919
sg607
g563
sg608
V00
p3920
sg610
g111
sg611
I202498
ssI1627936
(dp3921
g639
VTexas A&M
p3922
sg641
V186
p3923
sg643
V2017
p3924
sg645
F23.0
sg646
VFEB 28, 1994
p3925
sg648
V6-5
p3926
sg650
VAlex Caruso
p3927
sg652
I1610612747
sg653
g544
sg654
g483
sg655
V00
p3928
sg657
g69
sg658
I1627936
ssI1891
(dp3929
g304
VArizona
p3930
sg306
V185
p3931
sg308
V2017
p3932
sg310
F40.0
sg311
VSEP 15, 1977
p3933
sg313
V6-2
p3934
sg315
VJason Terry
p3935
sg317
I1610612749
sg318
g109
sg320
V18
p3936
sg321
V00
p3937
sg323
g69
sg324
I1891
ssI1628021
(dp3938
g349
VCal Poly-S.L.O.
p3939
sg351
V209
p3940
sg353
V2017
p3941
sg355
F24.0
sg356
VJAN 14, 1993
p3942
sg358
V6-4
p3943
sg360
VDavid Nwaba
p3944
sg362
I1610612741
sg363
V11
p3945
sg365
g87
sg366
V00
p3946
sg368
g69
sg369
I1628021
ssI1628035
(dp3947
g156
VWisc.-Green Bay
p3948
sg158
V215
p3949
sg160
V2017
p3950
sg162
F25.0
sg163
VSEP 17, 1992
p3951
sg165
V6-8
p3952
sg167
VAlfonzo McKinnie
p3953
sg169
I1610612761
sg170
V34
p3954
sg172
g483
sg173
V00
p3955
sg175
g111
sg176
I1628035
ssI1938
(dp3956
g178
VBahia Blanca, Argentina
p3957
sg180
V205
p3958
sg182
V2017
p3959
sg184
F40.0
sg185
VJUL 28, 1977
p3960
sg187
V6-6
p3961
sg189
VManu Ginobili
p3962
sg191
I1610612759
sg192
V20
p3963
sg194
V15
p3964
sg196
V00
p3965
sg198
g69
sg199
I1938
ssI203084
(dp3966
g709
VNorth Carolina
p3967
sg711
V225
p3968
sg713
V2017
p3969
sg715
F25.0
sg716
VMAY 30, 1992
p3970
sg718
V6-8
p3971
sg720
VHarrison Barnes
p3972
sg722
I1610612742
sg723
V40
p3973
sg724
g19
sg726
V00
p3974
sg728
g111
sg729
I203084
ssI202681
(dp3975
g498
VDuke
p3976
sg500
V193
p3977
sg502
V2017
p3978
sg504
F25.0
sg505
VMAR 23, 1992
p3979
sg507
V6-3
p3980
sg509
VKyrie Irving
p3981
sg511
I1610612738
sg512
V11
p3982
sg514
g563
sg515
V00
p3983
sg517
g69
sg518
I202681
ssI202683
(dp3984
g591
VKentucky
p3985
sg593
V245
p3986
sg595
V2017
p3987
sg597
F25.0
sg598
VMAY 20, 1992
p3988
sg600
V6-11
p3989
sg602
VEnes Kanter
p3990
sg604
I1610612752
sg605
V00
p3991
sg607
g563
sg608
V00
p3992
sg610
g47
sg611
I202683
ssI202684
(dp3993
g687
VTexas
p3994
sg689
V238
p3995
sg691
V2017
p3996
sg693
F26.0
sg694
VMAR 13, 1991
p3997
sg696
V6-9
p3998
sg698
VTristan Thompson
p3999
sg700
I1610612739
sg701
V13
p4000
sg703
g563
sg704
V00
p4001
sg706
VC-F
p4002
sg707
I202684
ssI202685
(dp4003
g156
VUtena, Lithuania
p4004
sg158
V255
p4005
sg160
V2017
p4006
sg162
F25.0
sg163
VMAY 06, 1992
p4007
sg165
V7-0
p4008
sg167
VJonas Valanciunas
p4009
sg169
I1610612761
sg170
V17
p4010
sg172
g19
sg173
V00
p4011
sg175
g47
sg176
I202685
ssI202687
(dp4012
g2
VLubumbashi, DR Congo
p4013
sg4
V255
p4014
sg6
V2017
p4015
sg8
F25.0
sg9
VAUG 28, 1992
p4016
sg11
V6-9
p4017
sg13
VBismack Biyombo
p4018
sg15
I1610612753
sg16
V11
p4019
sg18
g563
sg20
V00
p4020
sg22
g47
sg24
I202687
ssI202691
(dp4021
g417
VWashington State
p4022
sg419
V215
p4023
sg421
V2017
p4024
sg423
F27.0
sg424
VFEB 08, 1990
p4025
sg426
V6-7
p4026
sg428
VKlay Thompson
p4027
sg430
I1610612744
sg431
V11
p4028
sg432
g563
sg433
V00
p4029
sg435
g69
sg436
I202691
ssI202692
(dp4030
g326
VColorado
p4031
sg328
V214
p4032
sg330
V2017
p4033
sg332
F26.0
sg333
VJUL 20, 1991
p4034
sg335
V6-6
p4035
sg337
VAlec Burks
p4036
sg339
I1610612762
sg340
V10
p4037
sg342
g563
sg344
V00
p4038
sg346
g69
sg347
I202692
ssI202694
(dp4039
g498
VKansas
p4040
sg500
V235
p4041
sg502
V2017
p4042
sg504
F28.0
sg505
VSEP 02, 1989
p4043
sg507
V6-9
p4044
sg509
VMarcus Morris
p4045
sg511
I1610612738
sg512
V13
p4046
sg514
g563
sg515
V00
p4047
sg517
g111
sg518
I202694
ssI202695
(dp4048
g178
VSan Diego State
p4049
sg180
V230
p4050
sg182
V2017
p4051
sg184
F26.0
sg185
VJUN 29, 1991
p4052
sg187
V6-7
p4053
sg189
VKawhi Leonard
p4054
sg191
I1610612759
sg192
g43
sg194
g563
sg196
V00
p4055
sg198
g111
sg199
I202695
ssI202696
(dp4056
g2
VSouthern California
p4057
sg4
V260
p4058
sg6
V2017
p4059
sg8
F27.0
sg9
VOCT 24, 1990
p4060
sg11
V7-0
p4061
sg13
VNikola Vucevic
p4062
sg15
I1610612753
sg16
g802
sg18
g563
sg20
V00
p4063
sg22
g47
sg24
I202696
ssI202697
(dp4064
g687
VGeorgia Tech
p4065
sg689
V220
p4066
sg691
V2017
p4067
sg693
F27.0
sg694
VJUN 26, 1990
p4068
sg696
V6-5
p4069
sg698
VIman Shumpert
p4070
sg700
I1610612739
sg701
g544
sg703
g563
sg704
V00
p4071
sg706
g69
sg707
I202697
ssI202702
(dp4072
g50
VMorehead State
p4073
sg51
V228
p4074
sg53
V2017
p4075
sg55
F27.0
sg56
VNOV 19, 1989
p4076
sg58
V6-8
p4077
sg60
VKenneth Faried
p4078
sg62
I1610612743
sg63
V35
p4079
sg65
g563
sg66
V00
p4080
sg68
g111
sg70
I202702
ssI202703
(dp4081
g349
Nsg351
V238
p4082
sg353
V2017
p4083
sg355
F26.0
sg356
VFEB 11, 1991
p4084
sg358
V6-10
p4085
sg360
VNikola Mirotic
p4086
sg362
I1610612741
sg363
V44
p4087
sg365
g109
sg366
V00
p4088
sg368
g111
sg369
I202703
ssI202709
(dp4089
g371
VTexas
p4090
sg373
V190
p4091
sg375
V2017
p4092
sg377
F26.0
sg378
VAUG 20, 1991
p4093
sg380
V6-3
p4094
sg382
VCory Joseph
p4095
sg384
I1610612754
sg385
g563
sg387
g563
sg388
V00
p4096
sg390
g69
sg391
I202709
ssI202710
(dp4097
g72
VMarquette
p4098
sg74
V236
p4099
sg76
V2017
p4100
sg78
F28.0
sg79
VSEP 14, 1989
p4101
sg81
V6-8
p4102
sg83
VJimmy Butler
p4103
sg85
I1610612750
sg86
V23
p4104
sg88
g563
sg89
V00
p4105
sg91
g69
sg92
I202710
ssI202711
(dp4106
g371
Nsg373
V230
p4107
sg375
V2017
p4108
sg377
F28.0
sg378
VAPR 18, 1989
p4109
sg380
V6-8
p4110
sg382
VBojan Bogdanovic
p4111
sg384
I1610612754
sg385
V44
p4112
sg387
g109
sg388
V00
p4113
sg390
g111
sg391
I202711
ssI202713
(dp4114
g466
VDuke
p4115
sg468
V228
p4116
sg470
V2017
p4117
sg472
F29.0
sg473
VMAY 04, 1988
p4118
sg475
V6-8
p4119
sg477
VKyle Singler
p4120
sg479
I1610612760
sg480
V15
p4121
sg482
g19
sg484
V00
p4122
sg486
g111
sg487
I202713
ssI202714
(dp4123
g2
VButler
p4124
sg4
V203
p4125
sg6
V2017
p4126
sg8
F27.0
sg9
VAPR 22, 1990
p4127
sg11
V6-3
p4128
sg13
VShelvin Mack
p4129
sg15
I1610612753
sg16
g207
sg18
g563
sg20
V00
p4130
sg22
g69
sg24
I202714
ssI202718
(dp4131
g135
VFlorida
p4132
sg137
V230
p4133
sg139
V2017
p4134
sg141
F29.0
sg142
VOCT 25, 1988
p4135
sg144
V6-10
p4136
sg146
VChandler Parsons
p4137
sg148
I1610612763
sg149
V25
p4138
sg150
g563
sg151
V00
p4139
sg153
g111
sg154
I202718
ssI202722
(dp4140
g178
Nsg180
V210
p4141
sg182
V2017
p4142
sg184
F24.0
sg185
VNOV 12, 1992
p4143
sg187
V6-10
p4144
sg189
VDavis Bertans
p4145
sg191
I1610612759
sg192
V42
p4146
sg194
g87
sg196
V00
p4147
sg198
g111
sg199
I202722
ssI202732
(dp4148
g304
VKentucky
p4149
sg306
V209
p4150
sg308
V2017
p4151
sg310
F29.0
sg311
VMAR 31, 1988
p4152
sg313
V6-6
p4153
sg315
VDeAndre Liggins
p4154
sg317
I1610612749
sg318
V25
p4155
sg320
g544
sg321
V00
p4156
sg323
g69
sg324
I202732
ssI202734
(dp4157
g1071
VPurdue
p4158
sg1073
V191
p4159
sg1075
V2017
p4160
sg1077
F28.0
sg1078
VFEB 25, 1989
p4161
sg1080
V6-4
p4162
sg1082
VE'Twaun Moore
p4163
sg1084
I1610612740
sg1085
V55
p4164
sg1087
g563
sg1088
V00
p4165
sg1090
g69
sg1091
I202734
ssI1627816
(dp4166
g371
VKentucky
p4167
sg373
V235
p4168
sg375
V2017
p4169
sg377
F24.0
sg378
VSEP 06, 1993
p4170
sg380
V6-9
p4171
sg382
VAlex Poythress
p4172
sg384
I1610612754
sg385
g64
sg387
g87
sg388
V00
p4173
sg390
g111
sg391
I1627816
ssI202738
(dp4174
g687
VWashington
p4175
sg689
V185
p4176
sg691
V2017
p4177
sg693
F28.0
sg694
VFEB 07, 1989
p4178
sg696
V5-9
p4179
sg698
VIsaiah Thomas
p4180
sg700
I1610612739
sg701
g109
sg703
g563
sg704
V00
p4181
sg706
g69
sg707
I202738
ssI2037
(dp4182
g72
VMichigan
p4183
sg74
V185
p4184
sg76
V2017
p4185
sg78
F37.0
sg79
VMAR 20, 1980
p4186
sg81
V6-5
p4187
sg83
VJamal Crawford
p4188
sg85
I1610612750
sg86
V11
p4189
sg88
V17
p4190
sg89
V00
p4191
sg91
g69
sg92
I2037
ss.